

Microchip MPLAB XC8 Assembler V2.41 build 20230208172133 
                                                                                               Thu Oct 05 17:58:44 2023

Microchip MPLAB XC8 C Compiler v2.41 (Free license) build 20230208172133 Og1 
     1                           	processor	18F4620
     2                           	fnconf	rparam,??,?,0
     3                           	pagewidth 120
     4                           	opt	flic
     5                           	psect	idataCOMRAM,global,class=CODE,delta=1,noexec
     6                           	psect	idataBANK0,global,class=CODE,delta=1,noexec
     7                           	psect	smallconst,global,reloc=2,class=SMALLCONST,delta=1,noexec
     8                           	psect	cinit,global,reloc=2,class=CODE,delta=1
     9                           	psect	bssCOMRAM,global,class=COMRAM,space=1,delta=1,lowdata,noexec
    10                           	psect	dataCOMRAM,global,class=COMRAM,space=1,delta=1,lowdata,noexec
    11                           	psect	bssBANK0,global,class=BANK0,space=1,delta=1,lowdata,noexec
    12                           	psect	dataBANK0,global,class=BANK0,space=1,delta=1,lowdata,noexec
    13                           	psect	cstackBANK1,global,class=BANK1,space=1,delta=1,lowdata,noexec
    14                           	psect	cstackBANK0,global,class=BANK0,space=1,delta=1,lowdata,noexec
    15                           	psect	cstackCOMRAM,global,class=COMRAM,space=1,delta=1,lowdata,noexec
    16                           	psect	text0,global,reloc=2,class=CODE,delta=1
    17                           	psect	text1,global,reloc=2,class=CODE,delta=1
    18                           	psect	text2,global,reloc=2,class=CODE,delta=1
    19                           	psect	text3,global,reloc=2,class=CODE,delta=1
    20                           	psect	text4,global,reloc=2,class=CODE,delta=1
    21                           	psect	text5,global,reloc=2,class=CODE,delta=1
    22                           	psect	text6,global,reloc=2,class=CODE,delta=1
    23                           	psect	text7,global,reloc=2,class=CODE,delta=1
    24                           	psect	text8,global,reloc=2,class=CODE,delta=1
    25                           	psect	text9,global,reloc=2,class=CODE,delta=1
    26                           	psect	text10,global,reloc=2,class=CODE,delta=1
    27                           	psect	text11,global,reloc=2,class=CODE,delta=1,inline
    28                           	psect	text12,global,reloc=2,class=CODE,delta=1,inline
    29                           	psect	text13,global,reloc=2,class=CODE,delta=1,inline
    30                           	psect	text14,global,reloc=2,class=CODE,delta=1
    31                           	psect	intcodelo,global,reloc=2,class=CODE,delta=1
    32                           	psect	text16,global,reloc=2,class=CODE,delta=1
    33                           	psect	text17,global,reloc=2,class=CODE,delta=1
    34                           	psect	text18,global,reloc=2,class=CODE,delta=1
    35                           	psect	text19,global,reloc=2,class=CODE,delta=1
    36                           	psect	text20,global,reloc=2,class=CODE,delta=1
    37                           	psect	text21,global,reloc=2,class=CODE,delta=1
    38                           	psect	text22,global,reloc=2,class=CODE,delta=1
    39                           	psect	text23,global,reloc=2,class=CODE,delta=1
    40                           	psect	text24,global,reloc=2,class=CODE,delta=1
    41                           	psect	text25,global,reloc=2,class=CODE,delta=1
    42                           	psect	text26,global,reloc=2,class=CODE,delta=1
    43                           	psect	text27,global,reloc=2,class=CODE,delta=1
    44                           	psect	text28,global,reloc=2,class=CODE,delta=1
    45                           	psect	text29,global,reloc=2,class=CODE,delta=1
    46                           	psect	intcode,global,reloc=2,class=CODE,delta=1
    47                           	psect	intcode_body,global,reloc=2,class=CODE,delta=1
    48                           	psect	text31,global,reloc=2,class=CODE,delta=1
    49                           	psect	text32,global,reloc=2,class=CODE,delta=1
    50                           	psect	text33,global,reloc=2,class=CODE,delta=1
    51                           	psect	text34,global,reloc=2,class=CODE,delta=1
    52                           	psect	text35,global,reloc=2,class=CODE,delta=1
    53                           	psect	text36,global,reloc=2,class=CODE,delta=1
    54                           	psect	text37,global,reloc=2,class=CODE,delta=1
    55                           	psect	text38,global,reloc=2,class=CODE,delta=1
    56                           	psect	text39,global,reloc=2,class=CODE,delta=1
    57                           	psect	text40,global,reloc=2,class=CODE,delta=1
    58                           	psect	text41,global,reloc=2,class=CODE,delta=1
    59                           	psect	text42,global,reloc=2,class=CODE,delta=1
    60                           	psect	text43,global,reloc=2,class=CODE,delta=1
    61                           	psect	text44,global,reloc=2,class=CODE,delta=1
    62                           	psect	text45,global,reloc=2,class=CODE,delta=1
    63                           	psect	intsave_regs,global,class=BIGRAM,space=1,delta=1,noexec
    64                           	psect	text46,global,reloc=2,class=CODE,delta=1
    65                           	psect	rparam,global,class=COMRAM,space=1,delta=1,noexec
    66                           	psect	temp,global,ovrld,common,class=COMRAM,space=1,delta=1
    67                           	psect	config,global,abs,ovrld,class=CONFIG,space=4,delta=1,noexec
    68   000000                     
    69                           ; Generated 23/03/2023 GMT
    70                           ; 
    71                           ; Copyright © 2023, Microchip Technology Inc. and its subsidiaries ("Microchip")
    72                           ; All rights reserved.
    73                           ; 
    74                           ; This software is developed by Microchip Technology Inc. and its subsidiaries ("Microch
      +                          ip").
    75                           ; 
    76                           ; Redistribution and use in source and binary forms, with or without modification, are
    77                           ; permitted provided that the following conditions are met:
    78                           ; 
    79                           ;     1. Redistributions of source code must retain the above copyright notice, this lis
      +                          t of
    80                           ;        conditions and the following disclaimer.
    81                           ; 
    82                           ;     2. Redistributions in binary form must reproduce the above copyright notice, this 
      +                          list
    83                           ;        of conditions and the following disclaimer in the documentation and/or other
    84                           ;        materials provided with the distribution. Publication is not required when
    85                           ;        this file is used in an embedded application.
    86                           ; 
    87                           ;     3. Microchip's name may not be used to endorse or promote products derived from th
      +                          is
    88                           ;        software without specific prior written permission.
    89                           ; 
    90                           ; THIS SOFTWARE IS PROVIDED BY MICROCHIP "AS IS" AND ANY EXPRESS OR IMPLIED WARRANTIES,
    91                           ; INCLUDING, BUT NOT LIMITED TO, THE IMPLIED WARRANTIES OF MERCHANTABILITY AND FITNESS F
      +                          OR
    92                           ; PURPOSE ARE DISCLAIMED.  IN NO EVENT SHALL MICROCHIP BE LIABLE FOR ANY DIRECT, INDIREC
      +                          T,
    93                           ; INCIDENTAL, SPECIAL, EXEMPLARY, OR CONSEQUENTIAL DAMAGES (INCLUDING BUT NOT LIMITED TO
    94                           ; PROCUREMENT OF SUBSTITUTE GOODS OR SERVICES; LOSS OF USE, DATA OR PROFITS; OR BUSINESS
    95                           ; INTERRUPTION) HOWSOEVER CAUSED AND ON ANY THEORY OF LIABILITY, WHETHER IN CONTRACT, ST
      +                          RICT
    96                           ; LIABILITY, OR TORT (INCLUDING NEGLIGENCE OR OTHERWISE) ARISING IN ANY WAY OUT OF THE U
      +                          SE OF
    97                           ; THIS SOFTWARE, EVEN IF ADVISED OF THE POSSIBILITY OF SUCH DAMAGE.
    98                           ; 
    99                           ; 
   100                           ; Code-generator required, PIC18F4620 Definitions
   101                           ; 
   102                           ; SFR Addresses
   103   000000                     
   104                           	psect	idataCOMRAM
   105   00216A                     __pidataCOMRAM:
   106                           	callstack 0
   107                           
   108                           ;initializer for _port_registers
   109   00216A  80                 	db	128
   110   00216B  0F                 	db	15
   111   00216C  81                 	db	129
   112   00216D  0F                 	db	15
   113   00216E  82                 	db	130
   114   00216F  0F                 	db	15
   115   002170  83                 	db	131
   116   002171  0F                 	db	15
   117   002172  84                 	db	132
   118   002173  0F                 	db	15
   119                           
   120                           ;initializer for _dc_motor_2
   121   002174  13                 	db	19
   122   002175  1B                 	db	27
   123                           
   124                           ;initializer for _dc_motor_1
   125   002176  03                 	db	3
   126   002177  0B                 	db	11
   127                           
   128                           	psect	idataBANK0
   129   00210E                     __pidataBANK0:
   130                           	callstack 0
   131                           
   132                           ;initializer for _lat_registers
   133   00210E  89                 	db	137
   134   00210F  0F                 	db	15
   135   002110  8A                 	db	138
   136   002111  0F                 	db	15
   137   002112  8B                 	db	139
   138   002113  0F                 	db	15
   139   002114  8C                 	db	140
   140   002115  0F                 	db	15
   141   002116  8D                 	db	141
   142   002117  0F                 	db	15
   143                           
   144                           ;initializer for _tris_registers
   145   002118  92                 	db	146
   146   002119  0F                 	db	15
   147   00211A  93                 	db	147
   148   00211B  0F                 	db	15
   149   00211C  94                 	db	148
   150   00211D  0F                 	db	15
   151   00211E  95                 	db	149
   152   00211F  0F                 	db	15
   153   002120  96                 	db	150
   154   002121  0F                 	db	15
   155                           
   156                           ;initializer for _tmr0_timer
   157   002122  EC                 	db	low _TMR0_ISR_HANDLER
   158   002123  20                 	db	high _TMR0_ISR_HANDLER
   159   002124  01                 	db	1
   160   002125  0000               	dw	0
   161   002127  00                 	db	0
   162   002128  02                 	db	2
   163                           
   164                           ;initializer for _lcd1
   165   002129  02                 	db	2
   166   00212A  0A                 	db	10
   167   00212B  12                 	db	18
   168   00212C  1A                 	db	26
   169   00212D  22                 	db	34
   170   00212E  2A                 	db	42
   171                           
   172                           	psect	smallconst
   173   001000                     __psmallconst:
   174                           	callstack 0
   175   001000  00                 	db	0
   176   001001                     _btn_values:
   177                           	callstack 0
   178   001001  37                 	db	55
   179   001002  38                 	db	56
   180   001003  39                 	db	57
   181   001004  2F                 	db	47
   182   001005  34                 	db	52
   183   001006  35                 	db	53
   184   001007  36                 	db	54
   185   001008  2A                 	db	42
   186   001009  31                 	db	49
   187   00100A  32                 	db	50
   188   00100B  33                 	db	51
   189   00100C  2D                 	db	45
   190   00100D  23                 	db	35
   191   00100E  30                 	db	48
   192   00100F  3D                 	db	61
   193   001010  2B                 	db	43
   194   001011                     __end_of_btn_values:
   195                           	callstack 0
   196   000000                     _ADRESL	set	4035
   197   000000                     _ADRESH	set	4036
   198   000000                     _TMR0H	set	4055
   199   001011                     STR_1:
   200   001011  25                 	db	37
   201   001012  69                 	db	105	;'i'
   202   001013  00                 	db	0
   203   001014                     STR_4:
   204   001014  6D                 	db	109	;'m'
   205   001015  00                 	db	0
   206   001016  00                 	db	0	; dummy byte at the end
   207   000000                     
   208                           ; #config settings
   209                           
   210                           	psect	cinit
   211   001D58                     __pcinit:
   212                           	callstack 0
   213   001D58                     start_initialization:
   214                           	callstack 0
   215   001D58                     __initialization:
   216                           	callstack 0
   217                           
   218                           ; Initialize objects allocated to BANK0 (33 bytes)
   219                           ; load TBLPTR registers with __pidataBANK0
   220   001D58  0E0E               	movlw	low __pidataBANK0
   221   001D5A  6EF6               	movwf	tblptrl,c
   222   001D5C  0E21               	movlw	high __pidataBANK0
   223   001D5E  6EF7               	movwf	tblptrh,c
   224   001D60  0E00               	movlw	low (__pidataBANK0 shr (0+16))
   225   001D62  6EF8               	movwf	tblptru,c
   226   001D64  EE00  F0B4         	lfsr	0,__pdataBANK0
   227   001D68  EE10 F021          	lfsr	1,33
   228   001D6C                     copy_data0:
   229   001D6C  0009               	tblrd		*+
   230   001D6E  CFF5 FFEE          	movff	tablat,postinc0
   231   001D72  50E5               	movf	postdec1,w,c
   232   001D74  50E1               	movf	fsr1l,w,c
   233   001D76  E1FA               	bnz	copy_data0
   234                           
   235                           ; Initialize objects allocated to COMRAM (14 bytes)
   236                           ; load TBLPTR registers with __pidataCOMRAM
   237   001D78  0E6A               	movlw	low __pidataCOMRAM
   238   001D7A  6EF6               	movwf	tblptrl,c
   239   001D7C  0E21               	movlw	high __pidataCOMRAM
   240   001D7E  6EF7               	movwf	tblptrh,c
   241   001D80  0E00               	movlw	low (__pidataCOMRAM shr (0+16))
   242   001D82  6EF8               	movwf	tblptru,c
   243   001D84  EE00  F051         	lfsr	0,__pdataCOMRAM
   244   001D88  EE10 F00E          	lfsr	1,14
   245   001D8C                     copy_data1:
   246   001D8C  0009               	tblrd		*+
   247   001D8E  CFF5 FFEE          	movff	tablat,postinc0
   248   001D92  50E5               	movf	postdec1,w,c
   249   001D94  50E1               	movf	fsr1l,w,c
   250   001D96  E1FA               	bnz	copy_data1
   251                           
   252                           ; Clear objects allocated to BANK0 (13 bytes)
   253   001D98  EE00  F0D5         	lfsr	0,__pbssBANK0
   254   001D9C  0E0D               	movlw	13
   255   001D9E                     clear_0:
   256   001D9E  6AEE               	clrf	postinc0,c
   257   001DA0  06E8               	decf	wreg,f,c
   258   001DA2  E1FD               	bnz	clear_0
   259                           
   260                           ; Clear objects allocated to COMRAM (42 bytes)
   261   001DA4  EE00  F001         	lfsr	0,__pbssCOMRAM
   262   001DA8  0E2A               	movlw	42
   263   001DAA                     clear_1:
   264   001DAA  6AEE               	clrf	postinc0,c
   265   001DAC  06E8               	decf	wreg,f,c
   266   001DAE  E1FD               	bnz	clear_1
   267   001DB0                     end_of_initialization:
   268                           	callstack 0
   269   001DB0                     __end_of__initialization:
   270                           	callstack 0
   271   001DB0  905F               	bcf	int$flags,0,c	;clear compiler interrupt flag (level 1)
   272   001DB2  925F               	bcf	int$flags,1,c	;clear compiler interrupt flag (level 2)
   273   001DB4  0100               	movlb	0
   274   001DB6  EF65  F010         	goto	_main	;jump to C main() function
   275                           
   276                           	psect	bssCOMRAM
   277   000001                     __pbssCOMRAM:
   278                           	callstack 0
   279   000001                     	ds	6
   280   000007                     	ds	4
   281   00000B                     _timer0_preload:
   282                           	callstack 0
   283   00000B                     	ds	2
   284   00000D                     _TMR0_InterruptHandler:
   285                           	callstack 0
   286   00000D                     	ds	2
   287   00000F                     _RB7_InterruptHandler:
   288                           	callstack 0
   289   00000F                     	ds	2
   290   000011                     _RB6_InterruptHandler:
   291                           	callstack 0
   292   000011                     	ds	2
   293   000013                     _RB5_InterruptHandler:
   294                           	callstack 0
   295   000013                     	ds	2
   296   000015                     _RB4_InterruptHandler:
   297                           	callstack 0
   298   000015                     	ds	2
   299   000017                     _INT2_InterruptHandler:
   300                           	callstack 0
   301   000017                     	ds	2
   302   000019                     _INT1_InterruptHandler:
   303                           	callstack 0
   304   000019                     	ds	2
   305   00001B                     _INT0_InterruptHandler:
   306                           	callstack 0
   307   00001B                     	ds	2
   308   00001D                     _ADC_InterruptHandler:
   309                           	callstack 0
   310   00001D                     	ds	2
   311   00001F                     _ret:
   312                           	callstack 0
   313   00001F                     	ds	1
   314   000020                     _RB7_pin_init_value:
   315                           	callstack 0
   316   000020                     	ds	1
   317   000021                     _RB6_pin_init_value:
   318                           	callstack 0
   319   000021                     	ds	1
   320   000022                     _RB5_pin_init_value:
   321                           	callstack 0
   322   000022                     	ds	1
   323   000023                     _RB4_pin_init_value:
   324                           	callstack 0
   325   000023                     	ds	1
   326   000024                     relay_turn_off@F3237:
   327                           	callstack 0
   328   000024                     	ds	1
   329   000025                     relay_turn_on@F3232:
   330                           	callstack 0
   331   000025                     	ds	1
   332   000026                     relay_initialize@F3227:
   333                           	callstack 0
   334   000026                     	ds	1
   335   000027                     led_toggle@F3248:
   336                           	callstack 0
   337   000027                     	ds	1
   338   000028                     led_turn_off@F3243:
   339                           	callstack 0
   340   000028                     	ds	1
   341   000029                     led_turn_on@F3238:
   342                           	callstack 0
   343   000029                     	ds	1
   344   00002A                     led_initialize@F3233:
   345                           	callstack 0
   346   00002A                     	ds	1
   347                           
   348                           	psect	dataCOMRAM
   349   000051                     __pdataCOMRAM:
   350                           	callstack 0
   351   000051                     _port_registers:
   352                           	callstack 0
   353   000051                     	ds	10
   354   00005B                     _dc_motor_2:
   355                           	callstack 0
   356   00005B                     	ds	2
   357   00005D                     _dc_motor_1:
   358                           	callstack 0
   359   00005D                     	ds	2
   360                           
   361                           	psect	bssBANK0
   362   0000D5                     __pbssBANK0:
   363                           	callstack 0
   364   0000D5                     	ds	11
   365   0000E0                     _tmr0_Read:
   366                           	callstack 0
   367   0000E0                     	ds	2
   368                           
   369                           	psect	dataBANK0
   370   0000B4                     __pdataBANK0:
   371                           	callstack 0
   372   0000B4                     _lat_registers:
   373                           	callstack 0
   374   0000B4                     	ds	10
   375   0000BE                     _tris_registers:
   376                           	callstack 0
   377   0000BE                     	ds	10
   378   0000C8                     _tmr0_timer:
   379                           	callstack 0
   380   0000C8                     	ds	7
   381   0000CF                     _lcd1:
   382                           	callstack 0
   383   0000CF                     	ds	6
   384                           
   385                           	psect	cstackBANK1
   386   000100                     __pcstackBANK1:
   387                           	callstack 0
   388   000100                     lcd_4bit_initialize@l_data_pins_counter:
   389                           	callstack 0
   390                           
   391                           ; 1 bytes @ 0x0
   392   000100                     	ds	1
   393   000101                     lcd_4bit_initialize@ret:
   394                           	callstack 0
   395                           
   396                           ; 1 bytes @ 0x1
   397   000101                     	ds	1
   398                           
   399                           	psect	cstackBANK0
   400   000080                     __pcstackBANK0:
   401                           	callstack 0
   402   000080                     ??i1_gpio_pin_write_logic:
   403                           
   404                           ; 1 bytes @ 0x0
   405   000080                     	ds	6
   406   000086                     i1lcd_4bit_send_enable_signal@ret:
   407                           	callstack 0
   408   000086                     i1lcd_send_4bits@lcd:
   409                           	callstack 0
   410                           
   411                           ; 2 bytes @ 0x6
   412   000086                     	ds	2
   413   000088                     i1lcd_send_4bits@_data_command:
   414                           	callstack 0
   415                           
   416                           ; 1 bytes @ 0x8
   417   000088                     	ds	1
   418   000089                     lcd_4bit_send_char_data@lcd:
   419                           	callstack 0
   420                           
   421                           ; 2 bytes @ 0x9
   422   000089                     	ds	2
   423   00008B                     lcd_4bit_send_char_data@data:
   424                           	callstack 0
   425                           
   426                           ; 1 bytes @ 0xB
   427   00008B                     	ds	1
   428   00008C                     lcd_4bit_send_char_data@ret:
   429                           	callstack 0
   430                           
   431                           ; 1 bytes @ 0xC
   432   00008C                     	ds	1
   433   00008D                     lcd_4bit_send_string@lcd:
   434                           	callstack 0
   435                           
   436                           ; 2 bytes @ 0xD
   437   00008D                     	ds	2
   438   00008F                     lcd_4bit_send_string@str:
   439                           	callstack 0
   440                           
   441                           ; 2 bytes @ 0xF
   442   00008F                     	ds	2
   443   000091                     ??_InterruptManagerLow:
   444                           
   445                           ; 1 bytes @ 0x11
   446   000091                     	ds	13
   447   00009E                     gpio_pin_direction_initialize@pin_config:
   448                           	callstack 0
   449   00009E                     gpio_pin_write_logic@pin_config:
   450                           	callstack 0
   451   00009E                     Timer0_Read_Value@_timer:
   452                           	callstack 0
   453   00009E                     Timer0_Prescaler_Config@_timer:
   454                           	callstack 0
   455   00009E                     Timer0_Mode_Select@_timer:
   456                           	callstack 0
   457   00009E                     Timer0_Register_Size_Config@_timer:
   458                           	callstack 0
   459                           
   460                           ; 2 bytes @ 0x1E
   461   00009E                     	ds	2
   462   0000A0                     ??_gpio_pin_direction_initialize:
   463   0000A0                     ??_Timer0_Prescaler_Config:
   464   0000A0                     gpio_pin_write_logic@logic:
   465                           	callstack 0
   466   0000A0                     Timer0_Read_Value@_value:
   467                           	callstack 0
   468                           
   469                           ; 2 bytes @ 0x20
   470   0000A0                     	ds	1
   471   0000A1                     ??_gpio_pin_write_logic:
   472   0000A1                     Timer0_Init@_timer:
   473                           	callstack 0
   474                           
   475                           ; 2 bytes @ 0x21
   476   0000A1                     	ds	1
   477   0000A2                     ??_Timer0_Read_Value:
   478                           
   479                           ; 1 bytes @ 0x22
   480   0000A2                     	ds	1
   481   0000A3                     ??_Timer0_Init:
   482                           
   483                           ; 1 bytes @ 0x23
   484   0000A3                     	ds	1
   485   0000A4                     Timer0_Read_Value@l_tmr0l:
   486                           	callstack 0
   487                           
   488                           ; 1 bytes @ 0x24
   489   0000A4                     	ds	1
   490   0000A5                     Timer0_Init@ret:
   491                           	callstack 0
   492   0000A5                     Timer0_Read_Value@l_tmr0h:
   493                           	callstack 0
   494                           
   495                           ; 1 bytes @ 0x25
   496   0000A5                     	ds	1
   497   0000A6                     gpio_pin_direction_initialize@ret:
   498                           	callstack 0
   499                           
   500                           ; 1 bytes @ 0x26
   501   0000A6                     	ds	1
   502   0000A7                     gpio_pin_write_logic@ret:
   503                           	callstack 0
   504                           
   505                           ; 1 bytes @ 0x27
   506   0000A7                     	ds	1
   507   0000A8                     lcd_send_4bits@lcd:
   508                           	callstack 0
   509   0000A8                     lcd_4bit_send_enable_signal@lcd:
   510                           	callstack 0
   511   0000A8                     gpio_pin_initialize@pin_config:
   512                           	callstack 0
   513                           
   514                           ; 2 bytes @ 0x28
   515   0000A8                     	ds	2
   516   0000AA                     ??_gpio_pin_initialize:
   517   0000AA                     lcd_send_4bits@_data_command:
   518                           	callstack 0
   519   0000AA                     lcd_4bit_send_enable_signal@ret:
   520                           	callstack 0
   521                           
   522                           ; 1 bytes @ 0x2A
   523   0000AA                     	ds	1
   524   0000AB                     lcd_send_4bits@ret:
   525                           	callstack 0
   526   0000AB                     gpio_pin_initialize@ret:
   527                           	callstack 0
   528                           
   529                           ; 1 bytes @ 0x2B
   530   0000AB                     	ds	1
   531   0000AC                     lcd_4bit_send_command@lcd:
   532                           	callstack 0
   533                           
   534                           ; 2 bytes @ 0x2C
   535   0000AC                     	ds	2
   536   0000AE                     lcd_4bit_send_command@command:
   537                           	callstack 0
   538                           
   539                           ; 1 bytes @ 0x2E
   540   0000AE                     	ds	1
   541   0000AF                     lcd_4bit_send_command@ret:
   542                           	callstack 0
   543                           
   544                           ; 1 bytes @ 0x2F
   545   0000AF                     	ds	1
   546   0000B0                     lcd_4bit_initialize@lcd:
   547                           	callstack 0
   548                           
   549                           ; 2 bytes @ 0x30
   550   0000B0                     	ds	2
   551   0000B2                     ??_lcd_4bit_initialize:
   552                           
   553                           ; 1 bytes @ 0x32
   554   0000B2                     	ds	2
   555   0000B4                     
   556                           ; 1 bytes @ 0x34
   557                           
   558                           	psect	cstackCOMRAM
   559   00002B                     __pcstackCOMRAM:
   560                           	callstack 0
   561   00002B                     i2gpio_pin_write_logic@pin_config:
   562                           	callstack 0
   563                           
   564                           ; 2 bytes @ 0x0
   565   00002B                     	ds	2
   566   00002D                     i2gpio_pin_write_logic@logic:
   567                           	callstack 0
   568                           
   569                           ; 1 bytes @ 0x2
   570   00002D                     	ds	1
   571   00002E                     ??i2_gpio_pin_write_logic:
   572                           
   573                           ; 1 bytes @ 0x3
   574   00002E                     	ds	6
   575   000034                     i2gpio_pin_write_logic@ret:
   576                           	callstack 0
   577                           
   578                           ; 1 bytes @ 0x9
   579   000034                     	ds	1
   580   000035                     i2lcd_send_4bits@lcd:
   581                           	callstack 0
   582   000035                     i2lcd_4bit_send_enable_signal@lcd:
   583                           	callstack 0
   584                           
   585                           ; 2 bytes @ 0xA
   586   000035                     	ds	2
   587   000037                     i2lcd_send_4bits@_data_command:
   588                           	callstack 0
   589   000037                     i2lcd_4bit_send_enable_signal@ret:
   590                           	callstack 0
   591                           
   592                           ; 1 bytes @ 0xC
   593   000037                     	ds	1
   594   000038                     i2lcd_send_4bits@ret:
   595                           	callstack 0
   596                           
   597                           ; 1 bytes @ 0xD
   598   000038                     	ds	1
   599   000039                     i2lcd_4bit_send_char_data@lcd:
   600                           	callstack 0
   601                           
   602                           ; 2 bytes @ 0xE
   603   000039                     	ds	2
   604   00003B                     i2lcd_4bit_send_char_data@data:
   605                           	callstack 0
   606                           
   607                           ; 1 bytes @ 0x10
   608   00003B                     	ds	1
   609   00003C                     i2lcd_4bit_send_char_data@ret:
   610                           	callstack 0
   611                           
   612                           ; 1 bytes @ 0x11
   613   00003C                     	ds	1
   614   00003D                     i2lcd_4bit_send_string@lcd:
   615                           	callstack 0
   616                           
   617                           ; 2 bytes @ 0x12
   618   00003D                     	ds	2
   619   00003F                     i2lcd_4bit_send_string@str:
   620                           	callstack 0
   621                           
   622                           ; 2 bytes @ 0x14
   623   00003F                     	ds	2
   624   000041                     ??_InterruptManagerHigh:
   625   000041                     
   626                           ; 1 bytes @ 0x16
   627   000041                     	ds	10
   628   00004B                     i1gpio_pin_write_logic@pin_config:
   629                           	callstack 0
   630                           
   631                           ; 2 bytes @ 0x20
   632   00004B                     	ds	2
   633   00004D                     i1gpio_pin_write_logic@logic:
   634                           	callstack 0
   635                           
   636                           ; 1 bytes @ 0x22
   637   00004D                     	ds	1
   638   00004E                     i1gpio_pin_write_logic@ret:
   639                           	callstack 0
   640                           
   641                           ; 1 bytes @ 0x23
   642   00004E                     	ds	1
   643   00004F                     i1lcd_send_4bits@ret:
   644                           	callstack 0
   645   00004F                     i1lcd_4bit_send_enable_signal@lcd:
   646                           	callstack 0
   647                           
   648                           ; 2 bytes @ 0x24
   649   00004F                     	ds	2
   650   000051                     
   651                           ; 1 bytes @ 0x26
   652 ;;
   653 ;;Main: autosize = 0, tempsize = 0, incstack = 0, save=0
   654 ;;
   655 ;; *************** function _main *****************
   656 ;; Defined at:
   657 ;;		line 13 in file "application.c"
   658 ;; Parameters:    Size  Location     Type
   659 ;;		None
   660 ;; Auto vars:     Size  Location     Type
   661 ;;		None
   662 ;; Return value:  Size  Location     Type
   663 ;;                  2  980[None  ] int 
   664 ;; Registers used:
   665 ;;		wreg, fsr2l, fsr2h, status,2, status,0, prodl, prodh, cstack
   666 ;; Tracked objects:
   667 ;;		On entry : 0/0
   668 ;;		On exit  : 0/0
   669 ;;		Unchanged: 0/0
   670 ;; Data sizes:     COMRAM   BANK0   BANK1   BANK2   BANK3   BANK4   BANK5   BANK6   BANK7   BANK8   BANK9  BANK10  BANK1
      +1  BANK12  BANK13  BANK14  BANK15
   671 ;;      Params:         0       0       0       0       0       0       0       0       0       0       0       0       
      +0       0       0       0       0
   672 ;;      Locals:         0       0       0       0       0       0       0       0       0       0       0       0       
      +0       0       0       0       0
   673 ;;      Temps:          0       0       0       0       0       0       0       0       0       0       0       0       
      +0       0       0       0       0
   674 ;;      Totals:         0       0       0       0       0       0       0       0       0       0       0       0       
      +0       0       0       0       0
   675 ;;Total ram usage:        0 bytes
   676 ;; Hardware stack levels required when called: 20
   677 ;; This function calls:
   678 ;;		_Timer0_Read_Value
   679 ;;		_application_initialize
   680 ;; This function is called by:
   681 ;;		Startup code after reset
   682 ;; This function uses a non-reentrant model
   683 ;;
   684                           
   685                           	psect	text0
   686   0020CA                     __ptext0:
   687                           	callstack 0
   688   0020CA                     _main:
   689                           	callstack 11
   690   0020CA                     
   691                           ;application.c: 15:     application_initialize();
   692   0020CA  ECA3  F010         	call	_application_initialize	;wreg free
   693   0020CE                     l6199:
   694                           
   695                           ;application.c: 17:     {;application.c: 18:         Timer0_Read_Value(&tmr0_timer , &tm
      +                          r0_Read);
   696   0020CE  0EC8               	movlw	low _tmr0_timer
   697   0020D0  0100               	movlb	0	; () banked
   698   0020D2  6F9E               	movwf	Timer0_Read_Value@_timer& (0+255),b
   699   0020D4  0E00               	movlw	high _tmr0_timer
   700   0020D6  6F9F               	movwf	(Timer0_Read_Value@_timer+1)& (0+255),b
   701   0020D8  0EE0               	movlw	low _tmr0_Read
   702   0020DA  6FA0               	movwf	Timer0_Read_Value@_value& (0+255),b
   703   0020DC  0E00               	movlw	high _tmr0_Read
   704   0020DE  6FA1               	movwf	(Timer0_Read_Value@_value+1)& (0+255),b
   705   0020E0  ECDD  F00E         	call	_Timer0_Read_Value	;wreg free
   706   0020E4  EF67  F010         	goto	l6199
   707   0020E8  EFF8  F000         	goto	start
   708   0020EC                     __end_of_main:
   709                           	callstack 0
   710                           
   711 ;; *************** function _application_initialize *****************
   712 ;; Defined at:
   713 ;;		line 23 in file "application.c"
   714 ;; Parameters:    Size  Location     Type
   715 ;;		None
   716 ;; Auto vars:     Size  Location     Type
   717 ;;  ret             1    0        unsigned char 
   718 ;; Return value:  Size  Location     Type
   719 ;;                  1    wreg      void 
   720 ;; Registers used:
   721 ;;		wreg, fsr2l, fsr2h, status,2, status,0, prodl, prodh, cstack
   722 ;; Tracked objects:
   723 ;;		On entry : 0/0
   724 ;;		On exit  : 0/0
   725 ;;		Unchanged: 0/0
   726 ;; Data sizes:     COMRAM   BANK0   BANK1   BANK2   BANK3   BANK4   BANK5   BANK6   BANK7   BANK8   BANK9  BANK10  BANK1
      +1  BANK12  BANK13  BANK14  BANK15
   727 ;;      Params:         0       0       0       0       0       0       0       0       0       0       0       0       
      +0       0       0       0       0
   728 ;;      Locals:         0       0       0       0       0       0       0       0       0       0       0       0       
      +0       0       0       0       0
   729 ;;      Temps:          0       0       0       0       0       0       0       0       0       0       0       0       
      +0       0       0       0       0
   730 ;;      Totals:         0       0       0       0       0       0       0       0       0       0       0       0       
      +0       0       0       0       0
   731 ;;Total ram usage:        0 bytes
   732 ;; Hardware stack levels used: 1
   733 ;; Hardware stack levels required when called: 19
   734 ;; This function calls:
   735 ;;		_Timer0_Init
   736 ;;		_ecu_layer_initialize
   737 ;; This function is called by:
   738 ;;		_main
   739 ;; This function uses a non-reentrant model
   740 ;;
   741                           
   742                           	psect	text1
   743   002146                     __ptext1:
   744                           	callstack 0
   745   002146                     _application_initialize:
   746                           	callstack 11
   747   002146                     
   748                           ;application.c: 25:     ecu_layer_initialize();
   749   002146  ECAD  F010         	call	_ecu_layer_initialize	;wreg free
   750   00214A  0EC8               	movlw	low _tmr0_timer
   751   00214C  0100               	movlb	0	; () banked
   752   00214E  6FA1               	movwf	Timer0_Init@_timer& (0+255),b
   753   002150  0E00               	movlw	high _tmr0_timer
   754   002152  6FA2               	movwf	(Timer0_Init@_timer+1)& (0+255),b
   755   002154  EC22  F00C         	call	_Timer0_Init	;wreg free
   756   002158  0012               	return		;funcret
   757   00215A                     __end_of_application_initialize:
   758                           	callstack 0
   759                           
   760 ;; *************** function _ecu_layer_initialize *****************
   761 ;; Defined at:
   762 ;;		line 149 in file "ECU_Layer/ecu_layer_init.c"
   763 ;; Parameters:    Size  Location     Type
   764 ;;		None
   765 ;; Auto vars:     Size  Location     Type
   766 ;;  ret             1    0        unsigned char 
   767 ;; Return value:  Size  Location     Type
   768 ;;                  1    wreg      void 
   769 ;; Registers used:
   770 ;;		wreg, fsr2l, fsr2h, status,2, status,0, prodl, prodh, cstack
   771 ;; Tracked objects:
   772 ;;		On entry : 0/0
   773 ;;		On exit  : 0/0
   774 ;;		Unchanged: 0/0
   775 ;; Data sizes:     COMRAM   BANK0   BANK1   BANK2   BANK3   BANK4   BANK5   BANK6   BANK7   BANK8   BANK9  BANK10  BANK1
      +1  BANK12  BANK13  BANK14  BANK15
   776 ;;      Params:         0       0       0       0       0       0       0       0       0       0       0       0       
      +0       0       0       0       0
   777 ;;      Locals:         0       0       0       0       0       0       0       0       0       0       0       0       
      +0       0       0       0       0
   778 ;;      Temps:          0       0       0       0       0       0       0       0       0       0       0       0       
      +0       0       0       0       0
   779 ;;      Totals:         0       0       0       0       0       0       0       0       0       0       0       0       
      +0       0       0       0       0
   780 ;;Total ram usage:        0 bytes
   781 ;; Hardware stack levels used: 1
   782 ;; Hardware stack levels required when called: 18
   783 ;; This function calls:
   784 ;;		_lcd_4bit_initialize
   785 ;; This function is called by:
   786 ;;		_application_initialize
   787 ;; This function uses a non-reentrant model
   788 ;;
   789                           
   790                           	psect	text2
   791   00215A                     __ptext2:
   792                           	callstack 0
   793   00215A                     _ecu_layer_initialize:
   794                           	callstack 11
   795   00215A  0ECF               	movlw	low _lcd1
   796   00215C  0100               	movlb	0	; () banked
   797   00215E  6FB0               	movwf	lcd_4bit_initialize@lcd& (0+255),b
   798   002160  0E00               	movlw	high _lcd1
   799   002162  6FB1               	movwf	(lcd_4bit_initialize@lcd+1)& (0+255),b
   800   002164  ECA5  F00B         	call	_lcd_4bit_initialize	;wreg free
   801   002168  0012               	return		;funcret
   802   00216A                     __end_of_ecu_layer_initialize:
   803                           	callstack 0
   804                           
   805 ;; *************** function _lcd_4bit_initialize *****************
   806 ;; Defined at:
   807 ;;		line 13 in file "ECU_Layer/Chr_LCD/ecu_chr_lcd.c"
   808 ;; Parameters:    Size  Location     Type
   809 ;;  lcd             2   48[BANK0 ] PTR const struct .
   810 ;;		 -> lcd1(6), 
   811 ;; Auto vars:     Size  Location     Type
   812 ;;  ret             1    1[BANK1 ] unsigned char 
   813 ;;  l_data_pins_    1    0[BANK1 ] unsigned char 
   814 ;; Return value:  Size  Location     Type
   815 ;;                  1    wreg      unsigned char 
   816 ;; Registers used:
   817 ;;		wreg, fsr2l, fsr2h, status,2, status,0, prodl, prodh, cstack
   818 ;; Tracked objects:
   819 ;;		On entry : 0/0
   820 ;;		On exit  : 0/0
   821 ;;		Unchanged: 0/0
   822 ;; Data sizes:     COMRAM   BANK0   BANK1   BANK2   BANK3   BANK4   BANK5   BANK6   BANK7   BANK8   BANK9  BANK10  BANK1
      +1  BANK12  BANK13  BANK14  BANK15
   823 ;;      Params:         0       2       0       0       0       0       0       0       0       0       0       0       
      +0       0       0       0       0
   824 ;;      Locals:         0       0       2       0       0       0       0       0       0       0       0       0       
      +0       0       0       0       0
   825 ;;      Temps:          0       2       0       0       0       0       0       0       0       0       0       0       
      +0       0       0       0       0
   826 ;;      Totals:         0       4       2       0       0       0       0       0       0       0       0       0       
      +0       0       0       0       0
   827 ;;Total ram usage:        6 bytes
   828 ;; Hardware stack levels used: 1
   829 ;; Hardware stack levels required when called: 17
   830 ;; This function calls:
   831 ;;		_gpio_pin_initialize
   832 ;;		_lcd_4bit_send_command
   833 ;; This function is called by:
   834 ;;		_ecu_layer_initialize
   835 ;; This function uses a non-reentrant model
   836 ;;
   837                           
   838                           	psect	text3
   839   00174A                     __ptext3:
   840                           	callstack 0
   841   00174A                     _lcd_4bit_initialize:
   842                           	callstack 11
   843   00174A                     
   844                           ;ECU_Layer/Chr_LCD/ecu_chr_lcd.c: 15:      uint8 l_data_pins_counter=0;
   845   00174A  0E00               	movlw	0
   846   00174C  0101               	movlb	1	; () banked
   847   00174E  6F00               	movwf	lcd_4bit_initialize@l_data_pins_counter& (0+255),b
   848   001750                     
   849                           ; BSR set to: 1
   850                           ;ECU_Layer/Chr_LCD/ecu_chr_lcd.c: 16:     if(lcd==((void*)0)){
   851   001750  0100               	movlb	0	; () banked
   852   001752  51B0               	movf	lcd_4bit_initialize@lcd& (0+255),w,b
   853   001754  11B1               	iorwf	(lcd_4bit_initialize@lcd+1)& (0+255),w,b
   854   001756  A4D8               	btfss	status,2,c
   855   001758  EFB0  F00B         	goto	u4691
   856   00175C  EFB2  F00B         	goto	u4690
   857   001760                     u4691:
   858   001760  EFB7  F00B         	goto	l5413
   859   001764                     u4690:
   860   001764                     
   861                           ; BSR set to: 0
   862                           ;ECU_Layer/Chr_LCD/ecu_chr_lcd.c: 17:         ret=(Std_ReturnType)0x00;
   863   001764  0E00               	movlw	0
   864   001766  0101               	movlb	1	; () banked
   865   001768  6F01               	movwf	lcd_4bit_initialize@ret& (0+255),b
   866                           
   867                           ;ECU_Layer/Chr_LCD/ecu_chr_lcd.c: 18:     }
   868   00176A  EF20  F00C         	goto	l5441
   869   00176E                     l5413:
   870                           
   871                           ; BSR set to: 0
   872                           ;ECU_Layer/Chr_LCD/ecu_chr_lcd.c: 20:         ret=gpio_pin_initialize(&(lcd->lcd_rs));
   873   00176E  C0B0  F0A8         	movff	lcd_4bit_initialize@lcd,gpio_pin_initialize@pin_config
   874   001772  C0B1  F0A9         	movff	lcd_4bit_initialize@lcd+1,gpio_pin_initialize@pin_config+1
   875   001776  ECE1  F00C         	call	_gpio_pin_initialize	;wreg free
   876   00177A  0101               	movlb	1	; () banked
   877   00177C  6F01               	movwf	lcd_4bit_initialize@ret& (0+255),b
   878                           
   879                           ;ECU_Layer/Chr_LCD/ecu_chr_lcd.c: 21:         ret=gpio_pin_initialize(&(lcd->lcd_en));
   880   00177E  0E01               	movlw	1
   881   001780  0100               	movlb	0	; () banked
   882   001782  25B0               	addwf	lcd_4bit_initialize@lcd& (0+255),w,b
   883   001784  6FA8               	movwf	gpio_pin_initialize@pin_config& (0+255),b
   884   001786  0E00               	movlw	0
   885   001788  21B1               	addwfc	(lcd_4bit_initialize@lcd+1)& (0+255),w,b
   886   00178A  6FA9               	movwf	(gpio_pin_initialize@pin_config+1)& (0+255),b
   887   00178C  ECE1  F00C         	call	_gpio_pin_initialize	;wreg free
   888   001790  0101               	movlb	1	; () banked
   889   001792  6F01               	movwf	lcd_4bit_initialize@ret& (0+255),b
   890   001794                     
   891                           ; BSR set to: 1
   892                           ;ECU_Layer/Chr_LCD/ecu_chr_lcd.c: 22:         for(l_data_pins_counter=0;l_data_pins_coun
      +                          ter<4;l_data_pins_counter++){
   893   001794  0E00               	movlw	0
   894   001796  6F00               	movwf	lcd_4bit_initialize@l_data_pins_counter& (0+255),b
   895   001798                     l5421:
   896                           
   897                           ; BSR set to: 1
   898   001798  5100               	movf	lcd_4bit_initialize@l_data_pins_counter& (0+255),w,b
   899   00179A  0100               	movlb	0	; () banked
   900   00179C  25B0               	addwf	lcd_4bit_initialize@lcd& (0+255),w,b
   901   00179E  6FB2               	movwf	??_lcd_4bit_initialize& (0+255),b
   902   0017A0  0E00               	movlw	0
   903   0017A2  21B1               	addwfc	(lcd_4bit_initialize@lcd+1)& (0+255),w,b
   904   0017A4  6FB3               	movwf	(??_lcd_4bit_initialize+1)& (0+255),b
   905   0017A6  0E02               	movlw	2
   906   0017A8  25B2               	addwf	??_lcd_4bit_initialize& (0+255),w,b
   907   0017AA  6FA8               	movwf	gpio_pin_initialize@pin_config& (0+255),b
   908   0017AC  0E00               	movlw	0
   909   0017AE  21B3               	addwfc	(??_lcd_4bit_initialize+1)& (0+255),w,b
   910   0017B0  6FA9               	movwf	(gpio_pin_initialize@pin_config+1)& (0+255),b
   911   0017B2  ECE1  F00C         	call	_gpio_pin_initialize	;wreg free
   912   0017B6                     
   913                           ;ECU_Layer/Chr_LCD/ecu_chr_lcd.c: 24:         }
   914   0017B6  0101               	movlb	1	; () banked
   915   0017B8  2B00               	incf	lcd_4bit_initialize@l_data_pins_counter& (0+255),f,b
   916   0017BA                     
   917                           ; BSR set to: 1
   918   0017BA  0E03               	movlw	3
   919   0017BC  6500               	cpfsgt	lcd_4bit_initialize@l_data_pins_counter& (0+255),b
   920   0017BE  EFE3  F00B         	goto	u4701
   921   0017C2  EFE5  F00B         	goto	u4700
   922   0017C6                     u4701:
   923   0017C6  EFCC  F00B         	goto	l5421
   924   0017CA                     u4700:
   925   0017CA                     
   926                           ; BSR set to: 1
   927   0017CA  C0B0  F0AC         	movff	lcd_4bit_initialize@lcd,lcd_4bit_send_command@lcd
   928   0017CE  C0B1  F0AD         	movff	lcd_4bit_initialize@lcd+1,lcd_4bit_send_command@lcd+1
   929   0017D2  0E33               	movlw	51
   930   0017D4  0100               	movlb	0	; () banked
   931   0017D6  6FAE               	movwf	lcd_4bit_send_command@command& (0+255),b
   932   0017D8  ECF5  F00D         	call	_lcd_4bit_send_command	;wreg free
   933   0017DC                     
   934                           ;ECU_Layer/Chr_LCD/ecu_chr_lcd.c: 27:         _delay((unsigned long)((150)*(8000000/4000
      +                          000.0)));
   935   0017DC  0E64               	movlw	100
   936   0017DE                     u5757:
   937   0017DE  2EE8               	decfsz	wreg,f,c
   938   0017E0  D7FE               	bra	u5757
   939   0017E2  C0B0  F0AC         	movff	lcd_4bit_initialize@lcd,lcd_4bit_send_command@lcd
   940   0017E6  C0B1  F0AD         	movff	lcd_4bit_initialize@lcd+1,lcd_4bit_send_command@lcd+1
   941   0017EA  0E32               	movlw	50
   942   0017EC  0100               	movlb	0	; () banked
   943   0017EE  6FAE               	movwf	lcd_4bit_send_command@command& (0+255),b
   944   0017F0  ECF5  F00D         	call	_lcd_4bit_send_command	;wreg free
   945   0017F4  C0B0  F0AC         	movff	lcd_4bit_initialize@lcd,lcd_4bit_send_command@lcd
   946   0017F8  C0B1  F0AD         	movff	lcd_4bit_initialize@lcd+1,lcd_4bit_send_command@lcd+1
   947   0017FC  0E28               	movlw	40
   948   0017FE  0100               	movlb	0	; () banked
   949   001800  6FAE               	movwf	lcd_4bit_send_command@command& (0+255),b
   950   001802  ECF5  F00D         	call	_lcd_4bit_send_command	;wreg free
   951   001806  C0B0  F0AC         	movff	lcd_4bit_initialize@lcd,lcd_4bit_send_command@lcd
   952   00180A  C0B1  F0AD         	movff	lcd_4bit_initialize@lcd+1,lcd_4bit_send_command@lcd+1
   953   00180E  0E01               	movlw	1
   954   001810  0100               	movlb	0	; () banked
   955   001812  6FAE               	movwf	lcd_4bit_send_command@command& (0+255),b
   956   001814  ECF5  F00D         	call	_lcd_4bit_send_command	;wreg free
   957   001818  C0B0  F0AC         	movff	lcd_4bit_initialize@lcd,lcd_4bit_send_command@lcd
   958   00181C  C0B1  F0AD         	movff	lcd_4bit_initialize@lcd+1,lcd_4bit_send_command@lcd+1
   959   001820  0E06               	movlw	6
   960   001822  0100               	movlb	0	; () banked
   961   001824  6FAE               	movwf	lcd_4bit_send_command@command& (0+255),b
   962   001826  ECF5  F00D         	call	_lcd_4bit_send_command	;wreg free
   963   00182A                     
   964                           ;ECU_Layer/Chr_LCD/ecu_chr_lcd.c: 32:         ret=lcd_4bit_send_command(lcd,0X0C);
   965   00182A  C0B0  F0AC         	movff	lcd_4bit_initialize@lcd,lcd_4bit_send_command@lcd
   966   00182E  C0B1  F0AD         	movff	lcd_4bit_initialize@lcd+1,lcd_4bit_send_command@lcd+1
   967   001832  0E0C               	movlw	12
   968   001834  0100               	movlb	0	; () banked
   969   001836  6FAE               	movwf	lcd_4bit_send_command@command& (0+255),b
   970   001838  ECF5  F00D         	call	_lcd_4bit_send_command	;wreg free
   971   00183C  0101               	movlb	1	; () banked
   972   00183E  6F01               	movwf	lcd_4bit_initialize@ret& (0+255),b
   973   001840                     l5441:
   974                           
   975                           ; BSR set to: 1
   976                           ;ECU_Layer/Chr_LCD/ecu_chr_lcd.c: 35:     return ret;
   977   001840  5101               	movf	lcd_4bit_initialize@ret& (0+255),w,b
   978   001842                     
   979                           ; BSR set to: 1
   980   001842  0012               	return		;funcret
   981   001844                     __end_of_lcd_4bit_initialize:
   982                           	callstack 0
   983                           
   984 ;; *************** function _lcd_4bit_send_command *****************
   985 ;; Defined at:
   986 ;;		line 43 in file "ECU_Layer/Chr_LCD/ecu_chr_lcd.c"
   987 ;; Parameters:    Size  Location     Type
   988 ;;  lcd             2   44[BANK0 ] PTR const struct .
   989 ;;		 -> lcd1(6), 
   990 ;;  command         1   46[BANK0 ] unsigned char 
   991 ;; Auto vars:     Size  Location     Type
   992 ;;  ret             1   47[BANK0 ] unsigned char 
   993 ;; Return value:  Size  Location     Type
   994 ;;                  1    wreg      unsigned char 
   995 ;; Registers used:
   996 ;;		wreg, fsr2l, fsr2h, status,2, status,0, prodl, prodh, cstack
   997 ;; Tracked objects:
   998 ;;		On entry : 0/0
   999 ;;		On exit  : 0/0
  1000 ;;		Unchanged: 0/0
  1001 ;; Data sizes:     COMRAM   BANK0   BANK1   BANK2   BANK3   BANK4   BANK5   BANK6   BANK7   BANK8   BANK9  BANK10  BANK1
      +1  BANK12  BANK13  BANK14  BANK15
  1002 ;;      Params:         0       3       0       0       0       0       0       0       0       0       0       0       
      +0       0       0       0       0
  1003 ;;      Locals:         0       1       0       0       0       0       0       0       0       0       0       0       
      +0       0       0       0       0
  1004 ;;      Temps:          0       0       0       0       0       0       0       0       0       0       0       0       
      +0       0       0       0       0
  1005 ;;      Totals:         0       4       0       0       0       0       0       0       0       0       0       0       
      +0       0       0       0       0
  1006 ;;Total ram usage:        4 bytes
  1007 ;; Hardware stack levels used: 1
  1008 ;; Hardware stack levels required when called: 16
  1009 ;; This function calls:
  1010 ;;		_gpio_pin_write_logic
  1011 ;;		_lcd_4bit_send_enable_signal
  1012 ;;		_lcd_send_4bits
  1013 ;; This function is called by:
  1014 ;;		_lcd_4bit_initialize
  1015 ;;		_lcd_4bit_send_custom_char
  1016 ;;		_lcd_4bit_set_cursor
  1017 ;; This function uses a non-reentrant model
  1018 ;;
  1019                           
  1020                           	psect	text4
  1021   001BEA                     __ptext4:
  1022                           	callstack 0
  1023   001BEA                     _lcd_4bit_send_command:
  1024                           	callstack 11
  1025   001BEA                     
  1026                           ;ECU_Layer/Chr_LCD/ecu_chr_lcd.c: 45:     if(lcd==((void*)0)){
  1027   001BEA  0100               	movlb	0	; () banked
  1028   001BEC  51AC               	movf	lcd_4bit_send_command@lcd& (0+255),w,b
  1029   001BEE  11AD               	iorwf	(lcd_4bit_send_command@lcd+1)& (0+255),w,b
  1030   001BF0  A4D8               	btfss	status,2,c
  1031   001BF2  EFFD  F00D         	goto	u4671
  1032   001BF6  EFFF  F00D         	goto	u4670
  1033   001BFA                     u4671:
  1034   001BFA  EF03  F00E         	goto	l5389
  1035   001BFE                     u4670:
  1036   001BFE                     
  1037                           ; BSR set to: 0
  1038                           ;ECU_Layer/Chr_LCD/ecu_chr_lcd.c: 46:         ret=(Std_ReturnType)0x00;
  1039   001BFE  0E00               	movlw	0
  1040   001C00  6FAF               	movwf	lcd_4bit_send_command@ret& (0+255),b
  1041                           
  1042                           ;ECU_Layer/Chr_LCD/ecu_chr_lcd.c: 47:     }
  1043   001C02  EF32  F00E         	goto	l5391
  1044   001C06                     l5389:
  1045                           
  1046                           ; BSR set to: 0
  1047                           ;ECU_Layer/Chr_LCD/ecu_chr_lcd.c: 49:         ret=gpio_pin_write_logic(&(lcd->lcd_rs),LO
      +                          W);
  1048   001C06  C0AC  F09E         	movff	lcd_4bit_send_command@lcd,gpio_pin_write_logic@pin_config
  1049   001C0A  C0AD  F09F         	movff	lcd_4bit_send_command@lcd+1,gpio_pin_write_logic@pin_config+1
  1050   001C0E  0E00               	movlw	0
  1051   001C10  6FA0               	movwf	gpio_pin_write_logic@logic& (0+255),b
  1052   001C12  ECB0  F009         	call	_gpio_pin_write_logic	;wreg free
  1053   001C16  0100               	movlb	0	; () banked
  1054   001C18  6FAF               	movwf	lcd_4bit_send_command@ret& (0+255),b
  1055                           
  1056                           ;ECU_Layer/Chr_LCD/ecu_chr_lcd.c: 50:         ret=lcd_send_4bits(lcd, command >> 4);
  1057   001C1A  C0AC  F0A8         	movff	lcd_4bit_send_command@lcd,lcd_send_4bits@lcd
  1058   001C1E  C0AD  F0A9         	movff	lcd_4bit_send_command@lcd+1,lcd_send_4bits@lcd+1
  1059   001C22  39AE               	swapf	lcd_4bit_send_command@command& (0+255),w,b
  1060   001C24  0B0F               	andlw	15
  1061   001C26  6FAA               	movwf	lcd_send_4bits@_data_command& (0+255),b
  1062   001C28  EC98  F00C         	call	_lcd_send_4bits	;wreg free
  1063   001C2C  0100               	movlb	0	; () banked
  1064   001C2E  6FAF               	movwf	lcd_4bit_send_command@ret& (0+255),b
  1065                           
  1066                           ;ECU_Layer/Chr_LCD/ecu_chr_lcd.c: 51:         ret=lcd_4bit_send_enable_signal(lcd);
  1067   001C30  C0AC  F0A8         	movff	lcd_4bit_send_command@lcd,lcd_4bit_send_enable_signal@lcd
  1068   001C34  C0AD  F0A9         	movff	lcd_4bit_send_command@lcd+1,lcd_4bit_send_enable_signal@lcd+1
  1069   001C38  EC67  F00F         	call	_lcd_4bit_send_enable_signal	;wreg free
  1070   001C3C  0100               	movlb	0	; () banked
  1071   001C3E  6FAF               	movwf	lcd_4bit_send_command@ret& (0+255),b
  1072                           
  1073                           ;ECU_Layer/Chr_LCD/ecu_chr_lcd.c: 52:         ret=lcd_send_4bits(lcd, command);
  1074   001C40  C0AC  F0A8         	movff	lcd_4bit_send_command@lcd,lcd_send_4bits@lcd
  1075   001C44  C0AD  F0A9         	movff	lcd_4bit_send_command@lcd+1,lcd_send_4bits@lcd+1
  1076   001C48  C0AE  F0AA         	movff	lcd_4bit_send_command@command,lcd_send_4bits@_data_command
  1077   001C4C  EC98  F00C         	call	_lcd_send_4bits	;wreg free
  1078   001C50  0100               	movlb	0	; () banked
  1079   001C52  6FAF               	movwf	lcd_4bit_send_command@ret& (0+255),b
  1080                           
  1081                           ;ECU_Layer/Chr_LCD/ecu_chr_lcd.c: 53:         ret=lcd_4bit_send_enable_signal(lcd);
  1082   001C54  C0AC  F0A8         	movff	lcd_4bit_send_command@lcd,lcd_4bit_send_enable_signal@lcd
  1083   001C58  C0AD  F0A9         	movff	lcd_4bit_send_command@lcd+1,lcd_4bit_send_enable_signal@lcd+1
  1084   001C5C  EC67  F00F         	call	_lcd_4bit_send_enable_signal	;wreg free
  1085   001C60  0100               	movlb	0	; () banked
  1086   001C62  6FAF               	movwf	lcd_4bit_send_command@ret& (0+255),b
  1087   001C64                     l5391:
  1088                           
  1089                           ; BSR set to: 0
  1090                           ;ECU_Layer/Chr_LCD/ecu_chr_lcd.c: 55:     return ret;
  1091   001C64  51AF               	movf	lcd_4bit_send_command@ret& (0+255),w,b
  1092   001C66                     
  1093                           ; BSR set to: 0
  1094   001C66  0012               	return		;funcret
  1095   001C68                     __end_of_lcd_4bit_send_command:
  1096                           	callstack 0
  1097                           
  1098 ;; *************** function _lcd_send_4bits *****************
  1099 ;; Defined at:
  1100 ;;		line 396 in file "ECU_Layer/Chr_LCD/ecu_chr_lcd.c"
  1101 ;; Parameters:    Size  Location     Type
  1102 ;;  lcd             2   40[BANK0 ] PTR const struct .
  1103 ;;		 -> lcd1(6), 
  1104 ;;  _data_comman    1   42[BANK0 ] unsigned char 
  1105 ;; Auto vars:     Size  Location     Type
  1106 ;;  ret             1   43[BANK0 ] unsigned char 
  1107 ;; Return value:  Size  Location     Type
  1108 ;;                  1    wreg      unsigned char 
  1109 ;; Registers used:
  1110 ;;		wreg, fsr2l, fsr2h, status,2, status,0, prodl, prodh, cstack
  1111 ;; Tracked objects:
  1112 ;;		On entry : 0/0
  1113 ;;		On exit  : 0/0
  1114 ;;		Unchanged: 0/0
  1115 ;; Data sizes:     COMRAM   BANK0   BANK1   BANK2   BANK3   BANK4   BANK5   BANK6   BANK7   BANK8   BANK9  BANK10  BANK1
      +1  BANK12  BANK13  BANK14  BANK15
  1116 ;;      Params:         0       3       0       0       0       0       0       0       0       0       0       0       
      +0       0       0       0       0
  1117 ;;      Locals:         0       1       0       0       0       0       0       0       0       0       0       0       
      +0       0       0       0       0
  1118 ;;      Temps:          0       0       0       0       0       0       0       0       0       0       0       0       
      +0       0       0       0       0
  1119 ;;      Totals:         0       4       0       0       0       0       0       0       0       0       0       0       
      +0       0       0       0       0
  1120 ;;Total ram usage:        4 bytes
  1121 ;; Hardware stack levels used: 1
  1122 ;; Hardware stack levels required when called: 15
  1123 ;; This function calls:
  1124 ;;		_gpio_pin_write_logic
  1125 ;; This function is called by:
  1126 ;;		_lcd_4bit_send_command
  1127 ;; This function uses a non-reentrant model
  1128 ;;
  1129                           
  1130                           	psect	text5
  1131   001930                     __ptext5:
  1132                           	callstack 0
  1133   001930                     _lcd_send_4bits:
  1134                           	callstack 11
  1135   001930                     
  1136                           ;ECU_Layer/Chr_LCD/ecu_chr_lcd.c: 398:     if(lcd==((void*)0)){
  1137   001930  0100               	movlb	0	; () banked
  1138   001932  51A8               	movf	lcd_send_4bits@lcd& (0+255),w,b
  1139   001934  11A9               	iorwf	(lcd_send_4bits@lcd+1)& (0+255),w,b
  1140   001936  A4D8               	btfss	status,2,c
  1141   001938  EFA0  F00C         	goto	u4601
  1142   00193C  EFA2  F00C         	goto	u4600
  1143   001940                     u4601:
  1144   001940  EFA6  F00C         	goto	l5317
  1145   001944                     u4600:
  1146   001944                     
  1147                           ; BSR set to: 0
  1148                           ;ECU_Layer/Chr_LCD/ecu_chr_lcd.c: 399:         ret=(Std_ReturnType)0x00;
  1149   001944  0E00               	movlw	0
  1150   001946  6FAB               	movwf	lcd_send_4bits@ret& (0+255),b
  1151                           
  1152                           ;ECU_Layer/Chr_LCD/ecu_chr_lcd.c: 400:     }
  1153   001948  EFDF  F00C         	goto	l5319
  1154   00194C                     l5317:
  1155                           
  1156                           ; BSR set to: 0
  1157                           ;ECU_Layer/Chr_LCD/ecu_chr_lcd.c: 402:         ret=gpio_pin_write_logic(&(lcd->lcd_data[
      +                          0]),( _data_command >> 0 ) & (uint8)0x01);
  1158   00194C  0E02               	movlw	2
  1159   00194E  25A8               	addwf	lcd_send_4bits@lcd& (0+255),w,b
  1160   001950  6F9E               	movwf	gpio_pin_write_logic@pin_config& (0+255),b
  1161   001952  0E00               	movlw	0
  1162   001954  21A9               	addwfc	(lcd_send_4bits@lcd+1)& (0+255),w,b
  1163   001956  6F9F               	movwf	(gpio_pin_write_logic@pin_config+1)& (0+255),b
  1164   001958  51AA               	movf	lcd_send_4bits@_data_command& (0+255),w,b
  1165   00195A  0B01               	andlw	1
  1166   00195C  6FA0               	movwf	gpio_pin_write_logic@logic& (0+255),b
  1167   00195E  ECB0  F009         	call	_gpio_pin_write_logic	;wreg free
  1168   001962  0100               	movlb	0	; () banked
  1169   001964  6FAB               	movwf	lcd_send_4bits@ret& (0+255),b
  1170                           
  1171                           ;ECU_Layer/Chr_LCD/ecu_chr_lcd.c: 403:         ret=gpio_pin_write_logic(&(lcd->lcd_data[
      +                          1]),( _data_command >> 1 ) & (uint8)0x01);
  1172   001966  0E03               	movlw	3
  1173   001968  25A8               	addwf	lcd_send_4bits@lcd& (0+255),w,b
  1174   00196A  6F9E               	movwf	gpio_pin_write_logic@pin_config& (0+255),b
  1175   00196C  0E00               	movlw	0
  1176   00196E  21A9               	addwfc	(lcd_send_4bits@lcd+1)& (0+255),w,b
  1177   001970  6F9F               	movwf	(gpio_pin_write_logic@pin_config+1)& (0+255),b
  1178   001972  90D8               	bcf	status,0,c
  1179   001974  31AA               	rrcf	lcd_send_4bits@_data_command& (0+255),w,b
  1180   001976  0B01               	andlw	1
  1181   001978  6FA0               	movwf	gpio_pin_write_logic@logic& (0+255),b
  1182   00197A  ECB0  F009         	call	_gpio_pin_write_logic	;wreg free
  1183   00197E  0100               	movlb	0	; () banked
  1184   001980  6FAB               	movwf	lcd_send_4bits@ret& (0+255),b
  1185                           
  1186                           ;ECU_Layer/Chr_LCD/ecu_chr_lcd.c: 404:         ret=gpio_pin_write_logic(&(lcd->lcd_data[
      +                          2]),( _data_command >> 2 ) & (uint8)0x01);
  1187   001982  0E04               	movlw	4
  1188   001984  25A8               	addwf	lcd_send_4bits@lcd& (0+255),w,b
  1189   001986  6F9E               	movwf	gpio_pin_write_logic@pin_config& (0+255),b
  1190   001988  0E00               	movlw	0
  1191   00198A  21A9               	addwfc	(lcd_send_4bits@lcd+1)& (0+255),w,b
  1192   00198C  6F9F               	movwf	(gpio_pin_write_logic@pin_config+1)& (0+255),b
  1193   00198E  41AA               	rrncf	lcd_send_4bits@_data_command& (0+255),w,b
  1194   001990  42E8               	rrncf	wreg,f,c
  1195   001992  0B3F               	andlw	63
  1196   001994  0B01               	andlw	1
  1197   001996  6FA0               	movwf	gpio_pin_write_logic@logic& (0+255),b
  1198   001998  ECB0  F009         	call	_gpio_pin_write_logic	;wreg free
  1199   00199C  0100               	movlb	0	; () banked
  1200   00199E  6FAB               	movwf	lcd_send_4bits@ret& (0+255),b
  1201                           
  1202                           ;ECU_Layer/Chr_LCD/ecu_chr_lcd.c: 405:         ret=gpio_pin_write_logic(&(lcd->lcd_data[
      +                          3]),( _data_command >> 3 ) & (uint8)0x01);
  1203   0019A0  0E05               	movlw	5
  1204   0019A2  25A8               	addwf	lcd_send_4bits@lcd& (0+255),w,b
  1205   0019A4  6F9E               	movwf	gpio_pin_write_logic@pin_config& (0+255),b
  1206   0019A6  0E00               	movlw	0
  1207   0019A8  21A9               	addwfc	(lcd_send_4bits@lcd+1)& (0+255),w,b
  1208   0019AA  6F9F               	movwf	(gpio_pin_write_logic@pin_config+1)& (0+255),b
  1209   0019AC  39AA               	swapf	lcd_send_4bits@_data_command& (0+255),w,b
  1210   0019AE  46E8               	rlncf	wreg,f,c
  1211   0019B0  0B1F               	andlw	31
  1212   0019B2  0B01               	andlw	1
  1213   0019B4  6FA0               	movwf	gpio_pin_write_logic@logic& (0+255),b
  1214   0019B6  ECB0  F009         	call	_gpio_pin_write_logic	;wreg free
  1215   0019BA  0100               	movlb	0	; () banked
  1216   0019BC  6FAB               	movwf	lcd_send_4bits@ret& (0+255),b
  1217   0019BE                     l5319:
  1218                           
  1219                           ; BSR set to: 0
  1220                           ;ECU_Layer/Chr_LCD/ecu_chr_lcd.c: 407:     return ret;
  1221   0019BE  51AB               	movf	lcd_send_4bits@ret& (0+255),w,b
  1222   0019C0                     
  1223                           ; BSR set to: 0
  1224   0019C0  0012               	return		;funcret
  1225   0019C2                     __end_of_lcd_send_4bits:
  1226                           	callstack 0
  1227                           
  1228 ;; *************** function _lcd_4bit_send_enable_signal *****************
  1229 ;; Defined at:
  1230 ;;		line 409 in file "ECU_Layer/Chr_LCD/ecu_chr_lcd.c"
  1231 ;; Parameters:    Size  Location     Type
  1232 ;;  lcd             2   40[BANK0 ] PTR const struct .
  1233 ;;		 -> lcd1(6), 
  1234 ;; Auto vars:     Size  Location     Type
  1235 ;;  ret             1   42[BANK0 ] unsigned char 
  1236 ;; Return value:  Size  Location     Type
  1237 ;;                  1    wreg      unsigned char 
  1238 ;; Registers used:
  1239 ;;		wreg, fsr2l, fsr2h, status,2, status,0, prodl, prodh, cstack
  1240 ;; Tracked objects:
  1241 ;;		On entry : 0/0
  1242 ;;		On exit  : 0/0
  1243 ;;		Unchanged: 0/0
  1244 ;; Data sizes:     COMRAM   BANK0   BANK1   BANK2   BANK3   BANK4   BANK5   BANK6   BANK7   BANK8   BANK9  BANK10  BANK1
      +1  BANK12  BANK13  BANK14  BANK15
  1245 ;;      Params:         0       2       0       0       0       0       0       0       0       0       0       0       
      +0       0       0       0       0
  1246 ;;      Locals:         0       1       0       0       0       0       0       0       0       0       0       0       
      +0       0       0       0       0
  1247 ;;      Temps:          0       0       0       0       0       0       0       0       0       0       0       0       
      +0       0       0       0       0
  1248 ;;      Totals:         0       3       0       0       0       0       0       0       0       0       0       0       
      +0       0       0       0       0
  1249 ;;Total ram usage:        3 bytes
  1250 ;; Hardware stack levels used: 1
  1251 ;; Hardware stack levels required when called: 15
  1252 ;; This function calls:
  1253 ;;		_gpio_pin_write_logic
  1254 ;; This function is called by:
  1255 ;;		_lcd_4bit_send_command
  1256 ;; This function uses a non-reentrant model
  1257 ;;
  1258                           
  1259                           	psect	text6
  1260   001ECE                     __ptext6:
  1261                           	callstack 0
  1262   001ECE                     _lcd_4bit_send_enable_signal:
  1263                           	callstack 11
  1264   001ECE                     
  1265                           ;ECU_Layer/Chr_LCD/ecu_chr_lcd.c: 411:     if(lcd==((void*)0)){
  1266   001ECE  0100               	movlb	0	; () banked
  1267   001ED0  51A8               	movf	lcd_4bit_send_enable_signal@lcd& (0+255),w,b
  1268   001ED2  11A9               	iorwf	(lcd_4bit_send_enable_signal@lcd+1)& (0+255),w,b
  1269   001ED4  A4D8               	btfss	status,2,c
  1270   001ED6  EF6F  F00F         	goto	u4611
  1271   001EDA  EF71  F00F         	goto	u4610
  1272   001EDE                     u4611:
  1273   001EDE  EF75  F00F         	goto	l5329
  1274   001EE2                     u4610:
  1275   001EE2                     
  1276                           ; BSR set to: 0
  1277                           ;ECU_Layer/Chr_LCD/ecu_chr_lcd.c: 412:         ret=(Std_ReturnType)0x00;
  1278   001EE2  0E00               	movlw	0
  1279   001EE4  6FAA               	movwf	lcd_4bit_send_enable_signal@ret& (0+255),b
  1280                           
  1281                           ;ECU_Layer/Chr_LCD/ecu_chr_lcd.c: 413:     }
  1282   001EE6  EF90  F00F         	goto	l5335
  1283   001EEA                     l5329:
  1284                           
  1285                           ; BSR set to: 0
  1286   001EEA  0E01               	movlw	1
  1287   001EEC  25A8               	addwf	lcd_4bit_send_enable_signal@lcd& (0+255),w,b
  1288   001EEE  6F9E               	movwf	gpio_pin_write_logic@pin_config& (0+255),b
  1289   001EF0  0E00               	movlw	0
  1290   001EF2  21A9               	addwfc	(lcd_4bit_send_enable_signal@lcd+1)& (0+255),w,b
  1291   001EF4  6F9F               	movwf	(gpio_pin_write_logic@pin_config+1)& (0+255),b
  1292   001EF6  0E01               	movlw	1
  1293   001EF8  6FA0               	movwf	gpio_pin_write_logic@logic& (0+255),b
  1294   001EFA  ECB0  F009         	call	_gpio_pin_write_logic	;wreg free
  1295   001EFE                     
  1296                           ;ECU_Layer/Chr_LCD/ecu_chr_lcd.c: 416:         _delay((unsigned long)((5)*(8000000/40000
      +                          00.0)));
  1297   001EFE  0E03               	movlw	3
  1298   001F00                     u5767:
  1299   001F00  2EE8               	decfsz	wreg,f,c
  1300   001F02  D7FE               	bra	u5767
  1301   001F04  F000               	nop	
  1302   001F06                     
  1303                           ;ECU_Layer/Chr_LCD/ecu_chr_lcd.c: 417:         ret=gpio_pin_write_logic(&(lcd->lcd_en),L
      +                          OW);
  1304   001F06  0E01               	movlw	1
  1305   001F08  0100               	movlb	0	; () banked
  1306   001F0A  25A8               	addwf	lcd_4bit_send_enable_signal@lcd& (0+255),w,b
  1307   001F0C  6F9E               	movwf	gpio_pin_write_logic@pin_config& (0+255),b
  1308   001F0E  0E00               	movlw	0
  1309   001F10  21A9               	addwfc	(lcd_4bit_send_enable_signal@lcd+1)& (0+255),w,b
  1310   001F12  6F9F               	movwf	(gpio_pin_write_logic@pin_config+1)& (0+255),b
  1311   001F14  0E00               	movlw	0
  1312   001F16  6FA0               	movwf	gpio_pin_write_logic@logic& (0+255),b
  1313   001F18  ECB0  F009         	call	_gpio_pin_write_logic	;wreg free
  1314   001F1C  0100               	movlb	0	; () banked
  1315   001F1E  6FAA               	movwf	lcd_4bit_send_enable_signal@ret& (0+255),b
  1316   001F20                     l5335:
  1317                           
  1318                           ; BSR set to: 0
  1319                           ;ECU_Layer/Chr_LCD/ecu_chr_lcd.c: 419:     return ret;
  1320   001F20  51AA               	movf	lcd_4bit_send_enable_signal@ret& (0+255),w,b
  1321   001F22                     
  1322                           ; BSR set to: 0
  1323   001F22  0012               	return		;funcret
  1324   001F24                     __end_of_lcd_4bit_send_enable_signal:
  1325                           	callstack 0
  1326                           
  1327 ;; *************** function _gpio_pin_initialize *****************
  1328 ;; Defined at:
  1329 ;;		line 24 in file "MCAL_Layer/GPIO/hal_gpio.c"
  1330 ;; Parameters:    Size  Location     Type
  1331 ;;  pin_config      2   40[BANK0 ] PTR const struct .
  1332 ;;		 -> lcd1.lcd_data(4), lcd1(6), relay_initialize@pin_obj(1), led_initialize@pin_obj(1), 
  1333 ;; Auto vars:     Size  Location     Type
  1334 ;;  ret             1   43[BANK0 ] unsigned char 
  1335 ;; Return value:  Size  Location     Type
  1336 ;;                  1    wreg      unsigned char 
  1337 ;; Registers used:
  1338 ;;		wreg, fsr2l, fsr2h, status,2, status,0, prodl, prodh, cstack
  1339 ;; Tracked objects:
  1340 ;;		On entry : 0/0
  1341 ;;		On exit  : 0/0
  1342 ;;		Unchanged: 0/0
  1343 ;; Data sizes:     COMRAM   BANK0   BANK1   BANK2   BANK3   BANK4   BANK5   BANK6   BANK7   BANK8   BANK9  BANK10  BANK1
      +1  BANK12  BANK13  BANK14  BANK15
  1344 ;;      Params:         0       2       0       0       0       0       0       0       0       0       0       0       
      +0       0       0       0       0
  1345 ;;      Locals:         0       1       0       0       0       0       0       0       0       0       0       0       
      +0       0       0       0       0
  1346 ;;      Temps:          0       1       0       0       0       0       0       0       0       0       0       0       
      +0       0       0       0       0
  1347 ;;      Totals:         0       4       0       0       0       0       0       0       0       0       0       0       
      +0       0       0       0       0
  1348 ;;Total ram usage:        4 bytes
  1349 ;; Hardware stack levels used: 1
  1350 ;; Hardware stack levels required when called: 15
  1351 ;; This function calls:
  1352 ;;		_gpio_pin_direction_initialize
  1353 ;;		_gpio_pin_write_logic
  1354 ;; This function is called by:
  1355 ;;		_lcd_4bit_initialize
  1356 ;;		_seven_segment_initialize
  1357 ;;		_lcd_8bit_initialize
  1358 ;;		_dc_motor_initialize
  1359 ;;		_keypad_initialize
  1360 ;;		_led_initialize
  1361 ;;		_relay_initialize
  1362 ;; This function uses a non-reentrant model
  1363 ;;
  1364                           
  1365                           	psect	text7
  1366   0019C2                     __ptext7:
  1367                           	callstack 0
  1368   0019C2                     _gpio_pin_initialize:
  1369                           	callstack 12
  1370   0019C2                     
  1371                           ;MCAL_Layer/GPIO/hal_gpio.c: 26:     if((pin_config==((void*)0))||(pin_config->pin>8 -1)
      +                          ||(pin_config->port>5 -1)){
  1372   0019C2  0100               	movlb	0	; () banked
  1373   0019C4  51A8               	movf	gpio_pin_initialize@pin_config& (0+255),w,b
  1374   0019C6  11A9               	iorwf	(gpio_pin_initialize@pin_config+1)& (0+255),w,b
  1375   0019C8  B4D8               	btfsc	status,2,c
  1376   0019CA  EFE9  F00C         	goto	u4641
  1377   0019CE  EFEB  F00C         	goto	u4640
  1378   0019D2                     u4641:
  1379   0019D2  EF0B  F00D         	goto	l5375
  1380   0019D6                     u4640:
  1381   0019D6                     
  1382                           ; BSR set to: 0
  1383   0019D6  C0A8  FFD9         	movff	gpio_pin_initialize@pin_config,fsr2l
  1384   0019DA  C0A9  FFDA         	movff	gpio_pin_initialize@pin_config+1,fsr2h
  1385   0019DE  30DF               	rrcf	223,w,c
  1386   0019E0  32E8               	rrcf	wreg,f,c
  1387   0019E2  32E8               	rrcf	wreg,f,c
  1388   0019E4  0B07               	andlw	7
  1389   0019E6  6FAA               	movwf	??_gpio_pin_initialize& (0+255),b
  1390   0019E8  0E08               	movlw	8
  1391   0019EA  61AA               	cpfslt	??_gpio_pin_initialize& (0+255),b
  1392   0019EC  EFFA  F00C         	goto	u4651
  1393   0019F0  EFFC  F00C         	goto	u4650
  1394   0019F4                     u4651:
  1395   0019F4  EF0B  F00D         	goto	l5375
  1396   0019F8                     u4650:
  1397   0019F8                     
  1398                           ; BSR set to: 0
  1399   0019F8  C0A8  FFD9         	movff	gpio_pin_initialize@pin_config,fsr2l
  1400   0019FC  C0A9  FFDA         	movff	gpio_pin_initialize@pin_config+1,fsr2h
  1401   001A00  50DF               	movf	223,w,c
  1402   001A02  0B07               	andlw	7
  1403   001A04  6FAA               	movwf	??_gpio_pin_initialize& (0+255),b
  1404   001A06  0E04               	movlw	4
  1405   001A08  65AA               	cpfsgt	??_gpio_pin_initialize& (0+255),b
  1406   001A0A  EF09  F00D         	goto	u4661
  1407   001A0E  EF0B  F00D         	goto	u4660
  1408   001A12                     u4661:
  1409   001A12  EF0F  F00D         	goto	l5377
  1410   001A16                     u4660:
  1411   001A16                     l5375:
  1412                           
  1413                           ; BSR set to: 0
  1414                           ;MCAL_Layer/GPIO/hal_gpio.c: 27:         ret=(Std_ReturnType)0x00;
  1415   001A16  0E00               	movlw	0
  1416   001A18  6FAB               	movwf	gpio_pin_initialize@ret& (0+255),b
  1417                           
  1418                           ;MCAL_Layer/GPIO/hal_gpio.c: 28:     }
  1419   001A1A  EF27  F00D         	goto	l5379
  1420   001A1E                     l5377:
  1421                           
  1422                           ; BSR set to: 0
  1423                           ;MCAL_Layer/GPIO/hal_gpio.c: 30:         ret=gpio_pin_direction_initialize(pin_config);
  1424   001A1E  C0A8  F09E         	movff	gpio_pin_initialize@pin_config,gpio_pin_direction_initialize@pin_config
  1425   001A22  C0A9  F09F         	movff	gpio_pin_initialize@pin_config+1,gpio_pin_direction_initialize@pin_config+1
  1426   001A26  ECFC  F008         	call	_gpio_pin_direction_initialize	;wreg free
  1427   001A2A  0100               	movlb	0	; () banked
  1428   001A2C  6FAB               	movwf	gpio_pin_initialize@ret& (0+255),b
  1429                           
  1430                           ;MCAL_Layer/GPIO/hal_gpio.c: 31:         ret=gpio_pin_write_logic(pin_config,pin_config-
      +                          >logic);
  1431   001A2E  C0A8  F09E         	movff	gpio_pin_initialize@pin_config,gpio_pin_write_logic@pin_config
  1432   001A32  C0A9  F09F         	movff	gpio_pin_initialize@pin_config+1,gpio_pin_write_logic@pin_config+1
  1433   001A36  C0A8  FFD9         	movff	gpio_pin_initialize@pin_config,fsr2l
  1434   001A3A  C0A9  FFDA         	movff	gpio_pin_initialize@pin_config+1,fsr2h
  1435   001A3E  0E00               	movlw	0
  1436   001A40  BEDF               	btfsc	indf2,7,c
  1437   001A42  0E01               	movlw	1
  1438   001A44  6FA0               	movwf	gpio_pin_write_logic@logic& (0+255),b
  1439   001A46  ECB0  F009         	call	_gpio_pin_write_logic	;wreg free
  1440   001A4A  0100               	movlb	0	; () banked
  1441   001A4C  6FAB               	movwf	gpio_pin_initialize@ret& (0+255),b
  1442   001A4E                     l5379:
  1443                           
  1444                           ; BSR set to: 0
  1445                           ;MCAL_Layer/GPIO/hal_gpio.c: 33:     return ret;
  1446   001A4E  51AB               	movf	gpio_pin_initialize@ret& (0+255),w,b
  1447   001A50                     
  1448                           ; BSR set to: 0
  1449   001A50  0012               	return		;funcret
  1450   001A52                     __end_of_gpio_pin_initialize:
  1451                           	callstack 0
  1452                           
  1453 ;; *************** function _gpio_pin_write_logic *****************
  1454 ;; Defined at:
  1455 ;;		line 94 in file "MCAL_Layer/GPIO/hal_gpio.c"
  1456 ;; Parameters:    Size  Location     Type
  1457 ;;  pin_config      2   30[BANK0 ] PTR const struct .
  1458 ;;		 -> lcd1.lcd_data(4), lcd1(6), relay_turn_off@pin_obj(1), relay_turn_on@pin_obj(1), 
  1459 ;;		 -> relay_initialize@pin_obj(1), led_turn_off@pin_obj(1), led_turn_on@pin_obj(1), led_initialize@pin_obj(1), 
  1460 ;;  logic           1   32[BANK0 ] enum E3153
  1461 ;; Auto vars:     Size  Location     Type
  1462 ;;  ret             1   39[BANK0 ] unsigned char 
  1463 ;; Return value:  Size  Location     Type
  1464 ;;                  1    wreg      unsigned char 
  1465 ;; Registers used:
  1466 ;;		wreg, fsr2l, fsr2h, status,2, status,0, prodl, prodh
  1467 ;; Tracked objects:
  1468 ;;		On entry : 0/0
  1469 ;;		On exit  : 0/0
  1470 ;;		Unchanged: 0/0
  1471 ;; Data sizes:     COMRAM   BANK0   BANK1   BANK2   BANK3   BANK4   BANK5   BANK6   BANK7   BANK8   BANK9  BANK10  BANK1
      +1  BANK12  BANK13  BANK14  BANK15
  1472 ;;      Params:         0       3       0       0       0       0       0       0       0       0       0       0       
      +0       0       0       0       0
  1473 ;;      Locals:         0       1       0       0       0       0       0       0       0       0       0       0       
      +0       0       0       0       0
  1474 ;;      Temps:          0       6       0       0       0       0       0       0       0       0       0       0       
      +0       0       0       0       0
  1475 ;;      Totals:         0      10       0       0       0       0       0       0       0       0       0       0       
      +0       0       0       0       0
  1476 ;;Total ram usage:       10 bytes
  1477 ;; Hardware stack levels used: 1
  1478 ;; Hardware stack levels required when called: 14
  1479 ;; This function calls:
  1480 ;;		Nothing
  1481 ;; This function is called by:
  1482 ;;		_lcd_4bit_send_command
  1483 ;;		_lcd_send_4bits
  1484 ;;		_lcd_4bit_send_enable_signal
  1485 ;;		_gpio_pin_initialize
  1486 ;;		_seven_segment_write_number
  1487 ;;		_lcd_8bit_send_command
  1488 ;;		_lcd_8bit_send_char_data
  1489 ;;		_lcd_8bit_send_enable_signal
  1490 ;;		_dc_motor_move_right
  1491 ;;		_dc_motor_move_left
  1492 ;;		_dc_motor_stop
  1493 ;;		_keypad_get_value
  1494 ;;		_led_turn_on
  1495 ;;		_led_turn_off
  1496 ;;		_relay_turn_on
  1497 ;;		_relay_turn_off
  1498 ;; This function uses a non-reentrant model
  1499 ;;
  1500                           
  1501                           	psect	text8
  1502   001360                     __ptext8:
  1503                           	callstack 0
  1504   001360                     _gpio_pin_write_logic:
  1505                           	callstack 11
  1506   001360                     
  1507                           ;MCAL_Layer/GPIO/hal_gpio.c: 95:       Std_ReturnType ret=(Std_ReturnType)0x01;
  1508   001360  0E01               	movlw	1
  1509   001362  0100               	movlb	0	; () banked
  1510   001364  6FA7               	movwf	gpio_pin_write_logic@ret& (0+255),b
  1511   001366                     
  1512                           ; BSR set to: 0
  1513                           ;MCAL_Layer/GPIO/hal_gpio.c: 96:     if((pin_config==((void*)0))||(pin_config->pin>8 -1)
      +                          ||(pin_config->port>5 -1)){
  1514   001366  519E               	movf	gpio_pin_write_logic@pin_config& (0+255),w,b
  1515   001368  119F               	iorwf	(gpio_pin_write_logic@pin_config+1)& (0+255),w,b
  1516   00136A  B4D8               	btfsc	status,2,c
  1517   00136C  EFBA  F009         	goto	u4431
  1518   001370  EFBC  F009         	goto	u4430
  1519   001374                     u4431:
  1520   001374  EFDC  F009         	goto	l5241
  1521   001378                     u4430:
  1522   001378                     
  1523                           ; BSR set to: 0
  1524   001378  C09E  FFD9         	movff	gpio_pin_write_logic@pin_config,fsr2l
  1525   00137C  C09F  FFDA         	movff	gpio_pin_write_logic@pin_config+1,fsr2h
  1526   001380  30DF               	rrcf	223,w,c
  1527   001382  32E8               	rrcf	wreg,f,c
  1528   001384  32E8               	rrcf	wreg,f,c
  1529   001386  0B07               	andlw	7
  1530   001388  6FA1               	movwf	??_gpio_pin_write_logic& (0+255),b
  1531   00138A  0E08               	movlw	8
  1532   00138C  61A1               	cpfslt	??_gpio_pin_write_logic& (0+255),b
  1533   00138E  EFCB  F009         	goto	u4441
  1534   001392  EFCD  F009         	goto	u4440
  1535   001396                     u4441:
  1536   001396  EFDC  F009         	goto	l5241
  1537   00139A                     u4440:
  1538   00139A                     
  1539                           ; BSR set to: 0
  1540   00139A  C09E  FFD9         	movff	gpio_pin_write_logic@pin_config,fsr2l
  1541   00139E  C09F  FFDA         	movff	gpio_pin_write_logic@pin_config+1,fsr2h
  1542   0013A2  50DF               	movf	223,w,c
  1543   0013A4  0B07               	andlw	7
  1544   0013A6  6FA1               	movwf	??_gpio_pin_write_logic& (0+255),b
  1545   0013A8  0E04               	movlw	4
  1546   0013AA  65A1               	cpfsgt	??_gpio_pin_write_logic& (0+255),b
  1547   0013AC  EFDA  F009         	goto	u4451
  1548   0013B0  EFDC  F009         	goto	u4450
  1549   0013B4                     u4451:
  1550   0013B4  EF41  F00A         	goto	l5249
  1551   0013B8                     u4450:
  1552   0013B8                     l5241:
  1553                           
  1554                           ; BSR set to: 0
  1555                           ;MCAL_Layer/GPIO/hal_gpio.c: 97:         ret=(Std_ReturnType)0x00;
  1556   0013B8  0E00               	movlw	0
  1557   0013BA  6FA7               	movwf	gpio_pin_write_logic@ret& (0+255),b
  1558                           
  1559                           ;MCAL_Layer/GPIO/hal_gpio.c: 98:     }
  1560   0013BC  EF56  F00A         	goto	l5251
  1561   0013C0                     l5243:
  1562                           
  1563                           ; BSR set to: 0
  1564                           ;MCAL_Layer/GPIO/hal_gpio.c: 102:                 (*lat_registers[pin_config->port]|=((u
      +                          int8)0x01<<pin_config->pin));
  1565   0013C0  C09E  FFD9         	movff	gpio_pin_write_logic@pin_config,fsr2l
  1566   0013C4  C09F  FFDA         	movff	gpio_pin_write_logic@pin_config+1,fsr2h
  1567   0013C8  30DF               	rrcf	223,w,c
  1568   0013CA  32E8               	rrcf	wreg,f,c
  1569   0013CC  32E8               	rrcf	wreg,f,c
  1570   0013CE  0B07               	andlw	7
  1571   0013D0  6FA1               	movwf	??_gpio_pin_write_logic& (0+255),b
  1572   0013D2  0E01               	movlw	1
  1573   0013D4  6FA2               	movwf	(??_gpio_pin_write_logic+1)& (0+255),b
  1574   0013D6  2BA1               	incf	??_gpio_pin_write_logic& (0+255),f,b
  1575   0013D8  EFF0  F009         	goto	u4464
  1576   0013DC                     u4465:
  1577   0013DC  90D8               	bcf	status,0,c
  1578   0013DE  37A2               	rlcf	(??_gpio_pin_write_logic+1)& (0+255),f,b
  1579   0013E0                     u4464:
  1580   0013E0  2FA1               	decfsz	??_gpio_pin_write_logic& (0+255),f,b
  1581   0013E2  EFEE  F009         	goto	u4465
  1582   0013E6  C09E  FFD9         	movff	gpio_pin_write_logic@pin_config,fsr2l
  1583   0013EA  C09F  FFDA         	movff	gpio_pin_write_logic@pin_config+1,fsr2h
  1584   0013EE  50DF               	movf	223,w,c
  1585   0013F0  0B07               	andlw	7
  1586   0013F2  0100               	movlb	0	; () banked
  1587   0013F4  6FA3               	movwf	(??_gpio_pin_write_logic+2)& (0+255),b
  1588   0013F6  51A3               	movf	(??_gpio_pin_write_logic+2)& (0+255),w,b
  1589   0013F8  0D02               	mullw	2
  1590   0013FA  0EB4               	movlw	low _lat_registers
  1591   0013FC  24F3               	addwf	243,w,c
  1592   0013FE  6ED9               	movwf	fsr2l,c
  1593   001400  0E00               	movlw	high _lat_registers
  1594   001402  20F4               	addwfc	prodh,w,c
  1595   001404  6EDA               	movwf	fsr2h,c
  1596   001406  CFDE F0A4          	movff	postinc2,??_gpio_pin_write_logic+3
  1597   00140A  CFDD F0A5          	movff	postdec2,??_gpio_pin_write_logic+4
  1598   00140E  C0A4  FFD9         	movff	??_gpio_pin_write_logic+3,fsr2l
  1599   001412  C0A5  FFDA         	movff	??_gpio_pin_write_logic+4,fsr2h
  1600   001416  51A2               	movf	(??_gpio_pin_write_logic+1)& (0+255),w,b
  1601   001418  12DF               	iorwf	indf2,f,c
  1602                           
  1603                           ;MCAL_Layer/GPIO/hal_gpio.c: 103:                 break;
  1604   00141A  EF56  F00A         	goto	l5251
  1605   00141E                     l5245:
  1606                           
  1607                           ; BSR set to: 0
  1608                           ;MCAL_Layer/GPIO/hal_gpio.c: 105:                 (*lat_registers[pin_config->port]&=~((
      +                          uint8)0x01<<pin_config->pin));
  1609   00141E  C09E  FFD9         	movff	gpio_pin_write_logic@pin_config,fsr2l
  1610   001422  C09F  FFDA         	movff	gpio_pin_write_logic@pin_config+1,fsr2h
  1611   001426  30DF               	rrcf	223,w,c
  1612   001428  32E8               	rrcf	wreg,f,c
  1613   00142A  32E8               	rrcf	wreg,f,c
  1614   00142C  0B07               	andlw	7
  1615   00142E  6FA1               	movwf	??_gpio_pin_write_logic& (0+255),b
  1616   001430  0E01               	movlw	1
  1617   001432  6FA2               	movwf	(??_gpio_pin_write_logic+1)& (0+255),b
  1618   001434  2BA1               	incf	??_gpio_pin_write_logic& (0+255),f,b
  1619   001436  EF1F  F00A         	goto	u4474
  1620   00143A                     u4475:
  1621   00143A  90D8               	bcf	status,0,c
  1622   00143C  37A2               	rlcf	(??_gpio_pin_write_logic+1)& (0+255),f,b
  1623   00143E                     u4474:
  1624   00143E  2FA1               	decfsz	??_gpio_pin_write_logic& (0+255),f,b
  1625   001440  EF1D  F00A         	goto	u4475
  1626   001444  0100               	movlb	0	; () banked
  1627   001446  51A2               	movf	(??_gpio_pin_write_logic+1)& (0+255),w,b
  1628   001448  0AFF               	xorlw	255
  1629   00144A  6FA3               	movwf	(??_gpio_pin_write_logic+2)& (0+255),b
  1630   00144C  C09E  FFD9         	movff	gpio_pin_write_logic@pin_config,fsr2l
  1631   001450  C09F  FFDA         	movff	gpio_pin_write_logic@pin_config+1,fsr2h
  1632   001454  50DF               	movf	223,w,c
  1633   001456  0B07               	andlw	7
  1634   001458  6FA4               	movwf	(??_gpio_pin_write_logic+3)& (0+255),b
  1635   00145A  51A4               	movf	(??_gpio_pin_write_logic+3)& (0+255),w,b
  1636   00145C  0D02               	mullw	2
  1637   00145E  0EB4               	movlw	low _lat_registers
  1638   001460  24F3               	addwf	243,w,c
  1639   001462  6ED9               	movwf	fsr2l,c
  1640   001464  0E00               	movlw	high _lat_registers
  1641   001466  20F4               	addwfc	prodh,w,c
  1642   001468  6EDA               	movwf	fsr2h,c
  1643   00146A  CFDE F0A5          	movff	postinc2,??_gpio_pin_write_logic+4
  1644   00146E  CFDD F0A6          	movff	postdec2,??_gpio_pin_write_logic+5
  1645   001472  C0A5  FFD9         	movff	??_gpio_pin_write_logic+4,fsr2l
  1646   001476  C0A6  FFDA         	movff	??_gpio_pin_write_logic+5,fsr2h
  1647   00147A  51A3               	movf	(??_gpio_pin_write_logic+2)& (0+255),w,b
  1648   00147C  16DF               	andwf	indf2,f,c
  1649                           
  1650                           ;MCAL_Layer/GPIO/hal_gpio.c: 106:                 break;
  1651   00147E  EF56  F00A         	goto	l5251
  1652   001482                     l5249:
  1653                           
  1654                           ; BSR set to: 0
  1655   001482  51A0               	movf	gpio_pin_write_logic@logic& (0+255),w,b
  1656   001484  6FA1               	movwf	??_gpio_pin_write_logic& (0+255),b
  1657   001486  6BA2               	clrf	(??_gpio_pin_write_logic+1)& (0+255),b
  1658                           
  1659                           ; Switch on 2 bytes has been partitioned into a top level switch of size 1, and 1 sub-sw
      +                          itches
  1660                           ; Switch size 1, requested type "simple"
  1661                           ; Number of cases is 1, Range of values is 0 to 0
  1662                           ; switch strategies available:
  1663                           ; Name         Instructions Cycles
  1664                           ; simple_byte            4     3 (average)
  1665                           ;	Chosen strategy is simple_byte
  1666   001488  51A2               	movf	(??_gpio_pin_write_logic+1)& (0+255),w,b
  1667   00148A  0A00               	xorlw	0	; case 0
  1668   00148C  B4D8               	btfsc	status,2,c
  1669   00148E  EF4B  F00A         	goto	l6281
  1670   001492  EFDC  F009         	goto	l5241
  1671   001496                     l6281:
  1672                           
  1673                           ; BSR set to: 0
  1674                           ; Switch size 1, requested type "simple"
  1675                           ; Number of cases is 2, Range of values is 0 to 1
  1676                           ; switch strategies available:
  1677                           ; Name         Instructions Cycles
  1678                           ; simple_byte            7     4 (average)
  1679                           ;	Chosen strategy is simple_byte
  1680   001496  51A1               	movf	??_gpio_pin_write_logic& (0+255),w,b
  1681   001498  0A00               	xorlw	0	; case 0
  1682   00149A  B4D8               	btfsc	status,2,c
  1683   00149C  EF0F  F00A         	goto	l5245
  1684   0014A0  0A01               	xorlw	1	; case 1
  1685   0014A2  B4D8               	btfsc	status,2,c
  1686   0014A4  EFE0  F009         	goto	l5243
  1687   0014A8  EFDC  F009         	goto	l5241
  1688   0014AC                     l5251:
  1689                           
  1690                           ; BSR set to: 0
  1691                           ;MCAL_Layer/GPIO/hal_gpio.c: 110:     return ret;
  1692   0014AC  51A7               	movf	gpio_pin_write_logic@ret& (0+255),w,b
  1693   0014AE                     
  1694                           ; BSR set to: 0
  1695   0014AE  0012               	return		;funcret
  1696   0014B0                     __end_of_gpio_pin_write_logic:
  1697                           	callstack 0
  1698                           
  1699 ;; *************** function _gpio_pin_direction_initialize *****************
  1700 ;; Defined at:
  1701 ;;		line 44 in file "MCAL_Layer/GPIO/hal_gpio.c"
  1702 ;; Parameters:    Size  Location     Type
  1703 ;;  pin_config      2   30[BANK0 ] PTR const struct .
  1704 ;;		 -> lcd1.lcd_data(4), lcd1(6), relay_initialize@pin_obj(1), led_initialize@pin_obj(1), 
  1705 ;; Auto vars:     Size  Location     Type
  1706 ;;  ret             1   38[BANK0 ] unsigned char 
  1707 ;; Return value:  Size  Location     Type
  1708 ;;                  1    wreg      unsigned char 
  1709 ;; Registers used:
  1710 ;;		wreg, fsr2l, fsr2h, status,2, status,0, prodl, prodh
  1711 ;; Tracked objects:
  1712 ;;		On entry : 0/0
  1713 ;;		On exit  : 0/0
  1714 ;;		Unchanged: 0/0
  1715 ;; Data sizes:     COMRAM   BANK0   BANK1   BANK2   BANK3   BANK4   BANK5   BANK6   BANK7   BANK8   BANK9  BANK10  BANK1
      +1  BANK12  BANK13  BANK14  BANK15
  1716 ;;      Params:         0       2       0       0       0       0       0       0       0       0       0       0       
      +0       0       0       0       0
  1717 ;;      Locals:         0       1       0       0       0       0       0       0       0       0       0       0       
      +0       0       0       0       0
  1718 ;;      Temps:          0       6       0       0       0       0       0       0       0       0       0       0       
      +0       0       0       0       0
  1719 ;;      Totals:         0       9       0       0       0       0       0       0       0       0       0       0       
      +0       0       0       0       0
  1720 ;;Total ram usage:        9 bytes
  1721 ;; Hardware stack levels used: 1
  1722 ;; Hardware stack levels required when called: 14
  1723 ;; This function calls:
  1724 ;;		Nothing
  1725 ;; This function is called by:
  1726 ;;		_gpio_pin_initialize
  1727 ;;		_button_initialize
  1728 ;;		_keypad_initialize
  1729 ;;		_Interrupt_INTx_Pin_Init
  1730 ;;		_Interrupt_RBx_Pin_Init
  1731 ;; This function uses a non-reentrant model
  1732 ;;
  1733                           
  1734                           	psect	text9
  1735   0011F8                     __ptext9:
  1736                           	callstack 0
  1737   0011F8                     _gpio_pin_direction_initialize:
  1738                           	callstack 12
  1739   0011F8                     
  1740                           ;MCAL_Layer/GPIO/hal_gpio.c: 45:     Std_ReturnType ret=(Std_ReturnType)0x01;
  1741   0011F8  0E01               	movlw	1
  1742   0011FA  0100               	movlb	0	; () banked
  1743   0011FC  6FA6               	movwf	gpio_pin_direction_initialize@ret& (0+255),b
  1744   0011FE                     
  1745                           ; BSR set to: 0
  1746                           ;MCAL_Layer/GPIO/hal_gpio.c: 46:     if((pin_config==((void*)0))||(pin_config->pin>8 -1)
      +                          ||(pin_config->port>5 -1)){
  1747   0011FE  519E               	movf	gpio_pin_direction_initialize@pin_config& (0+255),w,b
  1748   001200  119F               	iorwf	(gpio_pin_direction_initialize@pin_config+1)& (0+255),w,b
  1749   001202  B4D8               	btfsc	status,2,c
  1750   001204  EF06  F009         	goto	u4531
  1751   001208  EF08  F009         	goto	u4530
  1752   00120C                     u4531:
  1753   00120C  EF28  F009         	goto	l5293
  1754   001210                     u4530:
  1755   001210                     
  1756                           ; BSR set to: 0
  1757   001210  C09E  FFD9         	movff	gpio_pin_direction_initialize@pin_config,fsr2l
  1758   001214  C09F  FFDA         	movff	gpio_pin_direction_initialize@pin_config+1,fsr2h
  1759   001218  30DF               	rrcf	223,w,c
  1760   00121A  32E8               	rrcf	wreg,f,c
  1761   00121C  32E8               	rrcf	wreg,f,c
  1762   00121E  0B07               	andlw	7
  1763   001220  6FA0               	movwf	??_gpio_pin_direction_initialize& (0+255),b
  1764   001222  0E08               	movlw	8
  1765   001224  61A0               	cpfslt	??_gpio_pin_direction_initialize& (0+255),b
  1766   001226  EF17  F009         	goto	u4541
  1767   00122A  EF19  F009         	goto	u4540
  1768   00122E                     u4541:
  1769   00122E  EF28  F009         	goto	l5293
  1770   001232                     u4540:
  1771   001232                     
  1772                           ; BSR set to: 0
  1773   001232  C09E  FFD9         	movff	gpio_pin_direction_initialize@pin_config,fsr2l
  1774   001236  C09F  FFDA         	movff	gpio_pin_direction_initialize@pin_config+1,fsr2h
  1775   00123A  50DF               	movf	223,w,c
  1776   00123C  0B07               	andlw	7
  1777   00123E  6FA0               	movwf	??_gpio_pin_direction_initialize& (0+255),b
  1778   001240  0E04               	movlw	4
  1779   001242  65A0               	cpfsgt	??_gpio_pin_direction_initialize& (0+255),b
  1780   001244  EF26  F009         	goto	u4551
  1781   001248  EF28  F009         	goto	u4550
  1782   00124C                     u4551:
  1783   00124C  EF8D  F009         	goto	l5301
  1784   001250                     u4550:
  1785   001250                     l5293:
  1786                           
  1787                           ; BSR set to: 0
  1788                           ;MCAL_Layer/GPIO/hal_gpio.c: 47:         ret=(Std_ReturnType)0x00;
  1789   001250  0E00               	movlw	0
  1790   001252  6FA6               	movwf	gpio_pin_direction_initialize@ret& (0+255),b
  1791                           
  1792                           ;MCAL_Layer/GPIO/hal_gpio.c: 48:     }
  1793   001254  EFAE  F009         	goto	l5303
  1794   001258                     l5295:
  1795                           
  1796                           ; BSR set to: 0
  1797                           ;MCAL_Layer/GPIO/hal_gpio.c: 52:                 (*tris_registers[pin_config->port]&=~((
      +                          uint8)0x01<<pin_config->pin));
  1798   001258  C09E  FFD9         	movff	gpio_pin_direction_initialize@pin_config,fsr2l
  1799   00125C  C09F  FFDA         	movff	gpio_pin_direction_initialize@pin_config+1,fsr2h
  1800   001260  30DF               	rrcf	223,w,c
  1801   001262  32E8               	rrcf	wreg,f,c
  1802   001264  32E8               	rrcf	wreg,f,c
  1803   001266  0B07               	andlw	7
  1804   001268  6FA0               	movwf	??_gpio_pin_direction_initialize& (0+255),b
  1805   00126A  0E01               	movlw	1
  1806   00126C  6FA1               	movwf	(??_gpio_pin_direction_initialize+1)& (0+255),b
  1807   00126E  2BA0               	incf	??_gpio_pin_direction_initialize& (0+255),f,b
  1808   001270  EF3C  F009         	goto	u4564
  1809   001274                     u4565:
  1810   001274  90D8               	bcf	status,0,c
  1811   001276  37A1               	rlcf	(??_gpio_pin_direction_initialize+1)& (0+255),f,b
  1812   001278                     u4564:
  1813   001278  2FA0               	decfsz	??_gpio_pin_direction_initialize& (0+255),f,b
  1814   00127A  EF3A  F009         	goto	u4565
  1815   00127E  0100               	movlb	0	; () banked
  1816   001280  51A1               	movf	(??_gpio_pin_direction_initialize+1)& (0+255),w,b
  1817   001282  0AFF               	xorlw	255
  1818   001284  6FA2               	movwf	(??_gpio_pin_direction_initialize+2)& (0+255),b
  1819   001286  C09E  FFD9         	movff	gpio_pin_direction_initialize@pin_config,fsr2l
  1820   00128A  C09F  FFDA         	movff	gpio_pin_direction_initialize@pin_config+1,fsr2h
  1821   00128E  50DF               	movf	223,w,c
  1822   001290  0B07               	andlw	7
  1823   001292  6FA3               	movwf	(??_gpio_pin_direction_initialize+3)& (0+255),b
  1824   001294  51A3               	movf	(??_gpio_pin_direction_initialize+3)& (0+255),w,b
  1825   001296  0D02               	mullw	2
  1826   001298  0EBE               	movlw	low _tris_registers
  1827   00129A  24F3               	addwf	243,w,c
  1828   00129C  6ED9               	movwf	fsr2l,c
  1829   00129E  0E00               	movlw	high _tris_registers
  1830   0012A0  20F4               	addwfc	prodh,w,c
  1831   0012A2  6EDA               	movwf	fsr2h,c
  1832   0012A4  CFDE F0A4          	movff	postinc2,??_gpio_pin_direction_initialize+4
  1833   0012A8  CFDD F0A5          	movff	postdec2,??_gpio_pin_direction_initialize+5
  1834   0012AC  C0A4  FFD9         	movff	??_gpio_pin_direction_initialize+4,fsr2l
  1835   0012B0  C0A5  FFDA         	movff	??_gpio_pin_direction_initialize+5,fsr2h
  1836   0012B4  51A2               	movf	(??_gpio_pin_direction_initialize+2)& (0+255),w,b
  1837   0012B6  16DF               	andwf	indf2,f,c
  1838                           
  1839                           ;MCAL_Layer/GPIO/hal_gpio.c: 53:                 break;
  1840   0012B8  EFAE  F009         	goto	l5303
  1841   0012BC                     l5297:
  1842                           
  1843                           ; BSR set to: 0
  1844                           ;MCAL_Layer/GPIO/hal_gpio.c: 55:                 (*tris_registers[pin_config->port]|=((u
      +                          int8)0x01<<pin_config->pin));
  1845   0012BC  C09E  FFD9         	movff	gpio_pin_direction_initialize@pin_config,fsr2l
  1846   0012C0  C09F  FFDA         	movff	gpio_pin_direction_initialize@pin_config+1,fsr2h
  1847   0012C4  30DF               	rrcf	223,w,c
  1848   0012C6  32E8               	rrcf	wreg,f,c
  1849   0012C8  32E8               	rrcf	wreg,f,c
  1850   0012CA  0B07               	andlw	7
  1851   0012CC  6FA0               	movwf	??_gpio_pin_direction_initialize& (0+255),b
  1852   0012CE  0E01               	movlw	1
  1853   0012D0  6FA1               	movwf	(??_gpio_pin_direction_initialize+1)& (0+255),b
  1854   0012D2  2BA0               	incf	??_gpio_pin_direction_initialize& (0+255),f,b
  1855   0012D4  EF6E  F009         	goto	u4574
  1856   0012D8                     u4575:
  1857   0012D8  90D8               	bcf	status,0,c
  1858   0012DA  37A1               	rlcf	(??_gpio_pin_direction_initialize+1)& (0+255),f,b
  1859   0012DC                     u4574:
  1860   0012DC  2FA0               	decfsz	??_gpio_pin_direction_initialize& (0+255),f,b
  1861   0012DE  EF6C  F009         	goto	u4575
  1862   0012E2  C09E  FFD9         	movff	gpio_pin_direction_initialize@pin_config,fsr2l
  1863   0012E6  C09F  FFDA         	movff	gpio_pin_direction_initialize@pin_config+1,fsr2h
  1864   0012EA  50DF               	movf	223,w,c
  1865   0012EC  0B07               	andlw	7
  1866   0012EE  0100               	movlb	0	; () banked
  1867   0012F0  6FA2               	movwf	(??_gpio_pin_direction_initialize+2)& (0+255),b
  1868   0012F2  51A2               	movf	(??_gpio_pin_direction_initialize+2)& (0+255),w,b
  1869   0012F4  0D02               	mullw	2
  1870   0012F6  0EBE               	movlw	low _tris_registers
  1871   0012F8  24F3               	addwf	243,w,c
  1872   0012FA  6ED9               	movwf	fsr2l,c
  1873   0012FC  0E00               	movlw	high _tris_registers
  1874   0012FE  20F4               	addwfc	prodh,w,c
  1875   001300  6EDA               	movwf	fsr2h,c
  1876   001302  CFDE F0A3          	movff	postinc2,??_gpio_pin_direction_initialize+3
  1877   001306  CFDD F0A4          	movff	postdec2,??_gpio_pin_direction_initialize+4
  1878   00130A  C0A3  FFD9         	movff	??_gpio_pin_direction_initialize+3,fsr2l
  1879   00130E  C0A4  FFDA         	movff	??_gpio_pin_direction_initialize+4,fsr2h
  1880   001312  51A1               	movf	(??_gpio_pin_direction_initialize+1)& (0+255),w,b
  1881   001314  12DF               	iorwf	indf2,f,c
  1882                           
  1883                           ;MCAL_Layer/GPIO/hal_gpio.c: 56:                 break;
  1884   001316  EFAE  F009         	goto	l5303
  1885   00131A                     l5301:
  1886                           
  1887                           ; BSR set to: 0
  1888   00131A  C09E  FFD9         	movff	gpio_pin_direction_initialize@pin_config,fsr2l
  1889   00131E  C09F  FFDA         	movff	gpio_pin_direction_initialize@pin_config+1,fsr2h
  1890   001322  BCDF               	btfsc	indf2,6,c
  1891   001324  EF96  F009         	goto	u4581
  1892   001328  EF99  F009         	goto	u4580
  1893   00132C                     u4581:
  1894   00132C  0E01               	movlw	1
  1895   00132E  EF9A  F009         	goto	u4590
  1896   001332                     u4580:
  1897   001332  0E00               	movlw	0
  1898   001334                     u4590:
  1899   001334  6FA0               	movwf	??_gpio_pin_direction_initialize& (0+255),b
  1900   001336  6BA1               	clrf	(??_gpio_pin_direction_initialize+1)& (0+255),b
  1901                           
  1902                           ; Switch on 2 bytes has been partitioned into a top level switch of size 1, and 1 sub-sw
      +                          itches
  1903                           ; Switch size 1, requested type "simple"
  1904                           ; Number of cases is 1, Range of values is 0 to 0
  1905                           ; switch strategies available:
  1906                           ; Name         Instructions Cycles
  1907                           ; simple_byte            4     3 (average)
  1908                           ;	Chosen strategy is simple_byte
  1909   001338  51A1               	movf	(??_gpio_pin_direction_initialize+1)& (0+255),w,b
  1910   00133A  0A00               	xorlw	0	; case 0
  1911   00133C  B4D8               	btfsc	status,2,c
  1912   00133E  EFA3  F009         	goto	l6283
  1913   001342  EF28  F009         	goto	l5293
  1914   001346                     l6283:
  1915                           
  1916                           ; BSR set to: 0
  1917                           ; Switch size 1, requested type "simple"
  1918                           ; Number of cases is 2, Range of values is 0 to 1
  1919                           ; switch strategies available:
  1920                           ; Name         Instructions Cycles
  1921                           ; simple_byte            7     4 (average)
  1922                           ;	Chosen strategy is simple_byte
  1923   001346  51A0               	movf	??_gpio_pin_direction_initialize& (0+255),w,b
  1924   001348  0A00               	xorlw	0	; case 0
  1925   00134A  B4D8               	btfsc	status,2,c
  1926   00134C  EF2C  F009         	goto	l5295
  1927   001350  0A01               	xorlw	1	; case 1
  1928   001352  B4D8               	btfsc	status,2,c
  1929   001354  EF5E  F009         	goto	l5297
  1930   001358  EF28  F009         	goto	l5293
  1931   00135C                     l5303:
  1932                           
  1933                           ; BSR set to: 0
  1934                           ;MCAL_Layer/GPIO/hal_gpio.c: 61:     return ret;
  1935   00135C  51A6               	movf	gpio_pin_direction_initialize@ret& (0+255),w,b
  1936   00135E                     
  1937                           ; BSR set to: 0
  1938   00135E  0012               	return		;funcret
  1939   001360                     __end_of_gpio_pin_direction_initialize:
  1940                           	callstack 0
  1941                           
  1942 ;; *************** function _Timer0_Init *****************
  1943 ;; Defined at:
  1944 ;;		line 15 in file "MCAL_Layer/Timer/hal_timer0.c"
  1945 ;; Parameters:    Size  Location     Type
  1946 ;;  _timer          2   33[BANK0 ] PTR const struct .
  1947 ;;		 -> tmr0_timer(7), 
  1948 ;; Auto vars:     Size  Location     Type
  1949 ;;  ret             1   37[BANK0 ] unsigned char 
  1950 ;; Return value:  Size  Location     Type
  1951 ;;                  1    wreg      unsigned char 
  1952 ;; Registers used:
  1953 ;;		wreg, fsr2l, fsr2h, status,2, status,0, cstack
  1954 ;; Tracked objects:
  1955 ;;		On entry : 0/0
  1956 ;;		On exit  : 0/0
  1957 ;;		Unchanged: 0/0
  1958 ;; Data sizes:     COMRAM   BANK0   BANK1   BANK2   BANK3   BANK4   BANK5   BANK6   BANK7   BANK8   BANK9  BANK10  BANK1
      +1  BANK12  BANK13  BANK14  BANK15
  1959 ;;      Params:         0       2       0       0       0       0       0       0       0       0       0       0       
      +0       0       0       0       0
  1960 ;;      Locals:         0       1       0       0       0       0       0       0       0       0       0       0       
      +0       0       0       0       0
  1961 ;;      Temps:          0       2       0       0       0       0       0       0       0       0       0       0       
      +0       0       0       0       0
  1962 ;;      Totals:         0       5       0       0       0       0       0       0       0       0       0       0       
      +0       0       0       0       0
  1963 ;;Total ram usage:        5 bytes
  1964 ;; Hardware stack levels used: 1
  1965 ;; Hardware stack levels required when called: 15
  1966 ;; This function calls:
  1967 ;;		_Timer0_Mode_Select
  1968 ;;		_Timer0_Prescaler_Config
  1969 ;;		_Timer0_Register_Size_Config
  1970 ;; This function is called by:
  1971 ;;		_application_initialize
  1972 ;; This function uses a non-reentrant model
  1973 ;;
  1974                           
  1975                           	psect	text10
  1976   001844                     __ptext10:
  1977                           	callstack 0
  1978   001844                     _Timer0_Init:
  1979                           	callstack 14
  1980   001844                     
  1981                           ;MCAL_Layer/Timer/hal_timer0.c: 16:     Std_ReturnType ret=(Std_ReturnType)0x01;
  1982   001844  0E01               	movlw	1
  1983   001846  0100               	movlb	0	; () banked
  1984   001848  6FA5               	movwf	Timer0_Init@ret& (0+255),b
  1985   00184A                     
  1986                           ; BSR set to: 0
  1987                           ;MCAL_Layer/Timer/hal_timer0.c: 17:     if(_timer==((void*)0)){
  1988   00184A  51A1               	movf	Timer0_Init@_timer& (0+255),w,b
  1989   00184C  11A2               	iorwf	(Timer0_Init@_timer+1)& (0+255),w,b
  1990   00184E  A4D8               	btfss	status,2,c
  1991   001850  EF2C  F00C         	goto	u3111
  1992   001854  EF2E  F00C         	goto	u3110
  1993   001858                     u3111:
  1994   001858  EF32  F00C         	goto	l1007
  1995   00185C                     u3110:
  1996   00185C                     
  1997                           ; BSR set to: 0
  1998                           ;MCAL_Layer/Timer/hal_timer0.c: 18:         ret=(Std_ReturnType)0x00;
  1999   00185C  0E00               	movlw	0
  2000   00185E  6FA5               	movwf	Timer0_Init@ret& (0+255),b
  2001                           
  2002                           ;MCAL_Layer/Timer/hal_timer0.c: 19:     }
  2003   001860  EF96  F00C         	goto	l4231
  2004   001864                     l1007:
  2005                           
  2006                           ; BSR set to: 0
  2007                           ;MCAL_Layer/Timer/hal_timer0.c: 21:         ((*((volatile T0CON_t *)(0xFD5))).TMR0ON = 0
      +                          );
  2008   001864  9ED5               	bcf	213,7,c	;volatile
  2009   001866                     
  2010                           ; BSR set to: 0
  2011                           ;MCAL_Layer/Timer/hal_timer0.c: 23:             TMR0_InterruptHandler = _timer->TMR0_Int
      +                          erruptHandler;
  2012   001866  C0A1  FFD9         	movff	Timer0_Init@_timer,fsr2l
  2013   00186A  C0A2  FFDA         	movff	Timer0_Init@_timer+1,fsr2h
  2014   00186E  CFDE F00D          	movff	postinc2,_TMR0_InterruptHandler
  2015   001872  CFDD F00E          	movff	postdec2,_TMR0_InterruptHandler+1
  2016   001876                     
  2017                           ; BSR set to: 0
  2018                           ;MCAL_Layer/Timer/hal_timer0.c: 28:             ((*((volatile INTCON_t *)(0xFF2))).TMR0I
      +                          E=1);
  2019   001876  8AF2               	bsf	242,5,c	;volatile
  2020   001878                     
  2021                           ; BSR set to: 0
  2022                           ;MCAL_Layer/Timer/hal_timer0.c: 29:             ((*((volatile INTCON_t *)(0xFF2))).TMR0I
      +                          F=0);
  2023   001878  94F2               	bcf	242,2,c	;volatile
  2024   00187A                     
  2025                           ; BSR set to: 0
  2026                           ;MCAL_Layer/Timer/hal_timer0.c: 31:                 ((*((volatile RCON_t *)(0xFD0))).IPE
      +                          N=1);
  2027   00187A  8ED0               	bsf	208,7,c	;volatile
  2028   00187C                     
  2029                           ; BSR set to: 0
  2030                           ;MCAL_Layer/Timer/hal_timer0.c: 32:                 if(INTERRUPT_HIGH_PRIORITY == _timer
      +                          ->priority){
  2031   00187C  EE20 F002          	lfsr	2,2
  2032   001880  51A1               	movf	Timer0_Init@_timer& (0+255),w,b
  2033   001882  26D9               	addwf	fsr2l,f,c
  2034   001884  51A2               	movf	(Timer0_Init@_timer+1)& (0+255),w,b
  2035   001886  22DA               	addwfc	fsr2h,f,c
  2036   001888  04DE               	decf	postinc2,w,c
  2037   00188A  A4D8               	btfss	status,2,c
  2038   00188C  EF4A  F00C         	goto	u3121
  2039   001890  EF4C  F00C         	goto	u3120
  2040   001894                     u3121:
  2041   001894  EF50  F00C         	goto	l4217
  2042   001898                     u3120:
  2043   001898                     
  2044                           ; BSR set to: 0
  2045                           ;MCAL_Layer/Timer/hal_timer0.c: 33:                     ((*((volatile INTCON2_t *)(0xFF1
      +                          ))).TMR0IP=1);
  2046   001898  84F1               	bsf	241,2,c	;volatile
  2047                           
  2048                           ;MCAL_Layer/Timer/hal_timer0.c: 34:                     ((*((volatile INTCON_t *)(0xFF2)
      +                          )).GIEH = 1);
  2049   00189A  8EF2               	bsf	242,7,c	;volatile
  2050                           
  2051                           ;MCAL_Layer/Timer/hal_timer0.c: 35:                 }
  2052   00189C  EF61  F00C         	goto	l4221
  2053   0018A0                     l4217:
  2054                           
  2055                           ; BSR set to: 0
  2056   0018A0  EE20 F002          	lfsr	2,2
  2057   0018A4  51A1               	movf	Timer0_Init@_timer& (0+255),w,b
  2058   0018A6  26D9               	addwf	fsr2l,f,c
  2059   0018A8  51A2               	movf	(Timer0_Init@_timer+1)& (0+255),w,b
  2060   0018AA  22DA               	addwfc	fsr2h,f,c
  2061   0018AC  50DF               	movf	indf2,w,c
  2062   0018AE  A4D8               	btfss	status,2,c
  2063   0018B0  EF5C  F00C         	goto	u3131
  2064   0018B4  EF5E  F00C         	goto	u3130
  2065   0018B8                     u3131:
  2066   0018B8  EF61  F00C         	goto	l4221
  2067   0018BC                     u3130:
  2068   0018BC                     
  2069                           ; BSR set to: 0
  2070                           ;MCAL_Layer/Timer/hal_timer0.c: 37:                     ((*((volatile INTCON2_t *)(0xFF1
      +                          ))).TMR0IP=0);
  2071   0018BC  94F1               	bcf	241,2,c	;volatile
  2072                           
  2073                           ;MCAL_Layer/Timer/hal_timer0.c: 38:                     ((*((volatile INTCON_t *)(0xFF2)
      +                          )).GIEH = 1);
  2074   0018BE  8EF2               	bsf	242,7,c	;volatile
  2075                           
  2076                           ;MCAL_Layer/Timer/hal_timer0.c: 39:                     ((*((volatile INTCON_t *)(0xFF2)
      +                          )).GIEL = 1);
  2077   0018C0  8CF2               	bsf	242,6,c	;volatile
  2078   0018C2                     l4221:
  2079                           
  2080                           ; BSR set to: 0
  2081                           ;MCAL_Layer/Timer/hal_timer0.c: 44:         Timer0_Prescaler_Config(_timer);
  2082   0018C2  C0A1  F09E         	movff	Timer0_Init@_timer,Timer0_Prescaler_Config@_timer
  2083   0018C6  C0A2  F09F         	movff	Timer0_Init@_timer+1,Timer0_Prescaler_Config@_timer+1
  2084   0018CA  EC0D  F00F         	call	_Timer0_Prescaler_Config	;wreg free
  2085                           
  2086                           ;MCAL_Layer/Timer/hal_timer0.c: 45:         Timer0_Mode_Select(_timer);
  2087   0018CE  C0A1  F09E         	movff	Timer0_Init@_timer,Timer0_Mode_Select@_timer
  2088   0018D2  C0A2  F09F         	movff	Timer0_Init@_timer+1,Timer0_Mode_Select@_timer+1
  2089   0018D6  ECB5  F00D         	call	_Timer0_Mode_Select	;wreg free
  2090                           
  2091                           ;MCAL_Layer/Timer/hal_timer0.c: 46:         Timer0_Register_Size_Config(_timer);
  2092   0018DA  C0A1  F09E         	movff	Timer0_Init@_timer,Timer0_Register_Size_Config@_timer
  2093   0018DE  C0A2  F09F         	movff	Timer0_Init@_timer+1,Timer0_Register_Size_Config@_timer+1
  2094   0018E2  EC0F  F010         	call	_Timer0_Register_Size_Config	;wreg free
  2095   0018E6                     
  2096                           ;MCAL_Layer/Timer/hal_timer0.c: 47:         timer0_preload = (_timer->timer0_preload_val
      +                          ue);
  2097   0018E6  0100               	movlb	0	; () banked
  2098   0018E8  EE20 F003          	lfsr	2,3
  2099   0018EC  51A1               	movf	Timer0_Init@_timer& (0+255),w,b
  2100   0018EE  26D9               	addwf	fsr2l,f,c
  2101   0018F0  51A2               	movf	(Timer0_Init@_timer+1)& (0+255),w,b
  2102   0018F2  22DA               	addwfc	fsr2h,f,c
  2103   0018F4  CFDE F00B          	movff	postinc2,_timer0_preload
  2104   0018F8  CFDD F00C          	movff	postdec2,_timer0_preload+1
  2105   0018FC                     
  2106                           ; BSR set to: 0
  2107                           ;MCAL_Layer/Timer/hal_timer0.c: 48:         TMR0H = (_timer->timer0_preload_value)>>8;
  2108   0018FC  EE20 F003          	lfsr	2,3
  2109   001900  51A1               	movf	Timer0_Init@_timer& (0+255),w,b
  2110   001902  26D9               	addwf	fsr2l,f,c
  2111   001904  51A2               	movf	(Timer0_Init@_timer+1)& (0+255),w,b
  2112   001906  22DA               	addwfc	fsr2h,f,c
  2113   001908  CFDE F0A3          	movff	postinc2,??_Timer0_Init
  2114   00190C  CFDD F0A4          	movff	postdec2,??_Timer0_Init+1
  2115   001910  C0A4  F0A3         	movff	??_Timer0_Init+1,??_Timer0_Init
  2116   001914  6BA4               	clrf	(??_Timer0_Init+1)& (0+255),b
  2117   001916  51A3               	movf	??_Timer0_Init& (0+255),w,b
  2118   001918  6ED7               	movwf	215,c	;volatile
  2119   00191A                     
  2120                           ; BSR set to: 0
  2121                           ;MCAL_Layer/Timer/hal_timer0.c: 49:         (*((volatile uint8 *)(0xFD6))) = (uint8)(_ti
      +                          mer->timer0_preload_value);
  2122   00191A  EE20 F003          	lfsr	2,3
  2123   00191E  51A1               	movf	Timer0_Init@_timer& (0+255),w,b
  2124   001920  26D9               	addwf	fsr2l,f,c
  2125   001922  51A2               	movf	(Timer0_Init@_timer+1)& (0+255),w,b
  2126   001924  22DA               	addwfc	fsr2h,f,c
  2127   001926  50DF               	movf	indf2,w,c
  2128   001928  6ED6               	movwf	214,c	;volatile
  2129   00192A                     
  2130                           ; BSR set to: 0
  2131                           ;MCAL_Layer/Timer/hal_timer0.c: 50:         ((*((volatile T0CON_t *)(0xFD5))).TMR0ON = 1
      +                          );
  2132   00192A  8ED5               	bsf	213,7,c	;volatile
  2133   00192C                     l4231:
  2134                           
  2135                           ; BSR set to: 0
  2136                           ;MCAL_Layer/Timer/hal_timer0.c: 52:     return ret;
  2137   00192C  51A5               	movf	Timer0_Init@ret& (0+255),w,b
  2138   00192E                     
  2139                           ; BSR set to: 0
  2140   00192E  0012               	return		;funcret
  2141   001930                     __end_of_Timer0_Init:
  2142                           	callstack 0
  2143                           
  2144 ;; *************** function _Timer0_Register_Size_Config *****************
  2145 ;; Defined at:
  2146 ;;		line 150 in file "MCAL_Layer/Timer/hal_timer0.c"
  2147 ;; Parameters:    Size  Location     Type
  2148 ;;  _timer          2   30[BANK0 ] PTR const struct .
  2149 ;;		 -> tmr0_timer(7), 
  2150 ;; Auto vars:     Size  Location     Type
  2151 ;;		None
  2152 ;; Return value:  Size  Location     Type
  2153 ;;                  1    wreg      void 
  2154 ;; Registers used:
  2155 ;;		wreg, fsr2l, fsr2h, status,2, status,0
  2156 ;; Tracked objects:
  2157 ;;		On entry : 0/0
  2158 ;;		On exit  : 0/0
  2159 ;;		Unchanged: 0/0
  2160 ;; Data sizes:     COMRAM   BANK0   BANK1   BANK2   BANK3   BANK4   BANK5   BANK6   BANK7   BANK8   BANK9  BANK10  BANK1
      +1  BANK12  BANK13  BANK14  BANK15
  2161 ;;      Params:         0       2       0       0       0       0       0       0       0       0       0       0       
      +0       0       0       0       0
  2162 ;;      Locals:         0       0       0       0       0       0       0       0       0       0       0       0       
      +0       0       0       0       0
  2163 ;;      Temps:          0       0       0       0       0       0       0       0       0       0       0       0       
      +0       0       0       0       0
  2164 ;;      Totals:         0       2       0       0       0       0       0       0       0       0       0       0       
      +0       0       0       0       0
  2165 ;;Total ram usage:        2 bytes
  2166 ;; Hardware stack levels used: 1
  2167 ;; Hardware stack levels required when called: 14
  2168 ;; This function calls:
  2169 ;;		Nothing
  2170 ;; This function is called by:
  2171 ;;		_Timer0_Init
  2172 ;; This function uses a non-reentrant model
  2173 ;;
  2174                           
  2175                           	psect	text11
  2176   00201E                     __ptext11:
  2177                           	callstack 0
  2178   00201E                     _Timer0_Register_Size_Config:
  2179                           	callstack 14
  2180   00201E                     
  2181                           ;MCAL_Layer/Timer/hal_timer0.c: 151:     if (1 == _timer->timer0_register_size){
  2182   00201E  0100               	movlb	0	; () banked
  2183   002020  EE20 F006          	lfsr	2,6
  2184   002024  519E               	movf	Timer0_Register_Size_Config@_timer& (0+255),w,b
  2185   002026  26D9               	addwf	fsr2l,f,c
  2186   002028  519F               	movf	(Timer0_Register_Size_Config@_timer+1)& (0+255),w,b
  2187   00202A  22DA               	addwfc	fsr2h,f,c
  2188   00202C  A6DF               	btfss	indf2,3,c
  2189   00202E  EF1B  F010         	goto	u3031
  2190   002032  EF1D  F010         	goto	u3030
  2191   002036                     u3031:
  2192   002036  EF20  F010         	goto	l4139
  2193   00203A                     u3030:
  2194   00203A                     
  2195                           ; BSR set to: 0
  2196                           ;MCAL_Layer/Timer/hal_timer0.c: 152:         ((*((volatile T0CON_t *)(0xFD5))).T08BIT = 
      +                          1);
  2197   00203A  8CD5               	bsf	213,6,c	;volatile
  2198                           
  2199                           ;MCAL_Layer/Timer/hal_timer0.c: 153:     }
  2200   00203C  EF2E  F010         	goto	l1060
  2201   002040                     l4139:
  2202                           
  2203                           ; BSR set to: 0
  2204   002040  EE20 F006          	lfsr	2,6
  2205   002044  519E               	movf	Timer0_Register_Size_Config@_timer& (0+255),w,b
  2206   002046  26D9               	addwf	fsr2l,f,c
  2207   002048  519F               	movf	(Timer0_Register_Size_Config@_timer+1)& (0+255),w,b
  2208   00204A  22DA               	addwfc	fsr2h,f,c
  2209   00204C  B6DF               	btfsc	indf2,3,c
  2210   00204E  EF2B  F010         	goto	u3041
  2211   002052  EF2D  F010         	goto	u3040
  2212   002056                     u3041:
  2213   002056  EF2E  F010         	goto	l1060
  2214   00205A                     u3040:
  2215   00205A                     
  2216                           ; BSR set to: 0
  2217                           ;MCAL_Layer/Timer/hal_timer0.c: 155:         ((*((volatile T0CON_t *)(0xFD5))).T08BIT = 
      +                          0);
  2218   00205A  9CD5               	bcf	213,6,c	;volatile
  2219   00205C                     l1060:
  2220                           
  2221                           ; BSR set to: 0
  2222   00205C  0012               	return		;funcret
  2223   00205E                     __end_of_Timer0_Register_Size_Config:
  2224                           	callstack 0
  2225                           
  2226 ;; *************** function _Timer0_Prescaler_Config *****************
  2227 ;; Defined at:
  2228 ;;		line 122 in file "MCAL_Layer/Timer/hal_timer0.c"
  2229 ;; Parameters:    Size  Location     Type
  2230 ;;  _timer          2   30[BANK0 ] PTR const struct .
  2231 ;;		 -> tmr0_timer(7), 
  2232 ;; Auto vars:     Size  Location     Type
  2233 ;;		None
  2234 ;; Return value:  Size  Location     Type
  2235 ;;                  1    wreg      void 
  2236 ;; Registers used:
  2237 ;;		wreg, fsr2l, fsr2h, status,2, status,0
  2238 ;; Tracked objects:
  2239 ;;		On entry : 0/0
  2240 ;;		On exit  : 0/0
  2241 ;;		Unchanged: 0/0
  2242 ;; Data sizes:     COMRAM   BANK0   BANK1   BANK2   BANK3   BANK4   BANK5   BANK6   BANK7   BANK8   BANK9  BANK10  BANK1
      +1  BANK12  BANK13  BANK14  BANK15
  2243 ;;      Params:         0       2       0       0       0       0       0       0       0       0       0       0       
      +0       0       0       0       0
  2244 ;;      Locals:         0       0       0       0       0       0       0       0       0       0       0       0       
      +0       0       0       0       0
  2245 ;;      Temps:          0       1       0       0       0       0       0       0       0       0       0       0       
      +0       0       0       0       0
  2246 ;;      Totals:         0       3       0       0       0       0       0       0       0       0       0       0       
      +0       0       0       0       0
  2247 ;;Total ram usage:        3 bytes
  2248 ;; Hardware stack levels used: 1
  2249 ;; Hardware stack levels required when called: 14
  2250 ;; This function calls:
  2251 ;;		Nothing
  2252 ;; This function is called by:
  2253 ;;		_Timer0_Init
  2254 ;; This function uses a non-reentrant model
  2255 ;;
  2256                           
  2257                           	psect	text12
  2258   001E1A                     __ptext12:
  2259                           	callstack 0
  2260   001E1A                     _Timer0_Prescaler_Config:
  2261                           	callstack 14
  2262   001E1A                     
  2263                           ;MCAL_Layer/Timer/hal_timer0.c: 123:     if (1 == _timer->prescaler_enable){
  2264   001E1A  0100               	movlb	0	; () banked
  2265   001E1C  EE20 F006          	lfsr	2,6
  2266   001E20  519E               	movf	Timer0_Prescaler_Config@_timer& (0+255),w,b
  2267   001E22  26D9               	addwf	fsr2l,f,c
  2268   001E24  519F               	movf	(Timer0_Prescaler_Config@_timer+1)& (0+255),w,b
  2269   001E26  22DA               	addwfc	fsr2h,f,c
  2270   001E28  A0DF               	btfss	indf2,0,c
  2271   001E2A  EF19  F00F         	goto	u2971
  2272   001E2E  EF1B  F00F         	goto	u2970
  2273   001E32                     u2971:
  2274   001E32  EF2B  F00F         	goto	l4115
  2275   001E36                     u2970:
  2276   001E36                     
  2277                           ; BSR set to: 0
  2278                           ;MCAL_Layer/Timer/hal_timer0.c: 124:         ((*((volatile T0CON_t *)(0xFD5))).PSA = 0);
  2279   001E36  96D5               	bcf	213,3,c	;volatile
  2280   001E38                     
  2281                           ; BSR set to: 0
  2282                           ;MCAL_Layer/Timer/hal_timer0.c: 125:         (*((volatile T0CON_t *)(0xFD5))).T0PS = _ti
      +                          mer->prescaler_value;
  2283   001E38  EE20 F005          	lfsr	2,5
  2284   001E3C  519E               	movf	Timer0_Prescaler_Config@_timer& (0+255),w,b
  2285   001E3E  26D9               	addwf	fsr2l,f,c
  2286   001E40  519F               	movf	(Timer0_Prescaler_Config@_timer+1)& (0+255),w,b
  2287   001E42  22DA               	addwfc	fsr2h,f,c
  2288   001E44  50DF               	movf	indf2,w,c
  2289   001E46  6FA0               	movwf	??_Timer0_Prescaler_Config& (0+255),b
  2290   001E48  50D5               	movf	213,w,c	;volatile
  2291   001E4A  19A0               	xorwf	??_Timer0_Prescaler_Config& (0+255),w,b
  2292   001E4C  0BF8               	andlw	-8
  2293   001E4E  19A0               	xorwf	??_Timer0_Prescaler_Config& (0+255),w,b
  2294   001E50  6ED5               	movwf	213,c	;volatile
  2295                           
  2296                           ;MCAL_Layer/Timer/hal_timer0.c: 126:     }
  2297   001E52  EF39  F00F         	goto	l1042
  2298   001E56                     l4115:
  2299                           
  2300                           ; BSR set to: 0
  2301   001E56  EE20 F006          	lfsr	2,6
  2302   001E5A  519E               	movf	Timer0_Prescaler_Config@_timer& (0+255),w,b
  2303   001E5C  26D9               	addwf	fsr2l,f,c
  2304   001E5E  519F               	movf	(Timer0_Prescaler_Config@_timer+1)& (0+255),w,b
  2305   001E60  22DA               	addwfc	fsr2h,f,c
  2306   001E62  B0DF               	btfsc	indf2,0,c
  2307   001E64  EF36  F00F         	goto	u2981
  2308   001E68  EF38  F00F         	goto	u2980
  2309   001E6C                     u2981:
  2310   001E6C  EF39  F00F         	goto	l1042
  2311   001E70                     u2980:
  2312   001E70                     
  2313                           ; BSR set to: 0
  2314                           ;MCAL_Layer/Timer/hal_timer0.c: 128:         ((*((volatile T0CON_t *)(0xFD5))).PSA = 1);
  2315   001E70  86D5               	bsf	213,3,c	;volatile
  2316   001E72                     l1042:
  2317                           
  2318                           ; BSR set to: 0
  2319   001E72  0012               	return		;funcret
  2320   001E74                     __end_of_Timer0_Prescaler_Config:
  2321                           	callstack 0
  2322                           
  2323 ;; *************** function _Timer0_Mode_Select *****************
  2324 ;; Defined at:
  2325 ;;		line 132 in file "MCAL_Layer/Timer/hal_timer0.c"
  2326 ;; Parameters:    Size  Location     Type
  2327 ;;  _timer          2   30[BANK0 ] PTR const struct .
  2328 ;;		 -> tmr0_timer(7), 
  2329 ;; Auto vars:     Size  Location     Type
  2330 ;;		None
  2331 ;; Return value:  Size  Location     Type
  2332 ;;                  1    wreg      void 
  2333 ;; Registers used:
  2334 ;;		wreg, fsr2l, fsr2h, status,2, status,0
  2335 ;; Tracked objects:
  2336 ;;		On entry : 0/0
  2337 ;;		On exit  : 0/0
  2338 ;;		Unchanged: 0/0
  2339 ;; Data sizes:     COMRAM   BANK0   BANK1   BANK2   BANK3   BANK4   BANK5   BANK6   BANK7   BANK8   BANK9  BANK10  BANK1
      +1  BANK12  BANK13  BANK14  BANK15
  2340 ;;      Params:         0       2       0       0       0       0       0       0       0       0       0       0       
      +0       0       0       0       0
  2341 ;;      Locals:         0       0       0       0       0       0       0       0       0       0       0       0       
      +0       0       0       0       0
  2342 ;;      Temps:          0       0       0       0       0       0       0       0       0       0       0       0       
      +0       0       0       0       0
  2343 ;;      Totals:         0       2       0       0       0       0       0       0       0       0       0       0       
      +0       0       0       0       0
  2344 ;;Total ram usage:        2 bytes
  2345 ;; Hardware stack levels used: 1
  2346 ;; Hardware stack levels required when called: 14
  2347 ;; This function calls:
  2348 ;;		Nothing
  2349 ;; This function is called by:
  2350 ;;		_Timer0_Init
  2351 ;; This function uses a non-reentrant model
  2352 ;;
  2353                           
  2354                           	psect	text13
  2355   001B6A                     __ptext13:
  2356                           	callstack 0
  2357   001B6A                     _Timer0_Mode_Select:
  2358                           	callstack 14
  2359   001B6A                     
  2360                           ;MCAL_Layer/Timer/hal_timer0.c: 133:     if (1 == _timer->timer0_mode){
  2361   001B6A  0100               	movlb	0	; () banked
  2362   001B6C  EE20 F006          	lfsr	2,6
  2363   001B70  519E               	movf	Timer0_Mode_Select@_timer& (0+255),w,b
  2364   001B72  26D9               	addwf	fsr2l,f,c
  2365   001B74  519F               	movf	(Timer0_Mode_Select@_timer+1)& (0+255),w,b
  2366   001B76  22DA               	addwfc	fsr2h,f,c
  2367   001B78  A4DF               	btfss	indf2,2,c
  2368   001B7A  EFC1  F00D         	goto	u2991
  2369   001B7E  EFC3  F00D         	goto	u2990
  2370   001B82                     u2991:
  2371   001B82  EFC6  F00D         	goto	l4123
  2372   001B86                     u2990:
  2373   001B86                     
  2374                           ; BSR set to: 0
  2375                           ;MCAL_Layer/Timer/hal_timer0.c: 134:         ((*((volatile T0CON_t *)(0xFD5))).T0CS = 0)
      +                          ;
  2376   001B86  9AD5               	bcf	213,5,c	;volatile
  2377                           
  2378                           ;MCAL_Layer/Timer/hal_timer0.c: 135:     }
  2379   001B88  EFF4  F00D         	goto	l1053
  2380   001B8C                     l4123:
  2381                           
  2382                           ; BSR set to: 0
  2383   001B8C  EE20 F006          	lfsr	2,6
  2384   001B90  519E               	movf	Timer0_Mode_Select@_timer& (0+255),w,b
  2385   001B92  26D9               	addwf	fsr2l,f,c
  2386   001B94  519F               	movf	(Timer0_Mode_Select@_timer+1)& (0+255),w,b
  2387   001B96  22DA               	addwfc	fsr2h,f,c
  2388   001B98  B4DF               	btfsc	indf2,2,c
  2389   001B9A  EFD1  F00D         	goto	u3001
  2390   001B9E  EFD3  F00D         	goto	u3000
  2391   001BA2                     u3001:
  2392   001BA2  EFF4  F00D         	goto	l1053
  2393   001BA6                     u3000:
  2394   001BA6                     
  2395                           ; BSR set to: 0
  2396                           ;MCAL_Layer/Timer/hal_timer0.c: 137:         ((*((volatile T0CON_t *)(0xFD5))).T0CS = 1)
      +                          ;
  2397   001BA6  8AD5               	bsf	213,5,c	;volatile
  2398   001BA8                     
  2399                           ; BSR set to: 0
  2400                           ;MCAL_Layer/Timer/hal_timer0.c: 138:             if (1 == _timer->timer0_counter_edge)
  2401   001BA8  EE20 F006          	lfsr	2,6
  2402   001BAC  519E               	movf	Timer0_Mode_Select@_timer& (0+255),w,b
  2403   001BAE  26D9               	addwf	fsr2l,f,c
  2404   001BB0  519F               	movf	(Timer0_Mode_Select@_timer+1)& (0+255),w,b
  2405   001BB2  22DA               	addwfc	fsr2h,f,c
  2406   001BB4  A2DF               	btfss	indf2,1,c
  2407   001BB6  EFDF  F00D         	goto	u3011
  2408   001BBA  EFE1  F00D         	goto	u3010
  2409   001BBE                     u3011:
  2410   001BBE  EFE4  F00D         	goto	l4131
  2411   001BC2                     u3010:
  2412   001BC2                     
  2413                           ; BSR set to: 0
  2414                           ;MCAL_Layer/Timer/hal_timer0.c: 139:             {;MCAL_Layer/Timer/hal_timer0.c: 140:  
      +                                        ((*((volatile T0CON_t *)(0xFD5))).T0SE = 0);
  2415   001BC2  98D5               	bcf	213,4,c	;volatile
  2416                           
  2417                           ;MCAL_Layer/Timer/hal_timer0.c: 141:             }
  2418   001BC4  EFF4  F00D         	goto	l1053
  2419   001BC8                     l4131:
  2420                           
  2421                           ; BSR set to: 0
  2422   001BC8  EE20 F006          	lfsr	2,6
  2423   001BCC  519E               	movf	Timer0_Mode_Select@_timer& (0+255),w,b
  2424   001BCE  26D9               	addwf	fsr2l,f,c
  2425   001BD0  519F               	movf	(Timer0_Mode_Select@_timer+1)& (0+255),w,b
  2426   001BD2  22DA               	addwfc	fsr2h,f,c
  2427   001BD4  B2DF               	btfsc	indf2,1,c
  2428   001BD6  EFEF  F00D         	goto	u3021
  2429   001BDA  EFF1  F00D         	goto	u3020
  2430   001BDE                     u3021:
  2431   001BDE  EFF4  F00D         	goto	l1052
  2432   001BE2                     u3020:
  2433   001BE2                     
  2434                           ; BSR set to: 0
  2435                           ;MCAL_Layer/Timer/hal_timer0.c: 143:             {;MCAL_Layer/Timer/hal_timer0.c: 144:  
      +                                         ((*((volatile T0CON_t *)(0xFD5))).T0SE = 1);
  2436   001BE2  88D5               	bsf	213,4,c	;volatile
  2437                           
  2438                           ;MCAL_Layer/Timer/hal_timer0.c: 145:             }
  2439   001BE4  EFF4  F00D         	goto	l1053
  2440   001BE8                     l1052:
  2441   001BE8                     l1053:
  2442                           
  2443                           ; BSR set to: 0
  2444   001BE8  0012               	return		;funcret
  2445   001BEA                     __end_of_Timer0_Mode_Select:
  2446                           	callstack 0
  2447                           
  2448 ;; *************** function _Timer0_Read_Value *****************
  2449 ;; Defined at:
  2450 ;;		line 97 in file "MCAL_Layer/Timer/hal_timer0.c"
  2451 ;; Parameters:    Size  Location     Type
  2452 ;;  _timer          2   30[BANK0 ] PTR const struct .
  2453 ;;		 -> tmr0_timer(7), 
  2454 ;;  _value          2   32[BANK0 ] PTR unsigned int 
  2455 ;;		 -> tmr0_Read(2), 
  2456 ;; Auto vars:     Size  Location     Type
  2457 ;;  l_tmr0h         1   37[BANK0 ] unsigned char 
  2458 ;;  l_tmr0l         1   36[BANK0 ] unsigned char 
  2459 ;;  ret             1    0        unsigned char 
  2460 ;; Return value:  Size  Location     Type
  2461 ;;                  1    wreg      unsigned char 
  2462 ;; Registers used:
  2463 ;;		wreg, fsr2l, fsr2h, status,2, status,0
  2464 ;; Tracked objects:
  2465 ;;		On entry : 0/0
  2466 ;;		On exit  : 0/0
  2467 ;;		Unchanged: 0/0
  2468 ;; Data sizes:     COMRAM   BANK0   BANK1   BANK2   BANK3   BANK4   BANK5   BANK6   BANK7   BANK8   BANK9  BANK10  BANK1
      +1  BANK12  BANK13  BANK14  BANK15
  2469 ;;      Params:         0       4       0       0       0       0       0       0       0       0       0       0       
      +0       0       0       0       0
  2470 ;;      Locals:         0       2       0       0       0       0       0       0       0       0       0       0       
      +0       0       0       0       0
  2471 ;;      Temps:          0       2       0       0       0       0       0       0       0       0       0       0       
      +0       0       0       0       0
  2472 ;;      Totals:         0       8       0       0       0       0       0       0       0       0       0       0       
      +0       0       0       0       0
  2473 ;;Total ram usage:        8 bytes
  2474 ;; Hardware stack levels used: 1
  2475 ;; Hardware stack levels required when called: 14
  2476 ;; This function calls:
  2477 ;;		Nothing
  2478 ;; This function is called by:
  2479 ;;		_main
  2480 ;; This function uses a non-reentrant model
  2481 ;;
  2482                           
  2483                           	psect	text14
  2484   001DBA                     __ptext14:
  2485                           	callstack 0
  2486   001DBA                     _Timer0_Read_Value:
  2487                           	callstack 16
  2488   001DBA                     
  2489                           ;MCAL_Layer/Timer/hal_timer0.c: 99:     uint8 l_tmr0l = 0 , l_tmr0h = 0 ;
  2490   001DBA  0E00               	movlw	0
  2491   001DBC  0100               	movlb	0	; () banked
  2492   001DBE  6FA4               	movwf	Timer0_Read_Value@l_tmr0l& (0+255),b
  2493   001DC0  0E00               	movlw	0
  2494   001DC2  6FA5               	movwf	Timer0_Read_Value@l_tmr0h& (0+255),b
  2495   001DC4                     
  2496                           ; BSR set to: 0
  2497                           ;MCAL_Layer/Timer/hal_timer0.c: 100:     if((_timer==((void*)0))||(_value == ((void*)0))
      +                          ){
  2498   001DC4  519E               	movf	Timer0_Read_Value@_timer& (0+255),w,b
  2499   001DC6  119F               	iorwf	(Timer0_Read_Value@_timer+1)& (0+255),w,b
  2500   001DC8  B4D8               	btfsc	status,2,c
  2501   001DCA  EFE9  F00E         	goto	u3211
  2502   001DCE  EFEB  F00E         	goto	u3210
  2503   001DD2                     u3211:
  2504   001DD2  EFF4  F00E         	goto	l4311
  2505   001DD6                     u3210:
  2506   001DD6                     
  2507                           ; BSR set to: 0
  2508   001DD6  51A0               	movf	Timer0_Read_Value@_value& (0+255),w,b
  2509   001DD8  11A1               	iorwf	(Timer0_Read_Value@_value+1)& (0+255),w,b
  2510   001DDA  A4D8               	btfss	status,2,c
  2511   001DDC  EFF2  F00E         	goto	u3221
  2512   001DE0  EFF4  F00E         	goto	u3220
  2513   001DE4                     u3221:
  2514   001DE4  EFF6  F00E         	goto	l1026
  2515   001DE8                     u3220:
  2516   001DE8                     l4311:
  2517                           
  2518                           ; BSR set to: 0
  2519                           ;MCAL_Layer/Timer/hal_timer0.c: 102:     }
  2520   001DE8  EF0C  F00F         	goto	l1030
  2521   001DEC                     l1026:
  2522                           
  2523                           ; BSR set to: 0
  2524                           ;MCAL_Layer/Timer/hal_timer0.c: 104:         l_tmr0l = (*((volatile uint8 *)(0xFD6)));
  2525   001DEC  CFD6 F0A4          	movff	4054,Timer0_Read_Value@l_tmr0l	;volatile
  2526                           
  2527                           ;MCAL_Layer/Timer/hal_timer0.c: 105:         l_tmr0h = TMR0H;
  2528   001DF0  CFD7 F0A5          	movff	4055,Timer0_Read_Value@l_tmr0h	;volatile
  2529   001DF4                     
  2530                           ; BSR set to: 0
  2531                           ;MCAL_Layer/Timer/hal_timer0.c: 106:        *_value = (uint16)((l_tmr0h << 8)+l_tmr0l);
  2532   001DF4  51A4               	movf	Timer0_Read_Value@l_tmr0l& (0+255),w,b
  2533   001DF6  C0A5  F0A2         	movff	Timer0_Read_Value@l_tmr0h,??_Timer0_Read_Value
  2534   001DFA  6BA3               	clrf	(??_Timer0_Read_Value+1)& (0+255),b
  2535   001DFC  C0A2  F0A3         	movff	??_Timer0_Read_Value,??_Timer0_Read_Value+1
  2536   001E00  6BA2               	clrf	??_Timer0_Read_Value& (0+255),b
  2537   001E02  27A2               	addwf	??_Timer0_Read_Value& (0+255),f,b
  2538   001E04  0E00               	movlw	0
  2539   001E06  23A3               	addwfc	(??_Timer0_Read_Value+1)& (0+255),f,b
  2540   001E08  C0A0  FFD9         	movff	Timer0_Read_Value@_value,fsr2l
  2541   001E0C  C0A1  FFDA         	movff	Timer0_Read_Value@_value+1,fsr2h
  2542   001E10  C0A2  FFDE         	movff	??_Timer0_Read_Value,postinc2
  2543   001E14  C0A3  FFDD         	movff	??_Timer0_Read_Value+1,postdec2
  2544   001E18                     l1030:
  2545                           
  2546                           ; BSR set to: 0
  2547   001E18  0012               	return		;funcret
  2548   001E1A                     __end_of_Timer0_Read_Value:
  2549                           	callstack 0
  2550                           
  2551 ;; *************** function _InterruptManagerLow *****************
  2552 ;; Defined at:
  2553 ;;		line 45 in file "MCAL_Layer/Interrupt/mcal_interrupt_manager.c"
  2554 ;; Parameters:    Size  Location     Type
  2555 ;;		None
  2556 ;; Auto vars:     Size  Location     Type
  2557 ;;		None
  2558 ;; Return value:  Size  Location     Type
  2559 ;;                  1    wreg      void 
  2560 ;; Registers used:
  2561 ;;		wreg, fsr2l, fsr2h, status,2, status,0, pcl, pclath, pclatu, tosl, tblptrl, tblptrh, tblptru, prodl, prodh, cstack
  2562 ;; Tracked objects:
  2563 ;;		On entry : 0/0
  2564 ;;		On exit  : 0/0
  2565 ;;		Unchanged: 0/0
  2566 ;; Data sizes:     COMRAM   BANK0   BANK1   BANK2   BANK3   BANK4   BANK5   BANK6   BANK7   BANK8   BANK9  BANK10  BANK1
      +1  BANK12  BANK13  BANK14  BANK15
  2567 ;;      Params:         0       0       0       0       0       0       0       0       0       0       0       0       
      +0       0       0       0       0
  2568 ;;      Locals:         0       0       0       0       0       0       0       0       0       0       0       0       
      +0       0       0       0       0
  2569 ;;      Temps:          0      13       0       0       0       0       0       0       0       0       0       0       
      +0       0       0       0       0
  2570 ;;      Totals:         0      13       0       0       0       0       0       0       0       0       0       0       
      +0       0       0       0       0
  2571 ;;Total ram usage:       13 bytes
  2572 ;; Hardware stack levels used: 1
  2573 ;; Hardware stack levels required when called: 13
  2574 ;; This function calls:
  2575 ;;		_ADC_ISR
  2576 ;;		_INT1_ISR
  2577 ;;		_INT2_ISR
  2578 ;;		_RB4_ISR
  2579 ;;		_RB5_ISR
  2580 ;;		_RB6_ISR
  2581 ;;		_RB7_ISR
  2582 ;;		_TMR0_ISR
  2583 ;; This function is called by:
  2584 ;;		Interrupt level 1
  2585 ;; This function uses a non-reentrant model
  2586 ;;
  2587                           
  2588                           	psect	intcodelo
  2589   000018                     __pintcodelo:
  2590                           	callstack 0
  2591   000018                     _InterruptManagerLow:
  2592                           	callstack 11
  2593                           
  2594                           ; BSR set to: 0
  2595                           ;incstack = 0
  2596   000018  805F               	bsf	int$flags,0,c	;set compiler interrupt flag (level 1)
  2597   00001A  CFD8 F091          	movff	status,??_InterruptManagerLow
  2598   00001E  CFE8 F092          	movff	wreg,??_InterruptManagerLow+1
  2599   000022  CFE0 F093          	movff	bsr,??_InterruptManagerLow+2
  2600   000026  CFFA F094          	movff	pclath,??_InterruptManagerLow+3
  2601   00002A  CFFB F095          	movff	pclatu,??_InterruptManagerLow+4
  2602   00002E  CFD9 F096          	movff	fsr2l,??_InterruptManagerLow+5
  2603   000032  CFDA F097          	movff	fsr2h,??_InterruptManagerLow+6
  2604   000036  CFF3 F098          	movff	prodl,??_InterruptManagerLow+7
  2605   00003A  CFF4 F099          	movff	prodh,??_InterruptManagerLow+8
  2606   00003E  CFF6 F09A          	movff	tblptrl,??_InterruptManagerLow+9
  2607   000042  CFF7 F09B          	movff	tblptrh,??_InterruptManagerLow+10
  2608   000046  CFF8 F09C          	movff	tblptru,??_InterruptManagerLow+11
  2609   00004A  CFF5 F09D          	movff	tablat,??_InterruptManagerLow+12
  2610   00004E                     
  2611                           ;MCAL_Layer/Interrupt/mcal_interrupt_manager.c: 46:       if((0 == (*((volatile INTCON3_
      +                          t *)(0xFF0))).INT1IP)&&(1 == (*((volatile INTCON3_t *)(0xFF0))).INT1IF)){
  2612   00004E  BCF0               	btfsc	240,6,c	;volatile
  2613   000050  EF2C  F000         	goto	i1u555_21
  2614   000054  EF2E  F000         	goto	i1u555_20
  2615   000058                     i1u555_21:
  2616   000058  EF37  F000         	goto	i1l941
  2617   00005C                     i1u555_20:
  2618   00005C  A0F0               	btfss	240,0,c	;volatile
  2619   00005E  EF33  F000         	goto	i1u556_21
  2620   000062  EF35  F000         	goto	i1u556_20
  2621   000066                     i1u556_21:
  2622   000066  EF37  F000         	goto	i1l941
  2623   00006A                     i1u556_20:
  2624   00006A                     
  2625                           ;MCAL_Layer/Interrupt/mcal_interrupt_manager.c: 47:         INT1_ISR();
  2626   00006A  ECC6  F010         	call	_INT1_ISR	;wreg free
  2627   00006E                     i1l941:
  2628                           
  2629                           ;MCAL_Layer/Interrupt/mcal_interrupt_manager.c: 50:     if((0 == (*((volatile INTCON3_t 
      +                          *)(0xFF0))).INT2IP)&&(1 == (*((volatile INTCON3_t *)(0xFF0))).INT2IF)){
  2630   00006E  BEF0               	btfsc	240,7,c	;volatile
  2631   000070  EF3C  F000         	goto	i1u557_21
  2632   000074  EF3E  F000         	goto	i1u557_20
  2633   000078                     i1u557_21:
  2634   000078  EF47  F000         	goto	i1l943
  2635   00007C                     i1u557_20:
  2636   00007C  A2F0               	btfss	240,1,c	;volatile
  2637   00007E  EF43  F000         	goto	i1u558_21
  2638   000082  EF45  F000         	goto	i1u558_20
  2639   000086                     i1u558_21:
  2640   000086  EF47  F000         	goto	i1l943
  2641   00008A                     i1u558_20:
  2642   00008A                     
  2643                           ;MCAL_Layer/Interrupt/mcal_interrupt_manager.c: 51:         INT2_ISR();
  2644   00008A  ECC4  F010         	call	_INT2_ISR	;wreg free
  2645   00008E                     i1l943:
  2646                           
  2647                           ;MCAL_Layer/Interrupt/mcal_interrupt_manager.c: 54:      if((0 == (*((volatile INTCON2_t
      +                           *)(0xFF1))).RBIP)&&(1 == (*((volatile INTCON_t *)(0xFF2))).RBIF) && (((((*((volatile ui
      +                          nt8*)(0xF81)))>>4)&((uint8)0x01)))!=RB4_pin_init_value)){
  2648   00008E  B0F1               	btfsc	241,0,c	;volatile
  2649   000090  EF4C  F000         	goto	i1u559_21
  2650   000094  EF4E  F000         	goto	i1u559_20
  2651   000098                     i1u559_21:
  2652   000098  EF64  F000         	goto	i1l945
  2653   00009C                     i1u559_20:
  2654   00009C  A0F2               	btfss	242,0,c	;volatile
  2655   00009E  EF53  F000         	goto	i1u560_21
  2656   0000A2  EF55  F000         	goto	i1u560_20
  2657   0000A6                     i1u560_21:
  2658   0000A6  EF64  F000         	goto	i1l945
  2659   0000AA                     i1u560_20:
  2660   0000AA  3881               	swapf	129,w,c	;volatile
  2661   0000AC  0B0F               	andlw	15
  2662   0000AE  0B01               	andlw	1
  2663   0000B0  1823               	xorwf	_RB4_pin_init_value^0,w,c	;volatile
  2664   0000B2  B4D8               	btfsc	status,2,c
  2665   0000B4  EF5E  F000         	goto	i1u561_21
  2666   0000B8  EF60  F000         	goto	i1u561_20
  2667   0000BC                     i1u561_21:
  2668   0000BC  EF64  F000         	goto	i1l945
  2669   0000C0                     i1u561_20:
  2670   0000C0                     
  2671                           ;MCAL_Layer/Interrupt/mcal_interrupt_manager.c: 55:         RB4_pin_init_value^=1;
  2672   0000C0  0E01               	movlw	1
  2673   0000C2  1A23               	xorwf	_RB4_pin_init_value^0,f,c	;volatile
  2674   0000C4                     
  2675                           ;MCAL_Layer/Interrupt/mcal_interrupt_manager.c: 56:         RB4_ISR();
  2676   0000C4  ECC2  F010         	call	_RB4_ISR	;wreg free
  2677   0000C8                     i1l945:
  2678                           
  2679                           ;MCAL_Layer/Interrupt/mcal_interrupt_manager.c: 59:        if((0 == (*((volatile INTCON2
      +                          _t *)(0xFF1))).RBIP)&&(1 == (*((volatile INTCON_t *)(0xFF2))).RBIF) && (((((*((volatile 
      +                          uint8*)(0xF81)))>>5)&((uint8)0x01)))!=RB5_pin_init_value)){
  2680   0000C8  B0F1               	btfsc	241,0,c	;volatile
  2681   0000CA  EF69  F000         	goto	i1u562_21
  2682   0000CE  EF6B  F000         	goto	i1u562_20
  2683   0000D2                     i1u562_21:
  2684   0000D2  EF82  F000         	goto	i1l947
  2685   0000D6                     i1u562_20:
  2686   0000D6  A0F2               	btfss	242,0,c	;volatile
  2687   0000D8  EF70  F000         	goto	i1u563_21
  2688   0000DC  EF72  F000         	goto	i1u563_20
  2689   0000E0                     i1u563_21:
  2690   0000E0  EF82  F000         	goto	i1l947
  2691   0000E4                     i1u563_20:
  2692   0000E4  3881               	swapf	129,w,c	;volatile
  2693   0000E6  42E8               	rrncf	wreg,f,c
  2694   0000E8  0B07               	andlw	7
  2695   0000EA  0B01               	andlw	1
  2696   0000EC  1822               	xorwf	_RB5_pin_init_value^0,w,c	;volatile
  2697   0000EE  B4D8               	btfsc	status,2,c
  2698   0000F0  EF7C  F000         	goto	i1u564_21
  2699   0000F4  EF7E  F000         	goto	i1u564_20
  2700   0000F8                     i1u564_21:
  2701   0000F8  EF82  F000         	goto	i1l947
  2702   0000FC                     i1u564_20:
  2703   0000FC                     
  2704                           ;MCAL_Layer/Interrupt/mcal_interrupt_manager.c: 60:         RB5_pin_init_value^=1;
  2705   0000FC  0E01               	movlw	1
  2706   0000FE  1A22               	xorwf	_RB5_pin_init_value^0,f,c	;volatile
  2707   000100                     
  2708                           ;MCAL_Layer/Interrupt/mcal_interrupt_manager.c: 61:         RB5_ISR();
  2709   000100  ECC0  F010         	call	_RB5_ISR	;wreg free
  2710   000104                     i1l947:
  2711                           
  2712                           ;MCAL_Layer/Interrupt/mcal_interrupt_manager.c: 64:        if((0 == (*((volatile INTCON2
      +                          _t *)(0xFF1))).RBIP)&&(1 == (*((volatile INTCON_t *)(0xFF2))).RBIF) && (((((*((volatile 
      +                          uint8*)(0xF81)))>>6)&((uint8)0x01)))!=RB6_pin_init_value)){
  2713   000104  B0F1               	btfsc	241,0,c	;volatile
  2714   000106  EF87  F000         	goto	i1u565_21
  2715   00010A  EF89  F000         	goto	i1u565_20
  2716   00010E                     i1u565_21:
  2717   00010E  EFA0  F000         	goto	i1l949
  2718   000112                     i1u565_20:
  2719   000112  A0F2               	btfss	242,0,c	;volatile
  2720   000114  EF8E  F000         	goto	i1u566_21
  2721   000118  EF90  F000         	goto	i1u566_20
  2722   00011C                     i1u566_21:
  2723   00011C  EFA0  F000         	goto	i1l949
  2724   000120                     i1u566_20:
  2725   000120  4481               	rlncf	129,w,c	;volatile
  2726   000122  46E8               	rlncf	wreg,f,c
  2727   000124  0B03               	andlw	3
  2728   000126  0B01               	andlw	1
  2729   000128  1821               	xorwf	_RB6_pin_init_value^0,w,c	;volatile
  2730   00012A  B4D8               	btfsc	status,2,c
  2731   00012C  EF9A  F000         	goto	i1u567_21
  2732   000130  EF9C  F000         	goto	i1u567_20
  2733   000134                     i1u567_21:
  2734   000134  EFA0  F000         	goto	i1l949
  2735   000138                     i1u567_20:
  2736   000138                     
  2737                           ;MCAL_Layer/Interrupt/mcal_interrupt_manager.c: 65:         RB6_pin_init_value^=1;
  2738   000138  0E01               	movlw	1
  2739   00013A  1A21               	xorwf	_RB6_pin_init_value^0,f,c	;volatile
  2740   00013C                     
  2741                           ;MCAL_Layer/Interrupt/mcal_interrupt_manager.c: 66:         RB6_ISR();
  2742   00013C  ECBE  F010         	call	_RB6_ISR	;wreg free
  2743   000140                     i1l949:
  2744                           
  2745                           ;MCAL_Layer/Interrupt/mcal_interrupt_manager.c: 69:        if((0 == (*((volatile INTCON2
      +                          _t *)(0xFF1))).RBIP)&&(1 == (*((volatile INTCON_t *)(0xFF2))).RBIF) && (((((*((volatile 
      +                          uint8*)(0xF81)))>>7)&((uint8)0x01)))!=RB7_pin_init_value)){
  2746   000140  B0F1               	btfsc	241,0,c	;volatile
  2747   000142  EFA5  F000         	goto	i1u568_21
  2748   000146  EFA7  F000         	goto	i1u568_20
  2749   00014A                     i1u568_21:
  2750   00014A  EFBC  F000         	goto	i1l951
  2751   00014E                     i1u568_20:
  2752   00014E  A0F2               	btfss	242,0,c	;volatile
  2753   000150  EFAC  F000         	goto	i1u569_21
  2754   000154  EFAE  F000         	goto	i1u569_20
  2755   000158                     i1u569_21:
  2756   000158  EFBC  F000         	goto	i1l951
  2757   00015C                     i1u569_20:
  2758   00015C  4481               	rlncf	129,w,c	;volatile
  2759   00015E  0B01               	andlw	1
  2760   000160  1820               	xorwf	_RB7_pin_init_value^0,w,c	;volatile
  2761   000162  B4D8               	btfsc	status,2,c
  2762   000164  EFB6  F000         	goto	i1u570_21
  2763   000168  EFB8  F000         	goto	i1u570_20
  2764   00016C                     i1u570_21:
  2765   00016C  EFBC  F000         	goto	i1l951
  2766   000170                     i1u570_20:
  2767   000170                     
  2768                           ;MCAL_Layer/Interrupt/mcal_interrupt_manager.c: 70:         RB7_pin_init_value^=1;
  2769   000170  0E01               	movlw	1
  2770   000172  1A20               	xorwf	_RB7_pin_init_value^0,f,c	;volatile
  2771   000174                     
  2772                           ;MCAL_Layer/Interrupt/mcal_interrupt_manager.c: 71:         RB7_ISR();
  2773   000174  ECBC  F010         	call	_RB7_ISR	;wreg free
  2774   000178                     i1l951:
  2775                           
  2776                           ;MCAL_Layer/Interrupt/mcal_interrupt_manager.c: 74:      if((0 == (*((volatile IPR1_t *)
      +                          (0xF9F))).ADIP)&&(1 == (*((volatile PIR1_t *)(0xF9E))).ADIF)){
  2777   000178  BC9F               	btfsc	159,6,c	;volatile
  2778   00017A  EFC1  F000         	goto	i1u571_21
  2779   00017E  EFC3  F000         	goto	i1u571_20
  2780   000182                     i1u571_21:
  2781   000182  EFCC  F000         	goto	i1l953
  2782   000186                     i1u571_20:
  2783   000186  AC9E               	btfss	158,6,c	;volatile
  2784   000188  EFC8  F000         	goto	i1u572_21
  2785   00018C  EFCA  F000         	goto	i1u572_20
  2786   000190                     i1u572_21:
  2787   000190  EFCC  F000         	goto	i1l953
  2788   000194                     i1u572_20:
  2789   000194                     
  2790                           ;MCAL_Layer/Interrupt/mcal_interrupt_manager.c: 75:         ADC_ISR();
  2791   000194  ECC8  F010         	call	_ADC_ISR	;wreg free
  2792   000198                     i1l953:
  2793                           
  2794                           ;MCAL_Layer/Interrupt/mcal_interrupt_manager.c: 78:     if((0 == (*((volatile INTCON2_t 
      +                          *)(0xFF1))).TMR0IP)&&(1 == (*((volatile INTCON_t *)(0xFF2))).TMR0IF)){
  2795   000198  B4F1               	btfsc	241,2,c	;volatile
  2796   00019A  EFD1  F000         	goto	i1u573_21
  2797   00019E  EFD3  F000         	goto	i1u573_20
  2798   0001A2                     i1u573_21:
  2799   0001A2  EFDC  F000         	goto	i1l956
  2800   0001A6                     i1u573_20:
  2801   0001A6  A4F2               	btfss	242,2,c	;volatile
  2802   0001A8  EFD8  F000         	goto	i1u574_21
  2803   0001AC  EFDA  F000         	goto	i1u574_20
  2804   0001B0                     i1u574_21:
  2805   0001B0  EFDC  F000         	goto	i1l956
  2806   0001B4                     i1u574_20:
  2807   0001B4                     
  2808                           ;MCAL_Layer/Interrupt/mcal_interrupt_manager.c: 79:         TMR0_ISR();
  2809   0001B4  EC2F  F010         	call	_TMR0_ISR	;wreg free
  2810   0001B8                     i1l956:
  2811   0001B8  C09D  FFF5         	movff	??_InterruptManagerLow+12,tablat
  2812   0001BC  C09C  FFF8         	movff	??_InterruptManagerLow+11,tblptru
  2813   0001C0  C09B  FFF7         	movff	??_InterruptManagerLow+10,tblptrh
  2814   0001C4  C09A  FFF6         	movff	??_InterruptManagerLow+9,tblptrl
  2815   0001C8  C099  FFF4         	movff	??_InterruptManagerLow+8,prodh
  2816   0001CC  C098  FFF3         	movff	??_InterruptManagerLow+7,prodl
  2817   0001D0  C097  FFDA         	movff	??_InterruptManagerLow+6,fsr2h
  2818   0001D4  C096  FFD9         	movff	??_InterruptManagerLow+5,fsr2l
  2819   0001D8  C095  FFFB         	movff	??_InterruptManagerLow+4,pclatu
  2820   0001DC  C094  FFFA         	movff	??_InterruptManagerLow+3,pclath
  2821   0001E0  C093  FFE0         	movff	??_InterruptManagerLow+2,bsr
  2822   0001E4  C092  FFE8         	movff	??_InterruptManagerLow+1,wreg
  2823   0001E8  C091  FFD8         	movff	??_InterruptManagerLow,status
  2824   0001EC  905F               	bcf	int$flags,0,c	;clear compiler interrupt flag (level 1)
  2825   0001EE  0010               	retfie	
  2826   0001F0                     __end_of_InterruptManagerLow:
  2827                           	callstack 0
  2828                           
  2829 ;; *************** function _TMR0_ISR *****************
  2830 ;; Defined at:
  2831 ;;		line 110 in file "MCAL_Layer/Timer/hal_timer0.c"
  2832 ;; Parameters:    Size  Location     Type
  2833 ;;		None
  2834 ;; Auto vars:     Size  Location     Type
  2835 ;;		None
  2836 ;; Return value:  Size  Location     Type
  2837 ;;                  1    wreg      void 
  2838 ;; Registers used:
  2839 ;;		wreg, fsr2l, fsr2h, status,2, status,0, pcl, pclath, pclatu, tosl, tblptrl, tblptrh, tblptru, prodl, prodh, cstack
  2840 ;; Tracked objects:
  2841 ;;		On entry : 0/0
  2842 ;;		On exit  : 0/0
  2843 ;;		Unchanged: 0/0
  2844 ;; Data sizes:     COMRAM   BANK0   BANK1   BANK2   BANK3   BANK4   BANK5   BANK6   BANK7   BANK8   BANK9  BANK10  BANK1
      +1  BANK12  BANK13  BANK14  BANK15
  2845 ;;      Params:         0       0       0       0       0       0       0       0       0       0       0       0       
      +0       0       0       0       0
  2846 ;;      Locals:         0       0       0       0       0       0       0       0       0       0       0       0       
      +0       0       0       0       0
  2847 ;;      Temps:          0       0       0       0       0       0       0       0       0       0       0       0       
      +0       0       0       0       0
  2848 ;;      Totals:         0       0       0       0       0       0       0       0       0       0       0       0       
      +0       0       0       0       0
  2849 ;;Total ram usage:        0 bytes
  2850 ;; Hardware stack levels used: 1
  2851 ;; Hardware stack levels required when called: 12
  2852 ;; This function calls:
  2853 ;;		NULL
  2854 ;;		_TMR0_ISR_HANDLER
  2855 ;; This function is called by:
  2856 ;;		_InterruptManagerLow
  2857 ;; This function uses a non-reentrant model
  2858 ;;
  2859                           
  2860                           	psect	text16
  2861   00205E                     __ptext16:
  2862                           	callstack 0
  2863   00205E                     _TMR0_ISR:
  2864                           	callstack 11
  2865   00205E                     
  2866                           ;MCAL_Layer/Timer/hal_timer0.c: 112:     TMR0H = (timer0_preload)>>8;
  2867   00205E  500C               	movf	(_timer0_preload+1)^0,w,c
  2868   002060  6ED7               	movwf	215,c	;volatile
  2869   002062                     
  2870                           ;MCAL_Layer/Timer/hal_timer0.c: 113:     (*((volatile uint8 *)(0xFD6))) = (uint8)(timer0
      +                          _preload);
  2871   002062  C00B  FFD6         	movff	_timer0_preload,4054	;volatile
  2872   002066                     
  2873                           ;MCAL_Layer/Timer/hal_timer0.c: 114:     ((*((volatile INTCON_t *)(0xFF2))).TMR0IF=0);
  2874   002066  94F2               	bcf	242,2,c	;volatile
  2875   002068                     
  2876                           ;MCAL_Layer/Timer/hal_timer0.c: 115:       if(TMR0_InterruptHandler){
  2877   002068  500D               	movf	_TMR0_InterruptHandler^0,w,c
  2878   00206A  100E               	iorwf	(_TMR0_InterruptHandler+1)^0,w,c
  2879   00206C  B4D8               	btfsc	status,2,c
  2880   00206E  EF3B  F010         	goto	i1u482_21
  2881   002072  EF3D  F010         	goto	i1u482_20
  2882   002076                     i1u482_21:
  2883   002076  EF49  F010         	goto	i1l1035
  2884   00207A                     i1u482_20:
  2885   00207A                     
  2886                           ;MCAL_Layer/Timer/hal_timer0.c: 116:        TMR0_InterruptHandler();
  2887   00207A  D802               	call	i1u483_28
  2888   00207C  EF49  F010         	goto	i1u483_29
  2889   002080                     i1u483_28:
  2890   002080  0005               	push	
  2891   002082  6EFA               	movwf	pclath,c
  2892   002084  500D               	movf	_TMR0_InterruptHandler^0,w,c
  2893   002086  6EFD               	movwf	tosl,c
  2894   002088  500E               	movf	(_TMR0_InterruptHandler+1)^0,w,c
  2895   00208A  6EFE               	movwf	tosh,c
  2896   00208C  6AFF               	clrf	tosu,c
  2897   00208E  50FA               	movf	pclath,w,c
  2898   002090  0012               	return		;indir
  2899   002092                     i1u483_29:
  2900   002092                     i1l1035:
  2901   002092  0012               	return		;funcret
  2902   002094                     __end_of_TMR0_ISR:
  2903                           	callstack 0
  2904                           
  2905 ;; *************** function _TMR0_ISR_HANDLER *****************
  2906 ;; Defined at:
  2907 ;;		line 37 in file "application.c"
  2908 ;; Parameters:    Size  Location     Type
  2909 ;;		None
  2910 ;; Auto vars:     Size  Location     Type
  2911 ;;		None
  2912 ;; Return value:  Size  Location     Type
  2913 ;;                  1    wreg      void 
  2914 ;; Registers used:
  2915 ;;		wreg, fsr2l, fsr2h, status,2, status,0, tblptrl, tblptrh, tblptru, prodl, prodh, cstack
  2916 ;; Tracked objects:
  2917 ;;		On entry : 0/0
  2918 ;;		On exit  : 0/0
  2919 ;;		Unchanged: 0/0
  2920 ;; Data sizes:     COMRAM   BANK0   BANK1   BANK2   BANK3   BANK4   BANK5   BANK6   BANK7   BANK8   BANK9  BANK10  BANK1
      +1  BANK12  BANK13  BANK14  BANK15
  2921 ;;      Params:         0       0       0       0       0       0       0       0       0       0       0       0       
      +0       0       0       0       0
  2922 ;;      Locals:         0       0       0       0       0       0       0       0       0       0       0       0       
      +0       0       0       0       0
  2923 ;;      Temps:          0       0       0       0       0       0       0       0       0       0       0       0       
      +0       0       0       0       0
  2924 ;;      Totals:         0       0       0       0       0       0       0       0       0       0       0       0       
      +0       0       0       0       0
  2925 ;;Total ram usage:        0 bytes
  2926 ;; Hardware stack levels used: 1
  2927 ;; Hardware stack levels required when called: 11
  2928 ;; This function calls:
  2929 ;;		_lcd_4bit_send_string
  2930 ;; This function is called by:
  2931 ;;		_TMR0_ISR
  2932 ;;		i2_TMR0_ISR
  2933 ;; This function uses a non-reentrant model
  2934 ;;
  2935                           
  2936                           	psect	text17
  2937   0020EC                     __ptext17:
  2938                           	callstack 0
  2939   0020EC                     _TMR0_ISR_HANDLER:
  2940                           	callstack 0
  2941                           
  2942                           ;Skip over the trampoline to the duplicate function for level 2
  2943   0020EC  A25F               	btfss	int$flags,1,c
  2944   0020EE  EF7B  F010         	goto	_TMR0_ISR_HANDLER$intlevel1
  2945   0020F2  EF98  F010         	goto	i2_TMR0_ISR_HANDLER
  2946   0020F6                     _TMR0_ISR_HANDLER$intlevel1:
  2947                           	callstack 11
  2948   0020F6                     
  2949                           ;application.c: 38:     lcd_4bit_send_string(&lcd1 ,"m");
  2950   0020F6  0ECF               	movlw	low _lcd1
  2951   0020F8  0100               	movlb	0	; () banked
  2952   0020FA  6F8D               	movwf	lcd_4bit_send_string@lcd& (0+255),b
  2953   0020FC  0E00               	movlw	high _lcd1
  2954   0020FE  6F8E               	movwf	(lcd_4bit_send_string@lcd+1)& (0+255),b
  2955   002100  0E14               	movlw	low STR_4
  2956   002102  6F8F               	movwf	lcd_4bit_send_string@str& (0+255),b
  2957   002104  0E10               	movlw	high STR_4
  2958   002106  6F90               	movwf	(lcd_4bit_send_string@str+1)& (0+255),b
  2959   002108  EC3A  F00F         	call	_lcd_4bit_send_string	;wreg free
  2960   00210C  0012               	return		;funcret
  2961   00210E                     __end_of_TMR0_ISR_HANDLER:
  2962                           	callstack 0
  2963                           
  2964 ;; *************** function _lcd_4bit_send_string *****************
  2965 ;; Defined at:
  2966 ;;		line 102 in file "ECU_Layer/Chr_LCD/ecu_chr_lcd.c"
  2967 ;; Parameters:    Size  Location     Type
  2968 ;;  lcd             2   13[BANK0 ] PTR const struct .
  2969 ;;		 -> lcd1(6), 
  2970 ;;  str             2   15[BANK0 ] PTR unsigned char 
  2971 ;;		 -> STR_4(2), 
  2972 ;; Auto vars:     Size  Location     Type
  2973 ;;  ret             1    0        unsigned char 
  2974 ;; Return value:  Size  Location     Type
  2975 ;;                  1    wreg      unsigned char 
  2976 ;; Registers used:
  2977 ;;		wreg, fsr2l, fsr2h, status,2, status,0, tblptrl, tblptrh, tblptru, prodl, prodh, cstack
  2978 ;; Tracked objects:
  2979 ;;		On entry : 0/0
  2980 ;;		On exit  : 0/0
  2981 ;;		Unchanged: 0/0
  2982 ;; Data sizes:     COMRAM   BANK0   BANK1   BANK2   BANK3   BANK4   BANK5   BANK6   BANK7   BANK8   BANK9  BANK10  BANK1
      +1  BANK12  BANK13  BANK14  BANK15
  2983 ;;      Params:         0       4       0       0       0       0       0       0       0       0       0       0       
      +0       0       0       0       0
  2984 ;;      Locals:         0       0       0       0       0       0       0       0       0       0       0       0       
      +0       0       0       0       0
  2985 ;;      Temps:          0       0       0       0       0       0       0       0       0       0       0       0       
      +0       0       0       0       0
  2986 ;;      Totals:         0       4       0       0       0       0       0       0       0       0       0       0       
      +0       0       0       0       0
  2987 ;;Total ram usage:        4 bytes
  2988 ;; Hardware stack levels used: 1
  2989 ;; Hardware stack levels required when called: 10
  2990 ;; This function calls:
  2991 ;;		_lcd_4bit_send_char_data
  2992 ;; This function is called by:
  2993 ;;		_TMR0_ISR_HANDLER
  2994 ;; This function uses a non-reentrant model
  2995 ;;
  2996                           
  2997                           	psect	text18
  2998   001E74                     __ptext18:
  2999                           	callstack 0
  3000   001E74                     _lcd_4bit_send_string:
  3001                           	callstack 11
  3002   001E74                     
  3003                           ;ECU_Layer/Chr_LCD/ecu_chr_lcd.c: 104:     if(lcd==((void*)0)){
  3004   001E74  0100               	movlb	0	; () banked
  3005   001E76  518D               	movf	lcd_4bit_send_string@lcd& (0+255),w,b
  3006   001E78  118E               	iorwf	(lcd_4bit_send_string@lcd+1)& (0+255),w,b
  3007   001E7A  A4D8               	btfss	status,2,c
  3008   001E7C  EF42  F00F         	goto	i1u471_21
  3009   001E80  EF44  F00F         	goto	i1u471_20
  3010   001E84                     i1u471_21:
  3011   001E84  EF57  F00F         	goto	i1l5455
  3012   001E88                     i1u471_20:
  3013   001E88                     
  3014                           ; BSR set to: 0
  3015                           ;ECU_Layer/Chr_LCD/ecu_chr_lcd.c: 106:     }
  3016   001E88  EF66  F00F         	goto	i1l94
  3017   001E8C                     i1l5451:
  3018                           
  3019                           ; BSR set to: 0
  3020   001E8C  C08D  F089         	movff	lcd_4bit_send_string@lcd,lcd_4bit_send_char_data@lcd
  3021   001E90  C08E  F08A         	movff	lcd_4bit_send_string@lcd+1,lcd_4bit_send_char_data@lcd+1
  3022   001E94  C08F  FFF6         	movff	lcd_4bit_send_string@str,tblptrl
  3023   001E98  C090  FFF7         	movff	lcd_4bit_send_string@str+1,tblptrh
  3024   001E9C                     	if	1	;Program memory is < 0x10000, tblptru is always zero
  3025   001E9C  6AF8               	clrf	tblptru,c
  3026   001E9E                     	endif
  3027   001E9E                     	if	0	;tblptru may be non-zero
  3028   001E9E                     	endif
  3029   001E9E  0008               	tblrd		*
  3030   001EA0  CFF5 F08B          	movff	tablat,lcd_4bit_send_char_data@data
  3031   001EA4  EC34  F00E         	call	_lcd_4bit_send_char_data	;wreg free
  3032   001EA8  0100               	movlb	0	; () banked
  3033   001EAA  4B8F               	infsnz	lcd_4bit_send_string@str& (0+255),f,b
  3034   001EAC  2B90               	incf	(lcd_4bit_send_string@str+1)& (0+255),f,b
  3035   001EAE                     i1l5455:
  3036                           
  3037                           ; BSR set to: 0
  3038                           ;ECU_Layer/Chr_LCD/ecu_chr_lcd.c: 108:         while(*str){
  3039   001EAE  C08F  FFF6         	movff	lcd_4bit_send_string@str,tblptrl
  3040   001EB2  C090  FFF7         	movff	lcd_4bit_send_string@str+1,tblptrh
  3041   001EB6                     	if	1	;Program memory is < 0x10000, tblptru is always zero
  3042   001EB6  6AF8               	clrf	tblptru,c
  3043   001EB8                     	endif
  3044   001EB8                     	if	0	;tblptru may be non-zero
  3045   001EB8                     	endif
  3046   001EB8  0008               	tblrd		*
  3047   001EBA  50F5               	movf	tablat,w,c
  3048   001EBC  0900               	iorlw	0
  3049   001EBE  A4D8               	btfss	status,2,c
  3050   001EC0  EF64  F00F         	goto	i1u472_21
  3051   001EC4  EF66  F00F         	goto	i1u472_20
  3052   001EC8                     i1u472_21:
  3053   001EC8  EF46  F00F         	goto	i1l5451
  3054   001ECC                     i1u472_20:
  3055   001ECC                     i1l94:
  3056                           
  3057                           ; BSR set to: 0
  3058   001ECC  0012               	return		;funcret
  3059   001ECE                     __end_of_lcd_4bit_send_string:
  3060                           	callstack 0
  3061                           
  3062 ;; *************** function _lcd_4bit_send_char_data *****************
  3063 ;; Defined at:
  3064 ;;		line 63 in file "ECU_Layer/Chr_LCD/ecu_chr_lcd.c"
  3065 ;; Parameters:    Size  Location     Type
  3066 ;;  lcd             2    9[BANK0 ] PTR const struct .
  3067 ;;		 -> lcd1(6), 
  3068 ;;  data            1   11[BANK0 ] unsigned char 
  3069 ;; Auto vars:     Size  Location     Type
  3070 ;;  ret             1   12[BANK0 ] unsigned char 
  3071 ;; Return value:  Size  Location     Type
  3072 ;;                  1    wreg      unsigned char 
  3073 ;; Registers used:
  3074 ;;		wreg, fsr2l, fsr2h, status,2, status,0, prodl, prodh, cstack
  3075 ;; Tracked objects:
  3076 ;;		On entry : 0/0
  3077 ;;		On exit  : 0/0
  3078 ;;		Unchanged: 0/0
  3079 ;; Data sizes:     COMRAM   BANK0   BANK1   BANK2   BANK3   BANK4   BANK5   BANK6   BANK7   BANK8   BANK9  BANK10  BANK1
      +1  BANK12  BANK13  BANK14  BANK15
  3080 ;;      Params:         0       3       0       0       0       0       0       0       0       0       0       0       
      +0       0       0       0       0
  3081 ;;      Locals:         0       1       0       0       0       0       0       0       0       0       0       0       
      +0       0       0       0       0
  3082 ;;      Temps:          0       0       0       0       0       0       0       0       0       0       0       0       
      +0       0       0       0       0
  3083 ;;      Totals:         0       4       0       0       0       0       0       0       0       0       0       0       
      +0       0       0       0       0
  3084 ;;Total ram usage:        4 bytes
  3085 ;; Hardware stack levels used: 1
  3086 ;; Hardware stack levels required when called: 9
  3087 ;; This function calls:
  3088 ;;		i1_gpio_pin_write_logic
  3089 ;;		i1_lcd_4bit_send_enable_signal
  3090 ;;		i1_lcd_send_4bits
  3091 ;; This function is called by:
  3092 ;;		_lcd_4bit_send_string
  3093 ;;		_lcd_4bit_send_char_data_pos
  3094 ;;		_lcd_4bit_send_string_pos
  3095 ;;		_lcd_4bit_send_custom_char
  3096 ;; This function uses a non-reentrant model
  3097 ;;
  3098                           
  3099                           	psect	text19
  3100   001C68                     __ptext19:
  3101                           	callstack 0
  3102   001C68                     _lcd_4bit_send_char_data:
  3103                           	callstack 11
  3104   001C68                     
  3105                           ;ECU_Layer/Chr_LCD/ecu_chr_lcd.c: 65:     if(lcd==((void*)0)){
  3106   001C68  0100               	movlb	0	; () banked
  3107   001C6A  5189               	movf	lcd_4bit_send_char_data@lcd& (0+255),w,b
  3108   001C6C  118A               	iorwf	(lcd_4bit_send_char_data@lcd+1)& (0+255),w,b
  3109   001C6E  A4D8               	btfss	status,2,c
  3110   001C70  EF3C  F00E         	goto	i1u468_21
  3111   001C74  EF3E  F00E         	goto	i1u468_20
  3112   001C78                     i1u468_21:
  3113   001C78  EF42  F00E         	goto	i1l5401
  3114   001C7C                     i1u468_20:
  3115   001C7C                     
  3116                           ; BSR set to: 0
  3117                           ;ECU_Layer/Chr_LCD/ecu_chr_lcd.c: 66:         ret=(Std_ReturnType)0x00;
  3118   001C7C  0E00               	movlw	0
  3119   001C7E  6F8C               	movwf	lcd_4bit_send_char_data@ret& (0+255),b
  3120                           
  3121                           ;ECU_Layer/Chr_LCD/ecu_chr_lcd.c: 67:     }
  3122   001C80  EF71  F00E         	goto	i1l5403
  3123   001C84                     i1l5401:
  3124                           
  3125                           ; BSR set to: 0
  3126                           ;ECU_Layer/Chr_LCD/ecu_chr_lcd.c: 69:        ret=gpio_pin_write_logic(&(lcd->lcd_rs),HIG
      +                          H);
  3127   001C84  C089  F04B         	movff	lcd_4bit_send_char_data@lcd,i1gpio_pin_write_logic@pin_config
  3128   001C88  C08A  F04C         	movff	lcd_4bit_send_char_data@lcd+1,i1gpio_pin_write_logic@pin_config+1
  3129   001C8C  0E01               	movlw	1
  3130   001C8E  6E4D               	movwf	i1gpio_pin_write_logic@logic^0,c
  3131   001C90  EC58  F00A         	call	i1_gpio_pin_write_logic	;wreg free
  3132   001C94  0100               	movlb	0	; () banked
  3133   001C96  6F8C               	movwf	lcd_4bit_send_char_data@ret& (0+255),b
  3134                           
  3135                           ;ECU_Layer/Chr_LCD/ecu_chr_lcd.c: 70:         ret=lcd_send_4bits(lcd, data >> 4);
  3136   001C98  C089  F086         	movff	lcd_4bit_send_char_data@lcd,i1lcd_send_4bits@lcd
  3137   001C9C  C08A  F087         	movff	lcd_4bit_send_char_data@lcd+1,i1lcd_send_4bits@lcd+1
  3138   001CA0  398B               	swapf	lcd_4bit_send_char_data@data& (0+255),w,b
  3139   001CA2  0B0F               	andlw	15
  3140   001CA4  6F88               	movwf	i1lcd_send_4bits@_data_command& (0+255),b
  3141   001CA6  EC29  F00D         	call	i1_lcd_send_4bits	;wreg free
  3142   001CAA  0100               	movlb	0	; () banked
  3143   001CAC  6F8C               	movwf	lcd_4bit_send_char_data@ret& (0+255),b
  3144                           
  3145                           ;ECU_Layer/Chr_LCD/ecu_chr_lcd.c: 71:         ret=lcd_4bit_send_enable_signal(lcd);
  3146   001CAE  C089  F04F         	movff	lcd_4bit_send_char_data@lcd,i1lcd_4bit_send_enable_signal@lcd
  3147   001CB2  C08A  F050         	movff	lcd_4bit_send_char_data@lcd+1,i1lcd_4bit_send_enable_signal@lcd+1
  3148   001CB6  ECBD  F00F         	call	i1_lcd_4bit_send_enable_signal	;wreg free
  3149   001CBA  0100               	movlb	0	; () banked
  3150   001CBC  6F8C               	movwf	lcd_4bit_send_char_data@ret& (0+255),b
  3151                           
  3152                           ;ECU_Layer/Chr_LCD/ecu_chr_lcd.c: 72:         ret=lcd_send_4bits(lcd, data);
  3153   001CBE  C089  F086         	movff	lcd_4bit_send_char_data@lcd,i1lcd_send_4bits@lcd
  3154   001CC2  C08A  F087         	movff	lcd_4bit_send_char_data@lcd+1,i1lcd_send_4bits@lcd+1
  3155   001CC6  C08B  F088         	movff	lcd_4bit_send_char_data@data,i1lcd_send_4bits@_data_command
  3156   001CCA  EC29  F00D         	call	i1_lcd_send_4bits	;wreg free
  3157   001CCE  0100               	movlb	0	; () banked
  3158   001CD0  6F8C               	movwf	lcd_4bit_send_char_data@ret& (0+255),b
  3159                           
  3160                           ;ECU_Layer/Chr_LCD/ecu_chr_lcd.c: 73:         ret=lcd_4bit_send_enable_signal(lcd);
  3161   001CD2  C089  F04F         	movff	lcd_4bit_send_char_data@lcd,i1lcd_4bit_send_enable_signal@lcd
  3162   001CD6  C08A  F050         	movff	lcd_4bit_send_char_data@lcd+1,i1lcd_4bit_send_enable_signal@lcd+1
  3163   001CDA  ECBD  F00F         	call	i1_lcd_4bit_send_enable_signal	;wreg free
  3164   001CDE  0100               	movlb	0	; () banked
  3165   001CE0  6F8C               	movwf	lcd_4bit_send_char_data@ret& (0+255),b
  3166   001CE2                     i1l5403:
  3167                           
  3168                           ; BSR set to: 0
  3169                           ;ECU_Layer/Chr_LCD/ecu_chr_lcd.c: 75:     return ret;
  3170   001CE2  518C               	movf	lcd_4bit_send_char_data@ret& (0+255),w,b
  3171   001CE4                     
  3172                           ; BSR set to: 0
  3173   001CE4  0012               	return		;funcret
  3174   001CE6                     __end_of_lcd_4bit_send_char_data:
  3175                           	callstack 0
  3176                           
  3177 ;; *************** function i1_lcd_send_4bits *****************
  3178 ;; Defined at:
  3179 ;;		line 396 in file "ECU_Layer/Chr_LCD/ecu_chr_lcd.c"
  3180 ;; Parameters:    Size  Location     Type
  3181 ;;  lcd             2    6[BANK0 ] PTR const struct .
  3182 ;;		 -> lcd1(6), 
  3183 ;;  _data_comman    1    8[BANK0 ] unsigned char 
  3184 ;; Auto vars:     Size  Location     Type
  3185 ;;  ret             1   36[COMRAM] unsigned char 
  3186 ;; Return value:  Size  Location     Type
  3187 ;;                  1    wreg      unsigned char 
  3188 ;; Registers used:
  3189 ;;		wreg, fsr2l, fsr2h, status,2, status,0, prodl, prodh, cstack
  3190 ;; Tracked objects:
  3191 ;;		On entry : 0/0
  3192 ;;		On exit  : 0/0
  3193 ;;		Unchanged: 0/0
  3194 ;; Data sizes:     COMRAM   BANK0   BANK1   BANK2   BANK3   BANK4   BANK5   BANK6   BANK7   BANK8   BANK9  BANK10  BANK1
      +1  BANK12  BANK13  BANK14  BANK15
  3195 ;;      Params:         0       3       0       0       0       0       0       0       0       0       0       0       
      +0       0       0       0       0
  3196 ;;      Locals:         1       0       0       0       0       0       0       0       0       0       0       0       
      +0       0       0       0       0
  3197 ;;      Temps:          0       0       0       0       0       0       0       0       0       0       0       0       
      +0       0       0       0       0
  3198 ;;      Totals:         1       3       0       0       0       0       0       0       0       0       0       0       
      +0       0       0       0       0
  3199 ;;Total ram usage:        4 bytes
  3200 ;; Hardware stack levels used: 1
  3201 ;; Hardware stack levels required when called: 8
  3202 ;; This function calls:
  3203 ;;		i1_gpio_pin_write_logic
  3204 ;; This function is called by:
  3205 ;;		_lcd_4bit_send_char_data
  3206 ;; This function uses a non-reentrant model
  3207 ;;
  3208                           
  3209                           	psect	text20
  3210   001A52                     __ptext20:
  3211                           	callstack 0
  3212   001A52                     i1_lcd_send_4bits:
  3213                           	callstack 11
  3214   001A52                     
  3215                           ;ECU_Layer/Chr_LCD/ecu_chr_lcd.c: 398:     if(lcd==((void*)0)){
  3216   001A52  0100               	movlb	0	; () banked
  3217   001A54  5186               	movf	i1lcd_send_4bits@lcd& (0+255),w,b
  3218   001A56  1187               	iorwf	(i1lcd_send_4bits@lcd+1)& (0+255),w,b
  3219   001A58  A4D8               	btfss	status,2,c
  3220   001A5A  EF31  F00D         	goto	i1u462_21
  3221   001A5E  EF33  F00D         	goto	i1u462_20
  3222   001A62                     i1u462_21:
  3223   001A62  EF37  F00D         	goto	i1l5345
  3224   001A66                     i1u462_20:
  3225   001A66                     
  3226                           ; BSR set to: 0
  3227                           ;ECU_Layer/Chr_LCD/ecu_chr_lcd.c: 399:         ret=(Std_ReturnType)0x00;
  3228   001A66  0E00               	movlw	0
  3229   001A68  6E4F               	movwf	i1lcd_send_4bits@ret^0,c
  3230                           
  3231                           ;ECU_Layer/Chr_LCD/ecu_chr_lcd.c: 400:     }
  3232   001A6A  EF6F  F00D         	goto	i1l5347
  3233   001A6E                     i1l5345:
  3234                           
  3235                           ; BSR set to: 0
  3236                           ;ECU_Layer/Chr_LCD/ecu_chr_lcd.c: 402:         ret=gpio_pin_write_logic(&(lcd->lcd_data[
      +                          0]),( _data_command >> 0 ) & (uint8)0x01);
  3237   001A6E  0E02               	movlw	2
  3238   001A70  2586               	addwf	i1lcd_send_4bits@lcd& (0+255),w,b
  3239   001A72  6E4B               	movwf	i1gpio_pin_write_logic@pin_config^0,c
  3240   001A74  0E00               	movlw	0
  3241   001A76  2187               	addwfc	(i1lcd_send_4bits@lcd+1)& (0+255),w,b
  3242   001A78  6E4C               	movwf	(i1gpio_pin_write_logic@pin_config+1)^0,c
  3243   001A7A  5188               	movf	i1lcd_send_4bits@_data_command& (0+255),w,b
  3244   001A7C  0B01               	andlw	1
  3245   001A7E  6E4D               	movwf	i1gpio_pin_write_logic@logic^0,c
  3246   001A80  EC58  F00A         	call	i1_gpio_pin_write_logic	;wreg free
  3247   001A84  6E4F               	movwf	i1lcd_send_4bits@ret^0,c
  3248                           
  3249                           ;ECU_Layer/Chr_LCD/ecu_chr_lcd.c: 403:         ret=gpio_pin_write_logic(&(lcd->lcd_data[
      +                          1]),( _data_command >> 1 ) & (uint8)0x01);
  3250   001A86  0E03               	movlw	3
  3251   001A88  0100               	movlb	0	; () banked
  3252   001A8A  2586               	addwf	i1lcd_send_4bits@lcd& (0+255),w,b
  3253   001A8C  6E4B               	movwf	i1gpio_pin_write_logic@pin_config^0,c
  3254   001A8E  0E00               	movlw	0
  3255   001A90  2187               	addwfc	(i1lcd_send_4bits@lcd+1)& (0+255),w,b
  3256   001A92  6E4C               	movwf	(i1gpio_pin_write_logic@pin_config+1)^0,c
  3257   001A94  90D8               	bcf	status,0,c
  3258   001A96  3188               	rrcf	i1lcd_send_4bits@_data_command& (0+255),w,b
  3259   001A98  0B01               	andlw	1
  3260   001A9A  6E4D               	movwf	i1gpio_pin_write_logic@logic^0,c
  3261   001A9C  EC58  F00A         	call	i1_gpio_pin_write_logic	;wreg free
  3262   001AA0  6E4F               	movwf	i1lcd_send_4bits@ret^0,c
  3263                           
  3264                           ;ECU_Layer/Chr_LCD/ecu_chr_lcd.c: 404:         ret=gpio_pin_write_logic(&(lcd->lcd_data[
      +                          2]),( _data_command >> 2 ) & (uint8)0x01);
  3265   001AA2  0E04               	movlw	4
  3266   001AA4  0100               	movlb	0	; () banked
  3267   001AA6  2586               	addwf	i1lcd_send_4bits@lcd& (0+255),w,b
  3268   001AA8  6E4B               	movwf	i1gpio_pin_write_logic@pin_config^0,c
  3269   001AAA  0E00               	movlw	0
  3270   001AAC  2187               	addwfc	(i1lcd_send_4bits@lcd+1)& (0+255),w,b
  3271   001AAE  6E4C               	movwf	(i1gpio_pin_write_logic@pin_config+1)^0,c
  3272   001AB0  4188               	rrncf	i1lcd_send_4bits@_data_command& (0+255),w,b
  3273   001AB2  42E8               	rrncf	wreg,f,c
  3274   001AB4  0B3F               	andlw	63
  3275   001AB6  0B01               	andlw	1
  3276   001AB8  6E4D               	movwf	i1gpio_pin_write_logic@logic^0,c
  3277   001ABA  EC58  F00A         	call	i1_gpio_pin_write_logic	;wreg free
  3278   001ABE  6E4F               	movwf	i1lcd_send_4bits@ret^0,c
  3279                           
  3280                           ;ECU_Layer/Chr_LCD/ecu_chr_lcd.c: 405:         ret=gpio_pin_write_logic(&(lcd->lcd_data[
      +                          3]),( _data_command >> 3 ) & (uint8)0x01);
  3281   001AC0  0E05               	movlw	5
  3282   001AC2  0100               	movlb	0	; () banked
  3283   001AC4  2586               	addwf	i1lcd_send_4bits@lcd& (0+255),w,b
  3284   001AC6  6E4B               	movwf	i1gpio_pin_write_logic@pin_config^0,c
  3285   001AC8  0E00               	movlw	0
  3286   001ACA  2187               	addwfc	(i1lcd_send_4bits@lcd+1)& (0+255),w,b
  3287   001ACC  6E4C               	movwf	(i1gpio_pin_write_logic@pin_config+1)^0,c
  3288   001ACE  3988               	swapf	i1lcd_send_4bits@_data_command& (0+255),w,b
  3289   001AD0  46E8               	rlncf	wreg,f,c
  3290   001AD2  0B1F               	andlw	31
  3291   001AD4  0B01               	andlw	1
  3292   001AD6  6E4D               	movwf	i1gpio_pin_write_logic@logic^0,c
  3293   001AD8  EC58  F00A         	call	i1_gpio_pin_write_logic	;wreg free
  3294   001ADC  6E4F               	movwf	i1lcd_send_4bits@ret^0,c
  3295   001ADE                     i1l5347:
  3296                           
  3297                           ;ECU_Layer/Chr_LCD/ecu_chr_lcd.c: 407:     return ret;
  3298   001ADE  504F               	movf	i1lcd_send_4bits@ret^0,w,c
  3299   001AE0  0012               	return		;funcret
  3300   001AE2                     __end_ofi1_lcd_send_4bits:
  3301                           	callstack 0
  3302                           
  3303 ;; *************** function i1_lcd_4bit_send_enable_signal *****************
  3304 ;; Defined at:
  3305 ;;		line 409 in file "ECU_Layer/Chr_LCD/ecu_chr_lcd.c"
  3306 ;; Parameters:    Size  Location     Type
  3307 ;;  lcd             2   36[COMRAM] PTR const struct .
  3308 ;;		 -> lcd1(6), 
  3309 ;; Auto vars:     Size  Location     Type
  3310 ;;  ret             1    6[BANK0 ] unsigned char 
  3311 ;; Return value:  Size  Location     Type
  3312 ;;                  1    wreg      unsigned char 
  3313 ;; Registers used:
  3314 ;;		wreg, fsr2l, fsr2h, status,2, status,0, prodl, prodh, cstack
  3315 ;; Tracked objects:
  3316 ;;		On entry : 0/0
  3317 ;;		On exit  : 0/0
  3318 ;;		Unchanged: 0/0
  3319 ;; Data sizes:     COMRAM   BANK0   BANK1   BANK2   BANK3   BANK4   BANK5   BANK6   BANK7   BANK8   BANK9  BANK10  BANK1
      +1  BANK12  BANK13  BANK14  BANK15
  3320 ;;      Params:         2       0       0       0       0       0       0       0       0       0       0       0       
      +0       0       0       0       0
  3321 ;;      Locals:         0       1       0       0       0       0       0       0       0       0       0       0       
      +0       0       0       0       0
  3322 ;;      Temps:          0       0       0       0       0       0       0       0       0       0       0       0       
      +0       0       0       0       0
  3323 ;;      Totals:         2       1       0       0       0       0       0       0       0       0       0       0       
      +0       0       0       0       0
  3324 ;;Total ram usage:        3 bytes
  3325 ;; Hardware stack levels used: 1
  3326 ;; Hardware stack levels required when called: 8
  3327 ;; This function calls:
  3328 ;;		i1_gpio_pin_write_logic
  3329 ;; This function is called by:
  3330 ;;		_lcd_4bit_send_char_data
  3331 ;; This function uses a non-reentrant model
  3332 ;;
  3333                           
  3334                           	psect	text21
  3335   001F7A                     __ptext21:
  3336                           	callstack 0
  3337   001F7A                     i1_lcd_4bit_send_enable_signal:
  3338                           	callstack 11
  3339   001F7A                     
  3340                           ;ECU_Layer/Chr_LCD/ecu_chr_lcd.c: 411:     if(lcd==((void*)0)){
  3341   001F7A  504F               	movf	i1lcd_4bit_send_enable_signal@lcd^0,w,c
  3342   001F7C  1050               	iorwf	(i1lcd_4bit_send_enable_signal@lcd+1)^0,w,c
  3343   001F7E  A4D8               	btfss	status,2,c
  3344   001F80  EFC4  F00F         	goto	i1u463_21
  3345   001F84  EFC6  F00F         	goto	i1u463_20
  3346   001F88                     i1u463_21:
  3347   001F88  EFCB  F00F         	goto	i1l5357
  3348   001F8C                     i1u463_20:
  3349   001F8C                     
  3350                           ;ECU_Layer/Chr_LCD/ecu_chr_lcd.c: 412:         ret=(Std_ReturnType)0x00;
  3351   001F8C  0E00               	movlw	0
  3352   001F8E  0100               	movlb	0	; () banked
  3353   001F90  6F86               	movwf	i1lcd_4bit_send_enable_signal@ret& (0+255),b
  3354                           
  3355                           ;ECU_Layer/Chr_LCD/ecu_chr_lcd.c: 413:     }
  3356   001F92  EFE5  F00F         	goto	i1l5363
  3357   001F96                     i1l5357:
  3358   001F96  0E01               	movlw	1
  3359   001F98  244F               	addwf	i1lcd_4bit_send_enable_signal@lcd^0,w,c
  3360   001F9A  6E4B               	movwf	i1gpio_pin_write_logic@pin_config^0,c
  3361   001F9C  0E00               	movlw	0
  3362   001F9E  2050               	addwfc	(i1lcd_4bit_send_enable_signal@lcd+1)^0,w,c
  3363   001FA0  6E4C               	movwf	(i1gpio_pin_write_logic@pin_config+1)^0,c
  3364   001FA2  0E01               	movlw	1
  3365   001FA4  6E4D               	movwf	i1gpio_pin_write_logic@logic^0,c
  3366   001FA6  EC58  F00A         	call	i1_gpio_pin_write_logic	;wreg free
  3367   001FAA                     
  3368                           ;ECU_Layer/Chr_LCD/ecu_chr_lcd.c: 416:         _delay((unsigned long)((5)*(8000000/40000
      +                          00.0)));
  3369   001FAA  0E03               	movlw	3
  3370   001FAC                     i1u577_27:
  3371   001FAC  2EE8               	decfsz	wreg,f,c
  3372   001FAE  D7FE               	bra	i1u577_27
  3373   001FB0  F000               	nop	
  3374   001FB2                     
  3375                           ;ECU_Layer/Chr_LCD/ecu_chr_lcd.c: 417:         ret=gpio_pin_write_logic(&(lcd->lcd_en),L
      +                          OW);
  3376   001FB2  0E01               	movlw	1
  3377   001FB4  244F               	addwf	i1lcd_4bit_send_enable_signal@lcd^0,w,c
  3378   001FB6  6E4B               	movwf	i1gpio_pin_write_logic@pin_config^0,c
  3379   001FB8  0E00               	movlw	0
  3380   001FBA  2050               	addwfc	(i1lcd_4bit_send_enable_signal@lcd+1)^0,w,c
  3381   001FBC  6E4C               	movwf	(i1gpio_pin_write_logic@pin_config+1)^0,c
  3382   001FBE  0E00               	movlw	0
  3383   001FC0  6E4D               	movwf	i1gpio_pin_write_logic@logic^0,c
  3384   001FC2  EC58  F00A         	call	i1_gpio_pin_write_logic	;wreg free
  3385   001FC6  0100               	movlb	0	; () banked
  3386   001FC8  6F86               	movwf	i1lcd_4bit_send_enable_signal@ret& (0+255),b
  3387   001FCA                     i1l5363:
  3388                           
  3389                           ; BSR set to: 0
  3390                           ;ECU_Layer/Chr_LCD/ecu_chr_lcd.c: 419:     return ret;
  3391   001FCA  5186               	movf	i1lcd_4bit_send_enable_signal@ret& (0+255),w,b
  3392   001FCC                     
  3393                           ; BSR set to: 0
  3394   001FCC  0012               	return		;funcret
  3395   001FCE                     __end_ofi1_lcd_4bit_send_enable_signal:
  3396                           	callstack 0
  3397                           
  3398 ;; *************** function i1_gpio_pin_write_logic *****************
  3399 ;; Defined at:
  3400 ;;		line 94 in file "MCAL_Layer/GPIO/hal_gpio.c"
  3401 ;; Parameters:    Size  Location     Type
  3402 ;;  pin_config      2   32[COMRAM] PTR const struct .
  3403 ;;		 -> lcd1.lcd_data(4), lcd1(6), relay_turn_off@pin_obj(1), relay_turn_on@pin_obj(1), 
  3404 ;;		 -> relay_initialize@pin_obj(1), led_turn_off@pin_obj(1), led_turn_on@pin_obj(1), led_initialize@pin_obj(1), 
  3405 ;;  logic           1   34[COMRAM] enum E3153
  3406 ;; Auto vars:     Size  Location     Type
  3407 ;;  ret             1   35[COMRAM] unsigned char 
  3408 ;; Return value:  Size  Location     Type
  3409 ;;                  1    wreg      unsigned char 
  3410 ;; Registers used:
  3411 ;;		wreg, fsr2l, fsr2h, status,2, status,0, prodl, prodh
  3412 ;; Tracked objects:
  3413 ;;		On entry : 0/0
  3414 ;;		On exit  : 0/0
  3415 ;;		Unchanged: 0/0
  3416 ;; Data sizes:     COMRAM   BANK0   BANK1   BANK2   BANK3   BANK4   BANK5   BANK6   BANK7   BANK8   BANK9  BANK10  BANK1
      +1  BANK12  BANK13  BANK14  BANK15
  3417 ;;      Params:         3       0       0       0       0       0       0       0       0       0       0       0       
      +0       0       0       0       0
  3418 ;;      Locals:         1       0       0       0       0       0       0       0       0       0       0       0       
      +0       0       0       0       0
  3419 ;;      Temps:          0       6       0       0       0       0       0       0       0       0       0       0       
      +0       0       0       0       0
  3420 ;;      Totals:         4       6       0       0       0       0       0       0       0       0       0       0       
      +0       0       0       0       0
  3421 ;;Total ram usage:       10 bytes
  3422 ;; Hardware stack levels used: 1
  3423 ;; Hardware stack levels required when called: 7
  3424 ;; This function calls:
  3425 ;;		Nothing
  3426 ;; This function is called by:
  3427 ;;		_lcd_4bit_send_char_data
  3428 ;;		i1_lcd_send_4bits
  3429 ;;		i1_lcd_4bit_send_enable_signal
  3430 ;; This function uses a non-reentrant model
  3431 ;;
  3432                           
  3433                           	psect	text22
  3434   0014B0                     __ptext22:
  3435                           	callstack 0
  3436   0014B0                     i1_gpio_pin_write_logic:
  3437                           	callstack 11
  3438   0014B0                     
  3439                           ;MCAL_Layer/GPIO/hal_gpio.c: 95:       Std_ReturnType ret=(Std_ReturnType)0x01;
  3440   0014B0  0E01               	movlw	1
  3441   0014B2  6E4E               	movwf	i1gpio_pin_write_logic@ret^0,c
  3442   0014B4                     
  3443                           ;MCAL_Layer/GPIO/hal_gpio.c: 96:     if((pin_config==((void*)0))||(pin_config->pin>8 -1)
      +                          ||(pin_config->port>5 -1)){
  3444   0014B4  504B               	movf	i1gpio_pin_write_logic@pin_config^0,w,c
  3445   0014B6  104C               	iorwf	(i1gpio_pin_write_logic@pin_config+1)^0,w,c
  3446   0014B8  B4D8               	btfsc	status,2,c
  3447   0014BA  EF61  F00A         	goto	i1u448_21
  3448   0014BE  EF63  F00A         	goto	i1u448_20
  3449   0014C2                     i1u448_21:
  3450   0014C2  EF84  F00A         	goto	i1l5267
  3451   0014C6                     i1u448_20:
  3452   0014C6  C04B  FFD9         	movff	i1gpio_pin_write_logic@pin_config,fsr2l
  3453   0014CA  C04C  FFDA         	movff	i1gpio_pin_write_logic@pin_config+1,fsr2h
  3454   0014CE  30DF               	rrcf	223,w,c
  3455   0014D0  32E8               	rrcf	wreg,f,c
  3456   0014D2  32E8               	rrcf	wreg,f,c
  3457   0014D4  0B07               	andlw	7
  3458   0014D6  0100               	movlb	0	; () banked
  3459   0014D8  6F80               	movwf	??i1_gpio_pin_write_logic& (0+255),b
  3460   0014DA  0E08               	movlw	8
  3461   0014DC  6180               	cpfslt	??i1_gpio_pin_write_logic& (0+255),b
  3462   0014DE  EF73  F00A         	goto	i1u449_21
  3463   0014E2  EF75  F00A         	goto	i1u449_20
  3464   0014E6                     i1u449_21:
  3465   0014E6  EF84  F00A         	goto	i1l5267
  3466   0014EA                     i1u449_20:
  3467   0014EA                     
  3468                           ; BSR set to: 0
  3469   0014EA  C04B  FFD9         	movff	i1gpio_pin_write_logic@pin_config,fsr2l
  3470   0014EE  C04C  FFDA         	movff	i1gpio_pin_write_logic@pin_config+1,fsr2h
  3471   0014F2  50DF               	movf	223,w,c
  3472   0014F4  0B07               	andlw	7
  3473   0014F6  6F80               	movwf	??i1_gpio_pin_write_logic& (0+255),b
  3474   0014F8  0E04               	movlw	4
  3475   0014FA  6580               	cpfsgt	??i1_gpio_pin_write_logic& (0+255),b
  3476   0014FC  EF82  F00A         	goto	i1u450_21
  3477   001500  EF84  F00A         	goto	i1u450_20
  3478   001504                     i1u450_21:
  3479   001504  EFE9  F00A         	goto	i1l5275
  3480   001508                     i1u450_20:
  3481   001508                     i1l5267:
  3482                           
  3483                           ;MCAL_Layer/GPIO/hal_gpio.c: 97:         ret=(Std_ReturnType)0x00;
  3484   001508  0E00               	movlw	0
  3485   00150A  6E4E               	movwf	i1gpio_pin_write_logic@ret^0,c
  3486                           
  3487                           ;MCAL_Layer/GPIO/hal_gpio.c: 98:     }
  3488   00150C  EFFE  F00A         	goto	i1l5277
  3489   001510                     i1l5269:
  3490                           
  3491                           ; BSR set to: 0
  3492                           ;MCAL_Layer/GPIO/hal_gpio.c: 102:                 (*lat_registers[pin_config->port]|=((u
      +                          int8)0x01<<pin_config->pin));
  3493   001510  C04B  FFD9         	movff	i1gpio_pin_write_logic@pin_config,fsr2l
  3494   001514  C04C  FFDA         	movff	i1gpio_pin_write_logic@pin_config+1,fsr2h
  3495   001518  30DF               	rrcf	223,w,c
  3496   00151A  32E8               	rrcf	wreg,f,c
  3497   00151C  32E8               	rrcf	wreg,f,c
  3498   00151E  0B07               	andlw	7
  3499   001520  6F80               	movwf	??i1_gpio_pin_write_logic& (0+255),b
  3500   001522  0E01               	movlw	1
  3501   001524  6F81               	movwf	(??i1_gpio_pin_write_logic+1)& (0+255),b
  3502   001526  2B80               	incf	??i1_gpio_pin_write_logic& (0+255),f,b
  3503   001528  EF98  F00A         	goto	i1u451_24
  3504   00152C                     i1u451_25:
  3505   00152C  90D8               	bcf	status,0,c
  3506   00152E  3781               	rlcf	(??i1_gpio_pin_write_logic+1)& (0+255),f,b
  3507   001530                     i1u451_24:
  3508   001530  2F80               	decfsz	??i1_gpio_pin_write_logic& (0+255),f,b
  3509   001532  EF96  F00A         	goto	i1u451_25
  3510   001536  C04B  FFD9         	movff	i1gpio_pin_write_logic@pin_config,fsr2l
  3511   00153A  C04C  FFDA         	movff	i1gpio_pin_write_logic@pin_config+1,fsr2h
  3512   00153E  50DF               	movf	223,w,c
  3513   001540  0B07               	andlw	7
  3514   001542  0100               	movlb	0	; () banked
  3515   001544  6F82               	movwf	(??i1_gpio_pin_write_logic+2)& (0+255),b
  3516   001546  5182               	movf	(??i1_gpio_pin_write_logic+2)& (0+255),w,b
  3517   001548  0D02               	mullw	2
  3518   00154A  0EB4               	movlw	low _lat_registers
  3519   00154C  24F3               	addwf	243,w,c
  3520   00154E  6ED9               	movwf	fsr2l,c
  3521   001550  0E00               	movlw	high _lat_registers
  3522   001552  20F4               	addwfc	prodh,w,c
  3523   001554  6EDA               	movwf	fsr2h,c
  3524   001556  CFDE F083          	movff	postinc2,??i1_gpio_pin_write_logic+3
  3525   00155A  CFDD F084          	movff	postdec2,??i1_gpio_pin_write_logic+4
  3526   00155E  C083  FFD9         	movff	??i1_gpio_pin_write_logic+3,fsr2l
  3527   001562  C084  FFDA         	movff	??i1_gpio_pin_write_logic+4,fsr2h
  3528   001566  5181               	movf	(??i1_gpio_pin_write_logic+1)& (0+255),w,b
  3529   001568  12DF               	iorwf	indf2,f,c
  3530                           
  3531                           ;MCAL_Layer/GPIO/hal_gpio.c: 103:                 break;
  3532   00156A  EFFE  F00A         	goto	i1l5277
  3533   00156E                     i1l5271:
  3534                           
  3535                           ; BSR set to: 0
  3536                           ;MCAL_Layer/GPIO/hal_gpio.c: 105:                 (*lat_registers[pin_config->port]&=~((
      +                          uint8)0x01<<pin_config->pin));
  3537   00156E  C04B  FFD9         	movff	i1gpio_pin_write_logic@pin_config,fsr2l
  3538   001572  C04C  FFDA         	movff	i1gpio_pin_write_logic@pin_config+1,fsr2h
  3539   001576  30DF               	rrcf	223,w,c
  3540   001578  32E8               	rrcf	wreg,f,c
  3541   00157A  32E8               	rrcf	wreg,f,c
  3542   00157C  0B07               	andlw	7
  3543   00157E  6F80               	movwf	??i1_gpio_pin_write_logic& (0+255),b
  3544   001580  0E01               	movlw	1
  3545   001582  6F81               	movwf	(??i1_gpio_pin_write_logic+1)& (0+255),b
  3546   001584  2B80               	incf	??i1_gpio_pin_write_logic& (0+255),f,b
  3547   001586  EFC7  F00A         	goto	i1u452_24
  3548   00158A                     i1u452_25:
  3549   00158A  90D8               	bcf	status,0,c
  3550   00158C  3781               	rlcf	(??i1_gpio_pin_write_logic+1)& (0+255),f,b
  3551   00158E                     i1u452_24:
  3552   00158E  2F80               	decfsz	??i1_gpio_pin_write_logic& (0+255),f,b
  3553   001590  EFC5  F00A         	goto	i1u452_25
  3554   001594  0100               	movlb	0	; () banked
  3555   001596  5181               	movf	(??i1_gpio_pin_write_logic+1)& (0+255),w,b
  3556   001598  0AFF               	xorlw	255
  3557   00159A  6F82               	movwf	(??i1_gpio_pin_write_logic+2)& (0+255),b
  3558   00159C  C04B  FFD9         	movff	i1gpio_pin_write_logic@pin_config,fsr2l
  3559   0015A0  C04C  FFDA         	movff	i1gpio_pin_write_logic@pin_config+1,fsr2h
  3560   0015A4  50DF               	movf	223,w,c
  3561   0015A6  0B07               	andlw	7
  3562   0015A8  6F83               	movwf	(??i1_gpio_pin_write_logic+3)& (0+255),b
  3563   0015AA  5183               	movf	(??i1_gpio_pin_write_logic+3)& (0+255),w,b
  3564   0015AC  0D02               	mullw	2
  3565   0015AE  0EB4               	movlw	low _lat_registers
  3566   0015B0  24F3               	addwf	243,w,c
  3567   0015B2  6ED9               	movwf	fsr2l,c
  3568   0015B4  0E00               	movlw	high _lat_registers
  3569   0015B6  20F4               	addwfc	prodh,w,c
  3570   0015B8  6EDA               	movwf	fsr2h,c
  3571   0015BA  CFDE F084          	movff	postinc2,??i1_gpio_pin_write_logic+4
  3572   0015BE  CFDD F085          	movff	postdec2,??i1_gpio_pin_write_logic+5
  3573   0015C2  C084  FFD9         	movff	??i1_gpio_pin_write_logic+4,fsr2l
  3574   0015C6  C085  FFDA         	movff	??i1_gpio_pin_write_logic+5,fsr2h
  3575   0015CA  5182               	movf	(??i1_gpio_pin_write_logic+2)& (0+255),w,b
  3576   0015CC  16DF               	andwf	indf2,f,c
  3577                           
  3578                           ;MCAL_Layer/GPIO/hal_gpio.c: 106:                 break;
  3579   0015CE  EFFE  F00A         	goto	i1l5277
  3580   0015D2                     i1l5275:
  3581                           
  3582                           ; BSR set to: 0
  3583   0015D2  504D               	movf	i1gpio_pin_write_logic@logic^0,w,c
  3584   0015D4  6F80               	movwf	??i1_gpio_pin_write_logic& (0+255),b
  3585   0015D6  6B81               	clrf	(??i1_gpio_pin_write_logic+1)& (0+255),b
  3586                           
  3587                           ; Switch on 2 bytes has been partitioned into a top level switch of size 1, and 1 sub-sw
      +                          itches
  3588                           ; Switch size 1, requested type "simple"
  3589                           ; Number of cases is 1, Range of values is 0 to 0
  3590                           ; switch strategies available:
  3591                           ; Name         Instructions Cycles
  3592                           ; simple_byte            4     3 (average)
  3593                           ;	Chosen strategy is simple_byte
  3594   0015D8  5181               	movf	(??i1_gpio_pin_write_logic+1)& (0+255),w,b
  3595   0015DA  0A00               	xorlw	0	; case 0
  3596   0015DC  B4D8               	btfsc	status,2,c
  3597   0015DE  EFF3  F00A         	goto	i1l6285
  3598   0015E2  EF84  F00A         	goto	i1l5267
  3599   0015E6                     i1l6285:
  3600                           
  3601                           ; BSR set to: 0
  3602                           ; Switch size 1, requested type "simple"
  3603                           ; Number of cases is 2, Range of values is 0 to 1
  3604                           ; switch strategies available:
  3605                           ; Name         Instructions Cycles
  3606                           ; simple_byte            7     4 (average)
  3607                           ;	Chosen strategy is simple_byte
  3608   0015E6  5180               	movf	??i1_gpio_pin_write_logic& (0+255),w,b
  3609   0015E8  0A00               	xorlw	0	; case 0
  3610   0015EA  B4D8               	btfsc	status,2,c
  3611   0015EC  EFB7  F00A         	goto	i1l5271
  3612   0015F0  0A01               	xorlw	1	; case 1
  3613   0015F2  B4D8               	btfsc	status,2,c
  3614   0015F4  EF88  F00A         	goto	i1l5269
  3615   0015F8  EF84  F00A         	goto	i1l5267
  3616   0015FC                     i1l5277:
  3617                           
  3618                           ;MCAL_Layer/GPIO/hal_gpio.c: 110:     return ret;
  3619   0015FC  504E               	movf	i1gpio_pin_write_logic@ret^0,w,c
  3620   0015FE  0012               	return		;funcret
  3621   001600                     __end_ofi1_gpio_pin_write_logic:
  3622                           	callstack 0
  3623                           
  3624 ;; *************** function _RB7_ISR *****************
  3625 ;; Defined at:
  3626 ;;		line 180 in file "MCAL_Layer/Interrupt/mcal_external_interrupt.c"
  3627 ;; Parameters:    Size  Location     Type
  3628 ;;		None
  3629 ;; Auto vars:     Size  Location     Type
  3630 ;;		None
  3631 ;; Return value:  Size  Location     Type
  3632 ;;                  1    wreg      void 
  3633 ;; Registers used:
  3634 ;;		None
  3635 ;; Tracked objects:
  3636 ;;		On entry : 0/0
  3637 ;;		On exit  : 0/0
  3638 ;;		Unchanged: 0/0
  3639 ;; Data sizes:     COMRAM   BANK0   BANK1   BANK2   BANK3   BANK4   BANK5   BANK6   BANK7   BANK8   BANK9  BANK10  BANK1
      +1  BANK12  BANK13  BANK14  BANK15
  3640 ;;      Params:         0       0       0       0       0       0       0       0       0       0       0       0       
      +0       0       0       0       0
  3641 ;;      Locals:         0       0       0       0       0       0       0       0       0       0       0       0       
      +0       0       0       0       0
  3642 ;;      Temps:          0       0       0       0       0       0       0       0       0       0       0       0       
      +0       0       0       0       0
  3643 ;;      Totals:         0       0       0       0       0       0       0       0       0       0       0       0       
      +0       0       0       0       0
  3644 ;;Total ram usage:        0 bytes
  3645 ;; Hardware stack levels used: 1
  3646 ;; Hardware stack levels required when called: 7
  3647 ;; This function calls:
  3648 ;;		Nothing
  3649 ;; This function is called by:
  3650 ;;		_InterruptManagerLow
  3651 ;; This function uses a non-reentrant model
  3652 ;;
  3653                           
  3654                           	psect	text23
  3655   002178                     __ptext23:
  3656                           	callstack 0
  3657   002178                     _RB7_ISR:
  3658                           	callstack 16
  3659   002178                     
  3660                           ;MCAL_Layer/Interrupt/mcal_external_interrupt.c: 182:     ((*((volatile INTCON_t *)(0xFF
      +                          2))).RBIF=0);
  3661   002178  90F2               	bcf	242,0,c	;volatile
  3662   00217A  0012               	return		;funcret
  3663   00217C                     __end_of_RB7_ISR:
  3664                           	callstack 0
  3665                           
  3666 ;; *************** function _RB6_ISR *****************
  3667 ;; Defined at:
  3668 ;;		line 172 in file "MCAL_Layer/Interrupt/mcal_external_interrupt.c"
  3669 ;; Parameters:    Size  Location     Type
  3670 ;;		None
  3671 ;; Auto vars:     Size  Location     Type
  3672 ;;		None
  3673 ;; Return value:  Size  Location     Type
  3674 ;;                  1    wreg      void 
  3675 ;; Registers used:
  3676 ;;		None
  3677 ;; Tracked objects:
  3678 ;;		On entry : 0/0
  3679 ;;		On exit  : 0/0
  3680 ;;		Unchanged: 0/0
  3681 ;; Data sizes:     COMRAM   BANK0   BANK1   BANK2   BANK3   BANK4   BANK5   BANK6   BANK7   BANK8   BANK9  BANK10  BANK1
      +1  BANK12  BANK13  BANK14  BANK15
  3682 ;;      Params:         0       0       0       0       0       0       0       0       0       0       0       0       
      +0       0       0       0       0
  3683 ;;      Locals:         0       0       0       0       0       0       0       0       0       0       0       0       
      +0       0       0       0       0
  3684 ;;      Temps:          0       0       0       0       0       0       0       0       0       0       0       0       
      +0       0       0       0       0
  3685 ;;      Totals:         0       0       0       0       0       0       0       0       0       0       0       0       
      +0       0       0       0       0
  3686 ;;Total ram usage:        0 bytes
  3687 ;; Hardware stack levels used: 1
  3688 ;; Hardware stack levels required when called: 7
  3689 ;; This function calls:
  3690 ;;		Nothing
  3691 ;; This function is called by:
  3692 ;;		_InterruptManagerLow
  3693 ;; This function uses a non-reentrant model
  3694 ;;
  3695                           
  3696                           	psect	text24
  3697   00217C                     __ptext24:
  3698                           	callstack 0
  3699   00217C                     _RB6_ISR:
  3700                           	callstack 16
  3701   00217C                     
  3702                           ;MCAL_Layer/Interrupt/mcal_external_interrupt.c: 174:     ((*((volatile INTCON_t *)(0xFF
      +                          2))).RBIF=0);
  3703   00217C  90F2               	bcf	242,0,c	;volatile
  3704   00217E  0012               	return		;funcret
  3705   002180                     __end_of_RB6_ISR:
  3706                           	callstack 0
  3707                           
  3708 ;; *************** function _RB5_ISR *****************
  3709 ;; Defined at:
  3710 ;;		line 164 in file "MCAL_Layer/Interrupt/mcal_external_interrupt.c"
  3711 ;; Parameters:    Size  Location     Type
  3712 ;;		None
  3713 ;; Auto vars:     Size  Location     Type
  3714 ;;		None
  3715 ;; Return value:  Size  Location     Type
  3716 ;;                  1    wreg      void 
  3717 ;; Registers used:
  3718 ;;		None
  3719 ;; Tracked objects:
  3720 ;;		On entry : 0/0
  3721 ;;		On exit  : 0/0
  3722 ;;		Unchanged: 0/0
  3723 ;; Data sizes:     COMRAM   BANK0   BANK1   BANK2   BANK3   BANK4   BANK5   BANK6   BANK7   BANK8   BANK9  BANK10  BANK1
      +1  BANK12  BANK13  BANK14  BANK15
  3724 ;;      Params:         0       0       0       0       0       0       0       0       0       0       0       0       
      +0       0       0       0       0
  3725 ;;      Locals:         0       0       0       0       0       0       0       0       0       0       0       0       
      +0       0       0       0       0
  3726 ;;      Temps:          0       0       0       0       0       0       0       0       0       0       0       0       
      +0       0       0       0       0
  3727 ;;      Totals:         0       0       0       0       0       0       0       0       0       0       0       0       
      +0       0       0       0       0
  3728 ;;Total ram usage:        0 bytes
  3729 ;; Hardware stack levels used: 1
  3730 ;; Hardware stack levels required when called: 7
  3731 ;; This function calls:
  3732 ;;		Nothing
  3733 ;; This function is called by:
  3734 ;;		_InterruptManagerLow
  3735 ;; This function uses a non-reentrant model
  3736 ;;
  3737                           
  3738                           	psect	text25
  3739   002180                     __ptext25:
  3740                           	callstack 0
  3741   002180                     _RB5_ISR:
  3742                           	callstack 16
  3743   002180                     
  3744                           ;MCAL_Layer/Interrupt/mcal_external_interrupt.c: 166:     ((*((volatile INTCON_t *)(0xFF
      +                          2))).RBIF=0);
  3745   002180  90F2               	bcf	242,0,c	;volatile
  3746   002182  0012               	return		;funcret
  3747   002184                     __end_of_RB5_ISR:
  3748                           	callstack 0
  3749                           
  3750 ;; *************** function _RB4_ISR *****************
  3751 ;; Defined at:
  3752 ;;		line 156 in file "MCAL_Layer/Interrupt/mcal_external_interrupt.c"
  3753 ;; Parameters:    Size  Location     Type
  3754 ;;		None
  3755 ;; Auto vars:     Size  Location     Type
  3756 ;;		None
  3757 ;; Return value:  Size  Location     Type
  3758 ;;                  1    wreg      void 
  3759 ;; Registers used:
  3760 ;;		None
  3761 ;; Tracked objects:
  3762 ;;		On entry : 0/0
  3763 ;;		On exit  : 0/0
  3764 ;;		Unchanged: 0/0
  3765 ;; Data sizes:     COMRAM   BANK0   BANK1   BANK2   BANK3   BANK4   BANK5   BANK6   BANK7   BANK8   BANK9  BANK10  BANK1
      +1  BANK12  BANK13  BANK14  BANK15
  3766 ;;      Params:         0       0       0       0       0       0       0       0       0       0       0       0       
      +0       0       0       0       0
  3767 ;;      Locals:         0       0       0       0       0       0       0       0       0       0       0       0       
      +0       0       0       0       0
  3768 ;;      Temps:          0       0       0       0       0       0       0       0       0       0       0       0       
      +0       0       0       0       0
  3769 ;;      Totals:         0       0       0       0       0       0       0       0       0       0       0       0       
      +0       0       0       0       0
  3770 ;;Total ram usage:        0 bytes
  3771 ;; Hardware stack levels used: 1
  3772 ;; Hardware stack levels required when called: 7
  3773 ;; This function calls:
  3774 ;;		Nothing
  3775 ;; This function is called by:
  3776 ;;		_InterruptManagerLow
  3777 ;; This function uses a non-reentrant model
  3778 ;;
  3779                           
  3780                           	psect	text26
  3781   002184                     __ptext26:
  3782                           	callstack 0
  3783   002184                     _RB4_ISR:
  3784                           	callstack 16
  3785   002184                     
  3786                           ;MCAL_Layer/Interrupt/mcal_external_interrupt.c: 158:     ((*((volatile INTCON_t *)(0xFF
      +                          2))).RBIF=0);
  3787   002184  90F2               	bcf	242,0,c	;volatile
  3788   002186  0012               	return		;funcret
  3789   002188                     __end_of_RB4_ISR:
  3790                           	callstack 0
  3791                           
  3792 ;; *************** function _INT2_ISR *****************
  3793 ;; Defined at:
  3794 ;;		line 148 in file "MCAL_Layer/Interrupt/mcal_external_interrupt.c"
  3795 ;; Parameters:    Size  Location     Type
  3796 ;;		None
  3797 ;; Auto vars:     Size  Location     Type
  3798 ;;		None
  3799 ;; Return value:  Size  Location     Type
  3800 ;;                  1    wreg      void 
  3801 ;; Registers used:
  3802 ;;		None
  3803 ;; Tracked objects:
  3804 ;;		On entry : 0/0
  3805 ;;		On exit  : 0/0
  3806 ;;		Unchanged: 0/0
  3807 ;; Data sizes:     COMRAM   BANK0   BANK1   BANK2   BANK3   BANK4   BANK5   BANK6   BANK7   BANK8   BANK9  BANK10  BANK1
      +1  BANK12  BANK13  BANK14  BANK15
  3808 ;;      Params:         0       0       0       0       0       0       0       0       0       0       0       0       
      +0       0       0       0       0
  3809 ;;      Locals:         0       0       0       0       0       0       0       0       0       0       0       0       
      +0       0       0       0       0
  3810 ;;      Temps:          0       0       0       0       0       0       0       0       0       0       0       0       
      +0       0       0       0       0
  3811 ;;      Totals:         0       0       0       0       0       0       0       0       0       0       0       0       
      +0       0       0       0       0
  3812 ;;Total ram usage:        0 bytes
  3813 ;; Hardware stack levels used: 1
  3814 ;; Hardware stack levels required when called: 7
  3815 ;; This function calls:
  3816 ;;		Nothing
  3817 ;; This function is called by:
  3818 ;;		_InterruptManagerLow
  3819 ;; This function uses a non-reentrant model
  3820 ;;
  3821                           
  3822                           	psect	text27
  3823   002188                     __ptext27:
  3824                           	callstack 0
  3825   002188                     _INT2_ISR:
  3826                           	callstack 16
  3827   002188                     
  3828                           ;MCAL_Layer/Interrupt/mcal_external_interrupt.c: 150:     ((*((volatile INTCON3_t *)(0xF
      +                          F0))).INT2IF=0);
  3829   002188  92F0               	bcf	240,1,c	;volatile
  3830   00218A  0012               	return		;funcret
  3831   00218C                     __end_of_INT2_ISR:
  3832                           	callstack 0
  3833                           
  3834 ;; *************** function _INT1_ISR *****************
  3835 ;; Defined at:
  3836 ;;		line 140 in file "MCAL_Layer/Interrupt/mcal_external_interrupt.c"
  3837 ;; Parameters:    Size  Location     Type
  3838 ;;		None
  3839 ;; Auto vars:     Size  Location     Type
  3840 ;;		None
  3841 ;; Return value:  Size  Location     Type
  3842 ;;                  1    wreg      void 
  3843 ;; Registers used:
  3844 ;;		None
  3845 ;; Tracked objects:
  3846 ;;		On entry : 0/0
  3847 ;;		On exit  : 0/0
  3848 ;;		Unchanged: 0/0
  3849 ;; Data sizes:     COMRAM   BANK0   BANK1   BANK2   BANK3   BANK4   BANK5   BANK6   BANK7   BANK8   BANK9  BANK10  BANK1
      +1  BANK12  BANK13  BANK14  BANK15
  3850 ;;      Params:         0       0       0       0       0       0       0       0       0       0       0       0       
      +0       0       0       0       0
  3851 ;;      Locals:         0       0       0       0       0       0       0       0       0       0       0       0       
      +0       0       0       0       0
  3852 ;;      Temps:          0       0       0       0       0       0       0       0       0       0       0       0       
      +0       0       0       0       0
  3853 ;;      Totals:         0       0       0       0       0       0       0       0       0       0       0       0       
      +0       0       0       0       0
  3854 ;;Total ram usage:        0 bytes
  3855 ;; Hardware stack levels used: 1
  3856 ;; Hardware stack levels required when called: 7
  3857 ;; This function calls:
  3858 ;;		Nothing
  3859 ;; This function is called by:
  3860 ;;		_InterruptManagerLow
  3861 ;; This function uses a non-reentrant model
  3862 ;;
  3863                           
  3864                           	psect	text28
  3865   00218C                     __ptext28:
  3866                           	callstack 0
  3867   00218C                     _INT1_ISR:
  3868                           	callstack 16
  3869   00218C                     
  3870                           ;MCAL_Layer/Interrupt/mcal_external_interrupt.c: 142:     ((*((volatile INTCON3_t *)(0xF
      +                          F0))).INT1IF=0);
  3871   00218C  90F0               	bcf	240,0,c	;volatile
  3872   00218E  0012               	return		;funcret
  3873   002190                     __end_of_INT1_ISR:
  3874                           	callstack 0
  3875                           
  3876 ;; *************** function _ADC_ISR *****************
  3877 ;; Defined at:
  3878 ;;		line 3 in file "MCAL_Layer/Interrupt/mcal_internal_interrupt.c"
  3879 ;; Parameters:    Size  Location     Type
  3880 ;;		None
  3881 ;; Auto vars:     Size  Location     Type
  3882 ;;		None
  3883 ;; Return value:  Size  Location     Type
  3884 ;;                  1    wreg      void 
  3885 ;; Registers used:
  3886 ;;		None
  3887 ;; Tracked objects:
  3888 ;;		On entry : 0/0
  3889 ;;		On exit  : 0/0
  3890 ;;		Unchanged: 0/0
  3891 ;; Data sizes:     COMRAM   BANK0   BANK1   BANK2   BANK3   BANK4   BANK5   BANK6   BANK7   BANK8   BANK9  BANK10  BANK1
      +1  BANK12  BANK13  BANK14  BANK15
  3892 ;;      Params:         0       0       0       0       0       0       0       0       0       0       0       0       
      +0       0       0       0       0
  3893 ;;      Locals:         0       0       0       0       0       0       0       0       0       0       0       0       
      +0       0       0       0       0
  3894 ;;      Temps:          0       0       0       0       0       0       0       0       0       0       0       0       
      +0       0       0       0       0
  3895 ;;      Totals:         0       0       0       0       0       0       0       0       0       0       0       0       
      +0       0       0       0       0
  3896 ;;Total ram usage:        0 bytes
  3897 ;; Hardware stack levels used: 1
  3898 ;; Hardware stack levels required when called: 7
  3899 ;; This function calls:
  3900 ;;		Nothing
  3901 ;; This function is called by:
  3902 ;;		_InterruptManagerLow
  3903 ;; This function uses a non-reentrant model
  3904 ;;
  3905                           
  3906                           	psect	text29
  3907   002190                     __ptext29:
  3908                           	callstack 0
  3909   002190                     _ADC_ISR:
  3910                           	callstack 16
  3911   002190                     
  3912                           ;MCAL_Layer/Interrupt/mcal_internal_interrupt.c: 5:        ((*((volatile PIR1_t *)(0xF9E
      +                          ))).ADIF=0);
  3913   002190  9C9E               	bcf	158,6,c	;volatile
  3914   002192  0012               	return		;funcret
  3915   002194                     __end_of_ADC_ISR:
  3916                           	callstack 0
  3917                           
  3918 ;; *************** function _InterruptManagerHigh *****************
  3919 ;; Defined at:
  3920 ;;		line 3 in file "MCAL_Layer/Interrupt/mcal_interrupt_manager.c"
  3921 ;; Parameters:    Size  Location     Type
  3922 ;;		None
  3923 ;; Auto vars:     Size  Location     Type
  3924 ;;		None
  3925 ;; Return value:  Size  Location     Type
  3926 ;;                  1    wreg      void 
  3927 ;; Registers used:
  3928 ;;		wreg, fsr2l, fsr2h, status,2, status,0, pcl, pclath, pclatu, tosl, tblptrl, tblptrh, tblptru, prodl, prodh, cstack
  3929 ;; Tracked objects:
  3930 ;;		On entry : 0/0
  3931 ;;		On exit  : 0/0
  3932 ;;		Unchanged: 0/0
  3933 ;; Data sizes:     COMRAM   BANK0   BANK1   BANK2   BANK3   BANK4   BANK5   BANK6   BANK7   BANK8   BANK9  BANK10  BANK1
      +1  BANK12  BANK13  BANK14  BANK15
  3934 ;;      Params:         0       0       0       0       0       0       0       0       0       0       0       0       
      +0       0       0       0       0
  3935 ;;      Locals:         0       0       0       0       0       0       0       0       0       0       0       0       
      +0       0       0       0       0
  3936 ;;      Temps:         10       0       0       0       0       0       0       0       0       0       0       0       
      +0       0       0       0       0
  3937 ;;      Totals:        10       0       0       0       0       0       0       0       0       0       0       0       
      +0       0       0       0       0
  3938 ;;Total ram usage:       10 bytes
  3939 ;; Hardware stack levels used: 1
  3940 ;; Hardware stack levels required when called: 6
  3941 ;; This function calls:
  3942 ;;		_INT0_ISR
  3943 ;;		i2_ADC_ISR
  3944 ;;		i2_INT1_ISR
  3945 ;;		i2_INT2_ISR
  3946 ;;		i2_RB4_ISR
  3947 ;;		i2_RB5_ISR
  3948 ;;		i2_RB6_ISR
  3949 ;;		i2_RB7_ISR
  3950 ;;		i2_TMR0_ISR
  3951 ;; This function is called by:
  3952 ;;		Interrupt level 2
  3953 ;; This function uses a non-reentrant model
  3954 ;;
  3955                           
  3956                           	psect	intcode
  3957   000008                     __pintcode:
  3958                           	callstack 0
  3959   000008                     _InterruptManagerHigh:
  3960                           	callstack 11
  3961                           
  3962                           ;incstack = 0
  3963   000008  825F               	bsf	int$flags,1,c	;set compiler interrupt flag (level 2)
  3964   00000A  ED0C  F008         	call	int_func,f	;refresh shadow registers
  3965                           
  3966                           	psect	intcode_body
  3967   001018                     __pintcode_body:
  3968                           	callstack 11
  3969   001018                     int_func:
  3970                           	callstack 11
  3971   001018  0006               	pop		; remove dummy address from shadow register refresh
  3972   00101A  CFFA F041          	movff	pclath,??_InterruptManagerHigh
  3973   00101E  CFFB F042          	movff	pclatu,??_InterruptManagerHigh+1
  3974   001022  CFD9 F043          	movff	fsr2l,??_InterruptManagerHigh+2
  3975   001026  CFDA F044          	movff	fsr2h,??_InterruptManagerHigh+3
  3976   00102A  CFF3 F045          	movff	prodl,??_InterruptManagerHigh+4
  3977   00102E  CFF4 F046          	movff	prodh,??_InterruptManagerHigh+5
  3978   001032  CFF6 F047          	movff	tblptrl,??_InterruptManagerHigh+6
  3979   001036  CFF7 F048          	movff	tblptrh,??_InterruptManagerHigh+7
  3980   00103A  CFF8 F049          	movff	tblptru,??_InterruptManagerHigh+8
  3981   00103E  CFF5 F04A          	movff	tablat,??_InterruptManagerHigh+9
  3982   001042                     
  3983                           ;MCAL_Layer/Interrupt/mcal_interrupt_manager.c: 4:     if((1 == (*((volatile INTCON_t *)
      +                          (0xFF2))).INT0IE)&&(1 == (*((volatile INTCON_t *)(0xFF2))).INT0IF)){
  3984   001042  A8F2               	btfss	242,4,c	;volatile
  3985   001044  EF26  F008         	goto	i2u533_41
  3986   001048  EF28  F008         	goto	i2u533_40
  3987   00104C                     i2u533_41:
  3988   00104C  EF31  F008         	goto	i2l918
  3989   001050                     i2u533_40:
  3990   001050  A2F2               	btfss	242,1,c	;volatile
  3991   001052  EF2D  F008         	goto	i2u534_41
  3992   001056  EF2F  F008         	goto	i2u534_40
  3993   00105A                     i2u534_41:
  3994   00105A  EF31  F008         	goto	i2l918
  3995   00105E                     i2u534_40:
  3996   00105E                     
  3997                           ;MCAL_Layer/Interrupt/mcal_interrupt_manager.c: 5:         INT0_ISR();
  3998   00105E  ECD8  F010         	call	_INT0_ISR	;wreg free
  3999   001062                     i2l918:
  4000                           
  4001                           ;MCAL_Layer/Interrupt/mcal_interrupt_manager.c: 8:      if((1 == (*((volatile INTCON3_t 
      +                          *)(0xFF0))).INT1IP)&&(1 == (*((volatile INTCON3_t *)(0xFF0))).INT1IF)){
  4002   001062  ACF0               	btfss	240,6,c	;volatile
  4003   001064  EF36  F008         	goto	i2u535_41
  4004   001068  EF38  F008         	goto	i2u535_40
  4005   00106C                     i2u535_41:
  4006   00106C  EF41  F008         	goto	i2l920
  4007   001070                     i2u535_40:
  4008   001070  A0F0               	btfss	240,0,c	;volatile
  4009   001072  EF3D  F008         	goto	i2u536_41
  4010   001076  EF3F  F008         	goto	i2u536_40
  4011   00107A                     i2u536_41:
  4012   00107A  EF41  F008         	goto	i2l920
  4013   00107E                     i2u536_40:
  4014   00107E                     
  4015                           ;MCAL_Layer/Interrupt/mcal_interrupt_manager.c: 9:         INT1_ISR();
  4016   00107E  ECD4  F010         	call	i2_INT1_ISR	;wreg free
  4017   001082                     i2l920:
  4018                           
  4019                           ;MCAL_Layer/Interrupt/mcal_interrupt_manager.c: 12:     if((1 == (*((volatile INTCON3_t 
      +                          *)(0xFF0))).INT2IP)&&(1 == (*((volatile INTCON3_t *)(0xFF0))).INT2IF)){
  4020   001082  AEF0               	btfss	240,7,c	;volatile
  4021   001084  EF46  F008         	goto	i2u537_41
  4022   001088  EF48  F008         	goto	i2u537_40
  4023   00108C                     i2u537_41:
  4024   00108C  EF51  F008         	goto	i2l922
  4025   001090                     i2u537_40:
  4026   001090  A2F0               	btfss	240,1,c	;volatile
  4027   001092  EF4D  F008         	goto	i2u538_41
  4028   001096  EF4F  F008         	goto	i2u538_40
  4029   00109A                     i2u538_41:
  4030   00109A  EF51  F008         	goto	i2l922
  4031   00109E                     i2u538_40:
  4032   00109E                     
  4033                           ;MCAL_Layer/Interrupt/mcal_interrupt_manager.c: 13:         INT2_ISR();
  4034   00109E  ECD2  F010         	call	i2_INT2_ISR	;wreg free
  4035   0010A2                     i2l922:
  4036                           
  4037                           ;MCAL_Layer/Interrupt/mcal_interrupt_manager.c: 16:      if((1 == (*((volatile INTCON2_t
      +                           *)(0xFF1))).RBIP)&&(1 == (*((volatile INTCON_t *)(0xFF2))).RBIF) && (((((*((volatile ui
      +                          nt8*)(0xF81)))>>4)&((uint8)0x01)))!=RB4_pin_init_value)){
  4038   0010A2  A0F1               	btfss	241,0,c	;volatile
  4039   0010A4  EF56  F008         	goto	i2u539_41
  4040   0010A8  EF58  F008         	goto	i2u539_40
  4041   0010AC                     i2u539_41:
  4042   0010AC  EF6E  F008         	goto	i2l924
  4043   0010B0                     i2u539_40:
  4044   0010B0  A0F2               	btfss	242,0,c	;volatile
  4045   0010B2  EF5D  F008         	goto	i2u540_41
  4046   0010B6  EF5F  F008         	goto	i2u540_40
  4047   0010BA                     i2u540_41:
  4048   0010BA  EF6E  F008         	goto	i2l924
  4049   0010BE                     i2u540_40:
  4050   0010BE  3881               	swapf	129,w,c	;volatile
  4051   0010C0  0B0F               	andlw	15
  4052   0010C2  0B01               	andlw	1
  4053   0010C4  1823               	xorwf	_RB4_pin_init_value^0,w,c	;volatile
  4054   0010C6  B4D8               	btfsc	status,2,c
  4055   0010C8  EF68  F008         	goto	i2u541_41
  4056   0010CC  EF6A  F008         	goto	i2u541_40
  4057   0010D0                     i2u541_41:
  4058   0010D0  EF6E  F008         	goto	i2l924
  4059   0010D4                     i2u541_40:
  4060   0010D4                     
  4061                           ;MCAL_Layer/Interrupt/mcal_interrupt_manager.c: 17:         RB4_pin_init_value^=1;
  4062   0010D4  0E01               	movlw	1
  4063   0010D6  1A23               	xorwf	_RB4_pin_init_value^0,f,c	;volatile
  4064   0010D8                     
  4065                           ;MCAL_Layer/Interrupt/mcal_interrupt_manager.c: 18:         RB4_ISR();
  4066   0010D8  ECD0  F010         	call	i2_RB4_ISR	;wreg free
  4067   0010DC                     i2l924:
  4068                           
  4069                           ;MCAL_Layer/Interrupt/mcal_interrupt_manager.c: 21:        if((1 == (*((volatile INTCON2
      +                          _t *)(0xFF1))).RBIP)&&(1 == (*((volatile INTCON_t *)(0xFF2))).RBIF) && (((((*((volatile 
      +                          uint8*)(0xF81)))>>5)&((uint8)0x01)))!=RB5_pin_init_value)){
  4070   0010DC  A0F1               	btfss	241,0,c	;volatile
  4071   0010DE  EF73  F008         	goto	i2u542_41
  4072   0010E2  EF75  F008         	goto	i2u542_40
  4073   0010E6                     i2u542_41:
  4074   0010E6  EF8C  F008         	goto	i2l926
  4075   0010EA                     i2u542_40:
  4076   0010EA  A0F2               	btfss	242,0,c	;volatile
  4077   0010EC  EF7A  F008         	goto	i2u543_41
  4078   0010F0  EF7C  F008         	goto	i2u543_40
  4079   0010F4                     i2u543_41:
  4080   0010F4  EF8C  F008         	goto	i2l926
  4081   0010F8                     i2u543_40:
  4082   0010F8  3881               	swapf	129,w,c	;volatile
  4083   0010FA  42E8               	rrncf	wreg,f,c
  4084   0010FC  0B07               	andlw	7
  4085   0010FE  0B01               	andlw	1
  4086   001100  1822               	xorwf	_RB5_pin_init_value^0,w,c	;volatile
  4087   001102  B4D8               	btfsc	status,2,c
  4088   001104  EF86  F008         	goto	i2u544_41
  4089   001108  EF88  F008         	goto	i2u544_40
  4090   00110C                     i2u544_41:
  4091   00110C  EF8C  F008         	goto	i2l926
  4092   001110                     i2u544_40:
  4093   001110                     
  4094                           ;MCAL_Layer/Interrupt/mcal_interrupt_manager.c: 22:         RB5_pin_init_value^=1;
  4095   001110  0E01               	movlw	1
  4096   001112  1A22               	xorwf	_RB5_pin_init_value^0,f,c	;volatile
  4097   001114                     
  4098                           ;MCAL_Layer/Interrupt/mcal_interrupt_manager.c: 23:         RB5_ISR();
  4099   001114  ECCE  F010         	call	i2_RB5_ISR	;wreg free
  4100   001118                     i2l926:
  4101                           
  4102                           ;MCAL_Layer/Interrupt/mcal_interrupt_manager.c: 26:        if((1 == (*((volatile INTCON2
      +                          _t *)(0xFF1))).RBIP)&&(1 == (*((volatile INTCON_t *)(0xFF2))).RBIF) && (((((*((volatile 
      +                          uint8*)(0xF81)))>>6)&((uint8)0x01)))!=RB6_pin_init_value)){
  4103   001118  A0F1               	btfss	241,0,c	;volatile
  4104   00111A  EF91  F008         	goto	i2u545_41
  4105   00111E  EF93  F008         	goto	i2u545_40
  4106   001122                     i2u545_41:
  4107   001122  EFAA  F008         	goto	i2l928
  4108   001126                     i2u545_40:
  4109   001126  A0F2               	btfss	242,0,c	;volatile
  4110   001128  EF98  F008         	goto	i2u546_41
  4111   00112C  EF9A  F008         	goto	i2u546_40
  4112   001130                     i2u546_41:
  4113   001130  EFAA  F008         	goto	i2l928
  4114   001134                     i2u546_40:
  4115   001134  4481               	rlncf	129,w,c	;volatile
  4116   001136  46E8               	rlncf	wreg,f,c
  4117   001138  0B03               	andlw	3
  4118   00113A  0B01               	andlw	1
  4119   00113C  1821               	xorwf	_RB6_pin_init_value^0,w,c	;volatile
  4120   00113E  B4D8               	btfsc	status,2,c
  4121   001140  EFA4  F008         	goto	i2u547_41
  4122   001144  EFA6  F008         	goto	i2u547_40
  4123   001148                     i2u547_41:
  4124   001148  EFAA  F008         	goto	i2l928
  4125   00114C                     i2u547_40:
  4126   00114C                     
  4127                           ;MCAL_Layer/Interrupt/mcal_interrupt_manager.c: 27:         RB6_pin_init_value^=1;
  4128   00114C  0E01               	movlw	1
  4129   00114E  1A21               	xorwf	_RB6_pin_init_value^0,f,c	;volatile
  4130   001150                     
  4131                           ;MCAL_Layer/Interrupt/mcal_interrupt_manager.c: 28:         RB6_ISR();
  4132   001150  ECCC  F010         	call	i2_RB6_ISR	;wreg free
  4133   001154                     i2l928:
  4134                           
  4135                           ;MCAL_Layer/Interrupt/mcal_interrupt_manager.c: 31:        if((1 == (*((volatile INTCON2
      +                          _t *)(0xFF1))).RBIP)&&(1 == (*((volatile INTCON_t *)(0xFF2))).RBIF) && (((((*((volatile 
      +                          uint8*)(0xF81)))>>7)&((uint8)0x01)))!=RB7_pin_init_value)){
  4136   001154  A0F1               	btfss	241,0,c	;volatile
  4137   001156  EFAF  F008         	goto	i2u548_41
  4138   00115A  EFB1  F008         	goto	i2u548_40
  4139   00115E                     i2u548_41:
  4140   00115E  EFC6  F008         	goto	i2l930
  4141   001162                     i2u548_40:
  4142   001162  A0F2               	btfss	242,0,c	;volatile
  4143   001164  EFB6  F008         	goto	i2u549_41
  4144   001168  EFB8  F008         	goto	i2u549_40
  4145   00116C                     i2u549_41:
  4146   00116C  EFC6  F008         	goto	i2l930
  4147   001170                     i2u549_40:
  4148   001170  4481               	rlncf	129,w,c	;volatile
  4149   001172  0B01               	andlw	1
  4150   001174  1820               	xorwf	_RB7_pin_init_value^0,w,c	;volatile
  4151   001176  B4D8               	btfsc	status,2,c
  4152   001178  EFC0  F008         	goto	i2u550_41
  4153   00117C  EFC2  F008         	goto	i2u550_40
  4154   001180                     i2u550_41:
  4155   001180  EFC6  F008         	goto	i2l930
  4156   001184                     i2u550_40:
  4157   001184                     
  4158                           ;MCAL_Layer/Interrupt/mcal_interrupt_manager.c: 32:         RB7_pin_init_value^=1;
  4159   001184  0E01               	movlw	1
  4160   001186  1A20               	xorwf	_RB7_pin_init_value^0,f,c	;volatile
  4161   001188                     
  4162                           ;MCAL_Layer/Interrupt/mcal_interrupt_manager.c: 33:         RB7_ISR();
  4163   001188  ECCA  F010         	call	i2_RB7_ISR	;wreg free
  4164   00118C                     i2l930:
  4165                           
  4166                           ;MCAL_Layer/Interrupt/mcal_interrupt_manager.c: 36:     if((1 == (*((volatile IPR1_t *)(
      +                          0xF9F))).ADIP)&&(1 == (*((volatile PIR1_t *)(0xF9E))).ADIF)){
  4167   00118C  AC9F               	btfss	159,6,c	;volatile
  4168   00118E  EFCB  F008         	goto	i2u551_41
  4169   001192  EFCD  F008         	goto	i2u551_40
  4170   001196                     i2u551_41:
  4171   001196  EFD6  F008         	goto	i2l932
  4172   00119A                     i2u551_40:
  4173   00119A  AC9E               	btfss	158,6,c	;volatile
  4174   00119C  EFD2  F008         	goto	i2u552_41
  4175   0011A0  EFD4  F008         	goto	i2u552_40
  4176   0011A4                     i2u552_41:
  4177   0011A4  EFD6  F008         	goto	i2l932
  4178   0011A8                     i2u552_40:
  4179   0011A8                     
  4180                           ;MCAL_Layer/Interrupt/mcal_interrupt_manager.c: 37:         ADC_ISR();
  4181   0011A8  ECD6  F010         	call	i2_ADC_ISR	;wreg free
  4182   0011AC                     i2l932:
  4183                           
  4184                           ;MCAL_Layer/Interrupt/mcal_interrupt_manager.c: 40:     if((1 == (*((volatile INTCON2_t 
      +                          *)(0xFF1))).TMR0IP)&&(1 == (*((volatile INTCON_t *)(0xFF2))).TMR0IF)){
  4185   0011AC  A4F1               	btfss	241,2,c	;volatile
  4186   0011AE  EFDB  F008         	goto	i2u553_41
  4187   0011B2  EFDD  F008         	goto	i2u553_40
  4188   0011B6                     i2u553_41:
  4189   0011B6  EFE6  F008         	goto	i2l935
  4190   0011BA                     i2u553_40:
  4191   0011BA  A4F2               	btfss	242,2,c	;volatile
  4192   0011BC  EFE2  F008         	goto	i2u554_41
  4193   0011C0  EFE4  F008         	goto	i2u554_40
  4194   0011C4                     i2u554_41:
  4195   0011C4  EFE6  F008         	goto	i2l935
  4196   0011C8                     i2u554_40:
  4197   0011C8                     
  4198                           ;MCAL_Layer/Interrupt/mcal_interrupt_manager.c: 41:         TMR0_ISR();
  4199   0011C8  EC4A  F010         	call	i2_TMR0_ISR	;wreg free
  4200   0011CC                     i2l935:
  4201   0011CC  C04A  FFF5         	movff	??_InterruptManagerHigh+9,tablat
  4202   0011D0  C049  FFF8         	movff	??_InterruptManagerHigh+8,tblptru
  4203   0011D4  C048  FFF7         	movff	??_InterruptManagerHigh+7,tblptrh
  4204   0011D8  C047  FFF6         	movff	??_InterruptManagerHigh+6,tblptrl
  4205   0011DC  C046  FFF4         	movff	??_InterruptManagerHigh+5,prodh
  4206   0011E0  C045  FFF3         	movff	??_InterruptManagerHigh+4,prodl
  4207   0011E4  C044  FFDA         	movff	??_InterruptManagerHigh+3,fsr2h
  4208   0011E8  C043  FFD9         	movff	??_InterruptManagerHigh+2,fsr2l
  4209   0011EC  C042  FFFB         	movff	??_InterruptManagerHigh+1,pclatu
  4210   0011F0  C041  FFFA         	movff	??_InterruptManagerHigh,pclath
  4211   0011F4  925F               	bcf	int$flags,1,c	;clear compiler interrupt flag (level 2)
  4212   0011F6  0011               	retfie		f
  4213   0011F8                     __end_of_InterruptManagerHigh:
  4214                           	callstack 0
  4215                           
  4216 ;; *************** function i2_TMR0_ISR *****************
  4217 ;; Defined at:
  4218 ;;		line 110 in file "MCAL_Layer/Timer/hal_timer0.c"
  4219 ;; Parameters:    Size  Location     Type
  4220 ;;		None
  4221 ;; Auto vars:     Size  Location     Type
  4222 ;;		None
  4223 ;; Return value:  Size  Location     Type
  4224 ;;                  1    wreg      void 
  4225 ;; Registers used:
  4226 ;;		wreg, fsr2l, fsr2h, status,2, status,0, pcl, pclath, pclatu, tosl, tblptrl, tblptrh, tblptru, prodl, prodh, cstack
  4227 ;; Tracked objects:
  4228 ;;		On entry : 0/0
  4229 ;;		On exit  : 0/0
  4230 ;;		Unchanged: 0/0
  4231 ;; Data sizes:     COMRAM   BANK0   BANK1   BANK2   BANK3   BANK4   BANK5   BANK6   BANK7   BANK8   BANK9  BANK10  BANK1
      +1  BANK12  BANK13  BANK14  BANK15
  4232 ;;      Params:         0       0       0       0       0       0       0       0       0       0       0       0       
      +0       0       0       0       0
  4233 ;;      Locals:         0       0       0       0       0       0       0       0       0       0       0       0       
      +0       0       0       0       0
  4234 ;;      Temps:          0       0       0       0       0       0       0       0       0       0       0       0       
      +0       0       0       0       0
  4235 ;;      Totals:         0       0       0       0       0       0       0       0       0       0       0       0       
      +0       0       0       0       0
  4236 ;;Total ram usage:        0 bytes
  4237 ;; Hardware stack levels used: 1
  4238 ;; Hardware stack levels required when called: 5
  4239 ;; This function calls:
  4240 ;;		NULL
  4241 ;;		i2_TMR0_ISR_HANDLER
  4242 ;; This function is called by:
  4243 ;;		_InterruptManagerHigh
  4244 ;; This function uses a non-reentrant model
  4245 ;;
  4246                           
  4247                           	psect	text31
  4248   002094                     __ptext31:
  4249                           	callstack 0
  4250   002094                     i2_TMR0_ISR:
  4251                           	callstack 11
  4252   002094                     
  4253                           ;MCAL_Layer/Timer/hal_timer0.c: 112:     TMR0H = (timer0_preload)>>8;
  4254   002094  500C               	movf	(_timer0_preload+1)^0,w,c
  4255   002096  6ED7               	movwf	215,c	;volatile
  4256   002098                     
  4257                           ;MCAL_Layer/Timer/hal_timer0.c: 113:     (*((volatile uint8 *)(0xFD6))) = (uint8)(timer0
      +                          _preload);
  4258   002098  C00B  FFD6         	movff	_timer0_preload,4054	;volatile
  4259   00209C                     
  4260                           ;MCAL_Layer/Timer/hal_timer0.c: 114:     ((*((volatile INTCON_t *)(0xFF2))).TMR0IF=0);
  4261   00209C  94F2               	bcf	242,2,c	;volatile
  4262   00209E                     
  4263                           ;MCAL_Layer/Timer/hal_timer0.c: 115:       if(TMR0_InterruptHandler){
  4264   00209E  500D               	movf	_TMR0_InterruptHandler^0,w,c
  4265   0020A0  100E               	iorwf	(_TMR0_InterruptHandler+1)^0,w,c
  4266   0020A2  B4D8               	btfsc	status,2,c
  4267   0020A4  EF56  F010         	goto	i2u484_41
  4268   0020A8  EF58  F010         	goto	i2u484_40
  4269   0020AC                     i2u484_41:
  4270   0020AC  EF64  F010         	goto	i2l1035
  4271   0020B0                     i2u484_40:
  4272   0020B0                     
  4273                           ;MCAL_Layer/Timer/hal_timer0.c: 116:        TMR0_InterruptHandler();
  4274   0020B0  D802               	call	i2u485_48
  4275   0020B2  EF64  F010         	goto	i2u485_49
  4276   0020B6                     i2u485_48:
  4277   0020B6  0005               	push	
  4278   0020B8  6EFA               	movwf	pclath,c
  4279   0020BA  500D               	movf	_TMR0_InterruptHandler^0,w,c
  4280   0020BC  6EFD               	movwf	tosl,c
  4281   0020BE  500E               	movf	(_TMR0_InterruptHandler+1)^0,w,c
  4282   0020C0  6EFE               	movwf	tosh,c
  4283   0020C2  6AFF               	clrf	tosu,c
  4284   0020C4  50FA               	movf	pclath,w,c
  4285   0020C6  0012               	return		;indir
  4286   0020C8                     i2u485_49:
  4287   0020C8                     i2l1035:
  4288   0020C8  0012               	return		;funcret
  4289   0020CA                     __end_ofi2_TMR0_ISR:
  4290                           	callstack 0
  4291                           
  4292 ;; *************** function i2_TMR0_ISR_HANDLER *****************
  4293 ;; Defined at:
  4294 ;;		line 37 in file "application.c"
  4295 ;; Parameters:    Size  Location     Type
  4296 ;;		None
  4297 ;; Auto vars:     Size  Location     Type
  4298 ;;		None
  4299 ;; Return value:  Size  Location     Type
  4300 ;;                  1    wreg      void 
  4301 ;; Registers used:
  4302 ;;		wreg, fsr2l, fsr2h, status,2, status,0, tblptrl, tblptrh, tblptru, prodl, prodh, cstack
  4303 ;; Tracked objects:
  4304 ;;		On entry : 0/0
  4305 ;;		On exit  : 0/0
  4306 ;;		Unchanged: 0/0
  4307 ;; Data sizes:     COMRAM   BANK0   BANK1   BANK2   BANK3   BANK4   BANK5   BANK6   BANK7   BANK8   BANK9  BANK10  BANK1
      +1  BANK12  BANK13  BANK14  BANK15
  4308 ;;      Params:         0       0       0       0       0       0       0       0       0       0       0       0       
      +0       0       0       0       0
  4309 ;;      Locals:         0       0       0       0       0       0       0       0       0       0       0       0       
      +0       0       0       0       0
  4310 ;;      Temps:          0       0       0       0       0       0       0       0       0       0       0       0       
      +0       0       0       0       0
  4311 ;;      Totals:         0       0       0       0       0       0       0       0       0       0       0       0       
      +0       0       0       0       0
  4312 ;;Total ram usage:        0 bytes
  4313 ;; Hardware stack levels used: 1
  4314 ;; Hardware stack levels required when called: 4
  4315 ;; This function calls:
  4316 ;;		i2_lcd_4bit_send_string
  4317 ;; This function is called by:
  4318 ;;		_TMR0_ISR
  4319 ;;		i2_TMR0_ISR
  4320 ;; This function uses a non-reentrant model
  4321 ;;
  4322                           
  4323                           	psect	text32
  4324   002130                     __ptext32:
  4325                           	callstack 0
  4326   002130                     i2_TMR0_ISR_HANDLER:
  4327                           	callstack 11
  4328   002130                     
  4329                           ;application.c: 38:     lcd_4bit_send_string(&lcd1 ,"m");
  4330   002130  0ECF               	movlw	low _lcd1
  4331   002132  6E3D               	movwf	i2lcd_4bit_send_string@lcd^0,c
  4332   002134  0E00               	movlw	high _lcd1
  4333   002136  6E3E               	movwf	(i2lcd_4bit_send_string@lcd+1)^0,c
  4334   002138  0E14               	movlw	low STR_4
  4335   00213A  6E3F               	movwf	i2lcd_4bit_send_string@str^0,c
  4336   00213C  0E10               	movlw	high STR_4
  4337   00213E  6E40               	movwf	(i2lcd_4bit_send_string@str+1)^0,c
  4338   002140  EC92  F00F         	call	i2_lcd_4bit_send_string	;wreg free
  4339   002144  0012               	return		;funcret
  4340   002146                     __end_ofi2_TMR0_ISR_HANDLER:
  4341                           	callstack 0
  4342                           
  4343 ;; *************** function i2_lcd_4bit_send_string *****************
  4344 ;; Defined at:
  4345 ;;		line 102 in file "ECU_Layer/Chr_LCD/ecu_chr_lcd.c"
  4346 ;; Parameters:    Size  Location     Type
  4347 ;;  lcd             2   18[COMRAM] PTR const struct .
  4348 ;;		 -> lcd1(6), 
  4349 ;;  str             2   20[COMRAM] PTR unsigned char 
  4350 ;;		 -> STR_4(2), 
  4351 ;; Auto vars:     Size  Location     Type
  4352 ;;  ret             1    0        unsigned char 
  4353 ;; Return value:  Size  Location     Type
  4354 ;;                  1    wreg      unsigned char 
  4355 ;; Registers used:
  4356 ;;		wreg, fsr2l, fsr2h, status,2, status,0, tblptrl, tblptrh, tblptru, prodl, prodh, cstack
  4357 ;; Tracked objects:
  4358 ;;		On entry : 0/0
  4359 ;;		On exit  : 0/0
  4360 ;;		Unchanged: 0/0
  4361 ;; Data sizes:     COMRAM   BANK0   BANK1   BANK2   BANK3   BANK4   BANK5   BANK6   BANK7   BANK8   BANK9  BANK10  BANK1
      +1  BANK12  BANK13  BANK14  BANK15
  4362 ;;      Params:         4       0       0       0       0       0       0       0       0       0       0       0       
      +0       0       0       0       0
  4363 ;;      Locals:         0       0       0       0       0       0       0       0       0       0       0       0       
      +0       0       0       0       0
  4364 ;;      Temps:          0       0       0       0       0       0       0       0       0       0       0       0       
      +0       0       0       0       0
  4365 ;;      Totals:         4       0       0       0       0       0       0       0       0       0       0       0       
      +0       0       0       0       0
  4366 ;;Total ram usage:        4 bytes
  4367 ;; Hardware stack levels used: 1
  4368 ;; Hardware stack levels required when called: 3
  4369 ;; This function calls:
  4370 ;;		i2_lcd_4bit_send_char_data
  4371 ;; This function is called by:
  4372 ;;		i2_TMR0_ISR_HANDLER
  4373 ;; This function uses a non-reentrant model
  4374 ;;
  4375                           
  4376                           	psect	text33
  4377   001F24                     __ptext33:
  4378                           	callstack 0
  4379   001F24                     i2_lcd_4bit_send_string:
  4380                           	callstack 11
  4381   001F24                     
  4382                           ;ECU_Layer/Chr_LCD/ecu_chr_lcd.c: 104:     if(lcd==((void*)0)){
  4383   001F24  503D               	movf	i2lcd_4bit_send_string@lcd^0,w,c
  4384   001F26  103E               	iorwf	(i2lcd_4bit_send_string@lcd+1)^0,w,c
  4385   001F28  A4D8               	btfss	status,2,c
  4386   001F2A  EF99  F00F         	goto	i2u305_41
  4387   001F2E  EF9B  F00F         	goto	i2u305_40
  4388   001F32                     i2u305_41:
  4389   001F32  EFAD  F00F         	goto	i2l4153
  4390   001F36                     i2u305_40:
  4391   001F36                     
  4392                           ;ECU_Layer/Chr_LCD/ecu_chr_lcd.c: 106:     }
  4393   001F36  EFBC  F00F         	goto	i2l94
  4394   001F3A                     i2l4149:
  4395   001F3A  C03D  F039         	movff	i2lcd_4bit_send_string@lcd,i2lcd_4bit_send_char_data@lcd
  4396   001F3E  C03E  F03A         	movff	i2lcd_4bit_send_string@lcd+1,i2lcd_4bit_send_char_data@lcd+1
  4397   001F42  C03F  FFF6         	movff	i2lcd_4bit_send_string@str,tblptrl
  4398   001F46  C040  FFF7         	movff	i2lcd_4bit_send_string@str+1,tblptrh
  4399   001F4A                     	if	1	;Program memory is < 0x10000, tblptru is always zero
  4400   001F4A  6AF8               	clrf	tblptru,c
  4401   001F4C                     	endif
  4402   001F4C                     	if	0	;tblptru may be non-zero
  4403   001F4C                     	endif
  4404   001F4C  0008               	tblrd		*
  4405   001F4E  CFF5 F03B          	movff	tablat,i2lcd_4bit_send_char_data@data
  4406   001F52  EC73  F00E         	call	i2_lcd_4bit_send_char_data	;wreg free
  4407   001F56  4A3F               	infsnz	i2lcd_4bit_send_string@str^0,f,c
  4408   001F58  2A40               	incf	(i2lcd_4bit_send_string@str+1)^0,f,c
  4409   001F5A                     i2l4153:
  4410                           
  4411                           ;ECU_Layer/Chr_LCD/ecu_chr_lcd.c: 108:         while(*str){
  4412   001F5A  C03F  FFF6         	movff	i2lcd_4bit_send_string@str,tblptrl
  4413   001F5E  C040  FFF7         	movff	i2lcd_4bit_send_string@str+1,tblptrh
  4414   001F62                     	if	1	;Program memory is < 0x10000, tblptru is always zero
  4415   001F62  6AF8               	clrf	tblptru,c
  4416   001F64                     	endif
  4417   001F64                     	if	0	;tblptru may be non-zero
  4418   001F64                     	endif
  4419   001F64  0008               	tblrd		*
  4420   001F66  50F5               	movf	tablat,w,c
  4421   001F68  0900               	iorlw	0
  4422   001F6A  A4D8               	btfss	status,2,c
  4423   001F6C  EFBA  F00F         	goto	i2u306_41
  4424   001F70  EFBC  F00F         	goto	i2u306_40
  4425   001F74                     i2u306_41:
  4426   001F74  EF9D  F00F         	goto	i2l4149
  4427   001F78                     i2u306_40:
  4428   001F78                     i2l94:
  4429   001F78  0012               	return		;funcret
  4430   001F7A                     __end_ofi2_lcd_4bit_send_string:
  4431                           	callstack 0
  4432                           
  4433 ;; *************** function i2_lcd_4bit_send_char_data *****************
  4434 ;; Defined at:
  4435 ;;		line 63 in file "ECU_Layer/Chr_LCD/ecu_chr_lcd.c"
  4436 ;; Parameters:    Size  Location     Type
  4437 ;;  lcd             2   14[COMRAM] PTR const struct .
  4438 ;;		 -> lcd1(6), 
  4439 ;;  data            1   16[COMRAM] unsigned char 
  4440 ;; Auto vars:     Size  Location     Type
  4441 ;;  ret             1   17[COMRAM] unsigned char 
  4442 ;; Return value:  Size  Location     Type
  4443 ;;                  1    wreg      unsigned char 
  4444 ;; Registers used:
  4445 ;;		wreg, fsr2l, fsr2h, status,2, status,0, prodl, prodh, cstack
  4446 ;; Tracked objects:
  4447 ;;		On entry : 0/0
  4448 ;;		On exit  : 0/0
  4449 ;;		Unchanged: 0/0
  4450 ;; Data sizes:     COMRAM   BANK0   BANK1   BANK2   BANK3   BANK4   BANK5   BANK6   BANK7   BANK8   BANK9  BANK10  BANK1
      +1  BANK12  BANK13  BANK14  BANK15
  4451 ;;      Params:         3       0       0       0       0       0       0       0       0       0       0       0       
      +0       0       0       0       0
  4452 ;;      Locals:         1       0       0       0       0       0       0       0       0       0       0       0       
      +0       0       0       0       0
  4453 ;;      Temps:          0       0       0       0       0       0       0       0       0       0       0       0       
      +0       0       0       0       0
  4454 ;;      Totals:         4       0       0       0       0       0       0       0       0       0       0       0       
      +0       0       0       0       0
  4455 ;;Total ram usage:        4 bytes
  4456 ;; Hardware stack levels used: 1
  4457 ;; Hardware stack levels required when called: 2
  4458 ;; This function calls:
  4459 ;;		i2_gpio_pin_write_logic
  4460 ;;		i2_lcd_4bit_send_enable_signal
  4461 ;;		i2_lcd_send_4bits
  4462 ;; This function is called by:
  4463 ;;		i2_lcd_4bit_send_string
  4464 ;; This function uses a non-reentrant model
  4465 ;;
  4466                           
  4467                           	psect	text34
  4468   001CE6                     __ptext34:
  4469                           	callstack 0
  4470   001CE6                     i2_lcd_4bit_send_char_data:
  4471                           	callstack 11
  4472   001CE6                     
  4473                           ;ECU_Layer/Chr_LCD/ecu_chr_lcd.c: 65:     if(lcd==((void*)0)){
  4474   001CE6  5039               	movf	i2lcd_4bit_send_char_data@lcd^0,w,c
  4475   001CE8  103A               	iorwf	(i2lcd_4bit_send_char_data@lcd+1)^0,w,c
  4476   001CEA  A4D8               	btfss	status,2,c
  4477   001CEC  EF7A  F00E         	goto	i2u292_41
  4478   001CF0  EF7C  F00E         	goto	i2u292_40
  4479   001CF4                     i2u292_41:
  4480   001CF4  EF80  F00E         	goto	i2l4053
  4481   001CF8                     i2u292_40:
  4482   001CF8                     
  4483                           ;ECU_Layer/Chr_LCD/ecu_chr_lcd.c: 66:         ret=(Std_ReturnType)0x00;
  4484   001CF8  0E00               	movlw	0
  4485   001CFA  6E3C               	movwf	i2lcd_4bit_send_char_data@ret^0,c
  4486                           
  4487                           ;ECU_Layer/Chr_LCD/ecu_chr_lcd.c: 67:     }
  4488   001CFC  EFAA  F00E         	goto	i2l4055
  4489   001D00                     i2l4053:
  4490                           
  4491                           ;ECU_Layer/Chr_LCD/ecu_chr_lcd.c: 69:        ret=gpio_pin_write_logic(&(lcd->lcd_rs),HIG
      +                          H);
  4492   001D00  C039  F02B         	movff	i2lcd_4bit_send_char_data@lcd,i2gpio_pin_write_logic@pin_config
  4493   001D04  C03A  F02C         	movff	i2lcd_4bit_send_char_data@lcd+1,i2gpio_pin_write_logic@pin_config+1
  4494   001D08  0E01               	movlw	1
  4495   001D0A  6E2D               	movwf	i2gpio_pin_write_logic@logic^0,c
  4496   001D0C  EC00  F00B         	call	i2_gpio_pin_write_logic	;wreg free
  4497   001D10  6E3C               	movwf	i2lcd_4bit_send_char_data@ret^0,c
  4498                           
  4499                           ;ECU_Layer/Chr_LCD/ecu_chr_lcd.c: 70:         ret=lcd_send_4bits(lcd, data >> 4);
  4500   001D12  C039  F035         	movff	i2lcd_4bit_send_char_data@lcd,i2lcd_send_4bits@lcd
  4501   001D16  C03A  F036         	movff	i2lcd_4bit_send_char_data@lcd+1,i2lcd_send_4bits@lcd+1
  4502   001D1A  383B               	swapf	i2lcd_4bit_send_char_data@data^0,w,c
  4503   001D1C  0B0F               	andlw	15
  4504   001D1E  6E37               	movwf	i2lcd_send_4bits@_data_command^0,c
  4505   001D20  EC71  F00D         	call	i2_lcd_send_4bits	;wreg free
  4506   001D24  6E3C               	movwf	i2lcd_4bit_send_char_data@ret^0,c
  4507                           
  4508                           ;ECU_Layer/Chr_LCD/ecu_chr_lcd.c: 71:         ret=lcd_4bit_send_enable_signal(lcd);
  4509   001D26  C039  F035         	movff	i2lcd_4bit_send_char_data@lcd,i2lcd_4bit_send_enable_signal@lcd
  4510   001D2A  C03A  F036         	movff	i2lcd_4bit_send_char_data@lcd+1,i2lcd_4bit_send_enable_signal@lcd+1
  4511   001D2E  ECE7  F00F         	call	i2_lcd_4bit_send_enable_signal	;wreg free
  4512   001D32  6E3C               	movwf	i2lcd_4bit_send_char_data@ret^0,c
  4513                           
  4514                           ;ECU_Layer/Chr_LCD/ecu_chr_lcd.c: 72:         ret=lcd_send_4bits(lcd, data);
  4515   001D34  C039  F035         	movff	i2lcd_4bit_send_char_data@lcd,i2lcd_send_4bits@lcd
  4516   001D38  C03A  F036         	movff	i2lcd_4bit_send_char_data@lcd+1,i2lcd_send_4bits@lcd+1
  4517   001D3C  C03B  F037         	movff	i2lcd_4bit_send_char_data@data,i2lcd_send_4bits@_data_command
  4518   001D40  EC71  F00D         	call	i2_lcd_send_4bits	;wreg free
  4519   001D44  6E3C               	movwf	i2lcd_4bit_send_char_data@ret^0,c
  4520                           
  4521                           ;ECU_Layer/Chr_LCD/ecu_chr_lcd.c: 73:         ret=lcd_4bit_send_enable_signal(lcd);
  4522   001D46  C039  F035         	movff	i2lcd_4bit_send_char_data@lcd,i2lcd_4bit_send_enable_signal@lcd
  4523   001D4A  C03A  F036         	movff	i2lcd_4bit_send_char_data@lcd+1,i2lcd_4bit_send_enable_signal@lcd+1
  4524   001D4E  ECE7  F00F         	call	i2_lcd_4bit_send_enable_signal	;wreg free
  4525   001D52  6E3C               	movwf	i2lcd_4bit_send_char_data@ret^0,c
  4526   001D54                     i2l4055:
  4527                           
  4528                           ;ECU_Layer/Chr_LCD/ecu_chr_lcd.c: 75:     return ret;
  4529   001D54  503C               	movf	i2lcd_4bit_send_char_data@ret^0,w,c
  4530   001D56  0012               	return		;funcret
  4531   001D58                     __end_ofi2_lcd_4bit_send_char_data:
  4532                           	callstack 0
  4533                           
  4534 ;; *************** function i2_lcd_send_4bits *****************
  4535 ;; Defined at:
  4536 ;;		line 396 in file "ECU_Layer/Chr_LCD/ecu_chr_lcd.c"
  4537 ;; Parameters:    Size  Location     Type
  4538 ;;  lcd             2   10[COMRAM] PTR const struct .
  4539 ;;		 -> lcd1(6), 
  4540 ;;  _data_comman    1   12[COMRAM] unsigned char 
  4541 ;; Auto vars:     Size  Location     Type
  4542 ;;  ret             1   13[COMRAM] unsigned char 
  4543 ;; Return value:  Size  Location     Type
  4544 ;;                  1    wreg      unsigned char 
  4545 ;; Registers used:
  4546 ;;		wreg, fsr2l, fsr2h, status,2, status,0, prodl, prodh, cstack
  4547 ;; Tracked objects:
  4548 ;;		On entry : 0/0
  4549 ;;		On exit  : 0/0
  4550 ;;		Unchanged: 0/0
  4551 ;; Data sizes:     COMRAM   BANK0   BANK1   BANK2   BANK3   BANK4   BANK5   BANK6   BANK7   BANK8   BANK9  BANK10  BANK1
      +1  BANK12  BANK13  BANK14  BANK15
  4552 ;;      Params:         3       0       0       0       0       0       0       0       0       0       0       0       
      +0       0       0       0       0
  4553 ;;      Locals:         1       0       0       0       0       0       0       0       0       0       0       0       
      +0       0       0       0       0
  4554 ;;      Temps:          0       0       0       0       0       0       0       0       0       0       0       0       
      +0       0       0       0       0
  4555 ;;      Totals:         4       0       0       0       0       0       0       0       0       0       0       0       
      +0       0       0       0       0
  4556 ;;Total ram usage:        4 bytes
  4557 ;; Hardware stack levels used: 1
  4558 ;; Hardware stack levels required when called: 1
  4559 ;; This function calls:
  4560 ;;		i2_gpio_pin_write_logic
  4561 ;; This function is called by:
  4562 ;;		i2_lcd_4bit_send_char_data
  4563 ;; This function uses a non-reentrant model
  4564 ;;
  4565                           
  4566                           	psect	text35
  4567   001AE2                     __ptext35:
  4568                           	callstack 0
  4569   001AE2                     i2_lcd_send_4bits:
  4570                           	callstack 11
  4571   001AE2                     
  4572                           ;ECU_Layer/Chr_LCD/ecu_chr_lcd.c: 398:     if(lcd==((void*)0)){
  4573   001AE2  5035               	movf	i2lcd_send_4bits@lcd^0,w,c
  4574   001AE4  1036               	iorwf	(i2lcd_send_4bits@lcd+1)^0,w,c
  4575   001AE6  A4D8               	btfss	status,2,c
  4576   001AE8  EF78  F00D         	goto	i2u284_41
  4577   001AEC  EF7A  F00D         	goto	i2u284_40
  4578   001AF0                     i2u284_41:
  4579   001AF0  EF7E  F00D         	goto	i2l3969
  4580   001AF4                     i2u284_40:
  4581   001AF4                     
  4582                           ;ECU_Layer/Chr_LCD/ecu_chr_lcd.c: 399:         ret=(Std_ReturnType)0x00;
  4583   001AF4  0E00               	movlw	0
  4584   001AF6  6E38               	movwf	i2lcd_send_4bits@ret^0,c
  4585                           
  4586                           ;ECU_Layer/Chr_LCD/ecu_chr_lcd.c: 400:     }
  4587   001AF8  EFB3  F00D         	goto	i2l3971
  4588   001AFC                     i2l3969:
  4589                           
  4590                           ;ECU_Layer/Chr_LCD/ecu_chr_lcd.c: 402:         ret=gpio_pin_write_logic(&(lcd->lcd_data[
      +                          0]),( _data_command >> 0 ) & (uint8)0x01);
  4591   001AFC  0E02               	movlw	2
  4592   001AFE  2435               	addwf	i2lcd_send_4bits@lcd^0,w,c
  4593   001B00  6E2B               	movwf	i2gpio_pin_write_logic@pin_config^0,c
  4594   001B02  0E00               	movlw	0
  4595   001B04  2036               	addwfc	(i2lcd_send_4bits@lcd+1)^0,w,c
  4596   001B06  6E2C               	movwf	(i2gpio_pin_write_logic@pin_config+1)^0,c
  4597   001B08  5037               	movf	i2lcd_send_4bits@_data_command^0,w,c
  4598   001B0A  0B01               	andlw	1
  4599   001B0C  6E2D               	movwf	i2gpio_pin_write_logic@logic^0,c
  4600   001B0E  EC00  F00B         	call	i2_gpio_pin_write_logic	;wreg free
  4601   001B12  6E38               	movwf	i2lcd_send_4bits@ret^0,c
  4602                           
  4603                           ;ECU_Layer/Chr_LCD/ecu_chr_lcd.c: 403:         ret=gpio_pin_write_logic(&(lcd->lcd_data[
      +                          1]),( _data_command >> 1 ) & (uint8)0x01);
  4604   001B14  0E03               	movlw	3
  4605   001B16  2435               	addwf	i2lcd_send_4bits@lcd^0,w,c
  4606   001B18  6E2B               	movwf	i2gpio_pin_write_logic@pin_config^0,c
  4607   001B1A  0E00               	movlw	0
  4608   001B1C  2036               	addwfc	(i2lcd_send_4bits@lcd+1)^0,w,c
  4609   001B1E  6E2C               	movwf	(i2gpio_pin_write_logic@pin_config+1)^0,c
  4610   001B20  90D8               	bcf	status,0,c
  4611   001B22  3037               	rrcf	i2lcd_send_4bits@_data_command^0,w,c
  4612   001B24  0B01               	andlw	1
  4613   001B26  6E2D               	movwf	i2gpio_pin_write_logic@logic^0,c
  4614   001B28  EC00  F00B         	call	i2_gpio_pin_write_logic	;wreg free
  4615   001B2C  6E38               	movwf	i2lcd_send_4bits@ret^0,c
  4616                           
  4617                           ;ECU_Layer/Chr_LCD/ecu_chr_lcd.c: 404:         ret=gpio_pin_write_logic(&(lcd->lcd_data[
      +                          2]),( _data_command >> 2 ) & (uint8)0x01);
  4618   001B2E  0E04               	movlw	4
  4619   001B30  2435               	addwf	i2lcd_send_4bits@lcd^0,w,c
  4620   001B32  6E2B               	movwf	i2gpio_pin_write_logic@pin_config^0,c
  4621   001B34  0E00               	movlw	0
  4622   001B36  2036               	addwfc	(i2lcd_send_4bits@lcd+1)^0,w,c
  4623   001B38  6E2C               	movwf	(i2gpio_pin_write_logic@pin_config+1)^0,c
  4624   001B3A  4037               	rrncf	i2lcd_send_4bits@_data_command^0,w,c
  4625   001B3C  42E8               	rrncf	wreg,f,c
  4626   001B3E  0B3F               	andlw	63
  4627   001B40  0B01               	andlw	1
  4628   001B42  6E2D               	movwf	i2gpio_pin_write_logic@logic^0,c
  4629   001B44  EC00  F00B         	call	i2_gpio_pin_write_logic	;wreg free
  4630   001B48  6E38               	movwf	i2lcd_send_4bits@ret^0,c
  4631                           
  4632                           ;ECU_Layer/Chr_LCD/ecu_chr_lcd.c: 405:         ret=gpio_pin_write_logic(&(lcd->lcd_data[
      +                          3]),( _data_command >> 3 ) & (uint8)0x01);
  4633   001B4A  0E05               	movlw	5
  4634   001B4C  2435               	addwf	i2lcd_send_4bits@lcd^0,w,c
  4635   001B4E  6E2B               	movwf	i2gpio_pin_write_logic@pin_config^0,c
  4636   001B50  0E00               	movlw	0
  4637   001B52  2036               	addwfc	(i2lcd_send_4bits@lcd+1)^0,w,c
  4638   001B54  6E2C               	movwf	(i2gpio_pin_write_logic@pin_config+1)^0,c
  4639   001B56  3837               	swapf	i2lcd_send_4bits@_data_command^0,w,c
  4640   001B58  46E8               	rlncf	wreg,f,c
  4641   001B5A  0B1F               	andlw	31
  4642   001B5C  0B01               	andlw	1
  4643   001B5E  6E2D               	movwf	i2gpio_pin_write_logic@logic^0,c
  4644   001B60  EC00  F00B         	call	i2_gpio_pin_write_logic	;wreg free
  4645   001B64  6E38               	movwf	i2lcd_send_4bits@ret^0,c
  4646   001B66                     i2l3971:
  4647                           
  4648                           ;ECU_Layer/Chr_LCD/ecu_chr_lcd.c: 407:     return ret;
  4649   001B66  5038               	movf	i2lcd_send_4bits@ret^0,w,c
  4650   001B68  0012               	return		;funcret
  4651   001B6A                     __end_ofi2_lcd_send_4bits:
  4652                           	callstack 0
  4653                           
  4654 ;; *************** function i2_lcd_4bit_send_enable_signal *****************
  4655 ;; Defined at:
  4656 ;;		line 409 in file "ECU_Layer/Chr_LCD/ecu_chr_lcd.c"
  4657 ;; Parameters:    Size  Location     Type
  4658 ;;  lcd             2   10[COMRAM] PTR const struct .
  4659 ;;		 -> lcd1(6), 
  4660 ;; Auto vars:     Size  Location     Type
  4661 ;;  ret             1   12[COMRAM] unsigned char 
  4662 ;; Return value:  Size  Location     Type
  4663 ;;                  1    wreg      unsigned char 
  4664 ;; Registers used:
  4665 ;;		wreg, fsr2l, fsr2h, status,2, status,0, prodl, prodh, cstack
  4666 ;; Tracked objects:
  4667 ;;		On entry : 0/0
  4668 ;;		On exit  : 0/0
  4669 ;;		Unchanged: 0/0
  4670 ;; Data sizes:     COMRAM   BANK0   BANK1   BANK2   BANK3   BANK4   BANK5   BANK6   BANK7   BANK8   BANK9  BANK10  BANK1
      +1  BANK12  BANK13  BANK14  BANK15
  4671 ;;      Params:         2       0       0       0       0       0       0       0       0       0       0       0       
      +0       0       0       0       0
  4672 ;;      Locals:         1       0       0       0       0       0       0       0       0       0       0       0       
      +0       0       0       0       0
  4673 ;;      Temps:          0       0       0       0       0       0       0       0       0       0       0       0       
      +0       0       0       0       0
  4674 ;;      Totals:         3       0       0       0       0       0       0       0       0       0       0       0       
      +0       0       0       0       0
  4675 ;;Total ram usage:        3 bytes
  4676 ;; Hardware stack levels used: 1
  4677 ;; Hardware stack levels required when called: 1
  4678 ;; This function calls:
  4679 ;;		i2_gpio_pin_write_logic
  4680 ;; This function is called by:
  4681 ;;		i2_lcd_4bit_send_char_data
  4682 ;; This function uses a non-reentrant model
  4683 ;;
  4684                           
  4685                           	psect	text36
  4686   001FCE                     __ptext36:
  4687                           	callstack 0
  4688   001FCE                     i2_lcd_4bit_send_enable_signal:
  4689                           	callstack 11
  4690   001FCE                     
  4691                           ;ECU_Layer/Chr_LCD/ecu_chr_lcd.c: 411:     if(lcd==((void*)0)){
  4692   001FCE  5035               	movf	i2lcd_4bit_send_enable_signal@lcd^0,w,c
  4693   001FD0  1036               	iorwf	(i2lcd_4bit_send_enable_signal@lcd+1)^0,w,c
  4694   001FD2  A4D8               	btfss	status,2,c
  4695   001FD4  EFEE  F00F         	goto	i2u286_41
  4696   001FD8  EFF0  F00F         	goto	i2u286_40
  4697   001FDC                     i2u286_41:
  4698   001FDC  EFF4  F00F         	goto	i2l3997
  4699   001FE0                     i2u286_40:
  4700   001FE0                     
  4701                           ;ECU_Layer/Chr_LCD/ecu_chr_lcd.c: 412:         ret=(Std_ReturnType)0x00;
  4702   001FE0  0E00               	movlw	0
  4703   001FE2  6E37               	movwf	i2lcd_4bit_send_enable_signal@ret^0,c
  4704                           
  4705                           ;ECU_Layer/Chr_LCD/ecu_chr_lcd.c: 413:     }
  4706   001FE4  EF0D  F010         	goto	i2l4003
  4707   001FE8                     i2l3997:
  4708   001FE8  0E01               	movlw	1
  4709   001FEA  2435               	addwf	i2lcd_4bit_send_enable_signal@lcd^0,w,c
  4710   001FEC  6E2B               	movwf	i2gpio_pin_write_logic@pin_config^0,c
  4711   001FEE  0E00               	movlw	0
  4712   001FF0  2036               	addwfc	(i2lcd_4bit_send_enable_signal@lcd+1)^0,w,c
  4713   001FF2  6E2C               	movwf	(i2gpio_pin_write_logic@pin_config+1)^0,c
  4714   001FF4  0E01               	movlw	1
  4715   001FF6  6E2D               	movwf	i2gpio_pin_write_logic@logic^0,c
  4716   001FF8  EC00  F00B         	call	i2_gpio_pin_write_logic	;wreg free
  4717   001FFC                     
  4718                           ;ECU_Layer/Chr_LCD/ecu_chr_lcd.c: 416:         _delay((unsigned long)((5)*(8000000/40000
      +                          00.0)));
  4719   001FFC  0E03               	movlw	3
  4720   001FFE                     i2u578_47:
  4721   001FFE  2EE8               	decfsz	wreg,f,c
  4722   002000  D7FE               	bra	i2u578_47
  4723   002002  F000               	nop	
  4724   002004                     
  4725                           ;ECU_Layer/Chr_LCD/ecu_chr_lcd.c: 417:         ret=gpio_pin_write_logic(&(lcd->lcd_en),L
      +                          OW);
  4726   002004  0E01               	movlw	1
  4727   002006  2435               	addwf	i2lcd_4bit_send_enable_signal@lcd^0,w,c
  4728   002008  6E2B               	movwf	i2gpio_pin_write_logic@pin_config^0,c
  4729   00200A  0E00               	movlw	0
  4730   00200C  2036               	addwfc	(i2lcd_4bit_send_enable_signal@lcd+1)^0,w,c
  4731   00200E  6E2C               	movwf	(i2gpio_pin_write_logic@pin_config+1)^0,c
  4732   002010  0E00               	movlw	0
  4733   002012  6E2D               	movwf	i2gpio_pin_write_logic@logic^0,c
  4734   002014  EC00  F00B         	call	i2_gpio_pin_write_logic	;wreg free
  4735   002018  6E37               	movwf	i2lcd_4bit_send_enable_signal@ret^0,c
  4736   00201A                     i2l4003:
  4737                           
  4738                           ;ECU_Layer/Chr_LCD/ecu_chr_lcd.c: 419:     return ret;
  4739   00201A  5037               	movf	i2lcd_4bit_send_enable_signal@ret^0,w,c
  4740   00201C  0012               	return		;funcret
  4741   00201E                     __end_ofi2_lcd_4bit_send_enable_signal:
  4742                           	callstack 0
  4743                           
  4744 ;; *************** function i2_gpio_pin_write_logic *****************
  4745 ;; Defined at:
  4746 ;;		line 94 in file "MCAL_Layer/GPIO/hal_gpio.c"
  4747 ;; Parameters:    Size  Location     Type
  4748 ;;  pin_config      2    0[COMRAM] PTR const struct .
  4749 ;;		 -> lcd1.lcd_data(4), lcd1(6), relay_turn_off@pin_obj(1), relay_turn_on@pin_obj(1), 
  4750 ;;		 -> relay_initialize@pin_obj(1), led_turn_off@pin_obj(1), led_turn_on@pin_obj(1), led_initialize@pin_obj(1), 
  4751 ;;  logic           1    2[COMRAM] enum E3153
  4752 ;; Auto vars:     Size  Location     Type
  4753 ;;  ret             1    9[COMRAM] unsigned char 
  4754 ;; Return value:  Size  Location     Type
  4755 ;;                  1    wreg      unsigned char 
  4756 ;; Registers used:
  4757 ;;		wreg, fsr2l, fsr2h, status,2, status,0, prodl, prodh
  4758 ;; Tracked objects:
  4759 ;;		On entry : 0/0
  4760 ;;		On exit  : 0/0
  4761 ;;		Unchanged: 0/0
  4762 ;; Data sizes:     COMRAM   BANK0   BANK1   BANK2   BANK3   BANK4   BANK5   BANK6   BANK7   BANK8   BANK9  BANK10  BANK1
      +1  BANK12  BANK13  BANK14  BANK15
  4763 ;;      Params:         3       0       0       0       0       0       0       0       0       0       0       0       
      +0       0       0       0       0
  4764 ;;      Locals:         1       0       0       0       0       0       0       0       0       0       0       0       
      +0       0       0       0       0
  4765 ;;      Temps:          6       0       0       0       0       0       0       0       0       0       0       0       
      +0       0       0       0       0
  4766 ;;      Totals:        10       0       0       0       0       0       0       0       0       0       0       0       
      +0       0       0       0       0
  4767 ;;Total ram usage:       10 bytes
  4768 ;; Hardware stack levels used: 1
  4769 ;; This function calls:
  4770 ;;		Nothing
  4771 ;; This function is called by:
  4772 ;;		i2_lcd_4bit_send_char_data
  4773 ;;		i2_lcd_send_4bits
  4774 ;;		i2_lcd_4bit_send_enable_signal
  4775 ;; This function uses a non-reentrant model
  4776 ;;
  4777                           
  4778                           	psect	text37
  4779   001600                     __ptext37:
  4780                           	callstack 0
  4781   001600                     i2_gpio_pin_write_logic:
  4782                           	callstack 11
  4783   001600                     
  4784                           ;MCAL_Layer/GPIO/hal_gpio.c: 95:       Std_ReturnType ret=(Std_ReturnType)0x01;
  4785   001600  0E01               	movlw	1
  4786   001602  6E34               	movwf	i2gpio_pin_write_logic@ret^0,c
  4787   001604                     
  4788                           ;MCAL_Layer/GPIO/hal_gpio.c: 96:     if((pin_config==((void*)0))||(pin_config->pin>8 -1)
      +                          ||(pin_config->port>5 -1)){
  4789   001604  502B               	movf	i2gpio_pin_write_logic@pin_config^0,w,c
  4790   001606  102C               	iorwf	(i2gpio_pin_write_logic@pin_config+1)^0,w,c
  4791   001608  B4D8               	btfsc	status,2,c
  4792   00160A  EF09  F00B         	goto	i2u269_41
  4793   00160E  EF0B  F00B         	goto	i2u269_40
  4794   001612                     i2u269_41:
  4795   001612  EF2B  F00B         	goto	i2l3879
  4796   001616                     i2u269_40:
  4797   001616  C02B  FFD9         	movff	i2gpio_pin_write_logic@pin_config,fsr2l
  4798   00161A  C02C  FFDA         	movff	i2gpio_pin_write_logic@pin_config+1,fsr2h
  4799   00161E  30DF               	rrcf	223,w,c
  4800   001620  32E8               	rrcf	wreg,f,c
  4801   001622  32E8               	rrcf	wreg,f,c
  4802   001624  0B07               	andlw	7
  4803   001626  6E2E               	movwf	??i2_gpio_pin_write_logic^0,c
  4804   001628  0E08               	movlw	8
  4805   00162A  602E               	cpfslt	??i2_gpio_pin_write_logic^0,c
  4806   00162C  EF1A  F00B         	goto	i2u270_41
  4807   001630  EF1C  F00B         	goto	i2u270_40
  4808   001634                     i2u270_41:
  4809   001634  EF2B  F00B         	goto	i2l3879
  4810   001638                     i2u270_40:
  4811   001638  C02B  FFD9         	movff	i2gpio_pin_write_logic@pin_config,fsr2l
  4812   00163C  C02C  FFDA         	movff	i2gpio_pin_write_logic@pin_config+1,fsr2h
  4813   001640  50DF               	movf	223,w,c
  4814   001642  0B07               	andlw	7
  4815   001644  6E2E               	movwf	??i2_gpio_pin_write_logic^0,c
  4816   001646  0E04               	movlw	4
  4817   001648  642E               	cpfsgt	??i2_gpio_pin_write_logic^0,c
  4818   00164A  EF29  F00B         	goto	i2u271_41
  4819   00164E  EF2B  F00B         	goto	i2u271_40
  4820   001652                     i2u271_41:
  4821   001652  EF8E  F00B         	goto	i2l3887
  4822   001656                     i2u271_40:
  4823   001656                     i2l3879:
  4824                           
  4825                           ;MCAL_Layer/GPIO/hal_gpio.c: 97:         ret=(Std_ReturnType)0x00;
  4826   001656  0E00               	movlw	0
  4827   001658  6E34               	movwf	i2gpio_pin_write_logic@ret^0,c
  4828                           
  4829                           ;MCAL_Layer/GPIO/hal_gpio.c: 98:     }
  4830   00165A  EFA3  F00B         	goto	i2l3889
  4831   00165E                     i2l3881:
  4832                           
  4833                           ;MCAL_Layer/GPIO/hal_gpio.c: 102:                 (*lat_registers[pin_config->port]|=((u
      +                          int8)0x01<<pin_config->pin));
  4834   00165E  C02B  FFD9         	movff	i2gpio_pin_write_logic@pin_config,fsr2l
  4835   001662  C02C  FFDA         	movff	i2gpio_pin_write_logic@pin_config+1,fsr2h
  4836   001666  30DF               	rrcf	223,w,c
  4837   001668  32E8               	rrcf	wreg,f,c
  4838   00166A  32E8               	rrcf	wreg,f,c
  4839   00166C  0B07               	andlw	7
  4840   00166E  6E2E               	movwf	??i2_gpio_pin_write_logic^0,c
  4841   001670  0E01               	movlw	1
  4842   001672  6E2F               	movwf	(??i2_gpio_pin_write_logic+1)^0,c
  4843   001674  2A2E               	incf	??i2_gpio_pin_write_logic^0,f,c
  4844   001676  EF3F  F00B         	goto	i2u272_44
  4845   00167A                     i2u272_45:
  4846   00167A  90D8               	bcf	status,0,c
  4847   00167C  362F               	rlcf	(??i2_gpio_pin_write_logic+1)^0,f,c
  4848   00167E                     i2u272_44:
  4849   00167E  2E2E               	decfsz	??i2_gpio_pin_write_logic^0,f,c
  4850   001680  EF3D  F00B         	goto	i2u272_45
  4851   001684  C02B  FFD9         	movff	i2gpio_pin_write_logic@pin_config,fsr2l
  4852   001688  C02C  FFDA         	movff	i2gpio_pin_write_logic@pin_config+1,fsr2h
  4853   00168C  50DF               	movf	223,w,c
  4854   00168E  0B07               	andlw	7
  4855   001690  6E30               	movwf	(??i2_gpio_pin_write_logic+2)^0,c
  4856   001692  5030               	movf	(??i2_gpio_pin_write_logic+2)^0,w,c
  4857   001694  0D02               	mullw	2
  4858   001696  0EB4               	movlw	low _lat_registers
  4859   001698  24F3               	addwf	243,w,c
  4860   00169A  6ED9               	movwf	fsr2l,c
  4861   00169C  0E00               	movlw	high _lat_registers
  4862   00169E  20F4               	addwfc	prodh,w,c
  4863   0016A0  6EDA               	movwf	fsr2h,c
  4864   0016A2  CFDE F031          	movff	postinc2,??i2_gpio_pin_write_logic+3
  4865   0016A6  CFDD F032          	movff	postdec2,??i2_gpio_pin_write_logic+4
  4866   0016AA  C031  FFD9         	movff	??i2_gpio_pin_write_logic+3,fsr2l
  4867   0016AE  C032  FFDA         	movff	??i2_gpio_pin_write_logic+4,fsr2h
  4868   0016B2  502F               	movf	(??i2_gpio_pin_write_logic+1)^0,w,c
  4869   0016B4  12DF               	iorwf	indf2,f,c
  4870                           
  4871                           ;MCAL_Layer/GPIO/hal_gpio.c: 103:                 break;
  4872   0016B6  EFA3  F00B         	goto	i2l3889
  4873   0016BA                     i2l3883:
  4874                           
  4875                           ;MCAL_Layer/GPIO/hal_gpio.c: 105:                 (*lat_registers[pin_config->port]&=~((
      +                          uint8)0x01<<pin_config->pin));
  4876   0016BA  C02B  FFD9         	movff	i2gpio_pin_write_logic@pin_config,fsr2l
  4877   0016BE  C02C  FFDA         	movff	i2gpio_pin_write_logic@pin_config+1,fsr2h
  4878   0016C2  30DF               	rrcf	223,w,c
  4879   0016C4  32E8               	rrcf	wreg,f,c
  4880   0016C6  32E8               	rrcf	wreg,f,c
  4881   0016C8  0B07               	andlw	7
  4882   0016CA  6E2E               	movwf	??i2_gpio_pin_write_logic^0,c
  4883   0016CC  0E01               	movlw	1
  4884   0016CE  6E2F               	movwf	(??i2_gpio_pin_write_logic+1)^0,c
  4885   0016D0  2A2E               	incf	??i2_gpio_pin_write_logic^0,f,c
  4886   0016D2  EF6D  F00B         	goto	i2u273_44
  4887   0016D6                     i2u273_45:
  4888   0016D6  90D8               	bcf	status,0,c
  4889   0016D8  362F               	rlcf	(??i2_gpio_pin_write_logic+1)^0,f,c
  4890   0016DA                     i2u273_44:
  4891   0016DA  2E2E               	decfsz	??i2_gpio_pin_write_logic^0,f,c
  4892   0016DC  EF6B  F00B         	goto	i2u273_45
  4893   0016E0  502F               	movf	(??i2_gpio_pin_write_logic+1)^0,w,c
  4894   0016E2  0AFF               	xorlw	255
  4895   0016E4  6E30               	movwf	(??i2_gpio_pin_write_logic+2)^0,c
  4896   0016E6  C02B  FFD9         	movff	i2gpio_pin_write_logic@pin_config,fsr2l
  4897   0016EA  C02C  FFDA         	movff	i2gpio_pin_write_logic@pin_config+1,fsr2h
  4898   0016EE  50DF               	movf	223,w,c
  4899   0016F0  0B07               	andlw	7
  4900   0016F2  6E31               	movwf	(??i2_gpio_pin_write_logic+3)^0,c
  4901   0016F4  5031               	movf	(??i2_gpio_pin_write_logic+3)^0,w,c
  4902   0016F6  0D02               	mullw	2
  4903   0016F8  0EB4               	movlw	low _lat_registers
  4904   0016FA  24F3               	addwf	243,w,c
  4905   0016FC  6ED9               	movwf	fsr2l,c
  4906   0016FE  0E00               	movlw	high _lat_registers
  4907   001700  20F4               	addwfc	prodh,w,c
  4908   001702  6EDA               	movwf	fsr2h,c
  4909   001704  CFDE F032          	movff	postinc2,??i2_gpio_pin_write_logic+4
  4910   001708  CFDD F033          	movff	postdec2,??i2_gpio_pin_write_logic+5
  4911   00170C  C032  FFD9         	movff	??i2_gpio_pin_write_logic+4,fsr2l
  4912   001710  C033  FFDA         	movff	??i2_gpio_pin_write_logic+5,fsr2h
  4913   001714  5030               	movf	(??i2_gpio_pin_write_logic+2)^0,w,c
  4914   001716  16DF               	andwf	indf2,f,c
  4915                           
  4916                           ;MCAL_Layer/GPIO/hal_gpio.c: 106:                 break;
  4917   001718  EFA3  F00B         	goto	i2l3889
  4918   00171C                     i2l3887:
  4919   00171C  502D               	movf	i2gpio_pin_write_logic@logic^0,w,c
  4920   00171E  6E2E               	movwf	??i2_gpio_pin_write_logic^0,c
  4921   001720  6A2F               	clrf	(??i2_gpio_pin_write_logic+1)^0,c
  4922                           
  4923                           ; Switch on 2 bytes has been partitioned into a top level switch of size 1, and 1 sub-sw
      +                          itches
  4924                           ; Switch size 1, requested type "simple"
  4925                           ; Number of cases is 1, Range of values is 0 to 0
  4926                           ; switch strategies available:
  4927                           ; Name         Instructions Cycles
  4928                           ; simple_byte            4     3 (average)
  4929                           ;	Chosen strategy is simple_byte
  4930   001722  502F               	movf	(??i2_gpio_pin_write_logic+1)^0,w,c
  4931   001724  0A00               	xorlw	0	; case 0
  4932   001726  B4D8               	btfsc	status,2,c
  4933   001728  EF98  F00B         	goto	i2l6287
  4934   00172C  EF2B  F00B         	goto	i2l3879
  4935   001730                     i2l6287:
  4936                           
  4937                           ; Switch size 1, requested type "simple"
  4938                           ; Number of cases is 2, Range of values is 0 to 1
  4939                           ; switch strategies available:
  4940                           ; Name         Instructions Cycles
  4941                           ; simple_byte            7     4 (average)
  4942                           ;	Chosen strategy is simple_byte
  4943   001730  502E               	movf	??i2_gpio_pin_write_logic^0,w,c
  4944   001732  0A00               	xorlw	0	; case 0
  4945   001734  B4D8               	btfsc	status,2,c
  4946   001736  EF5D  F00B         	goto	i2l3883
  4947   00173A  0A01               	xorlw	1	; case 1
  4948   00173C  B4D8               	btfsc	status,2,c
  4949   00173E  EF2F  F00B         	goto	i2l3881
  4950   001742  EF2B  F00B         	goto	i2l3879
  4951   001746                     i2l3889:
  4952                           
  4953                           ;MCAL_Layer/GPIO/hal_gpio.c: 110:     return ret;
  4954   001746  5034               	movf	i2gpio_pin_write_logic@ret^0,w,c
  4955   001748  0012               	return		;funcret
  4956   00174A                     __end_ofi2_gpio_pin_write_logic:
  4957                           	callstack 0
  4958                           
  4959 ;; *************** function i2_RB7_ISR *****************
  4960 ;; Defined at:
  4961 ;;		line 180 in file "MCAL_Layer/Interrupt/mcal_external_interrupt.c"
  4962 ;; Parameters:    Size  Location     Type
  4963 ;;		None
  4964 ;; Auto vars:     Size  Location     Type
  4965 ;;		None
  4966 ;; Return value:  Size  Location     Type
  4967 ;;                  1    wreg      void 
  4968 ;; Registers used:
  4969 ;;		None
  4970 ;; Tracked objects:
  4971 ;;		On entry : 0/0
  4972 ;;		On exit  : 0/0
  4973 ;;		Unchanged: 0/0
  4974 ;; Data sizes:     COMRAM   BANK0   BANK1   BANK2   BANK3   BANK4   BANK5   BANK6   BANK7   BANK8   BANK9  BANK10  BANK1
      +1  BANK12  BANK13  BANK14  BANK15
  4975 ;;      Params:         0       0       0       0       0       0       0       0       0       0       0       0       
      +0       0       0       0       0
  4976 ;;      Locals:         0       0       0       0       0       0       0       0       0       0       0       0       
      +0       0       0       0       0
  4977 ;;      Temps:          0       0       0       0       0       0       0       0       0       0       0       0       
      +0       0       0       0       0
  4978 ;;      Totals:         0       0       0       0       0       0       0       0       0       0       0       0       
      +0       0       0       0       0
  4979 ;;Total ram usage:        0 bytes
  4980 ;; Hardware stack levels used: 1
  4981 ;; This function calls:
  4982 ;;		Nothing
  4983 ;; This function is called by:
  4984 ;;		_InterruptManagerHigh
  4985 ;; This function uses a non-reentrant model
  4986 ;;
  4987                           
  4988                           	psect	text38
  4989   002194                     __ptext38:
  4990                           	callstack 0
  4991   002194                     i2_RB7_ISR:
  4992                           	callstack 16
  4993   002194                     
  4994                           ;MCAL_Layer/Interrupt/mcal_external_interrupt.c: 182:     ((*((volatile INTCON_t *)(0xFF
      +                          2))).RBIF=0);
  4995   002194  90F2               	bcf	242,0,c	;volatile
  4996   002196  0012               	return		;funcret
  4997   002198                     __end_ofi2_RB7_ISR:
  4998                           	callstack 0
  4999                           
  5000 ;; *************** function i2_RB6_ISR *****************
  5001 ;; Defined at:
  5002 ;;		line 172 in file "MCAL_Layer/Interrupt/mcal_external_interrupt.c"
  5003 ;; Parameters:    Size  Location     Type
  5004 ;;		None
  5005 ;; Auto vars:     Size  Location     Type
  5006 ;;		None
  5007 ;; Return value:  Size  Location     Type
  5008 ;;                  1    wreg      void 
  5009 ;; Registers used:
  5010 ;;		None
  5011 ;; Tracked objects:
  5012 ;;		On entry : 0/0
  5013 ;;		On exit  : 0/0
  5014 ;;		Unchanged: 0/0
  5015 ;; Data sizes:     COMRAM   BANK0   BANK1   BANK2   BANK3   BANK4   BANK5   BANK6   BANK7   BANK8   BANK9  BANK10  BANK1
      +1  BANK12  BANK13  BANK14  BANK15
  5016 ;;      Params:         0       0       0       0       0       0       0       0       0       0       0       0       
      +0       0       0       0       0
  5017 ;;      Locals:         0       0       0       0       0       0       0       0       0       0       0       0       
      +0       0       0       0       0
  5018 ;;      Temps:          0       0       0       0       0       0       0       0       0       0       0       0       
      +0       0       0       0       0
  5019 ;;      Totals:         0       0       0       0       0       0       0       0       0       0       0       0       
      +0       0       0       0       0
  5020 ;;Total ram usage:        0 bytes
  5021 ;; Hardware stack levels used: 1
  5022 ;; This function calls:
  5023 ;;		Nothing
  5024 ;; This function is called by:
  5025 ;;		_InterruptManagerHigh
  5026 ;; This function uses a non-reentrant model
  5027 ;;
  5028                           
  5029                           	psect	text39
  5030   002198                     __ptext39:
  5031                           	callstack 0
  5032   002198                     i2_RB6_ISR:
  5033                           	callstack 16
  5034   002198                     
  5035                           ;MCAL_Layer/Interrupt/mcal_external_interrupt.c: 174:     ((*((volatile INTCON_t *)(0xFF
      +                          2))).RBIF=0);
  5036   002198  90F2               	bcf	242,0,c	;volatile
  5037   00219A  0012               	return		;funcret
  5038   00219C                     __end_ofi2_RB6_ISR:
  5039                           	callstack 0
  5040                           
  5041 ;; *************** function i2_RB5_ISR *****************
  5042 ;; Defined at:
  5043 ;;		line 164 in file "MCAL_Layer/Interrupt/mcal_external_interrupt.c"
  5044 ;; Parameters:    Size  Location     Type
  5045 ;;		None
  5046 ;; Auto vars:     Size  Location     Type
  5047 ;;		None
  5048 ;; Return value:  Size  Location     Type
  5049 ;;                  1    wreg      void 
  5050 ;; Registers used:
  5051 ;;		None
  5052 ;; Tracked objects:
  5053 ;;		On entry : 0/0
  5054 ;;		On exit  : 0/0
  5055 ;;		Unchanged: 0/0
  5056 ;; Data sizes:     COMRAM   BANK0   BANK1   BANK2   BANK3   BANK4   BANK5   BANK6   BANK7   BANK8   BANK9  BANK10  BANK1
      +1  BANK12  BANK13  BANK14  BANK15
  5057 ;;      Params:         0       0       0       0       0       0       0       0       0       0       0       0       
      +0       0       0       0       0
  5058 ;;      Locals:         0       0       0       0       0       0       0       0       0       0       0       0       
      +0       0       0       0       0
  5059 ;;      Temps:          0       0       0       0       0       0       0       0       0       0       0       0       
      +0       0       0       0       0
  5060 ;;      Totals:         0       0       0       0       0       0       0       0       0       0       0       0       
      +0       0       0       0       0
  5061 ;;Total ram usage:        0 bytes
  5062 ;; Hardware stack levels used: 1
  5063 ;; This function calls:
  5064 ;;		Nothing
  5065 ;; This function is called by:
  5066 ;;		_InterruptManagerHigh
  5067 ;; This function uses a non-reentrant model
  5068 ;;
  5069                           
  5070                           	psect	text40
  5071   00219C                     __ptext40:
  5072                           	callstack 0
  5073   00219C                     i2_RB5_ISR:
  5074                           	callstack 16
  5075   00219C                     
  5076                           ;MCAL_Layer/Interrupt/mcal_external_interrupt.c: 166:     ((*((volatile INTCON_t *)(0xFF
      +                          2))).RBIF=0);
  5077   00219C  90F2               	bcf	242,0,c	;volatile
  5078   00219E  0012               	return		;funcret
  5079   0021A0                     __end_ofi2_RB5_ISR:
  5080                           	callstack 0
  5081                           
  5082 ;; *************** function i2_RB4_ISR *****************
  5083 ;; Defined at:
  5084 ;;		line 156 in file "MCAL_Layer/Interrupt/mcal_external_interrupt.c"
  5085 ;; Parameters:    Size  Location     Type
  5086 ;;		None
  5087 ;; Auto vars:     Size  Location     Type
  5088 ;;		None
  5089 ;; Return value:  Size  Location     Type
  5090 ;;                  1    wreg      void 
  5091 ;; Registers used:
  5092 ;;		None
  5093 ;; Tracked objects:
  5094 ;;		On entry : 0/0
  5095 ;;		On exit  : 0/0
  5096 ;;		Unchanged: 0/0
  5097 ;; Data sizes:     COMRAM   BANK0   BANK1   BANK2   BANK3   BANK4   BANK5   BANK6   BANK7   BANK8   BANK9  BANK10  BANK1
      +1  BANK12  BANK13  BANK14  BANK15
  5098 ;;      Params:         0       0       0       0       0       0       0       0       0       0       0       0       
      +0       0       0       0       0
  5099 ;;      Locals:         0       0       0       0       0       0       0       0       0       0       0       0       
      +0       0       0       0       0
  5100 ;;      Temps:          0       0       0       0       0       0       0       0       0       0       0       0       
      +0       0       0       0       0
  5101 ;;      Totals:         0       0       0       0       0       0       0       0       0       0       0       0       
      +0       0       0       0       0
  5102 ;;Total ram usage:        0 bytes
  5103 ;; Hardware stack levels used: 1
  5104 ;; This function calls:
  5105 ;;		Nothing
  5106 ;; This function is called by:
  5107 ;;		_InterruptManagerHigh
  5108 ;; This function uses a non-reentrant model
  5109 ;;
  5110                           
  5111                           	psect	text41
  5112   0021A0                     __ptext41:
  5113                           	callstack 0
  5114   0021A0                     i2_RB4_ISR:
  5115                           	callstack 16
  5116   0021A0                     
  5117                           ;MCAL_Layer/Interrupt/mcal_external_interrupt.c: 158:     ((*((volatile INTCON_t *)(0xFF
      +                          2))).RBIF=0);
  5118   0021A0  90F2               	bcf	242,0,c	;volatile
  5119   0021A2  0012               	return		;funcret
  5120   0021A4                     __end_ofi2_RB4_ISR:
  5121                           	callstack 0
  5122                           
  5123 ;; *************** function i2_INT2_ISR *****************
  5124 ;; Defined at:
  5125 ;;		line 148 in file "MCAL_Layer/Interrupt/mcal_external_interrupt.c"
  5126 ;; Parameters:    Size  Location     Type
  5127 ;;		None
  5128 ;; Auto vars:     Size  Location     Type
  5129 ;;		None
  5130 ;; Return value:  Size  Location     Type
  5131 ;;                  1    wreg      void 
  5132 ;; Registers used:
  5133 ;;		None
  5134 ;; Tracked objects:
  5135 ;;		On entry : 0/0
  5136 ;;		On exit  : 0/0
  5137 ;;		Unchanged: 0/0
  5138 ;; Data sizes:     COMRAM   BANK0   BANK1   BANK2   BANK3   BANK4   BANK5   BANK6   BANK7   BANK8   BANK9  BANK10  BANK1
      +1  BANK12  BANK13  BANK14  BANK15
  5139 ;;      Params:         0       0       0       0       0       0       0       0       0       0       0       0       
      +0       0       0       0       0
  5140 ;;      Locals:         0       0       0       0       0       0       0       0       0       0       0       0       
      +0       0       0       0       0
  5141 ;;      Temps:          0       0       0       0       0       0       0       0       0       0       0       0       
      +0       0       0       0       0
  5142 ;;      Totals:         0       0       0       0       0       0       0       0       0       0       0       0       
      +0       0       0       0       0
  5143 ;;Total ram usage:        0 bytes
  5144 ;; Hardware stack levels used: 1
  5145 ;; This function calls:
  5146 ;;		Nothing
  5147 ;; This function is called by:
  5148 ;;		_InterruptManagerHigh
  5149 ;; This function uses a non-reentrant model
  5150 ;;
  5151                           
  5152                           	psect	text42
  5153   0021A4                     __ptext42:
  5154                           	callstack 0
  5155   0021A4                     i2_INT2_ISR:
  5156                           	callstack 16
  5157   0021A4                     
  5158                           ;MCAL_Layer/Interrupt/mcal_external_interrupt.c: 150:     ((*((volatile INTCON3_t *)(0xF
      +                          F0))).INT2IF=0);
  5159   0021A4  92F0               	bcf	240,1,c	;volatile
  5160   0021A6  0012               	return		;funcret
  5161   0021A8                     __end_ofi2_INT2_ISR:
  5162                           	callstack 0
  5163                           
  5164 ;; *************** function i2_INT1_ISR *****************
  5165 ;; Defined at:
  5166 ;;		line 140 in file "MCAL_Layer/Interrupt/mcal_external_interrupt.c"
  5167 ;; Parameters:    Size  Location     Type
  5168 ;;		None
  5169 ;; Auto vars:     Size  Location     Type
  5170 ;;		None
  5171 ;; Return value:  Size  Location     Type
  5172 ;;                  1    wreg      void 
  5173 ;; Registers used:
  5174 ;;		None
  5175 ;; Tracked objects:
  5176 ;;		On entry : 0/0
  5177 ;;		On exit  : 0/0
  5178 ;;		Unchanged: 0/0
  5179 ;; Data sizes:     COMRAM   BANK0   BANK1   BANK2   BANK3   BANK4   BANK5   BANK6   BANK7   BANK8   BANK9  BANK10  BANK1
      +1  BANK12  BANK13  BANK14  BANK15
  5180 ;;      Params:         0       0       0       0       0       0       0       0       0       0       0       0       
      +0       0       0       0       0
  5181 ;;      Locals:         0       0       0       0       0       0       0       0       0       0       0       0       
      +0       0       0       0       0
  5182 ;;      Temps:          0       0       0       0       0       0       0       0       0       0       0       0       
      +0       0       0       0       0
  5183 ;;      Totals:         0       0       0       0       0       0       0       0       0       0       0       0       
      +0       0       0       0       0
  5184 ;;Total ram usage:        0 bytes
  5185 ;; Hardware stack levels used: 1
  5186 ;; This function calls:
  5187 ;;		Nothing
  5188 ;; This function is called by:
  5189 ;;		_InterruptManagerHigh
  5190 ;; This function uses a non-reentrant model
  5191 ;;
  5192                           
  5193                           	psect	text43
  5194   0021A8                     __ptext43:
  5195                           	callstack 0
  5196   0021A8                     i2_INT1_ISR:
  5197                           	callstack 16
  5198   0021A8                     
  5199                           ;MCAL_Layer/Interrupt/mcal_external_interrupt.c: 142:     ((*((volatile INTCON3_t *)(0xF
      +                          F0))).INT1IF=0);
  5200   0021A8  90F0               	bcf	240,0,c	;volatile
  5201   0021AA  0012               	return		;funcret
  5202   0021AC                     __end_ofi2_INT1_ISR:
  5203                           	callstack 0
  5204                           
  5205 ;; *************** function i2_ADC_ISR *****************
  5206 ;; Defined at:
  5207 ;;		line 3 in file "MCAL_Layer/Interrupt/mcal_internal_interrupt.c"
  5208 ;; Parameters:    Size  Location     Type
  5209 ;;		None
  5210 ;; Auto vars:     Size  Location     Type
  5211 ;;		None
  5212 ;; Return value:  Size  Location     Type
  5213 ;;                  1    wreg      void 
  5214 ;; Registers used:
  5215 ;;		None
  5216 ;; Tracked objects:
  5217 ;;		On entry : 0/0
  5218 ;;		On exit  : 0/0
  5219 ;;		Unchanged: 0/0
  5220 ;; Data sizes:     COMRAM   BANK0   BANK1   BANK2   BANK3   BANK4   BANK5   BANK6   BANK7   BANK8   BANK9  BANK10  BANK1
      +1  BANK12  BANK13  BANK14  BANK15
  5221 ;;      Params:         0       0       0       0       0       0       0       0       0       0       0       0       
      +0       0       0       0       0
  5222 ;;      Locals:         0       0       0       0       0       0       0       0       0       0       0       0       
      +0       0       0       0       0
  5223 ;;      Temps:          0       0       0       0       0       0       0       0       0       0       0       0       
      +0       0       0       0       0
  5224 ;;      Totals:         0       0       0       0       0       0       0       0       0       0       0       0       
      +0       0       0       0       0
  5225 ;;Total ram usage:        0 bytes
  5226 ;; Hardware stack levels used: 1
  5227 ;; This function calls:
  5228 ;;		Nothing
  5229 ;; This function is called by:
  5230 ;;		_InterruptManagerHigh
  5231 ;; This function uses a non-reentrant model
  5232 ;;
  5233                           
  5234                           	psect	text44
  5235   0021AC                     __ptext44:
  5236                           	callstack 0
  5237   0021AC                     i2_ADC_ISR:
  5238                           	callstack 16
  5239   0021AC                     
  5240                           ;MCAL_Layer/Interrupt/mcal_internal_interrupt.c: 5:        ((*((volatile PIR1_t *)(0xF9E
      +                          ))).ADIF=0);
  5241   0021AC  9C9E               	bcf	158,6,c	;volatile
  5242   0021AE  0012               	return		;funcret
  5243   0021B0                     __end_ofi2_ADC_ISR:
  5244                           	callstack 0
  5245                           
  5246 ;; *************** function _INT0_ISR *****************
  5247 ;; Defined at:
  5248 ;;		line 132 in file "MCAL_Layer/Interrupt/mcal_external_interrupt.c"
  5249 ;; Parameters:    Size  Location     Type
  5250 ;;		None
  5251 ;; Auto vars:     Size  Location     Type
  5252 ;;		None
  5253 ;; Return value:  Size  Location     Type
  5254 ;;                  1    wreg      void 
  5255 ;; Registers used:
  5256 ;;		None
  5257 ;; Tracked objects:
  5258 ;;		On entry : 0/0
  5259 ;;		On exit  : 0/0
  5260 ;;		Unchanged: 0/0
  5261 ;; Data sizes:     COMRAM   BANK0   BANK1   BANK2   BANK3   BANK4   BANK5   BANK6   BANK7   BANK8   BANK9  BANK10  BANK1
      +1  BANK12  BANK13  BANK14  BANK15
  5262 ;;      Params:         0       0       0       0       0       0       0       0       0       0       0       0       
      +0       0       0       0       0
  5263 ;;      Locals:         0       0       0       0       0       0       0       0       0       0       0       0       
      +0       0       0       0       0
  5264 ;;      Temps:          0       0       0       0       0       0       0       0       0       0       0       0       
      +0       0       0       0       0
  5265 ;;      Totals:         0       0       0       0       0       0       0       0       0       0       0       0       
      +0       0       0       0       0
  5266 ;;Total ram usage:        0 bytes
  5267 ;; Hardware stack levels used: 1
  5268 ;; This function calls:
  5269 ;;		Nothing
  5270 ;; This function is called by:
  5271 ;;		_InterruptManagerHigh
  5272 ;; This function uses a non-reentrant model
  5273 ;;
  5274                           
  5275                           	psect	text45
  5276   0021B0                     __ptext45:
  5277                           	callstack 0
  5278   0021B0                     _INT0_ISR:
  5279                           	callstack 16
  5280   0021B0                     
  5281                           ;MCAL_Layer/Interrupt/mcal_external_interrupt.c: 134:     ((*((volatile INTCON_t *)(0xFF
      +                          2))).INT0IF=0);
  5282   0021B0  92F2               	bcf	242,1,c	;volatile
  5283   0021B2  0012               	return		;funcret
  5284   0021B4                     __end_of_INT0_ISR:
  5285                           	callstack 0
  5286                           
  5287                           	psect	text46
  5288   000000                     __ptext46:
  5289                           	callstack 0
  5290   000000                     
  5291                           	psect	rparam
  5292   000000                     
  5293                           	psect	temp
  5294   00005F                     btemp:
  5295                           	callstack 0
  5296   00005F                     	ds	1
  5297   000000                     int$flags	set	btemp
  5298   000000                     wtemp8	set	btemp+1
  5299   000000                     ttemp5	set	btemp+1
  5300   000000                     ttemp6	set	btemp+4
  5301   000000                     ttemp7	set	btemp+8
  5302                           
  5303                           	psect	config
  5304                           
  5305                           ; Padding undefined space
  5306   300000                     	org	3145728
  5307   300000  FF                 	db	255
  5308                           
  5309                           ;Config register CONFIG1H @ 0x300001
  5310                           ;	Oscillator Selection bits
  5311                           ;	OSC = HS, HS oscillator
  5312                           ;	Fail-Safe Clock Monitor Enable bit
  5313                           ;	FCMEN = OFF, Fail-Safe Clock Monitor disabled
  5314                           ;	Internal/External Oscillator Switchover bit
  5315                           ;	IESO = OFF, Oscillator Switchover mode disabled
  5316   300001                     	org	3145729
  5317   300001  02                 	db	2
  5318                           
  5319                           ;Config register CONFIG2L @ 0x300002
  5320                           ;	Power-up Timer Enable bit
  5321                           ;	PWRT = OFF, PWRT disabled
  5322                           ;	Brown-out Reset Enable bits
  5323                           ;	BOREN = OFF, Brown-out Reset disabled in hardware and software
  5324                           ;	Brown Out Reset Voltage bits
  5325                           ;	BORV = 1, 
  5326   300002                     	org	3145730
  5327   300002  09                 	db	9
  5328                           
  5329                           ;Config register CONFIG2H @ 0x300003
  5330                           ;	Watchdog Timer Enable bit
  5331                           ;	WDT = OFF, WDT disabled (control is placed on the SWDTEN bit)
  5332                           ;	Watchdog Timer Postscale Select bits
  5333                           ;	WDTPS = 32768, 1:32768
  5334   300003                     	org	3145731
  5335   300003  1E                 	db	30
  5336                           
  5337                           ; Padding undefined space
  5338   300004                     	org	3145732
  5339   300004  FF                 	db	255
  5340                           
  5341                           ;Config register CONFIG3H @ 0x300005
  5342                           ;	CCP2 MUX bit
  5343                           ;	CCP2MX = PORTC, CCP2 input/output is multiplexed with RC1
  5344                           ;	PORTB A/D Enable bit
  5345                           ;	PBADEN = OFF, PORTB<4:0> pins are configured as digital I/O on Reset
  5346                           ;	Low-Power Timer1 Oscillator Enable bit
  5347                           ;	LPT1OSC = OFF, Timer1 configured for higher power operation
  5348                           ;	MCLR Pin Enable bit
  5349                           ;	MCLRE = ON, MCLR pin enabled; RE3 input pin disabled
  5350   300005                     	org	3145733
  5351   300005  81                 	db	129
  5352                           
  5353                           ;Config register CONFIG4L @ 0x300006
  5354                           ;	Stack Full/Underflow Reset Enable bit
  5355                           ;	STVREN = ON, Stack full/underflow will cause Reset
  5356                           ;	Single-Supply ICSP Enable bit
  5357                           ;	LVP = OFF, Single-Supply ICSP disabled
  5358                           ;	Extended Instruction Set Enable bit
  5359                           ;	XINST = OFF, Instruction set extension and Indexed Addressing mode disabled (Legacy mo
      +                          de)
  5360                           ;	Background Debugger Enable bit
  5361                           ;	DEBUG = 0x1, unprogrammed default
  5362   300006                     	org	3145734
  5363   300006  81                 	db	129
  5364                           
  5365                           ; Padding undefined space
  5366   300007                     	org	3145735
  5367   300007  FF                 	db	255
  5368                           
  5369                           ;Config register CONFIG5L @ 0x300008
  5370                           ;	Code Protection bit
  5371                           ;	CP0 = OFF, Block 0 (000800-003FFFh) not code-protected
  5372                           ;	Code Protection bit
  5373                           ;	CP1 = OFF, Block 1 (004000-007FFFh) not code-protected
  5374                           ;	Code Protection bit
  5375                           ;	CP2 = OFF, Block 2 (008000-00BFFFh) not code-protected
  5376                           ;	Code Protection bit
  5377                           ;	CP3 = OFF, Block 3 (00C000-00FFFFh) not code-protected
  5378   300008                     	org	3145736
  5379   300008  0F                 	db	15
  5380                           
  5381                           ;Config register CONFIG5H @ 0x300009
  5382                           ;	Boot Block Code Protection bit
  5383                           ;	CPB = OFF, Boot block (000000-0007FFh) not code-protected
  5384                           ;	Data EEPROM Code Protection bit
  5385                           ;	CPD = OFF, Data EEPROM not code-protected
  5386   300009                     	org	3145737
  5387   300009  C0                 	db	192
  5388                           
  5389                           ;Config register CONFIG6L @ 0x30000A
  5390                           ;	Write Protection bit
  5391                           ;	WRT0 = OFF, Block 0 (000800-003FFFh) not write-protected
  5392                           ;	Write Protection bit
  5393                           ;	WRT1 = OFF, Block 1 (004000-007FFFh) not write-protected
  5394                           ;	Write Protection bit
  5395                           ;	WRT2 = OFF, Block 2 (008000-00BFFFh) not write-protected
  5396                           ;	Write Protection bit
  5397                           ;	WRT3 = OFF, Block 3 (00C000-00FFFFh) not write-protected
  5398   30000A                     	org	3145738
  5399   30000A  0F                 	db	15
  5400                           
  5401                           ;Config register CONFIG6H @ 0x30000B
  5402                           ;	Configuration Register Write Protection bit
  5403                           ;	WRTC = OFF, Configuration registers (300000-3000FFh) not write-protected
  5404                           ;	Boot Block Write Protection bit
  5405                           ;	WRTB = OFF, Boot Block (000000-0007FFh) not write-protected
  5406                           ;	Data EEPROM Write Protection bit
  5407                           ;	WRTD = OFF, Data EEPROM not write-protected
  5408   30000B                     	org	3145739
  5409   30000B  E0                 	db	224
  5410                           
  5411                           ;Config register CONFIG7L @ 0x30000C
  5412                           ;	Table Read Protection bit
  5413                           ;	EBTR0 = OFF, Block 0 (000800-003FFFh) not protected from table reads executed in other
      +                           blocks
  5414                           ;	Table Read Protection bit
  5415                           ;	EBTR1 = OFF, Block 1 (004000-007FFFh) not protected from table reads executed in other
      +                           blocks
  5416                           ;	Table Read Protection bit
  5417                           ;	EBTR2 = OFF, Block 2 (008000-00BFFFh) not protected from table reads executed in other
      +                           blocks
  5418                           ;	Table Read Protection bit
  5419                           ;	EBTR3 = OFF, Block 3 (00C000-00FFFFh) not protected from table reads executed in other
      +                           blocks
  5420   30000C                     	org	3145740
  5421   30000C  0F                 	db	15
  5422                           
  5423                           ;Config register CONFIG7H @ 0x30000D
  5424                           ;	Boot Block Table Read Protection bit
  5425                           ;	EBTRB = OFF, Boot Block (000000-0007FFh) not protected from table reads executed in ot
      +                          her blocks
  5426   30000D                     	org	3145741
  5427   30000D  40                 	db	64
  5428                           tosu	equ	0xFFF
  5429                           tosh	equ	0xFFE
  5430                           tosl	equ	0xFFD
  5431                           stkptr	equ	0xFFC
  5432                           pclatu	equ	0xFFB
  5433                           pclath	equ	0xFFA
  5434                           pcl	equ	0xFF9
  5435                           tblptru	equ	0xFF8
  5436                           tblptrh	equ	0xFF7
  5437                           tblptrl	equ	0xFF6
  5438                           tablat	equ	0xFF5
  5439                           prodh	equ	0xFF4
  5440                           prodl	equ	0xFF3
  5441                           indf0	equ	0xFEF
  5442                           postinc0	equ	0xFEE
  5443                           postdec0	equ	0xFED
  5444                           preinc0	equ	0xFEC
  5445                           plusw0	equ	0xFEB
  5446                           fsr0h	equ	0xFEA
  5447                           fsr0l	equ	0xFE9
  5448                           wreg	equ	0xFE8
  5449                           indf1	equ	0xFE7
  5450                           postinc1	equ	0xFE6
  5451                           postdec1	equ	0xFE5
  5452                           preinc1	equ	0xFE4
  5453                           plusw1	equ	0xFE3
  5454                           fsr1h	equ	0xFE2
  5455                           fsr1l	equ	0xFE1
  5456                           bsr	equ	0xFE0
  5457                           indf2	equ	0xFDF
  5458                           postinc2	equ	0xFDE
  5459                           postdec2	equ	0xFDD
  5460                           preinc2	equ	0xFDC
  5461                           plusw2	equ	0xFDB
  5462                           fsr2h	equ	0xFDA
  5463                           fsr2l	equ	0xFD9
  5464                           status	equ	0xFD8

Data Sizes:
    Strings     5
    Constant    16
    Data        47
    BSS         55
    Persistent  0
    Stack       0

Auto Spaces:
    Space          Size  Autos    Used
    COMRAM          126     38      94
    BANK0           128     52      98
    BANK1           256      2       2
    BANK2           256      0       0
    BANK3           256      0       0
    BANK4           256      0       0
    BANK5           256      0       0
    BANK6           256      0       0
    BANK7           256      0       0
    BANK8           256      0       0
    BANK9           256      0       0
    BANK10          256      0       0
    BANK11          256      0       0
    BANK12          256      0       0
    BANK13          256      0       0
    BANK14          256      0       0
    BANK15          128      0       0

Pointer List with Targets:

    vfprintf$2	PTR PTR void  size(2) Largest target is 2
		 -> sprintf@ap(COMRAM[2]), 

    vfprintf$1	PTR const unsigned char  size(2) Largest target is 3
		 -> STR_3(CODE[3]), STR_2(CODE[3]), STR_1(CODE[3]), 

    vfprintf$0	PTR struct _IO_FILE size(2) Largest target is 12
		 -> sprintf@f(COMRAM[12]), 

    S2276$source	PTR const unsigned char  size(2) Largest target is 0

    f...source	PTR const unsigned char  size(2) Largest target is 0

    S2276$buffer	PTR unsigned char  size(2) Largest target is 0

    f...buffer	PTR unsigned char  size(2) Largest target is 0

    Timer0_Register_Size_Config@_timer.TMR0_InterruptHandler	PTR FTN()void  size(2) Largest target is 1
		 -> TMR0_ISR_HANDLER(), 

    Timer0_Register_Size_Config@_timer	PTR const struct . size(2) Largest target is 7
		 -> tmr0_timer(BANK0[7]), 

    Timer0_Mode_Select@_timer.TMR0_InterruptHandler	PTR FTN()void  size(2) Largest target is 1
		 -> TMR0_ISR_HANDLER(), 

    Timer0_Mode_Select@_timer	PTR const struct . size(2) Largest target is 7
		 -> tmr0_timer(BANK0[7]), 

    Timer0_Prescaler_Config@_timer.TMR0_InterruptHandler	PTR FTN()void  size(2) Largest target is 1
		 -> TMR0_ISR_HANDLER(), 

    Timer0_Prescaler_Config@_timer	PTR const struct . size(2) Largest target is 7
		 -> tmr0_timer(BANK0[7]), 

    Timer0_Read_Value@_value	PTR unsigned int  size(2) Largest target is 2
		 -> tmr0_Read(BANK0[2]), 

    Timer0_Read_Value@_timer	PTR const struct . size(2) Largest target is 7
		 -> tmr0_timer(BANK0[7]), 

    Timer0_Init@_timer.TMR0_InterruptHandler	PTR FTN()void  size(2) Largest target is 1
		 -> TMR0_ISR_HANDLER(), 

    TMR0_InterruptHandler	PTR FTN()void  size(2) Largest target is 1
		 -> i2_TMR0_ISR_HANDLER(), TMR0_ISR_HANDLER(), NULL(), 

    Timer0_Init@_timer	PTR const struct . size(2) Largest target is 7
		 -> tmr0_timer(BANK0[7]), 

    S1609$TMR0_InterruptHandler	PTR FTN()void  size(2) Largest target is 1
		 -> TMR0_ISR_HANDLER(), 

    tmr0_timer.TMR0_InterruptHandler	PTR FTN()void  size(2) Largest target is 1
		 -> i2_TMR0_ISR_HANDLER(), TMR0_ISR_HANDLER(), 

    Interrupt_RBx_set_pin_init_value@int_obj.EXT_InterruptHandler	PTR FTN()void  size(2) Largest target is 0

    Interrupt_RBx_SetInterruptHandler@int_obj.EXT_InterruptHandler	PTR FTN()void  size(2) Largest target is 0

    Interrupt_RBx_Pin_Init@int_obj.EXT_InterruptHandler	PTR FTN()void  size(2) Largest target is 0

    Interrupt_RBx_Priority_Init@int_obj.EXT_InterruptHandler	PTR FTN()void  size(2) Largest target is 0

    S1167$EXT_InterruptHandler	PTR FTN()void  size(2) Largest target is 0

    Interrupt_RBx_Enable@int_obj.EXT_InterruptHandler	PTR FTN()void  size(2) Largest target is 0

    Interrupt_INTx_SetInterruptHandler@int_obj.EXT_InterruptHandler	PTR FTN()void  size(2) Largest target is 0

    Interrupt_INTx_Clear_Flag@int_obj.EXT_InterruptHandler	PTR FTN()void  size(2) Largest target is 0

    Interrupt_INTx_Pin_Init@int_obj.EXT_InterruptHandler	PTR FTN()void  size(2) Largest target is 0

    Interrupt_INTx_Edge_Init@int_obj.EXT_InterruptHandler	PTR FTN()void  size(2) Largest target is 0

    Interrupt_INTx_Priority_Init@int_obj.EXT_InterruptHandler	PTR FTN()void  size(2) Largest target is 0

    Interrupt_INTx_Disable@int_obj.EXT_InterruptHandler	PTR FTN()void  size(2) Largest target is 0

    S1125$EXT_InterruptHandler	PTR FTN()void  size(2) Largest target is 0

    Interrupt_INTx_Enable@int_obj.EXT_InterruptHandler	PTR FTN()void  size(2) Largest target is 0

    RB7_InterruptHandler	PTR FTN()void  size(2) Largest target is 1
		 -> NULL(), 

    RB6_InterruptHandler	PTR FTN()void  size(2) Largest target is 1
		 -> NULL(), 

    RB5_InterruptHandler	PTR FTN()void  size(2) Largest target is 1
		 -> NULL(), 

    RB4_InterruptHandler	PTR FTN()void  size(2) Largest target is 1
		 -> NULL(), 

    INT2_InterruptHandler	PTR FTN()void  size(2) Largest target is 1
		 -> NULL(), 

    INT1_InterruptHandler	PTR FTN()void  size(2) Largest target is 1
		 -> NULL(), 

    INT0_InterruptHandler	PTR FTN()void  size(2) Largest target is 1
		 -> NULL(), 

    gpio_pin_write_logic@pin_config	PTR const struct . size(2) Largest target is 6
		 -> lcd1.lcd_data(BANK0[4]), lcd1(BANK0[6]), relay_turn_off@pin_obj(COMRAM[1]), relay_turn_on@pin_obj(COMRAM[1]), 
		 -> relay_initialize@pin_obj(COMRAM[1]), led_turn_off@pin_obj(COMRAM[1]), led_turn_on@pin_obj(COMRAM[1]), led_initialize@pin_obj(COMRAM[1]), 

    gpio_pin_direction_initialize@pin_config	PTR const struct . size(2) Largest target is 6
		 -> lcd1.lcd_data(BANK0[4]), lcd1(BANK0[6]), relay_initialize@pin_obj(COMRAM[1]), led_initialize@pin_obj(COMRAM[1]), 

    gpio_pin_initialize@pin_config	PTR const struct . size(2) Largest target is 6
		 -> lcd1.lcd_data(BANK0[4]), lcd1(BANK0[6]), relay_initialize@pin_obj(COMRAM[1]), led_initialize@pin_obj(COMRAM[1]), 

    port_registers	PTR volatile unsigned char [5] size(2) Largest target is 3967
		 -> RAM(DATA[3967]), 

    lat_registers	PTR volatile unsigned char [5] size(2) Largest target is 3967
		 -> RAM(DATA[3967]), 

    tris_registers	PTR volatile unsigned char [5] size(2) Largest target is 3967
		 -> RAM(DATA[3967]), 

    configure_voltage_reference@_adc.ADC_InterruptHandler	PTR FTN()void  size(2) Largest target is 0

    select_result_format@_adc.ADC_InterruptHandler	PTR FTN()void  size(2) Largest target is 0

    ADC_GetConversionResult@_adc.ADC_InterruptHandler	PTR FTN()void  size(2) Largest target is 0

    ADC_InterruptHandler	PTR FTN()void  size(2) Largest target is 1
		 -> NULL(), 

    S716$ADC_InterruptHandler	PTR FTN()void  size(2) Largest target is 0

    ADC_Init@_adc.ADC_InterruptHandler	PTR FTN()void  size(2) Largest target is 0

    lcd_4bit_send_enable_signal@lcd	PTR const struct . size(2) Largest target is 6
		 -> lcd1(BANK0[6]), 

    lcd_send_4bits@lcd	PTR const struct . size(2) Largest target is 6
		 -> lcd1(BANK0[6]), 

    sp__memset	PTR void  size(2) Largest target is 0

    lcd_4bit_send_string@str	PTR unsigned char  size(2) Largest target is 2
		 -> STR_4(CODE[2]), 

    lcd_4bit_send_string@lcd	PTR const struct . size(2) Largest target is 6
		 -> lcd1(BANK0[6]), 

    lcd_4bit_send_char_data@lcd	PTR const struct . size(2) Largest target is 6
		 -> lcd1(BANK0[6]), 

    lcd_4bit_send_command@lcd	PTR const struct . size(2) Largest target is 6
		 -> lcd1(BANK0[6]), 

    lcd_4bit_initialize@lcd	PTR const struct . size(2) Largest target is 6
		 -> lcd1(BANK0[6]), 


Critical Paths under _main in COMRAM

    None.

Critical Paths under _InterruptManagerLow in COMRAM

    _lcd_4bit_send_char_data->i1_lcd_4bit_send_enable_signal
    i1_lcd_send_4bits->i1_gpio_pin_write_logic
    i1_lcd_4bit_send_enable_signal->i1_gpio_pin_write_logic

Critical Paths under _InterruptManagerHigh in COMRAM

    i2_TMR0_ISR_HANDLER->i2_lcd_4bit_send_string
    i2_lcd_4bit_send_string->i2_lcd_4bit_send_char_data
    i2_lcd_4bit_send_char_data->i2_lcd_send_4bits
    i2_lcd_send_4bits->i2_gpio_pin_write_logic
    i2_lcd_4bit_send_enable_signal->i2_gpio_pin_write_logic

Critical Paths under _main in BANK0

    _ecu_layer_initialize->_lcd_4bit_initialize
    _lcd_4bit_initialize->_lcd_4bit_send_command
    _lcd_4bit_send_command->_lcd_send_4bits
    _lcd_send_4bits->_gpio_pin_write_logic
    _lcd_4bit_send_enable_signal->_gpio_pin_write_logic
    _gpio_pin_initialize->_gpio_pin_write_logic
    _Timer0_Init->_Timer0_Prescaler_Config

Critical Paths under _InterruptManagerLow in BANK0

    _TMR0_ISR_HANDLER->_lcd_4bit_send_string
    _lcd_4bit_send_string->_lcd_4bit_send_char_data
    _lcd_4bit_send_char_data->i1_lcd_send_4bits
    i1_lcd_send_4bits->i1_gpio_pin_write_logic
    i1_lcd_4bit_send_enable_signal->i1_gpio_pin_write_logic

Critical Paths under _InterruptManagerHigh in BANK0

    None.

Critical Paths under _main in BANK1

    _ecu_layer_initialize->_lcd_4bit_initialize

Critical Paths under _InterruptManagerLow in BANK1

    None.

Critical Paths under _InterruptManagerHigh in BANK1

    None.

Critical Paths under _main in BANK2

    None.

Critical Paths under _InterruptManagerLow in BANK2

    None.

Critical Paths under _InterruptManagerHigh in BANK2

    None.

Critical Paths under _main in BANK3

    None.

Critical Paths under _InterruptManagerLow in BANK3

    None.

Critical Paths under _InterruptManagerHigh in BANK3

    None.

Critical Paths under _main in BANK4

    None.

Critical Paths under _InterruptManagerLow in BANK4

    None.

Critical Paths under _InterruptManagerHigh in BANK4

    None.

Critical Paths under _main in BANK5

    None.

Critical Paths under _InterruptManagerLow in BANK5

    None.

Critical Paths under _InterruptManagerHigh in BANK5

    None.

Critical Paths under _main in BANK6

    None.

Critical Paths under _InterruptManagerLow in BANK6

    None.

Critical Paths under _InterruptManagerHigh in BANK6

    None.

Critical Paths under _main in BANK7

    None.

Critical Paths under _InterruptManagerLow in BANK7

    None.

Critical Paths under _InterruptManagerHigh in BANK7

    None.

Critical Paths under _main in BANK8

    None.

Critical Paths under _InterruptManagerLow in BANK8

    None.

Critical Paths under _InterruptManagerHigh in BANK8

    None.

Critical Paths under _main in BANK9

    None.

Critical Paths under _InterruptManagerLow in BANK9

    None.

Critical Paths under _InterruptManagerHigh in BANK9

    None.

Critical Paths under _main in BANK10

    None.

Critical Paths under _InterruptManagerLow in BANK10

    None.

Critical Paths under _InterruptManagerHigh in BANK10

    None.

Critical Paths under _main in BANK11

    None.

Critical Paths under _InterruptManagerLow in BANK11

    None.

Critical Paths under _InterruptManagerHigh in BANK11

    None.

Critical Paths under _main in BANK12

    None.

Critical Paths under _InterruptManagerLow in BANK12

    None.

Critical Paths under _InterruptManagerHigh in BANK12

    None.

Critical Paths under _main in BANK13

    None.

Critical Paths under _InterruptManagerLow in BANK13

    None.

Critical Paths under _InterruptManagerHigh in BANK13

    None.

Critical Paths under _main in BANK14

    None.

Critical Paths under _InterruptManagerLow in BANK14

    None.

Critical Paths under _InterruptManagerHigh in BANK14

    None.

Critical Paths under _main in BANK15

    None.

Critical Paths under _InterruptManagerLow in BANK15

    None.

Critical Paths under _InterruptManagerHigh in BANK15

    None.

Call Graph Tables:

 ---------------------------------------------------------------------------------
 (Depth) Function   	        Calls       Base Space   Used Autos Params    Refs
 ---------------------------------------------------------------------------------
 (0) _main                                                 0     0      0   30721
                  _Timer0_Read_Value
             _application_initialize
 ---------------------------------------------------------------------------------
 (1) _application_initialize                               1     1      0   30447
                        _Timer0_Init
               _ecu_layer_initialize
 ---------------------------------------------------------------------------------
 (2) _ecu_layer_initialize                                 1     1      0   29695
                _lcd_4bit_initialize
 ---------------------------------------------------------------------------------
 (3) _lcd_4bit_initialize                                  6     4      2   29689
                                             48 BANK0      4     2      2
                                              0 BANK1      2     2      0
                _gpio_pin_initialize
              _lcd_4bit_send_command
 ---------------------------------------------------------------------------------
 (4) _lcd_4bit_send_command                                4     1      3   21008
                                             44 BANK0      4     1      3
               _gpio_pin_write_logic
        _lcd_4bit_send_enable_signal
                     _lcd_send_4bits
 ---------------------------------------------------------------------------------
 (5) _lcd_send_4bits                                       4     1      3    6706
                                             40 BANK0      4     1      3
               _gpio_pin_write_logic
 ---------------------------------------------------------------------------------
 (5) _lcd_4bit_send_enable_signal                          3     1      2    6224
                                             40 BANK0      3     1      2
               _gpio_pin_write_logic
 ---------------------------------------------------------------------------------
 (4) _gpio_pin_initialize                                  4     2      2    8115
                                             40 BANK0      4     2      2
      _gpio_pin_direction_initialize
               _gpio_pin_write_logic
 ---------------------------------------------------------------------------------
 (6) _gpio_pin_write_logic                                10     7      3    5798
                                             30 BANK0     10     7      3
 ---------------------------------------------------------------------------------
 (5) _gpio_pin_direction_initialize                        9     7      2     738
                                             30 BANK0      9     7      2
 ---------------------------------------------------------------------------------
 (2) _Timer0_Init                                          5     3      2     746
                                             33 BANK0      5     3      2
                 _Timer0_Mode_Select
            _Timer0_Prescaler_Config
        _Timer0_Register_Size_Config
 ---------------------------------------------------------------------------------
 (3) _Timer0_Register_Size_Config                          2     0      2     120
                                             30 BANK0      2     0      2
 ---------------------------------------------------------------------------------
 (3) _Timer0_Prescaler_Config                              3     1      2     142
                                             30 BANK0      3     1      2
 ---------------------------------------------------------------------------------
 (3) _Timer0_Mode_Select                                   2     0      2     164
                                             30 BANK0      2     0      2
 ---------------------------------------------------------------------------------
 (1) _Timer0_Read_Value                                    9     5      4     274
                                             30 BANK0      8     4      4
 ---------------------------------------------------------------------------------
 Estimated maximum stack depth 6
 ---------------------------------------------------------------------------------
 (Depth) Function   	        Calls       Base Space   Used Autos Params    Refs
 ---------------------------------------------------------------------------------
 (7) _InterruptManagerLow                                 13    13      0    4351
                                             17 BANK0     13    13      0
                            _ADC_ISR
                           _INT1_ISR
                           _INT2_ISR
                            _RB4_ISR
                            _RB5_ISR
                            _RB6_ISR
                            _RB7_ISR
                           _TMR0_ISR
 ---------------------------------------------------------------------------------
 (8) _TMR0_ISR                                             0     0      0    4351
                                NULL *
                   _TMR0_ISR_HANDLER *
 ---------------------------------------------------------------------------------
 (9) _TMR0_ISR_HANDLER                                     0     0      0    4351
               _lcd_4bit_send_string
 ---------------------------------------------------------------------------------
 (10) _lcd_4bit_send_string                                5     1      4    4351
                                             13 BANK0      4     0      4
            _lcd_4bit_send_char_data
 ---------------------------------------------------------------------------------
 (11) _lcd_4bit_send_char_data                             4     1      3    4028
                                              9 BANK0      4     1      3
             i1_gpio_pin_write_logic
      i1_lcd_4bit_send_enable_signal
                   i1_lcd_send_4bits
 ---------------------------------------------------------------------------------
 (12) i1_lcd_send_4bits                                    4     1      3    1246
                                             36 COMRAM     1     1      0
                                              6 BANK0      3     0      3
             i1_gpio_pin_write_logic
 ---------------------------------------------------------------------------------
 (12) i1_lcd_4bit_send_enable_signal                       3     1      2     984
                                             36 COMRAM     2     0      2
                                              6 BANK0      1     1      0
             i1_gpio_pin_write_logic
 ---------------------------------------------------------------------------------
 (13) i1_gpio_pin_write_logic                             10     7      3     778
                                             32 COMRAM     4     1      3
                                              0 BANK0      6     6      0
 ---------------------------------------------------------------------------------
 (16) NULL(Fake)                                           0     0      0       0
 ---------------------------------------------------------------------------------
 (8) _RB7_ISR                                              0     0      0       0
 ---------------------------------------------------------------------------------
 (8) _RB6_ISR                                              0     0      0       0
 ---------------------------------------------------------------------------------
 (8) _RB5_ISR                                              0     0      0       0
 ---------------------------------------------------------------------------------
 (8) _RB4_ISR                                              0     0      0       0
 ---------------------------------------------------------------------------------
 (8) _INT2_ISR                                             0     0      0       0
 ---------------------------------------------------------------------------------
 (8) _INT1_ISR                                             0     0      0       0
 ---------------------------------------------------------------------------------
 (8) _ADC_ISR                                              0     0      0       0
 ---------------------------------------------------------------------------------
 Estimated maximum stack depth 16
 ---------------------------------------------------------------------------------
 (Depth) Function   	        Calls       Base Space   Used Autos Params    Refs
 ---------------------------------------------------------------------------------
 (14) _InterruptManagerHigh                               10    10      0    2576
                                             22 COMRAM    10    10      0
                           _INT0_ISR
                          i2_ADC_ISR
                         i2_INT1_ISR
                         i2_INT2_ISR
                          i2_RB4_ISR
                          i2_RB5_ISR
                          i2_RB6_ISR
                          i2_RB7_ISR
                         i2_TMR0_ISR
 ---------------------------------------------------------------------------------
 (15) i2_TMR0_ISR                                          0     0      0    2576
                                NULL *
                 i2_TMR0_ISR_HANDLER *
 ---------------------------------------------------------------------------------
 (16) i2_TMR0_ISR_HANDLER                                  0     0      0    2576
             i2_lcd_4bit_send_string
 ---------------------------------------------------------------------------------
 (17) i2_lcd_4bit_send_string                              5     1      4    2576
                                             18 COMRAM     4     0      4
          i2_lcd_4bit_send_char_data
 ---------------------------------------------------------------------------------
 (18) i2_lcd_4bit_send_char_data                           4     1      3    2426
                                             14 COMRAM     4     1      3
             i2_gpio_pin_write_logic
      i2_lcd_4bit_send_enable_signal
                   i2_lcd_send_4bits
 ---------------------------------------------------------------------------------
 (19) i2_lcd_send_4bits                                    4     1      3     895
                                             10 COMRAM     4     1      3
             i2_gpio_pin_write_logic
 ---------------------------------------------------------------------------------
 (19) i2_lcd_4bit_send_enable_signal                       3     1      2     709
                                             10 COMRAM     3     1      2
             i2_gpio_pin_write_logic
 ---------------------------------------------------------------------------------
 (20) i2_gpio_pin_write_logic                             10     7      3     565
                                              0 COMRAM    10     7      3
 ---------------------------------------------------------------------------------
 (16) NULL(Fake)                                           0     0      0       0
 ---------------------------------------------------------------------------------
 (15) i2_RB7_ISR                                           0     0      0       0
 ---------------------------------------------------------------------------------
 (15) i2_RB6_ISR                                           0     0      0       0
 ---------------------------------------------------------------------------------
 (15) i2_RB5_ISR                                           0     0      0       0
 ---------------------------------------------------------------------------------
 (15) i2_RB4_ISR                                           0     0      0       0
 ---------------------------------------------------------------------------------
 (15) i2_INT2_ISR                                          0     0      0       0
 ---------------------------------------------------------------------------------
 (15) i2_INT1_ISR                                          0     0      0       0
 ---------------------------------------------------------------------------------
 (15) i2_ADC_ISR                                           0     0      0       0
 ---------------------------------------------------------------------------------
 (15) _INT0_ISR                                            0     0      0       0
 ---------------------------------------------------------------------------------
 Estimated maximum stack depth 20
 ---------------------------------------------------------------------------------

 Call Graph Graphs:

 _main (ROOT)
   _Timer0_Read_Value
   _application_initialize
     _Timer0_Init
       _Timer0_Mode_Select
       _Timer0_Prescaler_Config
       _Timer0_Register_Size_Config
     _ecu_layer_initialize
       _lcd_4bit_initialize
         _gpio_pin_initialize
           _gpio_pin_direction_initialize
           _gpio_pin_write_logic
         _lcd_4bit_send_command
           _gpio_pin_write_logic
           _lcd_4bit_send_enable_signal
             _gpio_pin_write_logic
           _lcd_send_4bits
             _gpio_pin_write_logic

 _InterruptManagerLow (ROOT)
   _ADC_ISR
   _INT1_ISR
   _INT2_ISR
   _RB4_ISR
   _RB5_ISR
   _RB6_ISR
   _RB7_ISR
   _TMR0_ISR
     NULL(Fake) *
     _TMR0_ISR_HANDLER *
       _lcd_4bit_send_string
         _lcd_4bit_send_char_data
           i1_gpio_pin_write_logic
           i1_lcd_4bit_send_enable_signal
             i1_gpio_pin_write_logic
           i1_lcd_send_4bits
             i1_gpio_pin_write_logic

 _InterruptManagerHigh (ROOT)
   _INT0_ISR
   i2_ADC_ISR
   i2_INT1_ISR
   i2_INT2_ISR
   i2_RB4_ISR
   i2_RB5_ISR
   i2_RB6_ISR
   i2_RB7_ISR
   i2_TMR0_ISR
     NULL(Fake) *
     i2_TMR0_ISR_HANDLER *
       i2_lcd_4bit_send_string
         i2_lcd_4bit_send_char_data
           i2_gpio_pin_write_logic
           i2_lcd_4bit_send_enable_signal
             i2_gpio_pin_write_logic
           i2_lcd_send_4bits
             i2_gpio_pin_write_logic

 Address spaces:
Name               Size   Autos  Total    Cost      Usage
BIGRAM             F7F      0       0      40        0.0%
EEDATA             400      0       0       0        0.0%
BITBANK14          100      0       0      32        0.0%
BANK14             100      0       0      33        0.0%
BITBANK13          100      0       0      30        0.0%
BANK13             100      0       0      31        0.0%
BITBANK12          100      0       0      28        0.0%
BANK12             100      0       0      29        0.0%
BITBANK11          100      0       0      26        0.0%
BANK11             100      0       0      27        0.0%
BITBANK10          100      0       0      24        0.0%
BANK10             100      0       0      25        0.0%
BITBANK9           100      0       0      22        0.0%
BANK9              100      0       0      23        0.0%
BITBANK8           100      0       0      20        0.0%
BANK8              100      0       0      21        0.0%
BITBANK7           100      0       0      18        0.0%
BANK7              100      0       0      19        0.0%
BITBANK6           100      0       0      16        0.0%
BANK6              100      0       0      17        0.0%
BITBANK5           100      0       0      14        0.0%
BANK5              100      0       0      15        0.0%
BITBANK4           100      0       0      12        0.0%
BANK4              100      0       0      13        0.0%
BITBANK3           100      0       0      10        0.0%
BANK3              100      0       0      11        0.0%
BITBANK2           100      0       0       8        0.0%
BANK2              100      0       0       9        0.0%
BITBANK1           100      0       0       6        0.0%
BANK1              100      2       2       7        0.8%
BITBANK15           80      0       0      34        0.0%
BANK15              80      0       0      35        0.0%
BITBANK0            80      0       0       4        0.0%
BANK0               80     34      62       5       76.6%
BITCOMRAM           7E      0       0       0        0.0%
COMRAM              7E     26      5E       1       74.6%
BITBIGSFRl          43      0       0      38        0.0%
BITBIGSFRhh         28      0       0      36        0.0%
BITBIGSFRhl         12      0       0      37        0.0%
BIGSFR               0      0       0     200        0.0%
BITSFR               0      0       0     200        0.0%
SFR                  0      0       0     200        0.0%
STACK                0      0       0       2        0.0%
NULL                 0      0       0       0        0.0%
ABS                  0      0      C2      39        0.0%
DATA                 0      0      C2       3        0.0%
CODE                 0      0       0       0        0.0%


Microchip Technology PIC18 Macro Assembler V2.41 build 20230208172133 
Symbol Table                                                                                   Thu Oct 05 17:58:44 2023

                 i1_gpio_pin_write_logic 14B0                          ?_lcd_send_4bits 00A8  
                                     l71 1842                                       l76 1C66  
                                     bsr 0FE0                    ??_InterruptManagerLow 0091  
                                    l193 19C0                                      l514 1A50  
                                    l356 2168                                      l526 135E  
                                    l198 1F22                                      l545 14AE  
                                    l987 2158            gpio_pin_initialize@pin_config 00A8  
                 ??_InterruptManagerHigh 0041                          __end_of_ADC_ISR 2194  
                                    _ret 001F      __end_of_lcd_4bit_send_enable_signal 1F24  
         ?i2_lcd_4bit_send_enable_signal 0035              _lcd_4bit_send_enable_signal 1ECE  
                    led_initialize@F3233 002A                                      prod 0FF3  
                                    tosl 0FFD                                      wreg 0FE8  
                  relay_initialize@F3227 0026              lcd_send_4bits@_data_command 00AA  
                        __end_of_RB4_ISR 2188                          __end_of_RB5_ISR 2184  
                        __end_of_RB6_ISR 2180                          __end_of_RB7_ISR 217C  
                                   l1013 192E                                     l1030 1E18  
                                   l1007 1864                                     l1026 1DEC  
                                   l1042 1E72                                     l1052 1BE8  
                                   l1060 205C                                     l1053 1BE8  
                                   l4111 1E36                                     l4121 1B86  
                                   l4113 1E38                                     l4201 184A  
                                   l4131 1BC8                                     l4123 1B8C  
                                   l4115 1E56                                     l4211 187A  
                                   l4203 185C                                     l4133 1BE2  
                                   l4125 1BA6                                     l4117 1E70  
                                   l4109 1E1A                                     l4141 205A  
                                   l4221 18C2                                     l4213 187C  
                                   l4205 1866                                     l4311 1DE8  
                                   l4127 1BA8                                     l4119 1B6A  
                                   l4135 201E                                     l4223 18E6  
                                   l4215 1898                                     l4207 1876  
                                   l4231 192C                                     l4313 1DF4  
                                   l4305 1DBA                                     l4129 1BC2  
                                   l4137 203A                                     l4225 18FC  
                                   l4217 18A0                                     l4209 1878  
                                   l4307 1DC4                                     l4139 2040  
                                   l4227 191A                                     l4219 18BC  
                                   l4309 1DD6                                     l4229 192A  
                                   l5301 131A                                     l5303 135C  
                                   l5311 1930                                     l5241 13B8  
                                   l5233 1360                                     l5313 1930  
                                   l5243 13C0                                     l5251 14AC  
                                   l5235 1366                                     l5331 1EFE  
                                   l5323 1ECE                                     l5315 1944  
                                   l5411 1764                                     l5245 141E  
                                   l5237 1378                                     l5333 1F06  
                                   l5325 1ECE                                     l5317 194C  
                                   l5421 1798                                     l5413 176E  
                                   l4199 1844                                     l5239 139A  
                                   l5335 1F20                                     l5327 1EE2  
                                   l5319 19BE                                     l5431 17E2  
                                   l5423 17B6                                     l5415 1794  
                                   l5407 174A                                     l5249 1482  
                                   l5329 1EEA                                     l5433 17F4  
                                   l5425 17BA                                     l5441 1840  
                                   l5409 1750                                     l5291 1232  
                                   l5371 19D6                                     l5435 1806  
                                   l5427 17CA                                     l5293 1250  
                                   l5285 11F8                                     l5373 19F8  
                                   l5437 1818                                     l5429 17DC  
                                   l5295 1258                                     l5287 11FE  
                                   l5375 1A16                                     l5367 19C2  
                                   l5391 1C64                                     l5383 1BEA  
                                   l5439 182A                                     l5297 12BC  
                                   l5289 1210                                     l6281 1496  
                                   l5377 1A1E                                     l5369 19C2  
                                   l5385 1BEA                                     l6283 1346  
                                   l5379 1A4E                                     l5387 1BFE  
                                   l5563 2146                                     l5389 1C06  
                                   l5565 2146                                     l6197 20CA  
                                   l5567 214A                                     l6199 20CE  
                                   l5497 215A                                     l5499 215A  
                                   STR_1 1011                                     STR_4 1014  
                                   u3000 1BA6                                     u3001 1BA2  
                                   u3010 1BC2                                     u3011 1BBE  
                                   u3020 1BE2                                     u3021 1BDE  
                                   u3030 203A                                     u3110 185C  
                                   u3031 2036                                     u3111 1858  
                                   u3040 205A                                     u3120 1898  
                                   u3041 2056                                     u3121 1894  
                                   u3210 1DD6                                     u3130 18BC  
                                   u3211 1DD2                                     u3131 18B8  
                                   u3220 1DE8                                     u3221 1DE4  
                                   u4430 1378                                     u4431 1374  
                                   u4440 139A                                     u4600 1944  
                                   u4441 1396                                     u4601 1940  
                                   u4530 1210                                     u4450 13B8  
                                   u4610 1EE2                                     u4531 120C  
                                   u4451 13B4                                     u4611 1EDE  
                                   u4540 1232                                     u4700 17CA  
                                   u4541 122E                                     u4701 17C6  
                                   u4550 1250                                     u4551 124C  
                                   u4464 13E0                                     u4640 19D6  
                                   u4465 13DC                                     u4641 19D2  
                                   u2970 1E36                                     u4474 143E  
                                   u4650 19F8                                     u2971 1E32  
                                   u4475 143A                                     u4651 19F4  
                                   u2980 1E70                                     u4580 1332  
                                   u4564 1278                                     u4660 1A16  
                                   u2981 1E6C                                     u4581 132C  
                                   u4565 1274                                     u4661 1A12  
                                   u2990 1B86                                     u4590 1334  
                                   u4574 12DC                                     u4670 1BFE  
                                   u2991 1B82                                     u4575 12D8  
                                   u4671 1BFA                                     i1l81 1CE4  
                                   u4690 1764                                     u4691 1760  
                                   i1l94 1ECC                                     i2l81 1D56  
                                   u5757 17DE                                     i2l94 1F78  
                                   u5767 1F00                     _lcd_4bit_send_string 1E74  
          ??_lcd_4bit_send_enable_signal 00AA                                     _lcd1 00CF  
                                   _main 20CA                              ?i2_INT1_ISR 002B  
                            ?i2_INT2_ISR 002B                                     fsr2h 0FDA  
                                   indf2 0FDF                                     fsr1l 0FE1  
                                   fsr2l 0FD9                                     btemp 005F  
                                   prodh 0FF4                                     prodl 0FF3  
                                   start 01F0                     _RB7_InterruptHandler 000F  
                Timer0_Read_Value@_value 00A0                  Timer0_Read_Value@_timer 009E  
                           ___param_bank 0000                    _lcd_4bit_send_command 1BEA  
                            ?i2_TMR0_ISR 002B                     _gpio_pin_write_logic 1360  
                       __end_of_INT0_ISR 21B4                         __end_of_INT1_ISR 2190  
                       __end_of_INT2_ISR 218C                                    ?_main 002B  
               ??_application_initialize 00B4                                    i1l193 1AE0  
                                  i1l701 217A                                    i1l198 1FCC  
                                  i1l545 15FE                                    i2l193 1B68  
                                  i1l681 218E                                    i1l595 2192  
                                  i2l701 2196                                    i1l685 218A  
                                  i1l693 2182                                    i1l941 006E  
                                  i2l198 201C                                    i1l951 0178  
                                  i1l943 008E                                    i2l545 1748  
                                  i1l689 2186                                    i1l697 217E  
                                  i1l953 0198                                    i1l945 00C8  
                                  i1l947 0104                                    i1l956 01B8  
                                  i1l949 0140                                    i2l920 1082  
                                  i1l992 210C                                    i2l681 21AA  
                                  i2l930 118C                                    i2l922 10A2  
                                  i2l595 21AE                                    i2l932 11AC  
                                  i2l924 10DC                                    i2l677 21B2  
                                  i2l685 21A6                                    i2l693 219E  
                                  i2l926 1118                                    i2l918 1062  
                                  i2l935 11CC                                    i2l928 1154  
                                  i2l689 21A2                                    i2l697 219A  
                                  i2l992 2144                      relay_turn_off@F3237 0024  
                                  _TMR0H 0FD7                        Timer0_Init@_timer 00A1  
                       __end_of_TMR0_ISR 2094                    ?_lcd_4bit_send_string 008D  
                                  pclath 0FFA                                    pclatu 0FFB  
                                  tablat 0FF5                                    ttemp5 0060  
                                  ttemp6 0063                                    ttemp7 0067  
                                  status 0FD8                                    wtemp8 0060  
                _Timer0_Prescaler_Config 1E1A           ?_gpio_pin_direction_initialize 009E  
                        __initialization 1D58                             __end_of_main 20EC  
              i2gpio_pin_write_logic@ret 0034                    ?_gpio_pin_write_logic 009E  
               Timer0_Read_Value@l_tmr0h 00A5                 Timer0_Read_Value@l_tmr0l 00A4  
                    i2lcd_send_4bits@lcd 0035                      i2lcd_send_4bits@ret 0038  
            i2gpio_pin_write_logic@logic 002D                                ??_ADC_ISR 004B  
                          _lat_registers 00B4                                   ??_main 00B4  
                          __activetblptr 0003                         led_turn_on@F3238 0029  
                              ??_RB4_ISR 004B                                ??_RB5_ISR 004B  
                              ??_RB6_ISR 004B                                ??_RB7_ISR 004B  
                     _RB4_pin_init_value 0023                        __end_ofi2_ADC_ISR 21B0  
                                 _ADRESH 0FC4                                   _ADRESL 0FC3  
                       i1_lcd_send_4bits 1A52                                   i1l1035 2092  
                                 i1l2303 217C                                   i1l2307 2178  
                                 i1l2291 2188                                   i1l2277 2190  
                                 i1l2287 218C                                   i1l2295 2184  
                                 i2l1035 20C8                                   i1l2299 2180  
                                 i1l5401 1C84                                   i1l5403 1CE2  
                                 i1l5261 14B4                                   i1l5341 1A52  
                                 i1l5501 20F6                                   i1l5271 156E  
                                 i1l5263 14C6                                   i1l5351 1F7A  
                                 i1l5343 1A66                                   i1l6151 006A  
                                 i2l2401 2194                                   i2l4001 2004  
                                 i1l5265 14EA                                   i1l5361 1FB2  
                                 i1l5353 1F7A                                   i1l5345 1A6E  
                                 i1l6161 00C0                                   i1l6153 007C  
                                 i2l4003 201A                                   i1l5275 15D2  
                                 i1l5267 1508                                   i1l5259 14B0  
                                 i1l5363 1FCA                                   i1l5355 1F8C  
                                 i1l5347 1ADE                                   i1l5339 1A52  
                                 i1l5451 1E8C                                   i1l6171 0100  
                                 i1l6163 00C4                                   i1l6155 008A  
                                 i1l6147 004E                                   i1l5269 1510  
                                 i1l5277 15FC                                   i1l5357 1F96  
                                 i1l5453 1EA8                                   i1l5445 1E74  
                                 i1l6181 014E                                   i1l6173 0112  
                                 i1l6165 00D6                                   i1l6157 009C  
                                 i1l6149 005C                                   i1l5359 1FAA  
                                 i1l5455 1EAE                                   i1l5447 1E74  
                                 i1l6191 0194                                   i1l6183 015C  
                                 i1l6175 0120                                   i1l6167 00E4  
                                 i1l6159 00AA                                   i1l5449 1E88  
                                 i1l5561 207A                                   i1l5553 205E  
                                 i1l6193 01A6                                   i1l6185 0170  
                                 i1l6177 0138                                   i1l6169 00FC  
                                 i2l2283 21B0                                   i2l4051 1CF8  
                                 i1l5395 1C68                                   i1l5555 2062  
                                 i1l6195 01B4                                   i1l6187 0174  
                                 i1l6179 013C                                   i2l2381 21A8  
                                 i2l4053 1D00                                   i1l6285 15E6  
                                 i1l5397 1C68                                   i1l5557 2066  
                                 i1l6189 0186                                   i2l2375 21AC  
                                 i2l4055 1D54                                   i2l4047 1CE6  
                                 i2l4151 1F56                                   i2l4143 1F24  
                                 i1l5399 1C7C                                   i1l5559 2068  
                      __end_ofi2_RB4_ISR 21A4                                   i2l2385 21A4  
                                 i2l2393 219C                                   i2l4049 1CE6  
                                 i2l4153 1F5A                                   i2l4145 1F24  
                                 i2l4147 1F36                                   i2l2389 21A0  
                                 i2l2397 2198                                   i2l4149 1F3A  
                                 i2l4237 2130                                   i2l6101 107E  
                                 i2l6111 10D4                                   i2l6103 1090  
                                 i2l6121 1114                                   i2l6113 10D8  
                                 i2l6105 109E                                   i2l6131 1162  
                                 i2l6123 1126                                   i2l6115 10EA  
                                 i2l6107 10B0                                   i2l6141 11A8  
                                 i2l6133 1170                                   i2l6125 1134  
                                 i2l6117 10F8                                   i2l6109 10BE  
                                 i2l6143 11BA                                   i2l6135 1184  
                                 i2l6127 114C                                   i2l6119 1110  
                      __end_ofi2_RB5_ISR 21A0                                   i2l6145 11C8  
                                 i2l6137 1188                                   i2l6129 1150  
                                 i2l6139 119A                                   i2l6093 1042  
                                 i2l3871 1600                                   i2l6095 1050  
                                 i2l3881 165E                                   i2l3873 1604  
                                 i2l6097 105E                                   i2l3883 16BA  
                                 i2l3875 1616                                   i2l3971 1B66  
                                 i2l3963 1AE2                                   i2l5571 2098  
                                 i2l6099 1070                                   i2l3877 1638  
                                 i2l3965 1AE2                                   i2l5573 209C  
                                 i2l6287 1730                                   i2l3887 171C  
                                 i2l3879 1656                                   i2l3991 1FCE  
                                 i2l3967 1AF4                                   i2l5575 209E  
                      __end_ofi2_RB6_ISR 219C                                   i2l3889 1746  
                                 i2l3993 1FCE                                   i2l3969 1AFC  
                                 i2l5577 20B0                                   i2l5569 2094  
                                 i2l3995 1FE0                                   i2l3997 1FE8  
                                 i2l3999 1FFC                        __end_ofi2_RB7_ISR 2198  
                          ??_Timer0_Init 00A3                   ?_lcd_4bit_send_command 00AC  
           ?_Timer0_Register_Size_Config 009E        Timer0_Register_Size_Config@_timer 009E  
                                 clear_0 1D9E                                   clear_1 1DAA  
                                 isa$std 0001                        ?i2_lcd_send_4bits 0035  
                           __pdataCOMRAM 0051                             __mediumconst 0000  
                     ??i2_lcd_send_4bits 0038                                   tblptrh 0FF7  
                                 tblptrl 0FF6                                   tblptru 0FF8  
                 ??_lcd_4bit_send_string 0051                ??_Timer0_Prescaler_Config 00A0  
                     _RB6_pin_init_value 0021                               __accesstop 0080  
                __end_of__initialization 1DB0                                ?_INT0_ISR 002B  
                              ?_INT1_ISR 002B                                ?_INT2_ISR 002B  
                          ___rparam_used 0001                  ?i1_gpio_pin_write_logic 004B  
                       ??_lcd_send_4bits 00AB               ?i2_lcd_4bit_send_char_data 0039  
                _lcd_4bit_send_char_data 1C68                   ??_gpio_pin_write_logic 00A1  
                         __pcstackCOMRAM 002B          ??i1_lcd_4bit_send_enable_signal 0051  
                           __pidataBANK0 210E                                ?_TMR0_ISR 002B  
          ??_Timer0_Register_Size_Config 00A0                      __end_of_Timer0_Init 1930  
               lcd_4bit_send_command@lcd 00AC                 lcd_4bit_send_command@ret 00AF  
                             _dc_motor_1 005D                               _dc_motor_2 005B  
                lcd_4bit_send_string@lcd 008D                  lcd_4bit_send_string@str 008F  
                             __pbssBANK0 00D5                             ??i2_INT1_ISR 002B  
                  _INT0_InterruptHandler 001B                               ??_INT0_ISR 002B  
                           ??i2_INT2_ISR 002B                               ??_INT1_ISR 004B  
                             ??_INT2_ISR 004B                   _application_initialize 2146  
         __end_ofi1_gpio_pin_write_logic 1600              __end_of_InterruptManagerLow 01F0  
      __end_ofi2_lcd_4bit_send_char_data 1D58                             ??i2_TMR0_ISR 0041  
                             ??_TMR0_ISR 0051                        led_turn_off@F3243 0028  
                                _ADC_ISR 2190                          led_toggle@F3248 0027  
                                _RB4_ISR 2184                                  _RB5_ISR 2180  
                                _RB6_ISR 217C                                  _RB7_ISR 2178  
                     __end_ofi2_INT1_ISR 21AC                       __end_ofi2_INT2_ISR 21A8  
                             _btn_values 1001                       __end_ofi2_TMR0_ISR 20CA  
                         _tris_registers 00BE                ??_lcd_4bit_send_char_data 0051  
 lcd_4bit_initialize@l_data_pins_counter 0100                     _ADC_InterruptHandler 001D  
                                __Hparam 0000                              _Timer0_Init 1844  
                                __Lparam 0000                        _Timer0_Read_Value 1DBA  
                    _gpio_pin_initialize 19C2                 ??i2_lcd_4bit_send_string 0041  
                     ?_Timer0_Read_Value 009E                             __psmallconst 1000  
               __end_ofi1_lcd_send_4bits 1AE2                                  __pcinit 1D58  
                                __ramtop 1000    __end_ofi1_lcd_4bit_send_enable_signal 1FCE  
          i1_lcd_4bit_send_enable_signal 1F7A                                  __ptext0 20CA  
                                __ptext1 2146                                  __ptext2 215A  
                                __ptext3 174A                                  __ptext4 1BEA  
                                __ptext5 1930                                  __ptext6 1ECE  
                                __ptext7 19C2                                  __ptext8 1360  
                                __ptext9 11F8             i2lcd_4bit_send_char_data@lcd 0039  
           i2lcd_4bit_send_char_data@ret 003C            i1lcd_send_4bits@_data_command 0088  
        ??_gpio_pin_direction_initialize 00A0                      ??_Timer0_Read_Value 00A2  
                   ?_gpio_pin_initialize 00A8                 ??i2_gpio_pin_write_logic 002E  
                         __pintcode_body 1018                     end_of_initialization 1DB0  
                      lcd_send_4bits@lcd 00A8                        lcd_send_4bits@ret 00AB  
                              i2_ADC_ISR 21AC                               _tmr0_timer 00C8  
                                int_func 1018                  ??_lcd_4bit_send_command 00AF  
                              i2_RB4_ISR 21A0                                i2_RB5_ISR 219C  
                              i2_RB6_ISR 2198                                i2_RB7_ISR 2194  
              __end_of_Timer0_Read_Value 1E1A                                  postdec1 0FE5  
                                postdec2 0FDD                                  postinc0 0FEE  
                                postinc2 0FDE                      _lcd_4bit_initialize 174A  
                       _TMR0_ISR_HANDLER 20EC          __end_of_lcd_4bit_send_char_data 1CE6  
                  _INT1_InterruptHandler 0019               lcd_4bit_send_char_data@lcd 0089  
             lcd_4bit_send_char_data@ret 008C                    ??_gpio_pin_initialize 00AA  
          Timer0_Prescaler_Config@_timer 009E                               ?i2_ADC_ISR 002B  
                   ?_lcd_4bit_initialize 00B0               __end_of_Timer0_Mode_Select 1BEA  
                             ?i2_RB4_ISR 002B                               ?i2_RB5_ISR 002B  
                             ?i2_RB6_ISR 002B                               ?i2_RB7_ISR 002B  
            ??i2_lcd_4bit_send_char_data 003C                       relay_turn_on@F3232 0025  
             __end_ofi2_TMR0_ISR_HANDLER 2146            convert_uint32_to_string@F3393 00D5  
          convert_uint16_to_string@F3386 0001                            __pidataCOMRAM 216A  
                         _timer0_preload 000B                      start_initialization 1D58  
         ?i1_lcd_4bit_send_enable_signal 004F             ?_lcd_4bit_send_enable_signal 00A8  
                   _RB4_InterruptHandler 0015    __end_of_gpio_pin_direction_initialize 1360  
          _gpio_pin_direction_initialize 11F8                  ?_application_initialize 002B  
                  ??_lcd_4bit_initialize 00B2                              __pdataBANK0 00B4  
           convert_uint8_to_string@F3379 0007                                 ?_ADC_ISR 002B  
           __end_of_ecu_layer_initialize 216A             lcd_4bit_send_command@command 00AE  
       i1lcd_4bit_send_enable_signal@lcd 004F         i1lcd_4bit_send_enable_signal@ret 0086  
                               ?_RB4_ISR 002B                                 ?_RB5_ISR 002B  
                               ?_RB6_ISR 002B                                 ?_RB7_ISR 002B  
                            __pbssCOMRAM 0001                i2_lcd_4bit_send_char_data 1CE6  
                          __pcstackBANK0 0080                            __pcstackBANK1 0100  
         __end_of_application_initialize 215A                 ?_Timer0_Prescaler_Config 009E  
                 i2_lcd_4bit_send_string 1F24                              ??i2_ADC_ISR 002B  
             _TMR0_ISR_HANDLER$intlevel1 20F6                    _INT2_InterruptHandler 0017  
       i2gpio_pin_write_logic@pin_config 002B           gpio_pin_write_logic@pin_config 009E  
                  _TMR0_InterruptHandler 000D                              ??i2_RB4_ISR 002B  
                            ??i2_RB5_ISR 002B                              ??i2_RB6_ISR 002B  
                            ??i2_RB7_ISR 002B                             ?_Timer0_Init 00A1  
           __end_of_InterruptManagerHigh 11F8      __end_of_Timer0_Register_Size_Config 205E  
            _Timer0_Register_Size_Config 201E                                __pintcode 0008  
                 i2_gpio_pin_write_logic 1600                i2lcd_4bit_send_string@lcd 003D  
              i2lcd_4bit_send_string@str 003F                              __pintcodelo 0018  
              gpio_pin_write_logic@logic 00A0                        ?i1_lcd_send_4bits 0086  
                  fp_i2_TMR0_ISR_HANDLER 0000                       ??i1_lcd_send_4bits 004F  
                            __smallconst 1000                      fp__TMR0_ISR_HANDLER 0000  
                     _RB5_pin_init_value 0022                 __end_of_TMR0_ISR_HANDLER 210E  
                               _INT0_ISR 21B0                                 _INT1_ISR 218C  
                               _INT2_ISR 2188                         i2_lcd_send_4bits 1AE2  
                              _tmr0_Read 00E0                                 i1u450_20 1508  
                               i1u450_21 1504                                 i1u451_24 1530  
                               i1u451_25 152C                                 i1u452_24 158E  
                               i1u452_25 158A            __end_of_lcd_4bit_send_command 1C68  
                               i1u462_20 1A66                                 i1u462_21 1A62  
                               i1u463_20 1F8C                                 i1u471_20 1E88  
                               i1u463_21 1F88                                 i1u471_21 1E84  
                               i1u448_20 14C6                                 i1u472_20 1ECC  
                               i1u560_20 00AA                                 i1u448_21 14C2  
                               i1u472_21 1EC8                                 i1u560_21 00A6  
                               i1u449_20 14EA                                 i1u561_20 00C0  
                               i1u449_21 14E6                                 i1u561_21 00BC  
                               i2u305_40 1F36                                 i2u305_41 1F32  
                               i1u482_20 207A                                 i1u570_20 0170  
                               i1u562_20 00D6                                 i1u482_21 2076  
                               i1u570_21 016C                                 i1u562_21 00D2  
                               i2u306_40 1F78                                 i2u306_41 1F74  
                               i1u571_20 0186                                 i1u563_20 00E4  
                               i1u555_20 005C                                 i1u571_21 0182  
                               i1u563_21 00E0                                 i1u555_21 0058  
                               i1u468_20 1C7C                                 i1u483_28 2080  
                               i1u572_20 0194                                 i1u564_20 00FC  
                               i1u556_20 006A                                 i1u468_21 1C78  
                               i1u483_29 2092                                 i1u572_21 0190  
                               i1u564_21 00F8                                 i1u556_21 0066  
                               i1u573_20 01A6                                 i1u565_20 0112  
                               i1u557_20 007C                                 i1u573_21 01A2  
                               i1u565_21 010E                                 i1u557_21 0078  
                               i1u574_20 01B4                                 i1u566_20 0120  
                               i1u558_20 008A                                 i1u574_21 01B0  
                               i1u566_21 011C                                 i1u558_21 0086  
                               i2u270_40 1638                                 i2u270_41 1634  
                               i1u567_20 0138                                 i1u559_20 009C  
                               i1u567_21 0134                                 i1u559_21 0098  
                               i2u271_40 1656                                 i2u271_41 1652  
                               i1u568_20 014E                                 i1u568_21 014A  
                               i2u272_44 167E                                 i1u569_20 015C  
                               i2u272_45 167A                                 i1u569_21 0158  
                               i1u577_27 1FAC                                 i2u273_44 16DA  
                               i2u273_45 16D6                                 i2u284_40 1AF4  
                               i2u292_40 1CF8                                 i2u540_40 10BE  
                               i2u284_41 1AF0                                 i2u292_41 1CF4  
                               i2u540_41 10BA                                 i2u269_40 1616  
                               i2u541_40 10D4                                 i2u533_40 1050  
                   _RB5_InterruptHandler 0013                                 i2u269_41 1612  
                               i2u541_41 10D0                                 i2u533_41 104C  
                               i2u286_40 1FE0                                 i2u550_40 1184  
                               i2u542_40 10EA                                 i2u534_40 105E  
                               i2u286_41 1FDC                                 i2u550_41 1180  
                               i2u542_41 10E6                                 i2u534_41 105A  
        ??i2_lcd_4bit_send_enable_signal 0037                                 i2u551_40 119A  
                               i2u543_40 10F8                                 i2u535_40 1070  
                               i2u551_41 1196                                 i2u543_41 10F4  
                               i2u535_41 106C                                 i2u552_40 11A8  
                               i2u544_40 1110                                 i2u536_40 107E  
                               i2u552_41 11A4                                 i2u544_41 110C  
                               i2u536_41 107A                                 i2u553_40 11BA  
                               i2u545_40 1126                                 i2u537_40 1090  
                               i2u553_41 11B6                                 i2u545_41 1122  
                               i2u537_41 108C                                 i2u554_40 11C8  
                               i2u546_40 1134                                 i2u538_40 109E  
                               i2u554_41 11C4                                 i2u546_41 1130  
                               i2u538_41 109A                                 i2u547_40 114C  
                               i2u539_40 10B0                                 i2u547_41 1148  
                               i2u539_41 10AC                                 i2u484_40 20B0  
                               i2u548_40 1162                                 i2u484_41 20AC  
                               i2u548_41 115E                                 i2u549_40 1170  
                               i2u549_41 116C                                 i2u485_48 20B6  
                               i2u485_49 20C8                                 i2u578_47 1FFE  
       gpio_pin_direction_initialize@ret 00A6                                 _TMR0_ISR 205E  
        __end_of_Timer0_Prescaler_Config 1E74  gpio_pin_direction_initialize@pin_config 009E  
                 gpio_pin_initialize@ret 00AB                 ??i1_gpio_pin_write_logic 0080  
                gpio_pin_write_logic@ret 00A7                 ?_lcd_4bit_send_char_data 0089  
                              copy_data0 1D6C                                copy_data1 1D8C  
            i1gpio_pin_write_logic@logic 004D                     _ecu_layer_initialize 215A  
                     _RB7_pin_init_value 0020                                 __Hrparam 0000  
              i1gpio_pin_write_logic@ret 004E                                 __Lrparam 0000  
                    i1lcd_send_4bits@lcd 0086                      i1lcd_send_4bits@ret 004F  
                     _Timer0_Mode_Select 1B6A              __end_of_gpio_pin_initialize 1A52  
                     __end_of_btn_values 1011                       i2_TMR0_ISR_HANDLER 2130  
                    ?_Timer0_Mode_Select 009E                     _InterruptManagerHigh 0008  
                               __ptext10 1844                                 __ptext11 201E  
                               __ptext20 1A52                                 __ptext12 1E1A  
                               __ptext21 1F7A                                 __ptext13 1B6A  
                               __ptext22 14B0                                 __ptext14 1DBA  
                               __ptext31 2094                                 __ptext23 2178  
                               __ptext40 219C                                 __ptext32 2130  
                               __ptext24 217C                                 __ptext16 205E  
                               __ptext41 21A0                                 __ptext33 1F24  
                               __ptext25 2180                                 __ptext17 20EC  
                               __ptext42 21A4                                 __ptext34 1CE6  
                               __ptext26 2184                                 __ptext18 1E74  
                               __ptext43 21A8                                 __ptext35 1AE2  
                               __ptext27 2188                                 __ptext19 1C68  
                               __ptext44 21AC                                 __ptext36 1FCE  
                               __ptext28 218C                                 __ptext45 21B0  
                               __ptext37 1600                                 __ptext29 2190  
                               __ptext46 0000                                 __ptext38 2194  
                               __ptext39 2198            i2lcd_4bit_send_char_data@data 003B  
                    ?i2_TMR0_ISR_HANDLER 002B                    ?_ecu_layer_initialize 002B  
                   ??_Timer0_Mode_Select 00A0                                 isa$xinst 0000  
                               int$flags 005F             __end_of_lcd_4bit_send_string 1ECE  
  __end_ofi2_lcd_4bit_send_enable_signal 201E            i2_lcd_4bit_send_enable_signal 1FCE  
                   ??i2_TMR0_ISR_HANDLER 0041                           _lcd_send_4bits 1930  
          i2lcd_send_4bits@_data_command 0037                           Timer0_Init@ret 00A5  
               Timer0_Mode_Select@_timer 009E              __end_of_lcd_4bit_initialize 1844  
                  ?_InterruptManagerHigh 002B                  ?i2_lcd_4bit_send_string 003D  
                   _RB6_InterruptHandler 0011             __end_of_gpio_pin_write_logic 14B0  
                               intlevel1 0000                                 intlevel2 0000  
                    _InterruptManagerLow 0018         i2lcd_4bit_send_enable_signal@lcd 0035  
         lcd_4bit_send_enable_signal@lcd 00A8         i2lcd_4bit_send_enable_signal@ret 0037  
         lcd_4bit_send_enable_signal@ret 00AA                               i2_INT1_ISR 21A8  
                             i2_INT2_ISR 21A4                  ?i2_gpio_pin_write_logic 002B  
                             i2_TMR0_ISR 2094                   __end_of_lcd_send_4bits 19C2  
                   ?_InterruptManagerLow 002B         i1gpio_pin_write_logic@pin_config 004B  
               __end_ofi2_lcd_send_4bits 1B6A           __end_ofi2_lcd_4bit_send_string 1F7A  
                         _port_registers 0051                   ??_ecu_layer_initialize 00B4  
                      ?_TMR0_ISR_HANDLER 002B              lcd_4bit_send_char_data@data 008B  
         __end_ofi2_gpio_pin_write_logic 174A                       ??_TMR0_ISR_HANDLER 0051  
                 lcd_4bit_initialize@lcd 00B0                   lcd_4bit_initialize@ret 0101  
