

Microchip MPLAB XC8 Assembler V2.41 build 20230208172133 
                                                                                               Mon Jan 29 22:18:38 2024

Microchip MPLAB XC8 C Compiler v2.41 (Free license) build 20230208172133 Og1 
     1                           	processor	18F4620
     2                           	fnconf	rparam,??,?,0
     3                           	pagewidth 120
     4                           	opt	flic
     5                           	psect	idataCOMRAM,global,class=CODE,delta=1,noexec
     6                           	psect	idataBANK1,global,class=CODE,delta=1,noexec
     7                           	psect	smallconst,global,reloc=2,class=SMALLCONST,delta=1,noexec
     8                           	psect	cinit,global,reloc=2,class=CODE,delta=1
     9                           	psect	bssCOMRAM,global,class=COMRAM,space=1,delta=1,lowdata,noexec
    10                           	psect	dataCOMRAM,global,class=COMRAM,space=1,delta=1,lowdata,noexec
    11                           	psect	bssBANK0,global,class=BANK0,space=1,delta=1,lowdata,noexec
    12                           	psect	bssBANK1,global,class=BANK1,space=1,delta=1,lowdata,noexec
    13                           	psect	dataBANK1,global,class=BANK1,space=1,delta=1,lowdata,noexec
    14                           	psect	cstackBANK1,global,class=BANK1,space=1,delta=1,lowdata,noexec
    15                           	psect	cstackBANK0,global,class=BANK0,space=1,delta=1,lowdata,noexec
    16                           	psect	cstackCOMRAM,global,class=COMRAM,space=1,delta=1,lowdata,noexec
    17                           	psect	text0,global,reloc=2,class=CODE,delta=1
    18                           	psect	text1,global,reloc=2,class=CODE,delta=1
    19                           	psect	text2,global,reloc=2,class=CODE,delta=1
    20                           	psect	text3,global,reloc=2,class=CODE,delta=1
    21                           	psect	text4,global,reloc=2,class=CODE,delta=1
    22                           	psect	text5,global,reloc=2,class=CODE,delta=1,group=2
    23                           	psect	text6,global,reloc=2,class=CODE,delta=1,group=2
    24                           	psect	text7,global,reloc=2,class=CODE,delta=1,group=2
    25                           	psect	text8,global,reloc=2,class=CODE,delta=1,group=2
    26                           	psect	text9,global,reloc=2,class=CODE,delta=1
    27                           	psect	text10,global,reloc=2,class=CODE,delta=1
    28                           	psect	text11,global,reloc=2,class=CODE,delta=1
    29                           	psect	text12,global,reloc=2,class=CODE,delta=1
    30                           	psect	text13,global,reloc=2,class=CODE,delta=1
    31                           	psect	text14,global,reloc=2,class=CODE,delta=1
    32                           	psect	text15,global,reloc=2,class=CODE,delta=1
    33                           	psect	text16,global,reloc=2,class=CODE,delta=1
    34                           	psect	text17,global,reloc=2,class=CODE,delta=1
    35                           	psect	text18,global,reloc=2,class=CODE,delta=1
    36                           	psect	intcodelo,global,reloc=2,class=CODE,delta=1
    37                           	psect	text20,global,reloc=2,class=CODE,delta=1
    38                           	psect	text21,global,reloc=2,class=CODE,delta=1
    39                           	psect	text22,global,reloc=2,class=CODE,delta=1
    40                           	psect	text23,global,reloc=2,class=CODE,delta=1
    41                           	psect	text24,global,reloc=2,class=CODE,delta=1
    42                           	psect	text25,global,reloc=2,class=CODE,delta=1
    43                           	psect	text26,global,reloc=2,class=CODE,delta=1
    44                           	psect	text27,global,reloc=2,class=CODE,delta=1
    45                           	psect	text28,global,reloc=2,class=CODE,delta=1
    46                           	psect	text29,global,reloc=2,class=CODE,delta=1
    47                           	psect	text30,global,reloc=2,class=CODE,delta=1
    48                           	psect	text31,global,reloc=2,class=CODE,delta=1
    49                           	psect	text32,global,reloc=2,class=CODE,delta=1
    50                           	psect	text33,global,reloc=2,class=CODE,delta=1
    51                           	psect	text34,global,reloc=2,class=CODE,delta=1,group=3
    52                           	psect	text35,global,reloc=2,class=CODE,delta=1,group=1
    53                           	psect	text36,global,reloc=2,class=CODE,delta=1,group=1
    54                           	psect	text37,global,reloc=2,class=CODE,delta=1,group=1
    55                           	psect	text38,global,reloc=2,class=CODE,delta=1,group=1
    56                           	psect	text39,global,reloc=2,class=CODE,delta=1,group=3
    57                           	psect	text40,global,reloc=2,class=CODE,delta=1,group=3
    58                           	psect	text41,global,reloc=2,class=CODE,delta=1,group=3
    59                           	psect	text42,global,reloc=2,class=CODE,delta=1,group=3
    60                           	psect	text43,global,reloc=2,class=CODE,delta=1,group=2
    61                           	psect	text44,global,reloc=2,class=CODE,delta=1,group=2
    62                           	psect	text45,global,reloc=2,class=CODE,delta=1,group=3
    63                           	psect	text46,global,reloc=2,class=CODE,delta=1
    64                           	psect	text47,global,reloc=2,class=CODE,delta=1
    65                           	psect	text48,global,reloc=2,class=CODE,delta=1
    66                           	psect	text49,global,reloc=2,class=CODE,delta=1
    67                           	psect	text50,global,reloc=2,class=CODE,delta=1
    68                           	psect	text51,global,reloc=2,class=CODE,delta=1
    69                           	psect	text52,global,reloc=2,class=CODE,delta=1
    70                           	psect	text53,global,reloc=2,class=CODE,delta=1
    71                           	psect	text54,global,reloc=2,class=CODE,delta=1
    72                           	psect	text55,global,reloc=2,class=CODE,delta=1
    73                           	psect	text56,global,reloc=2,class=CODE,delta=1
    74                           	psect	intcode,global,reloc=2,class=CODE,delta=1
    75                           	psect	intcode_body,global,reloc=2,class=CODE,delta=1
    76                           	psect	text58,global,reloc=2,class=CODE,delta=1
    77                           	psect	text59,global,reloc=2,class=CODE,delta=1
    78                           	psect	text60,global,reloc=2,class=CODE,delta=1
    79                           	psect	text61,global,reloc=2,class=CODE,delta=1
    80                           	psect	text62,global,reloc=2,class=CODE,delta=1
    81                           	psect	text63,global,reloc=2,class=CODE,delta=1
    82                           	psect	text64,global,reloc=2,class=CODE,delta=1
    83                           	psect	text65,global,reloc=2,class=CODE,delta=1
    84                           	psect	text66,global,reloc=2,class=CODE,delta=1
    85                           	psect	text67,global,reloc=2,class=CODE,delta=1
    86                           	psect	text68,global,reloc=2,class=CODE,delta=1
    87                           	psect	text69,global,reloc=2,class=CODE,delta=1
    88                           	psect	text70,global,reloc=2,class=CODE,delta=1
    89                           	psect	text71,global,reloc=2,class=CODE,delta=1
    90                           	psect	text72,global,reloc=2,class=CODE,delta=1
    91                           	psect	text73,global,reloc=2,class=CODE,delta=1
    92                           	psect	text74,global,reloc=2,class=CODE,delta=1
    93                           	psect	text75,global,reloc=2,class=CODE,delta=1
    94                           	psect	text76,global,reloc=2,class=CODE,delta=1
    95                           	psect	text77,global,reloc=2,class=CODE,delta=1
    96                           	psect	text78,global,reloc=2,class=CODE,delta=1
    97                           	psect	text79,global,reloc=2,class=CODE,delta=1
    98                           	psect	text80,global,reloc=2,class=CODE,delta=1
    99                           	psect	text81,global,reloc=2,class=CODE,delta=1
   100                           	psect	text82,global,reloc=2,class=CODE,delta=1
   101                           	psect	text83,global,reloc=2,class=CODE,delta=1
   102                           	psect	text84,global,reloc=2,class=CODE,delta=1
   103                           	psect	text85,global,reloc=2,class=CODE,delta=1
   104                           	psect	text86,global,reloc=2,class=CODE,delta=1
   105                           	psect	text87,global,reloc=2,class=CODE,delta=1
   106                           	psect	text88,global,reloc=2,class=CODE,delta=1
   107                           	psect	text89,global,reloc=2,class=CODE,delta=1
   108                           	psect	text90,global,reloc=2,class=CODE,delta=1
   109                           	psect	text91,global,reloc=2,class=CODE,delta=1
   110                           	psect	text92,global,reloc=2,class=CODE,delta=1
   111                           	psect	text93,global,reloc=2,class=CODE,delta=1
   112                           	psect	text94,global,reloc=2,class=CODE,delta=1
   113                           	psect	text95,global,reloc=2,class=CODE,delta=1
   114                           	psect	intsave_regs,global,class=BIGRAM,space=1,delta=1,noexec
   115                           	psect	text96,global,reloc=2,class=CODE,delta=1
   116                           	psect	rparam,global,class=COMRAM,space=1,delta=1,noexec
   117                           	psect	temp,global,ovrld,common,class=COMRAM,space=1,delta=1
   118                           	psect	config,global,abs,ovrld,class=CONFIG,space=4,delta=1,noexec
   119   000000                     
   120                           ; Generated 23/03/2023 GMT
   121                           ; 
   122                           ; Copyright © 2023, Microchip Technology Inc. and its subsidiaries ("Microchip")
   123                           ; All rights reserved.
   124                           ; 
   125                           ; This software is developed by Microchip Technology Inc. and its subsidiaries ("Microch
      +                          ip").
   126                           ; 
   127                           ; Redistribution and use in source and binary forms, with or without modification, are
   128                           ; permitted provided that the following conditions are met:
   129                           ; 
   130                           ;     1. Redistributions of source code must retain the above copyright notice, this lis
      +                          t of
   131                           ;        conditions and the following disclaimer.
   132                           ; 
   133                           ;     2. Redistributions in binary form must reproduce the above copyright notice, this 
      +                          list
   134                           ;        of conditions and the following disclaimer in the documentation and/or other
   135                           ;        materials provided with the distribution. Publication is not required when
   136                           ;        this file is used in an embedded application.
   137                           ; 
   138                           ;     3. Microchip's name may not be used to endorse or promote products derived from th
      +                          is
   139                           ;        software without specific prior written permission.
   140                           ; 
   141                           ; THIS SOFTWARE IS PROVIDED BY MICROCHIP "AS IS" AND ANY EXPRESS OR IMPLIED WARRANTIES,
   142                           ; INCLUDING, BUT NOT LIMITED TO, THE IMPLIED WARRANTIES OF MERCHANTABILITY AND FITNESS F
      +                          OR
   143                           ; PURPOSE ARE DISCLAIMED.  IN NO EVENT SHALL MICROCHIP BE LIABLE FOR ANY DIRECT, INDIREC
      +                          T,
   144                           ; INCIDENTAL, SPECIAL, EXEMPLARY, OR CONSEQUENTIAL DAMAGES (INCLUDING BUT NOT LIMITED TO
   145                           ; PROCUREMENT OF SUBSTITUTE GOODS OR SERVICES; LOSS OF USE, DATA OR PROFITS; OR BUSINESS
   146                           ; INTERRUPTION) HOWSOEVER CAUSED AND ON ANY THEORY OF LIABILITY, WHETHER IN CONTRACT, ST
      +                          RICT
   147                           ; LIABILITY, OR TORT (INCLUDING NEGLIGENCE OR OTHERWISE) ARISING IN ANY WAY OUT OF THE U
      +                          SE OF
   148                           ; THIS SOFTWARE, EVEN IF ADVISED OF THE POSSIBILITY OF SUCH DAMAGE.
   149                           ; 
   150                           ; 
   151                           ; Code-generator required, PIC18F4620 Definitions
   152                           ; 
   153                           ; SFR Addresses
   154   000000                     
   155                           	psect	idataCOMRAM
   156   0047F0                     __pidataCOMRAM:
   157                           	callstack 0
   158                           
   159                           ;initializer for _led1
   160   0047F0  71                 	db	113
   161                           
   162                           	psect	idataBANK1
   163   004712                     __pidataBANK1:
   164                           	callstack 0
   165                           
   166                           ;initializer for _port_registers
   167   004712  80                 	db	128
   168   004713  0F                 	db	15
   169   004714  81                 	db	129
   170   004715  0F                 	db	15
   171   004716  82                 	db	130
   172   004717  0F                 	db	15
   173   004718  83                 	db	131
   174   004719  0F                 	db	15
   175   00471A  84                 	db	132
   176   00471B  0F                 	db	15
   177                           
   178                           ;initializer for _lat_registers
   179   00471C  89                 	db	137
   180   00471D  0F                 	db	15
   181   00471E  8A                 	db	138
   182   00471F  0F                 	db	15
   183   004720  8B                 	db	139
   184   004721  0F                 	db	15
   185   004722  8C                 	db	140
   186   004723  0F                 	db	15
   187   004724  8D                 	db	141
   188   004725  0F                 	db	15
   189                           
   190                           ;initializer for _tris_registers
   191   004726  92                 	db	146
   192   004727  0F                 	db	15
   193   004728  93                 	db	147
   194   004729  0F                 	db	15
   195   00472A  94                 	db	148
   196   00472B  0F                 	db	15
   197   00472C  95                 	db	149
   198   00472D  0F                 	db	15
   199   00472E  96                 	db	150
   200   00472F  0F                 	db	15
   201                           
   202                           ;initializer for _lcd1
   203   004730  03                 	db	3
   204   004731  0B                 	db	11
   205   004732  13                 	db	19
   206   004733  1B                 	db	27
   207   004734  23                 	db	35
   208   004735  2B                 	db	43
   209                           
   210                           	psect	smallconst
   211   001000                     __psmallconst:
   212                           	callstack 0
   213   001000  00                 	db	0
   214   001001                     _btn_values:
   215                           	callstack 0
   216   001001  37                 	db	55
   217   001002  38                 	db	56
   218   001003  39                 	db	57
   219   001004  2F                 	db	47
   220   001005  34                 	db	52
   221   001006  35                 	db	53
   222   001007  36                 	db	54
   223   001008  2A                 	db	42
   224   001009  31                 	db	49
   225   00100A  32                 	db	50
   226   00100B  33                 	db	51
   227   00100C  2D                 	db	45
   228   00100D  23                 	db	35
   229   00100E  30                 	db	48
   230   00100F  3D                 	db	61
   231   001010  2B                 	db	43
   232   001011                     __end_of_btn_values:
   233                           	callstack 0
   234   000000                     _ADRESL	set	4035
   235   000000                     _ADRESH	set	4036
   236   000000                     _TMR0H	set	4055
   237   001011                     STR_1:
   238   001011  25                 	db	37
   239   001012  69                 	db	105	;'i'
   240   001013  00                 	db	0
   241   001014  00                 	db	0	; dummy byte at the end
   242   000000                     
   243                           ; #config settings
   244                           
   245                           	psect	cinit
   246   004056                     __pcinit:
   247                           	callstack 0
   248   004056                     start_initialization:
   249                           	callstack 0
   250   004056                     __initialization:
   251                           	callstack 0
   252                           
   253                           ; Initialize objects allocated to BANK1 (36 bytes)
   254                           ; load TBLPTR registers with __pidataBANK1
   255   004056  0E12               	movlw	low __pidataBANK1
   256   004058  6EF6               	movwf	tblptrl,c
   257   00405A  0E47               	movlw	high __pidataBANK1
   258   00405C  6EF7               	movwf	tblptrh,c
   259   00405E  0E00               	movlw	low (__pidataBANK1 shr (0+16))
   260   004060  6EF8               	movwf	tblptru,c
   261   004062  EE01  F0B0         	lfsr	0,__pdataBANK1
   262   004066  EE10 F024          	lfsr	1,36
   263   00406A                     copy_data0:
   264   00406A  0009               	tblrd		*+
   265   00406C  CFF5 FFEE          	movff	tablat,postinc0
   266   004070  50E5               	movf	postdec1,w,c
   267   004072  50E1               	movf	fsr1l,w,c
   268   004074  E1FA               	bnz	copy_data0
   269                           
   270                           ; Initialize objects allocated to COMRAM (1 bytes)
   271                           ; load TBLPTR registers with __pidataCOMRAM
   272   004076  0EF0               	movlw	low __pidataCOMRAM
   273   004078  6EF6               	movwf	tblptrl,c
   274   00407A  0E47               	movlw	high __pidataCOMRAM
   275   00407C  6EF7               	movwf	tblptrh,c
   276   00407E  0E00               	movlw	low (__pidataCOMRAM shr (0+16))
   277   004080  6EF8               	movwf	tblptru,c
   278   004082  0009               	tblrd		*+	;fetch initializer
   279   004084  CFF5 F07E          	movff	tablat,__pdataCOMRAM
   280                           
   281                           ; Clear objects allocated to BANK1 (105 bytes)
   282   004088  EE01  F000         	lfsr	0,__pbssBANK1
   283   00408C  0E69               	movlw	105
   284   00408E                     clear_0:
   285   00408E  6AEE               	clrf	postinc0,c
   286   004090  06E8               	decf	wreg,f,c
   287   004092  E1FD               	bnz	clear_0
   288                           
   289                           ; Clear objects allocated to BANK0 (17 bytes)
   290   004094  EE00  F0EF         	lfsr	0,__pbssBANK0
   291   004098  0E11               	movlw	17
   292   00409A                     clear_1:
   293   00409A  6AEE               	clrf	postinc0,c
   294   00409C  06E8               	decf	wreg,f,c
   295   00409E  E1FD               	bnz	clear_1
   296                           
   297                           ; Clear objects allocated to COMRAM (19 bytes)
   298   0040A0  EE00  F06B         	lfsr	0,__pbssCOMRAM
   299   0040A4  0E13               	movlw	19
   300   0040A6                     clear_2:
   301   0040A6  6AEE               	clrf	postinc0,c
   302   0040A8  06E8               	decf	wreg,f,c
   303   0040AA  E1FD               	bnz	clear_2
   304   0040AC                     end_of_initialization:
   305                           	callstack 0
   306   0040AC                     __end_of__initialization:
   307                           	callstack 0
   308   0040AC  907F               	bcf	int$flags,0,c	;clear compiler interrupt flag (level 1)
   309   0040AE  927F               	bcf	int$flags,1,c	;clear compiler interrupt flag (level 2)
   310   0040B0  0100               	movlb	0
   311   0040B2  EF74  F023         	goto	_main	;jump to C main() function
   312                           
   313                           	psect	bssCOMRAM
   314   00006B                     __pbssCOMRAM:
   315                           	callstack 0
   316   00006B                     _timer3_preload:
   317                           	callstack 0
   318   00006B                     	ds	2
   319   00006D                     _timer1_preload:
   320                           	callstack 0
   321   00006D                     	ds	2
   322   00006F                     _timer0_preload:
   323                           	callstack 0
   324   00006F                     	ds	2
   325   000071                     _ret:
   326                           	callstack 0
   327   000071                     	ds	1
   328   000072                     _timer2_preload:
   329                           	callstack 0
   330   000072                     	ds	1
   331   000073                     _RB7_pin_init_value:
   332                           	callstack 0
   333   000073                     	ds	1
   334   000074                     _RB6_pin_init_value:
   335                           	callstack 0
   336   000074                     	ds	1
   337   000075                     _RB5_pin_init_value:
   338                           	callstack 0
   339   000075                     	ds	1
   340   000076                     _RB4_pin_init_value:
   341                           	callstack 0
   342   000076                     	ds	1
   343   000077                     relay_turn_off@F3353:
   344                           	callstack 0
   345   000077                     	ds	1
   346   000078                     relay_turn_on@F3348:
   347                           	callstack 0
   348   000078                     	ds	1
   349   000079                     relay_initialize@F3343:
   350                           	callstack 0
   351   000079                     	ds	1
   352   00007A                     led_toggle@F3364:
   353                           	callstack 0
   354   00007A                     	ds	1
   355   00007B                     led_turn_off@F3359:
   356                           	callstack 0
   357   00007B                     	ds	1
   358   00007C                     led_turn_on@F3354:
   359                           	callstack 0
   360   00007C                     	ds	1
   361   00007D                     led_initialize@F3349:
   362                           	callstack 0
   363   00007D                     	ds	1
   364                           
   365                           	psect	dataCOMRAM
   366   00007E                     __pdataCOMRAM:
   367                           	callstack 0
   368   00007E                     _led1:
   369                           	callstack 0
   370   00007E                     	ds	1
   371                           
   372                           	psect	bssBANK0
   373   0000EF                     __pbssBANK0:
   374                           	callstack 0
   375   0000EF                     _prec:
   376                           	callstack 0
   377   0000EF                     	ds	2
   378   0000F1                     _EUSART_OverrunErrorHandler:
   379                           	callstack 0
   380   0000F1                     	ds	2
   381   0000F3                     _EUSART_FramingErrorHandler:
   382                           	callstack 0
   383   0000F3                     	ds	2
   384   0000F5                     _EUSART_RX_InterruptHandler:
   385                           	callstack 0
   386   0000F5                     	ds	2
   387   0000F7                     _EUSART_TX_InterruptHandler:
   388                           	callstack 0
   389   0000F7                     	ds	2
   390   0000F9                     _CCP1_InterruptHandler:
   391                           	callstack 0
   392   0000F9                     	ds	2
   393   0000FB                     _ADC_InterruptHandler:
   394                           	callstack 0
   395   0000FB                     	ds	2
   396   0000FD                     _flags:
   397                           	callstack 0
   398   0000FD                     	ds	1
   399   0000FE                     _counter:
   400                           	callstack 0
   401   0000FE                     	ds	1
   402   0000FF                     _Recieved_char:
   403                           	callstack 0
   404   0000FF                     	ds	1
   405                           
   406                           	psect	bssBANK1
   407   000100                     __pbssBANK1:
   408                           	callstack 0
   409   000100                     	ds	11
   410   00010B                     	ds	6
   411   000111                     USART_TX_INT@F3631:
   412                           	callstack 0
   413   000111                     	ds	4
   414   000115                     convert_uint8_to_string@F3495:
   415                           	callstack 0
   416   000115                     	ds	4
   417   000119                     _width:
   418                           	callstack 0
   419   000119                     	ds	2
   420   00011B                     EUSART_ASYNC_WriteStringNonBlocking@Counter:
   421                           	callstack 0
   422   00011B                     	ds	2
   423   00011D                     _TMR3_InterruptHandler:
   424                           	callstack 0
   425   00011D                     	ds	2
   426   00011F                     _TMR1_InterruptHandler:
   427                           	callstack 0
   428   00011F                     	ds	2
   429   000121                     _TMR0_InterruptHandler:
   430                           	callstack 0
   431   000121                     	ds	2
   432   000123                     _RB7_InterruptHandler:
   433                           	callstack 0
   434   000123                     	ds	2
   435   000125                     _RB6_InterruptHandler:
   436                           	callstack 0
   437   000125                     	ds	2
   438   000127                     _RB5_InterruptHandler:
   439                           	callstack 0
   440   000127                     	ds	2
   441   000129                     _RB4_InterruptHandler:
   442                           	callstack 0
   443   000129                     	ds	2
   444   00012B                     _INT2_InterruptHandler:
   445                           	callstack 0
   446   00012B                     	ds	2
   447   00012D                     _INT1_InterruptHandler:
   448                           	callstack 0
   449   00012D                     	ds	2
   450   00012F                     _INT0_InterruptHandler:
   451                           	callstack 0
   452   00012F                     	ds	2
   453   000131                     CCP_Compare_Mode_Set_Value@F3498:
   454                           	callstack 0
   455   000131                     	ds	2
   456   000133                     CCP_Capture_Mode_Read_Value@F3488:
   457                           	callstack 0
   458   000133                     	ds	2
   459   000135                     _CCP2_InterruptHandler:
   460                           	callstack 0
   461   000135                     	ds	2
   462   000137                     _dbuf:
   463                           	callstack 0
   464   000137                     	ds	32
   465   000157                     _usart_obj:
   466                           	callstack 0
   467   000157                     	ds	18
   468                           
   469                           	psect	dataBANK1
   470   0001B0                     __pdataBANK1:
   471                           	callstack 0
   472   0001B0                     _port_registers:
   473                           	callstack 0
   474   0001B0                     	ds	10
   475   0001BA                     _lat_registers:
   476                           	callstack 0
   477   0001BA                     	ds	10
   478   0001C4                     _tris_registers:
   479                           	callstack 0
   480   0001C4                     	ds	10
   481   0001CE                     _lcd1:
   482                           	callstack 0
   483   0001CE                     	ds	6
   484                           
   485                           	psect	cstackBANK1
   486   000169                     __pcstackBANK1:
   487                           	callstack 0
   488   000169                     ?___fltol:
   489                           	callstack 0
   490   000169                     ?___xxtofl:
   491                           	callstack 0
   492   000169                     gpio_pin_direction_initialize@pin_config:
   493                           	callstack 0
   494   000169                     gpio_pin_write_logic@pin_config:
   495                           	callstack 0
   496   000169                     EUSART_ASYNC_TX_Init@_eusart:
   497                           	callstack 0
   498   000169                     EUSART_ASYNC_RX_Init@_eusart:
   499                           	callstack 0
   500   000169                     ___fltol@f1:
   501                           	callstack 0
   502   000169                     ___xxtofl@val:
   503                           	callstack 0
   504                           
   505                           ; 4 bytes @ 0x0
   506   000169                     	ds	2
   507   00016B                     ??_gpio_pin_direction_initialize:
   508   00016B                     gpio_pin_write_logic@logic:
   509                           	callstack 0
   510                           
   511                           ; 1 bytes @ 0x2
   512   00016B                     	ds	1
   513   00016C                     ??_gpio_pin_write_logic:
   514                           
   515                           ; 1 bytes @ 0x3
   516   00016C                     	ds	1
   517   00016D                     ??___fltol:
   518   00016D                     ??___xxtofl:
   519                           
   520                           ; 1 bytes @ 0x4
   521   00016D                     	ds	4
   522   000171                     gpio_pin_direction_initialize@ret:
   523                           	callstack 0
   524   000171                     ___fltol@sign1:
   525                           	callstack 0
   526   000171                     ___xxtofl@sign:
   527                           	callstack 0
   528                           
   529                           ; 1 bytes @ 0x8
   530   000171                     	ds	1
   531   000172                     gpio_pin_write_logic@ret:
   532                           	callstack 0
   533   000172                     ___fltol@exp1:
   534                           	callstack 0
   535   000172                     ___xxtofl@exp:
   536                           	callstack 0
   537                           
   538                           ; 1 bytes @ 0x9
   539   000172                     	ds	1
   540   000173                     lcd_send_4bits@lcd:
   541                           	callstack 0
   542   000173                     lcd_4bit_send_enable_signal@lcd:
   543                           	callstack 0
   544   000173                     gpio_pin_initialize@pin_config:
   545                           	callstack 0
   546   000173                     ___xxtofl@arg:
   547                           	callstack 0
   548                           
   549                           ; 4 bytes @ 0xA
   550   000173                     	ds	2
   551   000175                     ??_gpio_pin_initialize:
   552   000175                     lcd_send_4bits@_data_command:
   553                           	callstack 0
   554   000175                     lcd_4bit_send_enable_signal@ret:
   555                           	callstack 0
   556                           
   557                           ; 1 bytes @ 0xC
   558   000175                     	ds	1
   559   000176                     lcd_send_4bits@ret:
   560                           	callstack 0
   561   000176                     gpio_pin_initialize@ret:
   562                           	callstack 0
   563                           
   564                           ; 1 bytes @ 0xD
   565   000176                     	ds	1
   566   000177                     ?___fldiv:
   567                           	callstack 0
   568   000177                     lcd_4bit_send_command@lcd:
   569                           	callstack 0
   570   000177                     ___fldiv@b:
   571                           	callstack 0
   572                           
   573                           ; 4 bytes @ 0xE
   574   000177                     	ds	2
   575   000179                     lcd_4bit_send_command@command:
   576                           	callstack 0
   577                           
   578                           ; 1 bytes @ 0x10
   579   000179                     	ds	1
   580   00017A                     lcd_4bit_send_command@ret:
   581                           	callstack 0
   582                           
   583                           ; 1 bytes @ 0x11
   584   00017A                     	ds	1
   585   00017B                     lcd_4bit_initialize@lcd:
   586                           	callstack 0
   587   00017B                     ___fldiv@a:
   588                           	callstack 0
   589                           
   590                           ; 4 bytes @ 0x12
   591   00017B                     	ds	2
   592   00017D                     ??_lcd_4bit_initialize:
   593                           
   594                           ; 1 bytes @ 0x14
   595   00017D                     	ds	2
   596   00017F                     ??___fldiv:
   597   00017F                     lcd_4bit_initialize@ret:
   598                           	callstack 0
   599                           
   600                           ; 1 bytes @ 0x16
   601   00017F                     	ds	1
   602   000180                     lcd_4bit_initialize@l_data_pins_counter:
   603                           	callstack 0
   604                           
   605                           ; 1 bytes @ 0x17
   606   000180                     	ds	1
   607   000181                     
   608                           ; 1 bytes @ 0x18
   609   000181                     	ds	2
   610   000183                     ___fldiv@rem:
   611                           	callstack 0
   612                           
   613                           ; 4 bytes @ 0x1A
   614   000183                     	ds	4
   615   000187                     ___fldiv@sign:
   616                           	callstack 0
   617                           
   618                           ; 1 bytes @ 0x1E
   619   000187                     	ds	1
   620   000188                     ___fldiv@new_exp:
   621                           	callstack 0
   622                           
   623                           ; 2 bytes @ 0x1F
   624   000188                     	ds	2
   625   00018A                     ___fldiv@grs:
   626                           	callstack 0
   627                           
   628                           ; 4 bytes @ 0x21
   629   00018A                     	ds	4
   630   00018E                     ___fldiv@bexp:
   631                           	callstack 0
   632                           
   633                           ; 1 bytes @ 0x25
   634   00018E                     	ds	1
   635   00018F                     ___fldiv@aexp:
   636                           	callstack 0
   637                           
   638                           ; 1 bytes @ 0x26
   639   00018F                     	ds	1
   640   000190                     ?___fladd:
   641                           	callstack 0
   642   000190                     ___fladd@b:
   643                           	callstack 0
   644                           
   645                           ; 4 bytes @ 0x27
   646   000190                     	ds	4
   647   000194                     ___fladd@a:
   648                           	callstack 0
   649                           
   650                           ; 4 bytes @ 0x2B
   651   000194                     	ds	4
   652   000198                     ??___fladd:
   653                           
   654                           ; 1 bytes @ 0x2F
   655   000198                     	ds	4
   656   00019C                     ___fladd@signs:
   657                           	callstack 0
   658                           
   659                           ; 1 bytes @ 0x33
   660   00019C                     	ds	1
   661   00019D                     ___fladd@aexp:
   662                           	callstack 0
   663                           
   664                           ; 1 bytes @ 0x34
   665   00019D                     	ds	1
   666   00019E                     ___fladd@bexp:
   667                           	callstack 0
   668                           
   669                           ; 1 bytes @ 0x35
   670   00019E                     	ds	1
   671   00019F                     ___fladd@grs:
   672                           	callstack 0
   673                           
   674                           ; 1 bytes @ 0x36
   675   00019F                     	ds	1
   676   0001A0                     EUSART_Baud_Rate_Calcualtion@_eusart:
   677                           	callstack 0
   678                           
   679                           ; 2 bytes @ 0x37
   680   0001A0                     	ds	2
   681   0001A2                     ??_EUSART_Baud_Rate_Calcualtion:
   682                           
   683                           ; 1 bytes @ 0x39
   684   0001A2                     	ds	2
   685   0001A4                     EUSART_Baud_Rate_Calcualtion@Baud_Rate_Temp:
   686                           	callstack 0
   687                           
   688                           ; 4 bytes @ 0x3B
   689   0001A4                     	ds	4
   690   0001A8                     _EUSART_Baud_Rate_Calcualtion$4319:
   691                           	callstack 0
   692                           
   693                           ; 4 bytes @ 0x3F
   694   0001A8                     	ds	4
   695   0001AC                     EUSART_ASYNC_Init@_eusart:
   696                           	callstack 0
   697                           
   698                           ; 2 bytes @ 0x43
   699   0001AC                     	ds	2
   700   0001AE                     ??_main:
   701                           
   702                           ; 1 bytes @ 0x45
   703   0001AE                     	ds	2
   704                           
   705                           	psect	cstackBANK0
   706   000080                     __pcstackBANK0:
   707                           	callstack 0
   708   000080                     ?___awdiv:
   709                           	callstack 0
   710   000080                     ?___awmod:
   711                           	callstack 0
   712   000080                     EUSART_ASYNC_ReadByteNonBlocking@data:
   713                           	callstack 0
   714   000080                     ___awdiv@dividend:
   715                           	callstack 0
   716   000080                     ___awmod@dividend:
   717                           	callstack 0
   718   000080                     memset@dest:
   719                           	callstack 0
   720   000080                     fputc@c:
   721                           	callstack 0
   722   000080                     i1gpio_pin_write_logic@pin_config:
   723                           	callstack 0
   724                           
   725                           ; 2 bytes @ 0x0
   726   000080                     	ds	2
   727   000082                     i1gpio_pin_write_logic@logic:
   728                           	callstack 0
   729   000082                     ___awdiv@divisor:
   730                           	callstack 0
   731   000082                     ___awmod@divisor:
   732                           	callstack 0
   733   000082                     memset@c:
   734                           	callstack 0
   735   000082                     fputc@fp:
   736                           	callstack 0
   737                           
   738                           ; 2 bytes @ 0x2
   739   000082                     	ds	1
   740   000083                     ??i1_gpio_pin_write_logic:
   741                           
   742                           ; 1 bytes @ 0x3
   743   000083                     	ds	1
   744   000084                     ??_fputc:
   745   000084                     ___awdiv@counter:
   746                           	callstack 0
   747   000084                     ___awmod@counter:
   748                           	callstack 0
   749   000084                     memset@n:
   750                           	callstack 0
   751                           
   752                           ; 2 bytes @ 0x4
   753   000084                     	ds	1
   754   000085                     ___awdiv@sign:
   755                           	callstack 0
   756   000085                     ___awmod@sign:
   757                           	callstack 0
   758                           
   759                           ; 1 bytes @ 0x5
   760   000085                     	ds	1
   761   000086                     ??_memset:
   762   000086                     ?_abs:
   763                           	callstack 0
   764   000086                     ___awdiv@quotient:
   765                           	callstack 0
   766   000086                     abs@a:
   767                           	callstack 0
   768                           
   769                           ; 2 bytes @ 0x6
   770   000086                     	ds	2
   771   000088                     ??_abs:
   772   000088                     memset@k:
   773                           	callstack 0
   774                           
   775                           ; 2 bytes @ 0x8
   776   000088                     	ds	1
   777   000089                     i1gpio_pin_write_logic@ret:
   778                           	callstack 0
   779   000089                     fputs@s:
   780                           	callstack 0
   781                           
   782                           ; 2 bytes @ 0x9
   783   000089                     	ds	1
   784   00008A                     memset@s:
   785                           	callstack 0
   786   00008A                     i1lcd_send_4bits@lcd:
   787                           	callstack 0
   788   00008A                     i1lcd_4bit_send_enable_signal@lcd:
   789                           	callstack 0
   790                           
   791                           ; 2 bytes @ 0xA
   792   00008A                     	ds	1
   793   00008B                     fputs@fp:
   794                           	callstack 0
   795                           
   796                           ; 2 bytes @ 0xB
   797   00008B                     	ds	1
   798   00008C                     i1lcd_send_4bits@_data_command:
   799                           	callstack 0
   800   00008C                     i1lcd_4bit_send_enable_signal@ret:
   801                           	callstack 0
   802                           
   803                           ; 1 bytes @ 0xC
   804   00008C                     	ds	1
   805   00008D                     fputs@c:
   806                           	callstack 0
   807   00008D                     i1lcd_send_4bits@ret:
   808                           	callstack 0
   809                           
   810                           ; 1 bytes @ 0xD
   811   00008D                     	ds	1
   812   00008E                     lcd_4bit_send_char_data@lcd:
   813                           	callstack 0
   814   00008E                     fputs@i:
   815                           	callstack 0
   816   00008E                     i1lcd_4bit_send_command@lcd:
   817                           	callstack 0
   818                           
   819                           ; 2 bytes @ 0xE
   820   00008E                     	ds	2
   821   000090                     lcd_4bit_send_char_data@data:
   822                           	callstack 0
   823   000090                     i1lcd_4bit_send_command@command:
   824                           	callstack 0
   825   000090                     pad@fp:
   826                           	callstack 0
   827                           
   828                           ; 2 bytes @ 0x10
   829   000090                     	ds	1
   830   000091                     lcd_4bit_send_char_data@ret:
   831                           	callstack 0
   832   000091                     i1lcd_4bit_send_command@ret:
   833                           	callstack 0
   834                           
   835                           ; 1 bytes @ 0x11
   836   000091                     	ds	1
   837   000092                     lcd_4bit_send_string@lcd:
   838                           	callstack 0
   839   000092                     pad@buf:
   840                           	callstack 0
   841                           
   842                           ; 2 bytes @ 0x12
   843   000092                     	ds	2
   844   000094                     lcd_4bit_send_string@str:
   845                           	callstack 0
   846   000094                     pad@p:
   847                           	callstack 0
   848                           
   849                           ; 2 bytes @ 0x14
   850   000094                     	ds	2
   851   000096                     ??_pad:
   852                           
   853                           ; 1 bytes @ 0x16
   854   000096                     	ds	1
   855   000097                     pad@i:
   856                           	callstack 0
   857                           
   858                           ; 2 bytes @ 0x17
   859   000097                     	ds	2
   860   000099                     pad@w:
   861                           	callstack 0
   862                           
   863                           ; 2 bytes @ 0x19
   864   000099                     	ds	2
   865   00009B                     dtoa@fp:
   866                           	callstack 0
   867                           
   868                           ; 2 bytes @ 0x1B
   869   00009B                     	ds	2
   870   00009D                     dtoa@d:
   871                           	callstack 0
   872                           
   873                           ; 2 bytes @ 0x1D
   874   00009D                     	ds	2
   875   00009F                     _dtoa$3417:
   876                           	callstack 0
   877                           
   878                           ; 2 bytes @ 0x1F
   879   00009F                     	ds	2
   880   0000A1                     dtoa@p:
   881                           	callstack 0
   882                           
   883                           ; 2 bytes @ 0x21
   884   0000A1                     	ds	2
   885   0000A3                     dtoa@w:
   886                           	callstack 0
   887                           
   888                           ; 2 bytes @ 0x23
   889   0000A3                     	ds	2
   890   0000A5                     dtoa@i:
   891                           	callstack 0
   892                           
   893                           ; 2 bytes @ 0x25
   894   0000A5                     	ds	2
   895   0000A7                     dtoa@s:
   896                           	callstack 0
   897                           
   898                           ; 1 bytes @ 0x27
   899   0000A7                     	ds	1
   900   0000A8                     vfpfcnvrt@fp:
   901                           	callstack 0
   902                           
   903                           ; 2 bytes @ 0x28
   904   0000A8                     	ds	2
   905   0000AA                     vfpfcnvrt@fmt:
   906                           	callstack 0
   907                           
   908                           ; 2 bytes @ 0x2A
   909   0000AA                     	ds	2
   910   0000AC                     vfpfcnvrt@ap:
   911                           	callstack 0
   912                           
   913                           ; 2 bytes @ 0x2C
   914   0000AC                     	ds	2
   915   0000AE                     ??_vfpfcnvrt:
   916                           
   917                           ; 1 bytes @ 0x2E
   918   0000AE                     	ds	2
   919   0000B0                     vfpfcnvrt@convarg:
   920                           	callstack 0
   921                           
   922                           ; 4 bytes @ 0x30
   923   0000B0                     	ds	4
   924   0000B4                     vfpfcnvrt@cp:
   925                           	callstack 0
   926                           
   927                           ; 2 bytes @ 0x34
   928   0000B4                     	ds	2
   929   0000B6                     ?_vfprintf:
   930                           	callstack 0
   931   0000B6                     vfprintf@fp:
   932                           	callstack 0
   933                           
   934                           ; 2 bytes @ 0x36
   935   0000B6                     	ds	2
   936   0000B8                     vfprintf@fmt:
   937                           	callstack 0
   938                           
   939                           ; 2 bytes @ 0x38
   940   0000B8                     	ds	2
   941   0000BA                     vfprintf@ap:
   942                           	callstack 0
   943                           
   944                           ; 2 bytes @ 0x3A
   945   0000BA                     	ds	2
   946   0000BC                     vfprintf@cfmt:
   947                           	callstack 0
   948                           
   949                           ; 2 bytes @ 0x3C
   950   0000BC                     	ds	2
   951   0000BE                     ?_sprintf:
   952                           	callstack 0
   953   0000BE                     sprintf@s:
   954                           	callstack 0
   955                           
   956                           ; 2 bytes @ 0x3E
   957   0000BE                     	ds	2
   958   0000C0                     sprintf@fmt:
   959                           	callstack 0
   960                           
   961                           ; 2 bytes @ 0x40
   962   0000C0                     	ds	6
   963   0000C6                     sprintf@ap:
   964                           	callstack 0
   965                           
   966                           ; 2 bytes @ 0x46
   967   0000C6                     	ds	2
   968   0000C8                     sprintf@f:
   969                           	callstack 0
   970                           
   971                           ; 12 bytes @ 0x48
   972   0000C8                     	ds	12
   973   0000D4                     convert_uint8_to_string@str:
   974                           	callstack 0
   975                           
   976                           ; 2 bytes @ 0x54
   977   0000D4                     	ds	2
   978   0000D6                     convert_uint8_to_string@Temp_str:
   979                           	callstack 0
   980                           
   981                           ; 4 bytes @ 0x56
   982   0000D6                     	ds	4
   983   0000DA                     convert_uint8_to_string@value:
   984                           	callstack 0
   985                           
   986                           ; 1 bytes @ 0x5A
   987   0000DA                     	ds	1
   988   0000DB                     convert_uint8_to_string@cnt:
   989                           	callstack 0
   990                           
   991                           ; 1 bytes @ 0x5B
   992   0000DB                     	ds	1
   993   0000DC                     USART_TX_INT@counter_Str:
   994                           	callstack 0
   995                           
   996                           ; 4 bytes @ 0x5C
   997   0000DC                     	ds	4
   998   0000E0                     ??_InterruptManagerLow:
   999                           
  1000                           ; 1 bytes @ 0x60
  1001   0000E0                     	ds	15
  1002                           
  1003                           	psect	cstackCOMRAM
  1004   000001                     __pcstackCOMRAM:
  1005                           	callstack 0
  1006   000001                     ?i2___awdiv:
  1007                           	callstack 0
  1008   000001                     ?i2___awmod:
  1009                           	callstack 0
  1010   000001                     i2gpio_pin_write_logic@pin_config:
  1011                           	callstack 0
  1012   000001                     i2EUSART_ASYNC_ReadByteNonBlocking@data:
  1013                           	callstack 0
  1014   000001                     i2___awdiv@dividend:
  1015                           	callstack 0
  1016   000001                     i2___awmod@dividend:
  1017                           	callstack 0
  1018   000001                     i2memset@dest:
  1019                           	callstack 0
  1020   000001                     i2fputc@c:
  1021                           	callstack 0
  1022                           
  1023                           ; 2 bytes @ 0x0
  1024   000001                     	ds	2
  1025   000003                     i2gpio_pin_write_logic@logic:
  1026                           	callstack 0
  1027   000003                     i2___awdiv@divisor:
  1028                           	callstack 0
  1029   000003                     i2___awmod@divisor:
  1030                           	callstack 0
  1031   000003                     i2memset@c:
  1032                           	callstack 0
  1033   000003                     i2fputc@fp:
  1034                           	callstack 0
  1035                           
  1036                           ; 2 bytes @ 0x2
  1037   000003                     	ds	1
  1038   000004                     ??i2_gpio_pin_write_logic:
  1039                           
  1040                           ; 1 bytes @ 0x3
  1041   000004                     	ds	1
  1042   000005                     ??i2_fputc:
  1043   000005                     i2___awdiv@counter:
  1044                           	callstack 0
  1045   000005                     i2___awmod@counter:
  1046                           	callstack 0
  1047   000005                     i2memset@n:
  1048                           	callstack 0
  1049                           
  1050                           ; 2 bytes @ 0x4
  1051   000005                     	ds	1
  1052   000006                     i2___awdiv@sign:
  1053                           	callstack 0
  1054   000006                     i2___awmod@sign:
  1055                           	callstack 0
  1056                           
  1057                           ; 1 bytes @ 0x5
  1058   000006                     	ds	1
  1059   000007                     ??i2_memset:
  1060   000007                     ?i2_abs:
  1061                           	callstack 0
  1062   000007                     i2___awdiv@quotient:
  1063                           	callstack 0
  1064   000007                     i2abs@a:
  1065                           	callstack 0
  1066                           
  1067                           ; 2 bytes @ 0x6
  1068   000007                     	ds	2
  1069   000009                     ??i2_abs:
  1070   000009                     i2memset@k:
  1071                           	callstack 0
  1072                           
  1073                           ; 2 bytes @ 0x8
  1074   000009                     	ds	1
  1075   00000A                     i2gpio_pin_write_logic@ret:
  1076                           	callstack 0
  1077   00000A                     i2fputs@s:
  1078                           	callstack 0
  1079                           
  1080                           ; 2 bytes @ 0x9
  1081   00000A                     	ds	1
  1082   00000B                     i2lcd_send_4bits@lcd:
  1083                           	callstack 0
  1084   00000B                     i2lcd_4bit_send_enable_signal@lcd:
  1085                           	callstack 0
  1086   00000B                     i2memset@s:
  1087                           	callstack 0
  1088                           
  1089                           ; 2 bytes @ 0xA
  1090   00000B                     	ds	1
  1091   00000C                     i2fputs@fp:
  1092                           	callstack 0
  1093                           
  1094                           ; 2 bytes @ 0xB
  1095   00000C                     	ds	1
  1096   00000D                     i2lcd_send_4bits@_data_command:
  1097                           	callstack 0
  1098   00000D                     i2lcd_4bit_send_enable_signal@ret:
  1099                           	callstack 0
  1100                           
  1101                           ; 1 bytes @ 0xC
  1102   00000D                     	ds	1
  1103   00000E                     i2lcd_send_4bits@ret:
  1104                           	callstack 0
  1105   00000E                     i2fputs@c:
  1106                           	callstack 0
  1107                           
  1108                           ; 1 bytes @ 0xD
  1109   00000E                     	ds	1
  1110   00000F                     i2lcd_4bit_send_command@lcd:
  1111                           	callstack 0
  1112   00000F                     i2lcd_4bit_send_char_data@lcd:
  1113                           	callstack 0
  1114   00000F                     i2fputs@i:
  1115                           	callstack 0
  1116                           
  1117                           ; 2 bytes @ 0xE
  1118   00000F                     	ds	2
  1119   000011                     i2lcd_4bit_send_command@command:
  1120                           	callstack 0
  1121   000011                     i2lcd_4bit_send_char_data@data:
  1122                           	callstack 0
  1123   000011                     i2pad@fp:
  1124                           	callstack 0
  1125                           
  1126                           ; 2 bytes @ 0x10
  1127   000011                     	ds	1
  1128   000012                     i2lcd_4bit_send_command@ret:
  1129                           	callstack 0
  1130   000012                     i2lcd_4bit_send_char_data@ret:
  1131                           	callstack 0
  1132                           
  1133                           ; 1 bytes @ 0x11
  1134   000012                     	ds	1
  1135   000013                     i2lcd_4bit_send_string@lcd:
  1136                           	callstack 0
  1137   000013                     i2pad@buf:
  1138                           	callstack 0
  1139                           
  1140                           ; 2 bytes @ 0x12
  1141   000013                     	ds	2
  1142   000015                     i2lcd_4bit_send_string@str:
  1143                           	callstack 0
  1144   000015                     i2pad@p:
  1145                           	callstack 0
  1146                           
  1147                           ; 2 bytes @ 0x14
  1148   000015                     	ds	2
  1149   000017                     ??i2_pad:
  1150                           
  1151                           ; 1 bytes @ 0x16
  1152   000017                     	ds	1
  1153   000018                     i2pad@i:
  1154                           	callstack 0
  1155                           
  1156                           ; 2 bytes @ 0x17
  1157   000018                     	ds	2
  1158   00001A                     i2pad@w:
  1159                           	callstack 0
  1160                           
  1161                           ; 2 bytes @ 0x19
  1162   00001A                     	ds	2
  1163   00001C                     i2dtoa@fp:
  1164                           	callstack 0
  1165                           
  1166                           ; 2 bytes @ 0x1B
  1167   00001C                     	ds	2
  1168   00001E                     i2dtoa@d:
  1169                           	callstack 0
  1170                           
  1171                           ; 2 bytes @ 0x1D
  1172   00001E                     	ds	2
  1173   000020                     i2_dtoa$3417:
  1174                           	callstack 0
  1175                           
  1176                           ; 2 bytes @ 0x1F
  1177   000020                     	ds	2
  1178   000022                     i2dtoa@p:
  1179                           	callstack 0
  1180                           
  1181                           ; 2 bytes @ 0x21
  1182   000022                     	ds	2
  1183   000024                     i2dtoa@w:
  1184                           	callstack 0
  1185                           
  1186                           ; 2 bytes @ 0x23
  1187   000024                     	ds	2
  1188   000026                     i2dtoa@i:
  1189                           	callstack 0
  1190                           
  1191                           ; 2 bytes @ 0x25
  1192   000026                     	ds	2
  1193   000028                     i2dtoa@s:
  1194                           	callstack 0
  1195                           
  1196                           ; 1 bytes @ 0x27
  1197   000028                     	ds	1
  1198   000029                     i2vfpfcnvrt@fp:
  1199                           	callstack 0
  1200                           
  1201                           ; 2 bytes @ 0x28
  1202   000029                     	ds	2
  1203   00002B                     i2vfpfcnvrt@fmt:
  1204                           	callstack 0
  1205                           
  1206                           ; 2 bytes @ 0x2A
  1207   00002B                     	ds	2
  1208   00002D                     i2vfpfcnvrt@ap:
  1209                           	callstack 0
  1210                           
  1211                           ; 2 bytes @ 0x2C
  1212   00002D                     	ds	2
  1213   00002F                     ??i2_vfpfcnvrt:
  1214                           
  1215                           ; 1 bytes @ 0x2E
  1216   00002F                     	ds	2
  1217   000031                     i2vfpfcnvrt@convarg:
  1218                           	callstack 0
  1219                           
  1220                           ; 4 bytes @ 0x30
  1221   000031                     	ds	4
  1222   000035                     i2vfpfcnvrt@cp:
  1223                           	callstack 0
  1224                           
  1225                           ; 2 bytes @ 0x34
  1226   000035                     	ds	2
  1227   000037                     ?i2_vfprintf:
  1228                           	callstack 0
  1229   000037                     i2vfprintf@fp:
  1230                           	callstack 0
  1231                           
  1232                           ; 2 bytes @ 0x36
  1233   000037                     	ds	2
  1234   000039                     i2vfprintf@fmt:
  1235                           	callstack 0
  1236                           
  1237                           ; 2 bytes @ 0x38
  1238   000039                     	ds	2
  1239   00003B                     i2vfprintf@ap:
  1240                           	callstack 0
  1241                           
  1242                           ; 2 bytes @ 0x3A
  1243   00003B                     	ds	2
  1244   00003D                     i2vfprintf@cfmt:
  1245                           	callstack 0
  1246                           
  1247                           ; 2 bytes @ 0x3C
  1248   00003D                     	ds	2
  1249   00003F                     ?i2_sprintf:
  1250                           	callstack 0
  1251   00003F                     i2sprintf@s:
  1252                           	callstack 0
  1253                           
  1254                           ; 2 bytes @ 0x3E
  1255   00003F                     	ds	2
  1256   000041                     i2sprintf@fmt:
  1257                           	callstack 0
  1258                           
  1259                           ; 2 bytes @ 0x40
  1260   000041                     	ds	4
  1261   000045                     i2sprintf@ap:
  1262                           	callstack 0
  1263                           
  1264                           ; 2 bytes @ 0x44
  1265   000045                     	ds	2
  1266   000047                     i2sprintf@f:
  1267                           	callstack 0
  1268                           
  1269                           ; 12 bytes @ 0x46
  1270   000047                     	ds	12
  1271   000053                     i2convert_uint8_to_string@str:
  1272                           	callstack 0
  1273                           
  1274                           ; 2 bytes @ 0x52
  1275   000053                     	ds	2
  1276   000055                     i2convert_uint8_to_string@Temp_str:
  1277                           	callstack 0
  1278                           
  1279                           ; 4 bytes @ 0x54
  1280   000055                     	ds	4
  1281   000059                     i2convert_uint8_to_string@value:
  1282                           	callstack 0
  1283                           
  1284                           ; 1 bytes @ 0x58
  1285   000059                     	ds	1
  1286   00005A                     i2convert_uint8_to_string@cnt:
  1287                           	callstack 0
  1288                           
  1289                           ; 1 bytes @ 0x59
  1290   00005A                     	ds	1
  1291   00005B                     i2USART_TX_INT@counter_Str:
  1292                           	callstack 0
  1293                           
  1294                           ; 4 bytes @ 0x5A
  1295   00005B                     	ds	4
  1296   00005F                     ??_InterruptManagerHigh:
  1297   00005F                     
  1298                           ; 1 bytes @ 0x5E
  1299   00005F                     	ds	12
  1300                           
  1301 ;;
  1302 ;;Main: autosize = 0, tempsize = 2, incstack = 0, save=0
  1303 ;;
  1304 ;; *************** function _main *****************
  1305 ;; Defined at:
  1306 ;;		line 14 in file "application.c"
  1307 ;; Parameters:    Size  Location     Type
  1308 ;;		None
  1309 ;; Auto vars:     Size  Location     Type
  1310 ;;		None
  1311 ;; Return value:  Size  Location     Type
  1312 ;;                  2  1413[None  ] int 
  1313 ;; Registers used:
  1314 ;;		wreg, fsr2l, fsr2h, status,2, status,0, prodl, prodh, cstack
  1315 ;; Tracked objects:
  1316 ;;		On entry : 0/0
  1317 ;;		On exit  : 0/0
  1318 ;;		Unchanged: 0/0
  1319 ;; Data sizes:     COMRAM   BANK0   BANK1   BANK2   BANK3   BANK4   BANK5   BANK6   BANK7   BANK8   BANK9  BANK10  BANK1
      +1  BANK12  BANK13  BANK14  BANK15
  1320 ;;      Params:         0       0       0       0       0       0       0       0       0       0       0       0       
      +0       0       0       0       0
  1321 ;;      Locals:         0       0       0       0       0       0       0       0       0       0       0       0       
      +0       0       0       0       0
  1322 ;;      Temps:          0       0       2       0       0       0       0       0       0       0       0       0       
      +0       0       0       0       0
  1323 ;;      Totals:         0       0       2       0       0       0       0       0       0       0       0       0       
      +0       0       0       0       0
  1324 ;;Total ram usage:        2 bytes
  1325 ;; Hardware stack levels required when called: 29
  1326 ;; This function calls:
  1327 ;;		_ecu_layer_initialize
  1328 ;;		_mcal_layer_initialize
  1329 ;; This function is called by:
  1330 ;;		Startup code after reset
  1331 ;; This function uses a non-reentrant model
  1332 ;;
  1333                           
  1334                           	psect	text0
  1335   0046E8                     __ptext0:
  1336                           	callstack 0
  1337   0046E8                     _main:
  1338                           	callstack 2
  1339   0046E8                     
  1340                           ;application.c: 16:     mcal_layer_initialize();
  1341   0046E8  ECC7  F023         	call	_mcal_layer_initialize	;wreg free
  1342   0046EC                     
  1343                           ;application.c: 17:     ecu_layer_initialize();
  1344   0046EC  EC9B  F023         	call	_ecu_layer_initialize	;wreg free
  1345   0046F0                     l12059:
  1346                           
  1347                           ;application.c: 19:     {;application.c: 22:         _delay((unsigned long)((1500)*(4000
      +                          000UL/4000.0)));
  1348   0046F0  0E08               	movlw	8
  1349   0046F2  0101               	movlb	1	; () banked
  1350   0046F4  6FAF               	movwf	(??_main+1)& (0+255),b
  1351   0046F6  0E9D               	movlw	157
  1352   0046F8  6FAE               	movwf	??_main& (0+255),b
  1353   0046FA  0E05               	movlw	5
  1354   0046FC                     u14957:
  1355   0046FC  2EE8               	decfsz	wreg,f,c
  1356   0046FE  D7FE               	bra	u14957
  1357   004700  2FAE               	decfsz	??_main& (0+255),f,b
  1358   004702  D7FC               	bra	u14957
  1359   004704  2FAF               	decfsz	(??_main+1)& (0+255),f,b
  1360   004706  D7FA               	bra	u14957
  1361   004708  D000               	nop2	
  1362   00470A  EF78  F023         	goto	l12059
  1363   00470E  EF70  F001         	goto	start
  1364   004712                     __end_of_main:
  1365                           	callstack 0
  1366                           
  1367 ;; *************** function _mcal_layer_initialize *****************
  1368 ;; Defined at:
  1369 ;;		line 13 in file "MCAL_Layer/mcal_layer_init.c"
  1370 ;; Parameters:    Size  Location     Type
  1371 ;;		None
  1372 ;; Auto vars:     Size  Location     Type
  1373 ;;		None
  1374 ;; Return value:  Size  Location     Type
  1375 ;;                  1    wreg      void 
  1376 ;; Registers used:
  1377 ;;		wreg, fsr2l, fsr2h, status,2, status,0, cstack
  1378 ;; Tracked objects:
  1379 ;;		On entry : 0/0
  1380 ;;		On exit  : 0/0
  1381 ;;		Unchanged: 0/0
  1382 ;; Data sizes:     COMRAM   BANK0   BANK1   BANK2   BANK3   BANK4   BANK5   BANK6   BANK7   BANK8   BANK9  BANK10  BANK1
      +1  BANK12  BANK13  BANK14  BANK15
  1383 ;;      Params:         0       0       0       0       0       0       0       0       0       0       0       0       
      +0       0       0       0       0
  1384 ;;      Locals:         0       0       0       0       0       0       0       0       0       0       0       0       
      +0       0       0       0       0
  1385 ;;      Temps:          0       0       0       0       0       0       0       0       0       0       0       0       
      +0       0       0       0       0
  1386 ;;      Totals:         0       0       0       0       0       0       0       0       0       0       0       0       
      +0       0       0       0       0
  1387 ;;Total ram usage:        0 bytes
  1388 ;; Hardware stack levels used: 1
  1389 ;; Hardware stack levels required when called: 28
  1390 ;; This function calls:
  1391 ;;		_USART_ASYNC_9600_BAUDRATE_INIT
  1392 ;; This function is called by:
  1393 ;;		_main
  1394 ;; This function uses a non-reentrant model
  1395 ;;
  1396                           
  1397                           	psect	text1
  1398   00478E                     __ptext1:
  1399                           	callstack 0
  1400   00478E                     _mcal_layer_initialize:
  1401                           	callstack 2
  1402   00478E                     
  1403                           ;MCAL_Layer/mcal_layer_init.c: 15:     USART_ASYNC_9600_BAUDRATE_INIT();
  1404   00478E  ECDC  F022         	call	_USART_ASYNC_9600_BAUDRATE_INIT	;wreg free
  1405   004792  0012               	return		;funcret
  1406   004794                     __end_of_mcal_layer_initialize:
  1407                           	callstack 0
  1408                           
  1409 ;; *************** function _USART_ASYNC_9600_BAUDRATE_INIT *****************
  1410 ;; Defined at:
  1411 ;;		line 66 in file "MCAL_Layer/mcal_layer_init.c"
  1412 ;; Parameters:    Size  Location     Type
  1413 ;;		None
  1414 ;; Auto vars:     Size  Location     Type
  1415 ;;		None
  1416 ;; Return value:  Size  Location     Type
  1417 ;;                  1    wreg      void 
  1418 ;; Registers used:
  1419 ;;		wreg, fsr2l, fsr2h, status,2, status,0, cstack
  1420 ;; Tracked objects:
  1421 ;;		On entry : 0/0
  1422 ;;		On exit  : 0/0
  1423 ;;		Unchanged: 0/0
  1424 ;; Data sizes:     COMRAM   BANK0   BANK1   BANK2   BANK3   BANK4   BANK5   BANK6   BANK7   BANK8   BANK9  BANK10  BANK1
      +1  BANK12  BANK13  BANK14  BANK15
  1425 ;;      Params:         0       0       0       0       0       0       0       0       0       0       0       0       
      +0       0       0       0       0
  1426 ;;      Locals:         0       0       0       0       0       0       0       0       0       0       0       0       
      +0       0       0       0       0
  1427 ;;      Temps:          0       0       0       0       0       0       0       0       0       0       0       0       
      +0       0       0       0       0
  1428 ;;      Totals:         0       0       0       0       0       0       0       0       0       0       0       0       
      +0       0       0       0       0
  1429 ;;Total ram usage:        0 bytes
  1430 ;; Hardware stack levels used: 1
  1431 ;; Hardware stack levels required when called: 27
  1432 ;; This function calls:
  1433 ;;		_EUSART_ASYNC_Init
  1434 ;; This function is called by:
  1435 ;;		_mcal_layer_initialize
  1436 ;; This function uses a non-reentrant model
  1437 ;;
  1438                           
  1439                           	psect	text2
  1440   0045B8                     __ptext2:
  1441                           	callstack 0
  1442   0045B8                     _USART_ASYNC_9600_BAUDRATE_INIT:
  1443                           	callstack 2
  1444   0045B8                     
  1445                           ;MCAL_Layer/mcal_layer_init.c: 67:     usart_obj.BaudRate=9600;
  1446   0045B8  0E80               	movlw	128
  1447   0045BA  0101               	movlb	1	; () banked
  1448   0045BC  6F57               	movwf	_usart_obj& (0+255),b
  1449   0045BE  0E25               	movlw	37
  1450   0045C0  6F58               	movwf	(_usart_obj+1)& (0+255),b
  1451   0045C2  0E00               	movlw	0
  1452   0045C4  6F59               	movwf	(_usart_obj+2)& (0+255),b
  1453   0045C6  0E00               	movlw	0
  1454   0045C8  6F5A               	movwf	(_usart_obj+3)& (0+255),b
  1455   0045CA                     
  1456                           ; BSR set to: 1
  1457                           ;MCAL_Layer/mcal_layer_init.c: 68:     usart_obj.EUSART_RxDefaultInterruptHandler=USART_
      +                          RX_INT;
  1458   0045CA  0E7A               	movlw	low _USART_RX_INT
  1459   0045CC  6F63               	movwf	(_usart_obj+12)& (0+255),b
  1460   0045CE  0E45               	movlw	high _USART_RX_INT
  1461   0045D0  6F64               	movwf	(_usart_obj+13)& (0+255),b
  1462   0045D2                     
  1463                           ; BSR set to: 1
  1464                           ;MCAL_Layer/mcal_layer_init.c: 69:     usart_obj.EUSART_TxDefaultInterruptHandler=USART_
      +                          TX_INT;
  1465   0045D2  0EB6               	movlw	low _USART_TX_INT
  1466   0045D4  6F61               	movwf	(_usart_obj+10)& (0+255),b
  1467   0045D6  0E40               	movlw	high _USART_TX_INT
  1468   0045D8  6F62               	movwf	(_usart_obj+11)& (0+255),b
  1469                           
  1470                           ;MCAL_Layer/mcal_layer_init.c: 70:     usart_obj.baudrate_gen_config = BAUDRATE_ASYNC_16
      +                          BIT_HIGH_SPEED;
  1471   0045DA  0E03               	movlw	3
  1472   0045DC  6F5B               	movwf	(_usart_obj+4)& (0+255),b
  1473   0045DE                     
  1474                           ; BSR set to: 1
  1475                           ;MCAL_Layer/mcal_layer_init.c: 71:     usart_obj.usart_tx_cfg.usart_tx_enable = 1;
  1476   0045DE  8B5C               	bsf	(_usart_obj+5)& (0+255),5,b
  1477   0045E0                     
  1478                           ; BSR set to: 1
  1479                           ;MCAL_Layer/mcal_layer_init.c: 72:     usart_obj.usart_tx_cfg.usart_tx_interrupt_enable 
      +                          =1;
  1480   0045E0  8D5C               	bsf	(_usart_obj+5)& (0+255),6,b
  1481   0045E2                     
  1482                           ; BSR set to: 1
  1483                           ;MCAL_Layer/mcal_layer_init.c: 73:     usart_obj.usart_rx_cfg.usart_rx_enable =1;
  1484   0045E2  8B5E               	bsf	(_usart_obj+7)& (0+255),5,b
  1485   0045E4                     
  1486                           ; BSR set to: 1
  1487                           ;MCAL_Layer/mcal_layer_init.c: 74:     usart_obj.usart_rx_cfg.usart_rx_interrupt_enable 
      +                          = 1;
  1488   0045E4  8D5E               	bsf	(_usart_obj+7)& (0+255),6,b
  1489   0045E6                     
  1490                           ; BSR set to: 1
  1491                           ;MCAL_Layer/mcal_layer_init.c: 75:     EUSART_ASYNC_Init(&usart_obj);
  1492   0045E6  0E57               	movlw	low _usart_obj
  1493   0045E8  6FAC               	movwf	EUSART_ASYNC_Init@_eusart& (0+255),b
  1494   0045EA  0E01               	movlw	high _usart_obj
  1495   0045EC  6FAD               	movwf	(EUSART_ASYNC_Init@_eusart+1)& (0+255),b
  1496   0045EE  EC37  F022         	call	_EUSART_ASYNC_Init	;wreg free
  1497   0045F2  0012               	return		;funcret
  1498   0045F4                     __end_of_USART_ASYNC_9600_BAUDRATE_INIT:
  1499                           	callstack 0
  1500                           
  1501 ;; *************** function _EUSART_ASYNC_Init *****************
  1502 ;; Defined at:
  1503 ;;		line 18 in file "MCAL_Layer/USART/hal_usart.c"
  1504 ;; Parameters:    Size  Location     Type
  1505 ;;  _eusart         2   67[BANK1 ] PTR const struct .
  1506 ;;		 -> usart_obj(18), 
  1507 ;; Auto vars:     Size  Location     Type
  1508 ;;  ret             1    0        unsigned char 
  1509 ;; Return value:  Size  Location     Type
  1510 ;;                  1    wreg      unsigned char 
  1511 ;; Registers used:
  1512 ;;		wreg, fsr2l, fsr2h, status,2, status,0, cstack
  1513 ;; Tracked objects:
  1514 ;;		On entry : 0/0
  1515 ;;		On exit  : 0/0
  1516 ;;		Unchanged: 0/0
  1517 ;; Data sizes:     COMRAM   BANK0   BANK1   BANK2   BANK3   BANK4   BANK5   BANK6   BANK7   BANK8   BANK9  BANK10  BANK1
      +1  BANK12  BANK13  BANK14  BANK15
  1518 ;;      Params:         0       0       2       0       0       0       0       0       0       0       0       0       
      +0       0       0       0       0
  1519 ;;      Locals:         0       0       0       0       0       0       0       0       0       0       0       0       
      +0       0       0       0       0
  1520 ;;      Temps:          0       0       0       0       0       0       0       0       0       0       0       0       
      +0       0       0       0       0
  1521 ;;      Totals:         0       0       2       0       0       0       0       0       0       0       0       0       
      +0       0       0       0       0
  1522 ;;Total ram usage:        2 bytes
  1523 ;; Hardware stack levels used: 1
  1524 ;; Hardware stack levels required when called: 26
  1525 ;; This function calls:
  1526 ;;		_EUSART_ASYNC_RX_Init
  1527 ;;		_EUSART_ASYNC_TX_Init
  1528 ;;		_EUSART_Baud_Rate_Calcualtion
  1529 ;; This function is called by:
  1530 ;;		_USART_ASYNC_9600_BAUDRATE_INIT
  1531 ;; This function uses a non-reentrant model
  1532 ;;
  1533                           
  1534                           	psect	text3
  1535   00446E                     __ptext3:
  1536                           	callstack 0
  1537   00446E                     _EUSART_ASYNC_Init:
  1538                           	callstack 2
  1539   00446E                     
  1540                           ;MCAL_Layer/USART/hal_usart.c: 21:     if(((void*)0) == _eusart )
  1541   00446E  0101               	movlb	1	; () banked
  1542   004470  51AC               	movf	EUSART_ASYNC_Init@_eusart& (0+255),w,b
  1543   004472  11AD               	iorwf	(EUSART_ASYNC_Init@_eusart+1)& (0+255),w,b
  1544   004474  A4D8               	btfss	status,2,c
  1545   004476  EF3F  F022         	goto	u7731
  1546   00447A  EF41  F022         	goto	u7730
  1547   00447E                     u7731:
  1548   00447E  EF43  F022         	goto	l1460
  1549   004482                     u7730:
  1550   004482                     
  1551                           ; BSR set to: 1
  1552                           ;MCAL_Layer/USART/hal_usart.c: 24:     }
  1553   004482  EF59  F022         	goto	l1462
  1554   004486                     l1460:
  1555                           
  1556                           ; BSR set to: 1
  1557                           ;MCAL_Layer/USART/hal_usart.c: 26:     {;MCAL_Layer/USART/hal_usart.c: 27:         ((*((
      +                          volatile RCSTA_t *)(0xFAB))).SPEN = 0);
  1558   004486  9EAB               	bcf	171,7,c	;volatile
  1559   004488                     
  1560                           ; BSR set to: 1
  1561                           ;MCAL_Layer/USART/hal_usart.c: 28:         (*((volatile uint8*)(0xF94))) |= (1<<6);
  1562   004488  8C94               	bsf	148,6,c	;volatile
  1563                           
  1564                           ;MCAL_Layer/USART/hal_usart.c: 29:         (*((volatile uint8*)(0xF94))) |= (1<<7);
  1565   00448A  8E94               	bsf	148,7,c	;volatile
  1566   00448C                     
  1567                           ; BSR set to: 1
  1568                           ;MCAL_Layer/USART/hal_usart.c: 30:         EUSART_Baud_Rate_Calcualtion(_eusart);
  1569   00448C  C1AC  F1A0         	movff	EUSART_ASYNC_Init@_eusart,EUSART_Baud_Rate_Calcualtion@_eusart
  1570   004490  C1AD  F1A1         	movff	EUSART_ASYNC_Init@_eusart+1,EUSART_Baud_Rate_Calcualtion@_eusart+1
  1571   004494  EC0B  F008         	call	_EUSART_Baud_Rate_Calcualtion	;wreg free
  1572   004498                     
  1573                           ;MCAL_Layer/USART/hal_usart.c: 31:         EUSART_ASYNC_TX_Init(_eusart);
  1574   004498  C1AC  F169         	movff	EUSART_ASYNC_Init@_eusart,EUSART_ASYNC_TX_Init@_eusart
  1575   00449C  C1AD  F16A         	movff	EUSART_ASYNC_Init@_eusart+1,EUSART_ASYNC_TX_Init@_eusart+1
  1576   0044A0  ECFB  F018         	call	_EUSART_ASYNC_TX_Init	;wreg free
  1577   0044A4                     
  1578                           ;MCAL_Layer/USART/hal_usart.c: 32:         EUSART_ASYNC_RX_Init(_eusart);
  1579   0044A4  C1AC  F169         	movff	EUSART_ASYNC_Init@_eusart,EUSART_ASYNC_RX_Init@_eusart
  1580   0044A8  C1AD  F16A         	movff	EUSART_ASYNC_Init@_eusart+1,EUSART_ASYNC_RX_Init@_eusart+1
  1581   0044AC  ECE9  F017         	call	_EUSART_ASYNC_RX_Init	;wreg free
  1582   0044B0                     
  1583                           ;MCAL_Layer/USART/hal_usart.c: 33:         ((*((volatile RCSTA_t *)(0xFAB))).SPEN = 1);
  1584   0044B0  8EAB               	bsf	171,7,c	;volatile
  1585   0044B2                     l1462:
  1586   0044B2  0012               	return		;funcret
  1587   0044B4                     __end_of_EUSART_ASYNC_Init:
  1588                           	callstack 0
  1589                           
  1590 ;; *************** function _EUSART_Baud_Rate_Calcualtion *****************
  1591 ;; Defined at:
  1592 ;;		line 145 in file "MCAL_Layer/USART/hal_usart.c"
  1593 ;; Parameters:    Size  Location     Type
  1594 ;;  _eusart         2   55[BANK1 ] PTR const struct .
  1595 ;;		 -> usart_obj(18), 
  1596 ;; Auto vars:     Size  Location     Type
  1597 ;;  Baud_Rate_Te    4   59[BANK1 ] float 
  1598 ;; Return value:  Size  Location     Type
  1599 ;;                  1    wreg      void 
  1600 ;; Registers used:
  1601 ;;		wreg, fsr2l, fsr2h, status,2, status,0, cstack
  1602 ;; Tracked objects:
  1603 ;;		On entry : 0/0
  1604 ;;		On exit  : 0/0
  1605 ;;		Unchanged: 0/0
  1606 ;; Data sizes:     COMRAM   BANK0   BANK1   BANK2   BANK3   BANK4   BANK5   BANK6   BANK7   BANK8   BANK9  BANK10  BANK1
      +1  BANK12  BANK13  BANK14  BANK15
  1607 ;;      Params:         0       0       2       0       0       0       0       0       0       0       0       0       
      +0       0       0       0       0
  1608 ;;      Locals:         0       0       8       0       0       0       0       0       0       0       0       0       
      +0       0       0       0       0
  1609 ;;      Temps:          0       0       2       0       0       0       0       0       0       0       0       0       
      +0       0       0       0       0
  1610 ;;      Totals:         0       0      12       0       0       0       0       0       0       0       0       0       
      +0       0       0       0       0
  1611 ;;Total ram usage:       12 bytes
  1612 ;; Hardware stack levels used: 1
  1613 ;; Hardware stack levels required when called: 25
  1614 ;; This function calls:
  1615 ;;		___fladd
  1616 ;;		___fldiv
  1617 ;;		___fltol
  1618 ;;		___xxtofl
  1619 ;; This function is called by:
  1620 ;;		_EUSART_ASYNC_Init
  1621 ;; This function uses a non-reentrant model
  1622 ;;
  1623                           
  1624                           	psect	text4
  1625   001016                     __ptext4:
  1626                           	callstack 0
  1627   001016                     _EUSART_Baud_Rate_Calcualtion:
  1628                           	callstack 2
  1629   001016                     
  1630                           ;MCAL_Layer/USART/hal_usart.c: 145: static void EUSART_Baud_Rate_Calcualtion(const usart
      +                          _t* _eusart);MCAL_Layer/USART/hal_usart.c: 146: {;MCAL_Layer/USART/hal_usart.c: 147:    
      +                           float Baud_Rate_Temp =0;
  1631   001016  0E00               	movlw	0
  1632   001018  0101               	movlb	1	; () banked
  1633   00101A  6FA4               	movwf	EUSART_Baud_Rate_Calcualtion@Baud_Rate_Temp& (0+255),b
  1634   00101C  0E00               	movlw	0
  1635   00101E  6FA5               	movwf	(EUSART_Baud_Rate_Calcualtion@Baud_Rate_Temp+1)& (0+255),b
  1636   001020  0E00               	movlw	0
  1637   001022  6FA6               	movwf	(EUSART_Baud_Rate_Calcualtion@Baud_Rate_Temp+2)& (0+255),b
  1638   001024  0E00               	movlw	0
  1639   001026  6FA7               	movwf	(EUSART_Baud_Rate_Calcualtion@Baud_Rate_Temp+3)& (0+255),b
  1640                           
  1641                           ;MCAL_Layer/USART/hal_usart.c: 148:     switch (_eusart->baudrate_gen_config)
  1642   001028  EF42  F00A         	goto	l7555
  1643   00102C                     l1516:
  1644                           
  1645                           ; BSR set to: 1
  1646                           ;MCAL_Layer/USART/hal_usart.c: 151:             (*((volatile TXSTA_t *)(0xFAC))).SYNC = 
      +                          0;
  1647   00102C  98AC               	bcf	172,4,c	;volatile
  1648                           
  1649                           ;MCAL_Layer/USART/hal_usart.c: 152:             (*((volatile TXSTA_t *)(0xFAC))).BRGH = 
      +                          0;
  1650   00102E  94AC               	bcf	172,2,c	;volatile
  1651                           
  1652                           ;MCAL_Layer/USART/hal_usart.c: 153:             (*((volatile BAUDCON_t *)(0xFB8))).BRG16
      +                           = 0;
  1653   001030  96B8               	bcf	184,3,c	;volatile
  1654   001032                     
  1655                           ; BSR set to: 1
  1656                           ;MCAL_Layer/USART/hal_usart.c: 154:             Baud_Rate_Temp = ((4000000UL/(float)_eus
      +                          art->BaudRate)/64)-1;
  1657   001032  C1A0  FFD9         	movff	EUSART_Baud_Rate_Calcualtion@_eusart,fsr2l
  1658   001036  C1A1  FFDA         	movff	EUSART_Baud_Rate_Calcualtion@_eusart+1,fsr2h
  1659   00103A  CFDE F169          	movff	postinc2,___xxtofl@val
  1660   00103E  CFDE F16A          	movff	postinc2,___xxtofl@val+1
  1661   001042  CFDE F16B          	movff	postinc2,___xxtofl@val+2
  1662   001046  CFDE F16C          	movff	postinc2,___xxtofl@val+3
  1663   00104A  0E00               	movlw	0
  1664   00104C  EC26  F010         	call	___xxtofl
  1665   001050  C169  F17B         	movff	?___xxtofl,___fldiv@a
  1666   001054  C16A  F17C         	movff	?___xxtofl+1,___fldiv@a+1
  1667   001058  C16B  F17D         	movff	?___xxtofl+2,___fldiv@a+2
  1668   00105C  C16C  F17E         	movff	?___xxtofl+3,___fldiv@a+3
  1669   001060  0E00               	movlw	0
  1670   001062  0101               	movlb	1	; () banked
  1671   001064  6F77               	movwf	___fldiv@b& (0+255),b
  1672   001066  0E24               	movlw	36
  1673   001068  6F78               	movwf	(___fldiv@b+1)& (0+255),b
  1674   00106A  0E74               	movlw	116
  1675   00106C  6F79               	movwf	(___fldiv@b+2)& (0+255),b
  1676   00106E  0E4A               	movlw	74
  1677   001070  6F7A               	movwf	(___fldiv@b+3)& (0+255),b
  1678   001072  ECF0  F00C         	call	___fldiv	;wreg free
  1679   001076  C177  F1A8         	movff	?___fldiv,_EUSART_Baud_Rate_Calcualtion$4319
  1680   00107A  C178  F1A9         	movff	?___fldiv+1,_EUSART_Baud_Rate_Calcualtion$4319+1
  1681   00107E  C179  F1AA         	movff	?___fldiv+2,_EUSART_Baud_Rate_Calcualtion$4319+2
  1682   001082  C17A  F1AB         	movff	?___fldiv+3,_EUSART_Baud_Rate_Calcualtion$4319+3
  1683   001086                     
  1684                           ;MCAL_Layer/USART/hal_usart.c: 154:             Baud_Rate_Temp = ((4000000UL/(float)_eus
      +                          art->BaudRate)/64)-1;
  1685   001086  0E00               	movlw	0
  1686   001088  0101               	movlb	1	; () banked
  1687   00108A  6F7B               	movwf	___fldiv@a& (0+255),b
  1688   00108C  0E00               	movlw	0
  1689   00108E  6F7C               	movwf	(___fldiv@a+1)& (0+255),b
  1690   001090  0E80               	movlw	128
  1691   001092  6F7D               	movwf	(___fldiv@a+2)& (0+255),b
  1692   001094  0E42               	movlw	66
  1693   001096  6F7E               	movwf	(___fldiv@a+3)& (0+255),b
  1694   001098  C1A8  F177         	movff	_EUSART_Baud_Rate_Calcualtion$4319,___fldiv@b
  1695   00109C  C1A9  F178         	movff	_EUSART_Baud_Rate_Calcualtion$4319+1,___fldiv@b+1
  1696   0010A0  C1AA  F179         	movff	_EUSART_Baud_Rate_Calcualtion$4319+2,___fldiv@b+2
  1697   0010A4  C1AB  F17A         	movff	_EUSART_Baud_Rate_Calcualtion$4319+3,___fldiv@b+3
  1698   0010A8  ECF0  F00C         	call	___fldiv	;wreg free
  1699   0010AC  C177  F190         	movff	?___fldiv,___fladd@b
  1700   0010B0  C178  F191         	movff	?___fldiv+1,___fladd@b+1
  1701   0010B4  C179  F192         	movff	?___fldiv+2,___fladd@b+2
  1702   0010B8  C17A  F193         	movff	?___fldiv+3,___fladd@b+3
  1703   0010BC  0E00               	movlw	0
  1704   0010BE  0101               	movlb	1	; () banked
  1705   0010C0  6F94               	movwf	___fladd@a& (0+255),b
  1706   0010C2  0E00               	movlw	0
  1707   0010C4  6F95               	movwf	(___fladd@a+1)& (0+255),b
  1708   0010C6  0E80               	movlw	128
  1709   0010C8  6F96               	movwf	(___fladd@a+2)& (0+255),b
  1710   0010CA  0EBF               	movlw	191
  1711   0010CC  6F97               	movwf	(___fladd@a+3)& (0+255),b
  1712   0010CE  EC8F  F00A         	call	___fladd	;wreg free
  1713   0010D2  C190  F1A4         	movff	?___fladd,EUSART_Baud_Rate_Calcualtion@Baud_Rate_Temp
  1714   0010D6  C191  F1A5         	movff	?___fladd+1,EUSART_Baud_Rate_Calcualtion@Baud_Rate_Temp+1
  1715   0010DA  C192  F1A6         	movff	?___fladd+2,EUSART_Baud_Rate_Calcualtion@Baud_Rate_Temp+2
  1716   0010DE  C193  F1A7         	movff	?___fladd+3,EUSART_Baud_Rate_Calcualtion@Baud_Rate_Temp+3
  1717                           
  1718                           ;MCAL_Layer/USART/hal_usart.c: 155:             break;
  1719   0010E2  EF6D  F00A         	goto	l7557
  1720   0010E6                     l1518:
  1721                           
  1722                           ; BSR set to: 1
  1723                           ;MCAL_Layer/USART/hal_usart.c: 157:             (*((volatile TXSTA_t *)(0xFAC))).SYNC = 
      +                          0;
  1724   0010E6  98AC               	bcf	172,4,c	;volatile
  1725                           
  1726                           ;MCAL_Layer/USART/hal_usart.c: 158:             (*((volatile TXSTA_t *)(0xFAC))).BRGH = 
      +                          1;
  1727   0010E8  84AC               	bsf	172,2,c	;volatile
  1728                           
  1729                           ;MCAL_Layer/USART/hal_usart.c: 159:             (*((volatile BAUDCON_t *)(0xFB8))).BRG16
      +                           = 0;
  1730   0010EA  96B8               	bcf	184,3,c	;volatile
  1731   0010EC                     
  1732                           ; BSR set to: 1
  1733                           ;MCAL_Layer/USART/hal_usart.c: 160:             Baud_Rate_Temp = ((4000000UL/(float)_eus
      +                          art->BaudRate)/16)-1;
  1734   0010EC  C1A0  FFD9         	movff	EUSART_Baud_Rate_Calcualtion@_eusart,fsr2l
  1735   0010F0  C1A1  FFDA         	movff	EUSART_Baud_Rate_Calcualtion@_eusart+1,fsr2h
  1736   0010F4  CFDE F169          	movff	postinc2,___xxtofl@val
  1737   0010F8  CFDE F16A          	movff	postinc2,___xxtofl@val+1
  1738   0010FC  CFDE F16B          	movff	postinc2,___xxtofl@val+2
  1739   001100  CFDE F16C          	movff	postinc2,___xxtofl@val+3
  1740   001104  0E00               	movlw	0
  1741   001106  EC26  F010         	call	___xxtofl
  1742   00110A  C169  F17B         	movff	?___xxtofl,___fldiv@a
  1743   00110E  C16A  F17C         	movff	?___xxtofl+1,___fldiv@a+1
  1744   001112  C16B  F17D         	movff	?___xxtofl+2,___fldiv@a+2
  1745   001116  C16C  F17E         	movff	?___xxtofl+3,___fldiv@a+3
  1746   00111A  0E00               	movlw	0
  1747   00111C  0101               	movlb	1	; () banked
  1748   00111E  6F77               	movwf	___fldiv@b& (0+255),b
  1749   001120  0E24               	movlw	36
  1750   001122  6F78               	movwf	(___fldiv@b+1)& (0+255),b
  1751   001124  0E74               	movlw	116
  1752   001126  6F79               	movwf	(___fldiv@b+2)& (0+255),b
  1753   001128  0E4A               	movlw	74
  1754   00112A  6F7A               	movwf	(___fldiv@b+3)& (0+255),b
  1755   00112C  ECF0  F00C         	call	___fldiv	;wreg free
  1756   001130  C177  F1A8         	movff	?___fldiv,_EUSART_Baud_Rate_Calcualtion$4319
  1757   001134  C178  F1A9         	movff	?___fldiv+1,_EUSART_Baud_Rate_Calcualtion$4319+1
  1758   001138  C179  F1AA         	movff	?___fldiv+2,_EUSART_Baud_Rate_Calcualtion$4319+2
  1759   00113C  C17A  F1AB         	movff	?___fldiv+3,_EUSART_Baud_Rate_Calcualtion$4319+3
  1760   001140                     
  1761                           ;MCAL_Layer/USART/hal_usart.c: 160:             Baud_Rate_Temp = ((4000000UL/(float)_eus
      +                          art->BaudRate)/16)-1;
  1762   001140  0E00               	movlw	0
  1763   001142  0101               	movlb	1	; () banked
  1764   001144  6F7B               	movwf	___fldiv@a& (0+255),b
  1765   001146  0E00               	movlw	0
  1766   001148  6F7C               	movwf	(___fldiv@a+1)& (0+255),b
  1767   00114A  0E80               	movlw	128
  1768   00114C  6F7D               	movwf	(___fldiv@a+2)& (0+255),b
  1769   00114E  0E41               	movlw	65
  1770   001150  6F7E               	movwf	(___fldiv@a+3)& (0+255),b
  1771   001152  C1A8  F177         	movff	_EUSART_Baud_Rate_Calcualtion$4319,___fldiv@b
  1772   001156  C1A9  F178         	movff	_EUSART_Baud_Rate_Calcualtion$4319+1,___fldiv@b+1
  1773   00115A  C1AA  F179         	movff	_EUSART_Baud_Rate_Calcualtion$4319+2,___fldiv@b+2
  1774   00115E  C1AB  F17A         	movff	_EUSART_Baud_Rate_Calcualtion$4319+3,___fldiv@b+3
  1775   001162  ECF0  F00C         	call	___fldiv	;wreg free
  1776   001166  C177  F190         	movff	?___fldiv,___fladd@b
  1777   00116A  C178  F191         	movff	?___fldiv+1,___fladd@b+1
  1778   00116E  C179  F192         	movff	?___fldiv+2,___fladd@b+2
  1779   001172  C17A  F193         	movff	?___fldiv+3,___fladd@b+3
  1780   001176  0E00               	movlw	0
  1781   001178  0101               	movlb	1	; () banked
  1782   00117A  6F94               	movwf	___fladd@a& (0+255),b
  1783   00117C  0E00               	movlw	0
  1784   00117E  6F95               	movwf	(___fladd@a+1)& (0+255),b
  1785   001180  0E80               	movlw	128
  1786   001182  6F96               	movwf	(___fladd@a+2)& (0+255),b
  1787   001184  0EBF               	movlw	191
  1788   001186  6F97               	movwf	(___fladd@a+3)& (0+255),b
  1789   001188  EC8F  F00A         	call	___fladd	;wreg free
  1790   00118C  C190  F1A4         	movff	?___fladd,EUSART_Baud_Rate_Calcualtion@Baud_Rate_Temp
  1791   001190  C191  F1A5         	movff	?___fladd+1,EUSART_Baud_Rate_Calcualtion@Baud_Rate_Temp+1
  1792   001194  C192  F1A6         	movff	?___fladd+2,EUSART_Baud_Rate_Calcualtion@Baud_Rate_Temp+2
  1793   001198  C193  F1A7         	movff	?___fladd+3,EUSART_Baud_Rate_Calcualtion@Baud_Rate_Temp+3
  1794                           
  1795                           ;MCAL_Layer/USART/hal_usart.c: 161:             break;
  1796   00119C  EF6D  F00A         	goto	l7557
  1797   0011A0                     l1519:
  1798                           
  1799                           ; BSR set to: 1
  1800                           ;MCAL_Layer/USART/hal_usart.c: 163:             (*((volatile TXSTA_t *)(0xFAC))).SYNC = 
      +                          0;
  1801   0011A0  98AC               	bcf	172,4,c	;volatile
  1802                           
  1803                           ;MCAL_Layer/USART/hal_usart.c: 164:             (*((volatile TXSTA_t *)(0xFAC))).BRGH = 
      +                          0;
  1804   0011A2  94AC               	bcf	172,2,c	;volatile
  1805                           
  1806                           ;MCAL_Layer/USART/hal_usart.c: 165:             (*((volatile BAUDCON_t *)(0xFB8))).BRG16
      +                           = 1;
  1807   0011A4  86B8               	bsf	184,3,c	;volatile
  1808   0011A6                     
  1809                           ; BSR set to: 1
  1810                           ;MCAL_Layer/USART/hal_usart.c: 166:             Baud_Rate_Temp = ((4000000UL/(float)_eus
      +                          art->BaudRate)/16)-1;
  1811   0011A6  C1A0  FFD9         	movff	EUSART_Baud_Rate_Calcualtion@_eusart,fsr2l
  1812   0011AA  C1A1  FFDA         	movff	EUSART_Baud_Rate_Calcualtion@_eusart+1,fsr2h
  1813   0011AE  CFDE F169          	movff	postinc2,___xxtofl@val
  1814   0011B2  CFDE F16A          	movff	postinc2,___xxtofl@val+1
  1815   0011B6  CFDE F16B          	movff	postinc2,___xxtofl@val+2
  1816   0011BA  CFDE F16C          	movff	postinc2,___xxtofl@val+3
  1817   0011BE  0E00               	movlw	0
  1818   0011C0  EC26  F010         	call	___xxtofl
  1819   0011C4  C169  F17B         	movff	?___xxtofl,___fldiv@a
  1820   0011C8  C16A  F17C         	movff	?___xxtofl+1,___fldiv@a+1
  1821   0011CC  C16B  F17D         	movff	?___xxtofl+2,___fldiv@a+2
  1822   0011D0  C16C  F17E         	movff	?___xxtofl+3,___fldiv@a+3
  1823   0011D4  0E00               	movlw	0
  1824   0011D6  0101               	movlb	1	; () banked
  1825   0011D8  6F77               	movwf	___fldiv@b& (0+255),b
  1826   0011DA  0E24               	movlw	36
  1827   0011DC  6F78               	movwf	(___fldiv@b+1)& (0+255),b
  1828   0011DE  0E74               	movlw	116
  1829   0011E0  6F79               	movwf	(___fldiv@b+2)& (0+255),b
  1830   0011E2  0E4A               	movlw	74
  1831   0011E4  6F7A               	movwf	(___fldiv@b+3)& (0+255),b
  1832   0011E6  ECF0  F00C         	call	___fldiv	;wreg free
  1833   0011EA  C177  F1A8         	movff	?___fldiv,_EUSART_Baud_Rate_Calcualtion$4319
  1834   0011EE  C178  F1A9         	movff	?___fldiv+1,_EUSART_Baud_Rate_Calcualtion$4319+1
  1835   0011F2  C179  F1AA         	movff	?___fldiv+2,_EUSART_Baud_Rate_Calcualtion$4319+2
  1836   0011F6  C17A  F1AB         	movff	?___fldiv+3,_EUSART_Baud_Rate_Calcualtion$4319+3
  1837   0011FA                     
  1838                           ;MCAL_Layer/USART/hal_usart.c: 166:             Baud_Rate_Temp = ((4000000UL/(float)_eus
      +                          art->BaudRate)/16)-1;
  1839   0011FA  0E00               	movlw	0
  1840   0011FC  0101               	movlb	1	; () banked
  1841   0011FE  6F7B               	movwf	___fldiv@a& (0+255),b
  1842   001200  0E00               	movlw	0
  1843   001202  6F7C               	movwf	(___fldiv@a+1)& (0+255),b
  1844   001204  0E80               	movlw	128
  1845   001206  6F7D               	movwf	(___fldiv@a+2)& (0+255),b
  1846   001208  0E41               	movlw	65
  1847   00120A  6F7E               	movwf	(___fldiv@a+3)& (0+255),b
  1848   00120C  C1A8  F177         	movff	_EUSART_Baud_Rate_Calcualtion$4319,___fldiv@b
  1849   001210  C1A9  F178         	movff	_EUSART_Baud_Rate_Calcualtion$4319+1,___fldiv@b+1
  1850   001214  C1AA  F179         	movff	_EUSART_Baud_Rate_Calcualtion$4319+2,___fldiv@b+2
  1851   001218  C1AB  F17A         	movff	_EUSART_Baud_Rate_Calcualtion$4319+3,___fldiv@b+3
  1852   00121C  ECF0  F00C         	call	___fldiv	;wreg free
  1853   001220  C177  F190         	movff	?___fldiv,___fladd@b
  1854   001224  C178  F191         	movff	?___fldiv+1,___fladd@b+1
  1855   001228  C179  F192         	movff	?___fldiv+2,___fladd@b+2
  1856   00122C  C17A  F193         	movff	?___fldiv+3,___fladd@b+3
  1857   001230  0E00               	movlw	0
  1858   001232  0101               	movlb	1	; () banked
  1859   001234  6F94               	movwf	___fladd@a& (0+255),b
  1860   001236  0E00               	movlw	0
  1861   001238  6F95               	movwf	(___fladd@a+1)& (0+255),b
  1862   00123A  0E80               	movlw	128
  1863   00123C  6F96               	movwf	(___fladd@a+2)& (0+255),b
  1864   00123E  0EBF               	movlw	191
  1865   001240  6F97               	movwf	(___fladd@a+3)& (0+255),b
  1866   001242  EC8F  F00A         	call	___fladd	;wreg free
  1867   001246  C190  F1A4         	movff	?___fladd,EUSART_Baud_Rate_Calcualtion@Baud_Rate_Temp
  1868   00124A  C191  F1A5         	movff	?___fladd+1,EUSART_Baud_Rate_Calcualtion@Baud_Rate_Temp+1
  1869   00124E  C192  F1A6         	movff	?___fladd+2,EUSART_Baud_Rate_Calcualtion@Baud_Rate_Temp+2
  1870   001252  C193  F1A7         	movff	?___fladd+3,EUSART_Baud_Rate_Calcualtion@Baud_Rate_Temp+3
  1871                           
  1872                           ;MCAL_Layer/USART/hal_usart.c: 167:             break;
  1873   001256  EF6D  F00A         	goto	l7557
  1874   00125A                     l1520:
  1875                           
  1876                           ; BSR set to: 1
  1877                           ;MCAL_Layer/USART/hal_usart.c: 169:             (*((volatile TXSTA_t *)(0xFAC))).SYNC = 
      +                          0;
  1878   00125A  98AC               	bcf	172,4,c	;volatile
  1879                           
  1880                           ;MCAL_Layer/USART/hal_usart.c: 170:             (*((volatile TXSTA_t *)(0xFAC))).BRGH = 
      +                          1;
  1881   00125C  84AC               	bsf	172,2,c	;volatile
  1882                           
  1883                           ;MCAL_Layer/USART/hal_usart.c: 171:             (*((volatile BAUDCON_t *)(0xFB8))).BRG16
      +                           = 1;
  1884   00125E  86B8               	bsf	184,3,c	;volatile
  1885   001260                     
  1886                           ; BSR set to: 1
  1887                           ;MCAL_Layer/USART/hal_usart.c: 172:             Baud_Rate_Temp = ((4000000UL/(float)_eus
      +                          art->BaudRate)/4)-1;
  1888   001260  C1A0  FFD9         	movff	EUSART_Baud_Rate_Calcualtion@_eusart,fsr2l
  1889   001264  C1A1  FFDA         	movff	EUSART_Baud_Rate_Calcualtion@_eusart+1,fsr2h
  1890   001268  CFDE F169          	movff	postinc2,___xxtofl@val
  1891   00126C  CFDE F16A          	movff	postinc2,___xxtofl@val+1
  1892   001270  CFDE F16B          	movff	postinc2,___xxtofl@val+2
  1893   001274  CFDE F16C          	movff	postinc2,___xxtofl@val+3
  1894   001278  0E00               	movlw	0
  1895   00127A  EC26  F010         	call	___xxtofl
  1896   00127E  C169  F17B         	movff	?___xxtofl,___fldiv@a
  1897   001282  C16A  F17C         	movff	?___xxtofl+1,___fldiv@a+1
  1898   001286  C16B  F17D         	movff	?___xxtofl+2,___fldiv@a+2
  1899   00128A  C16C  F17E         	movff	?___xxtofl+3,___fldiv@a+3
  1900   00128E  0E00               	movlw	0
  1901   001290  0101               	movlb	1	; () banked
  1902   001292  6F77               	movwf	___fldiv@b& (0+255),b
  1903   001294  0E24               	movlw	36
  1904   001296  6F78               	movwf	(___fldiv@b+1)& (0+255),b
  1905   001298  0E74               	movlw	116
  1906   00129A  6F79               	movwf	(___fldiv@b+2)& (0+255),b
  1907   00129C  0E4A               	movlw	74
  1908   00129E  6F7A               	movwf	(___fldiv@b+3)& (0+255),b
  1909   0012A0  ECF0  F00C         	call	___fldiv	;wreg free
  1910   0012A4  C177  F1A8         	movff	?___fldiv,_EUSART_Baud_Rate_Calcualtion$4319
  1911   0012A8  C178  F1A9         	movff	?___fldiv+1,_EUSART_Baud_Rate_Calcualtion$4319+1
  1912   0012AC  C179  F1AA         	movff	?___fldiv+2,_EUSART_Baud_Rate_Calcualtion$4319+2
  1913   0012B0  C17A  F1AB         	movff	?___fldiv+3,_EUSART_Baud_Rate_Calcualtion$4319+3
  1914   0012B4                     
  1915                           ;MCAL_Layer/USART/hal_usart.c: 172:             Baud_Rate_Temp = ((4000000UL/(float)_eus
      +                          art->BaudRate)/4)-1;
  1916   0012B4  0E00               	movlw	0
  1917   0012B6  0101               	movlb	1	; () banked
  1918   0012B8  6F7B               	movwf	___fldiv@a& (0+255),b
  1919   0012BA  0E00               	movlw	0
  1920   0012BC  6F7C               	movwf	(___fldiv@a+1)& (0+255),b
  1921   0012BE  0E80               	movlw	128
  1922   0012C0  6F7D               	movwf	(___fldiv@a+2)& (0+255),b
  1923   0012C2  0E40               	movlw	64
  1924   0012C4  6F7E               	movwf	(___fldiv@a+3)& (0+255),b
  1925   0012C6  C1A8  F177         	movff	_EUSART_Baud_Rate_Calcualtion$4319,___fldiv@b
  1926   0012CA  C1A9  F178         	movff	_EUSART_Baud_Rate_Calcualtion$4319+1,___fldiv@b+1
  1927   0012CE  C1AA  F179         	movff	_EUSART_Baud_Rate_Calcualtion$4319+2,___fldiv@b+2
  1928   0012D2  C1AB  F17A         	movff	_EUSART_Baud_Rate_Calcualtion$4319+3,___fldiv@b+3
  1929   0012D6  ECF0  F00C         	call	___fldiv	;wreg free
  1930   0012DA  C177  F190         	movff	?___fldiv,___fladd@b
  1931   0012DE  C178  F191         	movff	?___fldiv+1,___fladd@b+1
  1932   0012E2  C179  F192         	movff	?___fldiv+2,___fladd@b+2
  1933   0012E6  C17A  F193         	movff	?___fldiv+3,___fladd@b+3
  1934   0012EA  0E00               	movlw	0
  1935   0012EC  0101               	movlb	1	; () banked
  1936   0012EE  6F94               	movwf	___fladd@a& (0+255),b
  1937   0012F0  0E00               	movlw	0
  1938   0012F2  6F95               	movwf	(___fladd@a+1)& (0+255),b
  1939   0012F4  0E80               	movlw	128
  1940   0012F6  6F96               	movwf	(___fladd@a+2)& (0+255),b
  1941   0012F8  0EBF               	movlw	191
  1942   0012FA  6F97               	movwf	(___fladd@a+3)& (0+255),b
  1943   0012FC  EC8F  F00A         	call	___fladd	;wreg free
  1944   001300  C190  F1A4         	movff	?___fladd,EUSART_Baud_Rate_Calcualtion@Baud_Rate_Temp
  1945   001304  C191  F1A5         	movff	?___fladd+1,EUSART_Baud_Rate_Calcualtion@Baud_Rate_Temp+1
  1946   001308  C192  F1A6         	movff	?___fladd+2,EUSART_Baud_Rate_Calcualtion@Baud_Rate_Temp+2
  1947   00130C  C193  F1A7         	movff	?___fladd+3,EUSART_Baud_Rate_Calcualtion@Baud_Rate_Temp+3
  1948                           
  1949                           ;MCAL_Layer/USART/hal_usart.c: 173:             break;
  1950   001310  EF6D  F00A         	goto	l7557
  1951   001314                     l1521:
  1952                           
  1953                           ; BSR set to: 1
  1954                           ;MCAL_Layer/USART/hal_usart.c: 175:             (*((volatile TXSTA_t *)(0xFAC))).SYNC = 
      +                          1;
  1955   001314  88AC               	bsf	172,4,c	;volatile
  1956                           
  1957                           ;MCAL_Layer/USART/hal_usart.c: 176:             (*((volatile BAUDCON_t *)(0xFB8))).BRG16
      +                           = 0;
  1958   001316  96B8               	bcf	184,3,c	;volatile
  1959   001318                     
  1960                           ; BSR set to: 1
  1961                           ;MCAL_Layer/USART/hal_usart.c: 177:             Baud_Rate_Temp = ((4000000UL/(float)_eus
      +                          art->BaudRate)/4)-1;
  1962   001318  C1A0  FFD9         	movff	EUSART_Baud_Rate_Calcualtion@_eusart,fsr2l
  1963   00131C  C1A1  FFDA         	movff	EUSART_Baud_Rate_Calcualtion@_eusart+1,fsr2h
  1964   001320  CFDE F169          	movff	postinc2,___xxtofl@val
  1965   001324  CFDE F16A          	movff	postinc2,___xxtofl@val+1
  1966   001328  CFDE F16B          	movff	postinc2,___xxtofl@val+2
  1967   00132C  CFDE F16C          	movff	postinc2,___xxtofl@val+3
  1968   001330  0E00               	movlw	0
  1969   001332  EC26  F010         	call	___xxtofl
  1970   001336  C169  F17B         	movff	?___xxtofl,___fldiv@a
  1971   00133A  C16A  F17C         	movff	?___xxtofl+1,___fldiv@a+1
  1972   00133E  C16B  F17D         	movff	?___xxtofl+2,___fldiv@a+2
  1973   001342  C16C  F17E         	movff	?___xxtofl+3,___fldiv@a+3
  1974   001346  0E00               	movlw	0
  1975   001348  0101               	movlb	1	; () banked
  1976   00134A  6F77               	movwf	___fldiv@b& (0+255),b
  1977   00134C  0E24               	movlw	36
  1978   00134E  6F78               	movwf	(___fldiv@b+1)& (0+255),b
  1979   001350  0E74               	movlw	116
  1980   001352  6F79               	movwf	(___fldiv@b+2)& (0+255),b
  1981   001354  0E4A               	movlw	74
  1982   001356  6F7A               	movwf	(___fldiv@b+3)& (0+255),b
  1983   001358  ECF0  F00C         	call	___fldiv	;wreg free
  1984   00135C  C177  F1A8         	movff	?___fldiv,_EUSART_Baud_Rate_Calcualtion$4319
  1985   001360  C178  F1A9         	movff	?___fldiv+1,_EUSART_Baud_Rate_Calcualtion$4319+1
  1986   001364  C179  F1AA         	movff	?___fldiv+2,_EUSART_Baud_Rate_Calcualtion$4319+2
  1987   001368  C17A  F1AB         	movff	?___fldiv+3,_EUSART_Baud_Rate_Calcualtion$4319+3
  1988   00136C                     
  1989                           ;MCAL_Layer/USART/hal_usart.c: 177:             Baud_Rate_Temp = ((4000000UL/(float)_eus
      +                          art->BaudRate)/4)-1;
  1990   00136C  0E00               	movlw	0
  1991   00136E  0101               	movlb	1	; () banked
  1992   001370  6F7B               	movwf	___fldiv@a& (0+255),b
  1993   001372  0E00               	movlw	0
  1994   001374  6F7C               	movwf	(___fldiv@a+1)& (0+255),b
  1995   001376  0E80               	movlw	128
  1996   001378  6F7D               	movwf	(___fldiv@a+2)& (0+255),b
  1997   00137A  0E40               	movlw	64
  1998   00137C  6F7E               	movwf	(___fldiv@a+3)& (0+255),b
  1999   00137E  C1A8  F177         	movff	_EUSART_Baud_Rate_Calcualtion$4319,___fldiv@b
  2000   001382  C1A9  F178         	movff	_EUSART_Baud_Rate_Calcualtion$4319+1,___fldiv@b+1
  2001   001386  C1AA  F179         	movff	_EUSART_Baud_Rate_Calcualtion$4319+2,___fldiv@b+2
  2002   00138A  C1AB  F17A         	movff	_EUSART_Baud_Rate_Calcualtion$4319+3,___fldiv@b+3
  2003   00138E  ECF0  F00C         	call	___fldiv	;wreg free
  2004   001392  C177  F190         	movff	?___fldiv,___fladd@b
  2005   001396  C178  F191         	movff	?___fldiv+1,___fladd@b+1
  2006   00139A  C179  F192         	movff	?___fldiv+2,___fladd@b+2
  2007   00139E  C17A  F193         	movff	?___fldiv+3,___fladd@b+3
  2008   0013A2  0E00               	movlw	0
  2009   0013A4  0101               	movlb	1	; () banked
  2010   0013A6  6F94               	movwf	___fladd@a& (0+255),b
  2011   0013A8  0E00               	movlw	0
  2012   0013AA  6F95               	movwf	(___fladd@a+1)& (0+255),b
  2013   0013AC  0E80               	movlw	128
  2014   0013AE  6F96               	movwf	(___fladd@a+2)& (0+255),b
  2015   0013B0  0EBF               	movlw	191
  2016   0013B2  6F97               	movwf	(___fladd@a+3)& (0+255),b
  2017   0013B4  EC8F  F00A         	call	___fladd	;wreg free
  2018   0013B8  C190  F1A4         	movff	?___fladd,EUSART_Baud_Rate_Calcualtion@Baud_Rate_Temp
  2019   0013BC  C191  F1A5         	movff	?___fladd+1,EUSART_Baud_Rate_Calcualtion@Baud_Rate_Temp+1
  2020   0013C0  C192  F1A6         	movff	?___fladd+2,EUSART_Baud_Rate_Calcualtion@Baud_Rate_Temp+2
  2021   0013C4  C193  F1A7         	movff	?___fladd+3,EUSART_Baud_Rate_Calcualtion@Baud_Rate_Temp+3
  2022                           
  2023                           ;MCAL_Layer/USART/hal_usart.c: 178:             break;
  2024   0013C8  EF6D  F00A         	goto	l7557
  2025   0013CC                     l1522:
  2026                           
  2027                           ; BSR set to: 1
  2028                           ;MCAL_Layer/USART/hal_usart.c: 180:             (*((volatile TXSTA_t *)(0xFAC))).SYNC = 
      +                          1;
  2029   0013CC  88AC               	bsf	172,4,c	;volatile
  2030                           
  2031                           ;MCAL_Layer/USART/hal_usart.c: 181:             (*((volatile BAUDCON_t *)(0xFB8))).BRG16
      +                           = 1;
  2032   0013CE  86B8               	bsf	184,3,c	;volatile
  2033   0013D0                     
  2034                           ; BSR set to: 1
  2035                           ;MCAL_Layer/USART/hal_usart.c: 182:             Baud_Rate_Temp = ((4000000UL/(float)_eus
      +                          art->BaudRate)/4)-1;
  2036   0013D0  C1A0  FFD9         	movff	EUSART_Baud_Rate_Calcualtion@_eusart,fsr2l
  2037   0013D4  C1A1  FFDA         	movff	EUSART_Baud_Rate_Calcualtion@_eusart+1,fsr2h
  2038   0013D8  CFDE F169          	movff	postinc2,___xxtofl@val
  2039   0013DC  CFDE F16A          	movff	postinc2,___xxtofl@val+1
  2040   0013E0  CFDE F16B          	movff	postinc2,___xxtofl@val+2
  2041   0013E4  CFDE F16C          	movff	postinc2,___xxtofl@val+3
  2042   0013E8  0E00               	movlw	0
  2043   0013EA  EC26  F010         	call	___xxtofl
  2044   0013EE  C169  F17B         	movff	?___xxtofl,___fldiv@a
  2045   0013F2  C16A  F17C         	movff	?___xxtofl+1,___fldiv@a+1
  2046   0013F6  C16B  F17D         	movff	?___xxtofl+2,___fldiv@a+2
  2047   0013FA  C16C  F17E         	movff	?___xxtofl+3,___fldiv@a+3
  2048   0013FE  0E00               	movlw	0
  2049   001400  0101               	movlb	1	; () banked
  2050   001402  6F77               	movwf	___fldiv@b& (0+255),b
  2051   001404  0E24               	movlw	36
  2052   001406  6F78               	movwf	(___fldiv@b+1)& (0+255),b
  2053   001408  0E74               	movlw	116
  2054   00140A  6F79               	movwf	(___fldiv@b+2)& (0+255),b
  2055   00140C  0E4A               	movlw	74
  2056   00140E  6F7A               	movwf	(___fldiv@b+3)& (0+255),b
  2057   001410  ECF0  F00C         	call	___fldiv	;wreg free
  2058   001414  C177  F1A8         	movff	?___fldiv,_EUSART_Baud_Rate_Calcualtion$4319
  2059   001418  C178  F1A9         	movff	?___fldiv+1,_EUSART_Baud_Rate_Calcualtion$4319+1
  2060   00141C  C179  F1AA         	movff	?___fldiv+2,_EUSART_Baud_Rate_Calcualtion$4319+2
  2061   001420  C17A  F1AB         	movff	?___fldiv+3,_EUSART_Baud_Rate_Calcualtion$4319+3
  2062   001424                     
  2063                           ;MCAL_Layer/USART/hal_usart.c: 182:             Baud_Rate_Temp = ((4000000UL/(float)_eus
      +                          art->BaudRate)/4)-1;
  2064   001424  0E00               	movlw	0
  2065   001426  0101               	movlb	1	; () banked
  2066   001428  6F7B               	movwf	___fldiv@a& (0+255),b
  2067   00142A  0E00               	movlw	0
  2068   00142C  6F7C               	movwf	(___fldiv@a+1)& (0+255),b
  2069   00142E  0E80               	movlw	128
  2070   001430  6F7D               	movwf	(___fldiv@a+2)& (0+255),b
  2071   001432  0E40               	movlw	64
  2072   001434  6F7E               	movwf	(___fldiv@a+3)& (0+255),b
  2073   001436  C1A8  F177         	movff	_EUSART_Baud_Rate_Calcualtion$4319,___fldiv@b
  2074   00143A  C1A9  F178         	movff	_EUSART_Baud_Rate_Calcualtion$4319+1,___fldiv@b+1
  2075   00143E  C1AA  F179         	movff	_EUSART_Baud_Rate_Calcualtion$4319+2,___fldiv@b+2
  2076   001442  C1AB  F17A         	movff	_EUSART_Baud_Rate_Calcualtion$4319+3,___fldiv@b+3
  2077   001446  ECF0  F00C         	call	___fldiv	;wreg free
  2078   00144A  C177  F190         	movff	?___fldiv,___fladd@b
  2079   00144E  C178  F191         	movff	?___fldiv+1,___fladd@b+1
  2080   001452  C179  F192         	movff	?___fldiv+2,___fladd@b+2
  2081   001456  C17A  F193         	movff	?___fldiv+3,___fladd@b+3
  2082   00145A  0E00               	movlw	0
  2083   00145C  0101               	movlb	1	; () banked
  2084   00145E  6F94               	movwf	___fladd@a& (0+255),b
  2085   001460  0E00               	movlw	0
  2086   001462  6F95               	movwf	(___fladd@a+1)& (0+255),b
  2087   001464  0E80               	movlw	128
  2088   001466  6F96               	movwf	(___fladd@a+2)& (0+255),b
  2089   001468  0EBF               	movlw	191
  2090   00146A  6F97               	movwf	(___fladd@a+3)& (0+255),b
  2091   00146C  EC8F  F00A         	call	___fladd	;wreg free
  2092   001470  C190  F1A4         	movff	?___fladd,EUSART_Baud_Rate_Calcualtion@Baud_Rate_Temp
  2093   001474  C191  F1A5         	movff	?___fladd+1,EUSART_Baud_Rate_Calcualtion@Baud_Rate_Temp+1
  2094   001478  C192  F1A6         	movff	?___fladd+2,EUSART_Baud_Rate_Calcualtion@Baud_Rate_Temp+2
  2095   00147C  C193  F1A7         	movff	?___fladd+3,EUSART_Baud_Rate_Calcualtion@Baud_Rate_Temp+3
  2096                           
  2097                           ;MCAL_Layer/USART/hal_usart.c: 183:             break;
  2098   001480  EF6D  F00A         	goto	l7557
  2099   001484                     l7555:
  2100                           
  2101                           ; BSR set to: 1
  2102   001484  EE20 F004          	lfsr	2,4
  2103   001488  51A0               	movf	EUSART_Baud_Rate_Calcualtion@_eusart& (0+255),w,b
  2104   00148A  26D9               	addwf	fsr2l,f,c
  2105   00148C  51A1               	movf	(EUSART_Baud_Rate_Calcualtion@_eusart+1)& (0+255),w,b
  2106   00148E  22DA               	addwfc	fsr2h,f,c
  2107   001490  50DF               	movf	indf2,w,c
  2108   001492  6FA2               	movwf	??_EUSART_Baud_Rate_Calcualtion& (0+255),b
  2109   001494  6BA3               	clrf	(??_EUSART_Baud_Rate_Calcualtion+1)& (0+255),b
  2110                           
  2111                           ; Switch on 2 bytes has been partitioned into a top level switch of size 1, and 1 sub-sw
      +                          itches
  2112                           ; Switch size 1, requested type "simple"
  2113                           ; Number of cases is 1, Range of values is 0 to 0
  2114                           ; switch strategies available:
  2115                           ; Name         Instructions Cycles
  2116                           ; simple_byte            4     3 (average)
  2117                           ;	Chosen strategy is simple_byte
  2118   001496  51A3               	movf	(??_EUSART_Baud_Rate_Calcualtion+1)& (0+255),w,b
  2119   001498  0A00               	xorlw	0	; case 0
  2120   00149A  B4D8               	btfsc	status,2,c
  2121   00149C  EF52  F00A         	goto	l12171
  2122   0014A0  EF6D  F00A         	goto	l7557
  2123   0014A4                     l12171:
  2124                           
  2125                           ; BSR set to: 1
  2126                           ; Switch size 1, requested type "simple"
  2127                           ; Number of cases is 6, Range of values is 0 to 5
  2128                           ; switch strategies available:
  2129                           ; Name         Instructions Cycles
  2130                           ; simple_byte           19    10 (average)
  2131                           ;	Chosen strategy is simple_byte
  2132   0014A4  51A2               	movf	??_EUSART_Baud_Rate_Calcualtion& (0+255),w,b
  2133   0014A6  0A00               	xorlw	0	; case 0
  2134   0014A8  B4D8               	btfsc	status,2,c
  2135   0014AA  EF16  F008         	goto	l1516
  2136   0014AE  0A01               	xorlw	1	; case 1
  2137   0014B0  B4D8               	btfsc	status,2,c
  2138   0014B2  EF73  F008         	goto	l1518
  2139   0014B6  0A03               	xorlw	3	; case 2
  2140   0014B8  B4D8               	btfsc	status,2,c
  2141   0014BA  EFD0  F008         	goto	l1519
  2142   0014BE  0A01               	xorlw	1	; case 3
  2143   0014C0  B4D8               	btfsc	status,2,c
  2144   0014C2  EF2D  F009         	goto	l1520
  2145   0014C6  0A07               	xorlw	7	; case 4
  2146   0014C8  B4D8               	btfsc	status,2,c
  2147   0014CA  EF8A  F009         	goto	l1521
  2148   0014CE  0A01               	xorlw	1	; case 5
  2149   0014D0  B4D8               	btfsc	status,2,c
  2150   0014D2  EFE6  F009         	goto	l1522
  2151   0014D6  EF6D  F00A         	goto	l7557
  2152   0014DA                     l7557:
  2153                           
  2154                           ;MCAL_Layer/USART/hal_usart.c: 186:     (*( (volatile uint8 *)(0xFB0) ) ) =(uint8)((uint
      +                          32)Baud_Rate_Temp);
  2155   0014DA  C1A4  F169         	movff	EUSART_Baud_Rate_Calcualtion@Baud_Rate_Temp,___fltol@f1
  2156   0014DE  C1A5  F16A         	movff	EUSART_Baud_Rate_Calcualtion@Baud_Rate_Temp+1,___fltol@f1+1
  2157   0014E2  C1A6  F16B         	movff	EUSART_Baud_Rate_Calcualtion@Baud_Rate_Temp+2,___fltol@f1+2
  2158   0014E6  C1A7  F16C         	movff	EUSART_Baud_Rate_Calcualtion@Baud_Rate_Temp+3,___fltol@f1+3
  2159   0014EA  EC77  F018         	call	___fltol	;wreg free
  2160   0014EE  0101               	movlb	1	; () banked
  2161   0014F0  5169               	movf	?___fltol& (0+255),w,b
  2162   0014F2  6EB0               	movwf	176,c	;volatile
  2163                           
  2164                           ;MCAL_Layer/USART/hal_usart.c: 187:     (*( (volatile uint8 *)(0xFAF) ) ) =(uint8)(((uin
      +                          t32)Baud_Rate_Temp)>>8);
  2165   0014F4  C1A4  F169         	movff	EUSART_Baud_Rate_Calcualtion@Baud_Rate_Temp,___fltol@f1
  2166   0014F8  C1A5  F16A         	movff	EUSART_Baud_Rate_Calcualtion@Baud_Rate_Temp+1,___fltol@f1+1
  2167   0014FC  C1A6  F16B         	movff	EUSART_Baud_Rate_Calcualtion@Baud_Rate_Temp+2,___fltol@f1+2
  2168   001500  C1A7  F16C         	movff	EUSART_Baud_Rate_Calcualtion@Baud_Rate_Temp+3,___fltol@f1+3
  2169   001504  EC77  F018         	call	___fltol	;wreg free
  2170   001508  0101               	movlb	1	; () banked
  2171   00150A  C16A  F169         	movff	?___fltol+1,?___fltol
  2172   00150E  C16B  F16A         	movff	?___fltol+2,?___fltol+1
  2173   001512  C16C  F16B         	movff	?___fltol+3,?___fltol+2
  2174   001516  6B6C               	clrf	(?___fltol+3)& (0+255),b
  2175   001518  5169               	movf	?___fltol& (0+255),w,b
  2176   00151A  6EAF               	movwf	175,c	;volatile
  2177   00151C                     
  2178                           ; BSR set to: 1
  2179   00151C  0012               	return		;funcret
  2180   00151E                     __end_of_EUSART_Baud_Rate_Calcualtion:
  2181                           	callstack 0
  2182                           
  2183 ;; *************** function ___xxtofl *****************
  2184 ;; Defined at:
  2185 ;;		line 10 in file "C:\Program Files\Microchip\xc8\v2.41\pic\sources\c99\common\xxtofl.c"
  2186 ;; Parameters:    Size  Location     Type
  2187 ;;  sign            1    wreg     unsigned char 
  2188 ;;  val             4    0[BANK1 ] long 
  2189 ;; Auto vars:     Size  Location     Type
  2190 ;;  sign            1    8[BANK1 ] unsigned char 
  2191 ;;  arg             4   10[BANK1 ] unsigned long 
  2192 ;;  exp             1    9[BANK1 ] unsigned char 
  2193 ;; Return value:  Size  Location     Type
  2194 ;;                  4    0[BANK1 ] unsigned char 
  2195 ;; Registers used:
  2196 ;;		wreg, status,2, status,0
  2197 ;; Tracked objects:
  2198 ;;		On entry : 0/0
  2199 ;;		On exit  : 0/0
  2200 ;;		Unchanged: 0/0
  2201 ;; Data sizes:     COMRAM   BANK0   BANK1   BANK2   BANK3   BANK4   BANK5   BANK6   BANK7   BANK8   BANK9  BANK10  BANK1
      +1  BANK12  BANK13  BANK14  BANK15
  2202 ;;      Params:         0       0       4       0       0       0       0       0       0       0       0       0       
      +0       0       0       0       0
  2203 ;;      Locals:         0       0       6       0       0       0       0       0       0       0       0       0       
      +0       0       0       0       0
  2204 ;;      Temps:          0       0       4       0       0       0       0       0       0       0       0       0       
      +0       0       0       0       0
  2205 ;;      Totals:         0       0      14       0       0       0       0       0       0       0       0       0       
      +0       0       0       0       0
  2206 ;;Total ram usage:       14 bytes
  2207 ;; Hardware stack levels used: 1
  2208 ;; Hardware stack levels required when called: 24
  2209 ;; This function calls:
  2210 ;;		Nothing
  2211 ;; This function is called by:
  2212 ;;		_EUSART_Baud_Rate_Calcualtion
  2213 ;; This function uses a non-reentrant model
  2214 ;;
  2215                           
  2216                           	psect	text5
  2217   00204C                     __ptext5:
  2218                           	callstack 0
  2219   00204C                     ___xxtofl:
  2220                           	callstack 2
  2221                           
  2222                           ; BSR set to: 1
  2223                           ;incstack = 0
  2224                           ;___xxtofl@sign stored from wreg
  2225   00204C  0101               	movlb	1	; () banked
  2226   00204E  6F71               	movwf	___xxtofl@sign& (0+255),b
  2227   002050  0101               	movlb	1	; () banked
  2228   002052  5171               	movf	___xxtofl@sign& (0+255),w,b
  2229   002054  B4D8               	btfsc	status,2,c
  2230   002056  EF2F  F010         	goto	u7121
  2231   00205A  EF31  F010         	goto	u7120
  2232   00205E                     u7121:
  2233   00205E  EF53  F010         	goto	l2224
  2234   002062                     u7120:
  2235   002062                     
  2236                           ; BSR set to: 1
  2237   002062  BF6C               	btfsc	(___xxtofl@val+3)& (0+255),7,b
  2238   002064  EF38  F010         	goto	u7130
  2239   002068  EF36  F010         	goto	u7131
  2240   00206C                     u7131:
  2241   00206C  EF53  F010         	goto	l2224
  2242   002070                     u7130:
  2243   002070                     
  2244                           ; BSR set to: 1
  2245   002070  C169  F16D         	movff	___xxtofl@val,??___xxtofl
  2246   002074  C16A  F16E         	movff	___xxtofl@val+1,??___xxtofl+1
  2247   002078  C16B  F16F         	movff	___xxtofl@val+2,??___xxtofl+2
  2248   00207C  C16C  F170         	movff	___xxtofl@val+3,??___xxtofl+3
  2249   002080  1F6D               	comf	??___xxtofl& (0+255),f,b
  2250   002082  1F6E               	comf	(??___xxtofl+1)& (0+255),f,b
  2251   002084  1F6F               	comf	(??___xxtofl+2)& (0+255),f,b
  2252   002086  1F70               	comf	(??___xxtofl+3)& (0+255),f,b
  2253   002088  2B6D               	incf	??___xxtofl& (0+255),f,b
  2254   00208A  0E00               	movlw	0
  2255   00208C  236E               	addwfc	(??___xxtofl+1)& (0+255),f,b
  2256   00208E  236F               	addwfc	(??___xxtofl+2)& (0+255),f,b
  2257   002090  2370               	addwfc	(??___xxtofl+3)& (0+255),f,b
  2258   002092  C16D  F173         	movff	??___xxtofl,___xxtofl@arg
  2259   002096  C16E  F174         	movff	??___xxtofl+1,___xxtofl@arg+1
  2260   00209A  C16F  F175         	movff	??___xxtofl+2,___xxtofl@arg+2
  2261   00209E  C170  F176         	movff	??___xxtofl+3,___xxtofl@arg+3
  2262   0020A2  EF5B  F010         	goto	l7309
  2263   0020A6                     l2224:
  2264                           
  2265                           ; BSR set to: 1
  2266   0020A6  C169  F173         	movff	___xxtofl@val,___xxtofl@arg
  2267   0020AA  C16A  F174         	movff	___xxtofl@val+1,___xxtofl@arg+1
  2268   0020AE  C16B  F175         	movff	___xxtofl@val+2,___xxtofl@arg+2
  2269   0020B2  C16C  F176         	movff	___xxtofl@val+3,___xxtofl@arg+3
  2270   0020B6                     l7309:
  2271                           
  2272                           ; BSR set to: 1
  2273   0020B6  5169               	movf	___xxtofl@val& (0+255),w,b
  2274   0020B8  116A               	iorwf	(___xxtofl@val+1)& (0+255),w,b
  2275   0020BA  116B               	iorwf	(___xxtofl@val+2)& (0+255),w,b
  2276   0020BC  116C               	iorwf	(___xxtofl@val+3)& (0+255),w,b
  2277   0020BE  A4D8               	btfss	status,2,c
  2278   0020C0  EF64  F010         	goto	u7141
  2279   0020C4  EF66  F010         	goto	u7140
  2280   0020C8                     u7141:
  2281   0020C8  EF70  F010         	goto	l7315
  2282   0020CC                     u7140:
  2283   0020CC                     
  2284                           ; BSR set to: 1
  2285   0020CC  0E00               	movlw	0
  2286   0020CE  6F69               	movwf	?___xxtofl& (0+255),b
  2287   0020D0  0E00               	movlw	0
  2288   0020D2  6F6A               	movwf	(?___xxtofl+1)& (0+255),b
  2289   0020D4  0E00               	movlw	0
  2290   0020D6  6F6B               	movwf	(?___xxtofl+2)& (0+255),b
  2291   0020D8  0E00               	movlw	0
  2292   0020DA  6F6C               	movwf	(?___xxtofl+3)& (0+255),b
  2293   0020DC  EF01  F011         	goto	l2227
  2294   0020E0                     l7315:
  2295                           
  2296                           ; BSR set to: 1
  2297   0020E0  0E96               	movlw	150
  2298   0020E2  6F72               	movwf	___xxtofl@exp& (0+255),b
  2299   0020E4  EF7A  F010         	goto	l7319
  2300   0020E8                     l7317:
  2301                           
  2302                           ; BSR set to: 1
  2303   0020E8  2B72               	incf	___xxtofl@exp& (0+255),f,b
  2304   0020EA  90D8               	bcf	status,0,c
  2305   0020EC  3376               	rrcf	(___xxtofl@arg+3)& (0+255),f,b
  2306   0020EE  3375               	rrcf	(___xxtofl@arg+2)& (0+255),f,b
  2307   0020F0  3374               	rrcf	(___xxtofl@arg+1)& (0+255),f,b
  2308   0020F2  3373               	rrcf	___xxtofl@arg& (0+255),f,b
  2309   0020F4                     l7319:
  2310                           
  2311                           ; BSR set to: 1
  2312   0020F4  0E00               	movlw	0
  2313   0020F6  1573               	andwf	___xxtofl@arg& (0+255),w,b
  2314   0020F8  6F6D               	movwf	??___xxtofl& (0+255),b
  2315   0020FA  0E00               	movlw	0
  2316   0020FC  1574               	andwf	(___xxtofl@arg+1)& (0+255),w,b
  2317   0020FE  6F6E               	movwf	(??___xxtofl+1)& (0+255),b
  2318   002100  0E00               	movlw	0
  2319   002102  1575               	andwf	(___xxtofl@arg+2)& (0+255),w,b
  2320   002104  6F6F               	movwf	(??___xxtofl+2)& (0+255),b
  2321   002106  0EFE               	movlw	254
  2322   002108  1576               	andwf	(___xxtofl@arg+3)& (0+255),w,b
  2323   00210A  6F70               	movwf	(??___xxtofl+3)& (0+255),b
  2324   00210C  516D               	movf	??___xxtofl& (0+255),w,b
  2325   00210E  116E               	iorwf	(??___xxtofl+1)& (0+255),w,b
  2326   002110  116F               	iorwf	(??___xxtofl+2)& (0+255),w,b
  2327   002112  1170               	iorwf	(??___xxtofl+3)& (0+255),w,b
  2328   002114  A4D8               	btfss	status,2,c
  2329   002116  EF8F  F010         	goto	u7151
  2330   00211A  EF91  F010         	goto	u7150
  2331   00211E                     u7151:
  2332   00211E  EF74  F010         	goto	l7317
  2333   002122                     u7150:
  2334   002122  EF9F  F010         	goto	l2231
  2335   002126                     l7321:
  2336                           
  2337                           ; BSR set to: 1
  2338   002126  2B72               	incf	___xxtofl@exp& (0+255),f,b
  2339   002128                     
  2340                           ; BSR set to: 1
  2341   002128  0E01               	movlw	1
  2342   00212A  2773               	addwf	___xxtofl@arg& (0+255),f,b
  2343   00212C  0E00               	movlw	0
  2344   00212E  2374               	addwfc	(___xxtofl@arg+1)& (0+255),f,b
  2345   002130  2375               	addwfc	(___xxtofl@arg+2)& (0+255),f,b
  2346   002132  2376               	addwfc	(___xxtofl@arg+3)& (0+255),f,b
  2347   002134                     
  2348                           ; BSR set to: 1
  2349   002134  90D8               	bcf	status,0,c
  2350   002136  3376               	rrcf	(___xxtofl@arg+3)& (0+255),f,b
  2351   002138  3375               	rrcf	(___xxtofl@arg+2)& (0+255),f,b
  2352   00213A  3374               	rrcf	(___xxtofl@arg+1)& (0+255),f,b
  2353   00213C  3373               	rrcf	___xxtofl@arg& (0+255),f,b
  2354   00213E                     l2231:
  2355                           
  2356                           ; BSR set to: 1
  2357   00213E  0E00               	movlw	0
  2358   002140  1573               	andwf	___xxtofl@arg& (0+255),w,b
  2359   002142  6F6D               	movwf	??___xxtofl& (0+255),b
  2360   002144  0E00               	movlw	0
  2361   002146  1574               	andwf	(___xxtofl@arg+1)& (0+255),w,b
  2362   002148  6F6E               	movwf	(??___xxtofl+1)& (0+255),b
  2363   00214A  0E00               	movlw	0
  2364   00214C  1575               	andwf	(___xxtofl@arg+2)& (0+255),w,b
  2365   00214E  6F6F               	movwf	(??___xxtofl+2)& (0+255),b
  2366   002150  0EFF               	movlw	255
  2367   002152  1576               	andwf	(___xxtofl@arg+3)& (0+255),w,b
  2368   002154  6F70               	movwf	(??___xxtofl+3)& (0+255),b
  2369   002156  516D               	movf	??___xxtofl& (0+255),w,b
  2370   002158  116E               	iorwf	(??___xxtofl+1)& (0+255),w,b
  2371   00215A  116F               	iorwf	(??___xxtofl+2)& (0+255),w,b
  2372   00215C  1170               	iorwf	(??___xxtofl+3)& (0+255),w,b
  2373   00215E  A4D8               	btfss	status,2,c
  2374   002160  EFB4  F010         	goto	u7161
  2375   002164  EFB6  F010         	goto	u7160
  2376   002168                     u7161:
  2377   002168  EF93  F010         	goto	l7321
  2378   00216C                     u7160:
  2379   00216C  EFBE  F010         	goto	l7329
  2380   002170                     l7327:
  2381                           
  2382                           ; BSR set to: 1
  2383   002170  0772               	decf	___xxtofl@exp& (0+255),f,b
  2384   002172  90D8               	bcf	status,0,c
  2385   002174  3773               	rlcf	___xxtofl@arg& (0+255),f,b
  2386   002176  3774               	rlcf	(___xxtofl@arg+1)& (0+255),f,b
  2387   002178  3775               	rlcf	(___xxtofl@arg+2)& (0+255),f,b
  2388   00217A  3776               	rlcf	(___xxtofl@arg+3)& (0+255),f,b
  2389   00217C                     l7329:
  2390                           
  2391                           ; BSR set to: 1
  2392   00217C  BF75               	btfsc	(___xxtofl@arg+2)& (0+255),7,b
  2393   00217E  EFC3  F010         	goto	u7171
  2394   002182  EFC5  F010         	goto	u7170
  2395   002186                     u7171:
  2396   002186  EFCD  F010         	goto	l2238
  2397   00218A                     u7170:
  2398   00218A                     
  2399                           ; BSR set to: 1
  2400   00218A  0E02               	movlw	2
  2401   00218C  6172               	cpfslt	___xxtofl@exp& (0+255),b
  2402   00218E  EFCB  F010         	goto	u7181
  2403   002192  EFCD  F010         	goto	u7180
  2404   002196                     u7181:
  2405   002196  EFB8  F010         	goto	l7327
  2406   00219A                     u7180:
  2407   00219A                     l2238:
  2408                           
  2409                           ; BSR set to: 1
  2410   00219A  B172               	btfsc	___xxtofl@exp& (0+255),0,b
  2411   00219C  EFD2  F010         	goto	u7191
  2412   0021A0  EFD4  F010         	goto	u7190
  2413   0021A4                     u7191:
  2414   0021A4  EFD5  F010         	goto	l7335
  2415   0021A8                     u7190:
  2416   0021A8                     
  2417                           ; BSR set to: 1
  2418   0021A8  9F75               	bcf	(___xxtofl@arg+2)& (0+255),7,b
  2419   0021AA                     l7335:
  2420                           
  2421                           ; BSR set to: 1
  2422   0021AA  90D8               	bcf	status,0,c
  2423   0021AC  3372               	rrcf	___xxtofl@exp& (0+255),f,b
  2424   0021AE                     
  2425                           ; BSR set to: 1
  2426   0021AE  C172  F16D         	movff	___xxtofl@exp,??___xxtofl
  2427   0021B2  6B6E               	clrf	(??___xxtofl+1)& (0+255),b
  2428   0021B4  6B6F               	clrf	(??___xxtofl+2)& (0+255),b
  2429   0021B6  6B70               	clrf	(??___xxtofl+3)& (0+255),b
  2430   0021B8  C16D  F170         	movff	??___xxtofl,??___xxtofl+3
  2431   0021BC  6B6F               	clrf	(??___xxtofl+2)& (0+255),b
  2432   0021BE  6B6E               	clrf	(??___xxtofl+1)& (0+255),b
  2433   0021C0  6B6D               	clrf	??___xxtofl& (0+255),b
  2434   0021C2  516D               	movf	??___xxtofl& (0+255),w,b
  2435   0021C4  1373               	iorwf	___xxtofl@arg& (0+255),f,b
  2436   0021C6  516E               	movf	(??___xxtofl+1)& (0+255),w,b
  2437   0021C8  1374               	iorwf	(___xxtofl@arg+1)& (0+255),f,b
  2438   0021CA  516F               	movf	(??___xxtofl+2)& (0+255),w,b
  2439   0021CC  1375               	iorwf	(___xxtofl@arg+2)& (0+255),f,b
  2440   0021CE  5170               	movf	(??___xxtofl+3)& (0+255),w,b
  2441   0021D0  1376               	iorwf	(___xxtofl@arg+3)& (0+255),f,b
  2442   0021D2                     
  2443                           ; BSR set to: 1
  2444   0021D2  5171               	movf	___xxtofl@sign& (0+255),w,b
  2445   0021D4  B4D8               	btfsc	status,2,c
  2446   0021D6  EFEF  F010         	goto	u7201
  2447   0021DA  EFF1  F010         	goto	u7200
  2448   0021DE                     u7201:
  2449   0021DE  EFF9  F010         	goto	l7345
  2450   0021E2                     u7200:
  2451   0021E2                     
  2452                           ; BSR set to: 1
  2453   0021E2  BF6C               	btfsc	(___xxtofl@val+3)& (0+255),7,b
  2454   0021E4  EFF8  F010         	goto	u7210
  2455   0021E8  EFF6  F010         	goto	u7211
  2456   0021EC                     u7211:
  2457   0021EC  EFF9  F010         	goto	l7345
  2458   0021F0                     u7210:
  2459   0021F0                     
  2460                           ; BSR set to: 1
  2461   0021F0  8F76               	bsf	(___xxtofl@arg+3)& (0+255),7,b
  2462   0021F2                     l7345:
  2463                           
  2464                           ; BSR set to: 1
  2465   0021F2  C173  F169         	movff	___xxtofl@arg,?___xxtofl
  2466   0021F6  C174  F16A         	movff	___xxtofl@arg+1,?___xxtofl+1
  2467   0021FA  C175  F16B         	movff	___xxtofl@arg+2,?___xxtofl+2
  2468   0021FE  C176  F16C         	movff	___xxtofl@arg+3,?___xxtofl+3
  2469   002202                     l2227:
  2470                           
  2471                           ; BSR set to: 1
  2472   002202  0012               	return		;funcret
  2473   002204                     __end_of___xxtofl:
  2474                           	callstack 0
  2475                           
  2476 ;; *************** function ___fltol *****************
  2477 ;; Defined at:
  2478 ;;		line 43 in file "C:\Program Files\Microchip\xc8\v2.41\pic\sources\c99\common\fltol.c"
  2479 ;; Parameters:    Size  Location     Type
  2480 ;;  f1              4    0[BANK1 ] unsigned char 
  2481 ;; Auto vars:     Size  Location     Type
  2482 ;;  exp1            1    9[BANK1 ] unsigned char 
  2483 ;;  sign1           1    8[BANK1 ] unsigned char 
  2484 ;; Return value:  Size  Location     Type
  2485 ;;                  4    0[BANK1 ] long 
  2486 ;; Registers used:
  2487 ;;		wreg, status,2, status,0
  2488 ;; Tracked objects:
  2489 ;;		On entry : 0/0
  2490 ;;		On exit  : 0/0
  2491 ;;		Unchanged: 0/0
  2492 ;; Data sizes:     COMRAM   BANK0   BANK1   BANK2   BANK3   BANK4   BANK5   BANK6   BANK7   BANK8   BANK9  BANK10  BANK1
      +1  BANK12  BANK13  BANK14  BANK15
  2493 ;;      Params:         0       0       4       0       0       0       0       0       0       0       0       0       
      +0       0       0       0       0
  2494 ;;      Locals:         0       0       2       0       0       0       0       0       0       0       0       0       
      +0       0       0       0       0
  2495 ;;      Temps:          0       0       4       0       0       0       0       0       0       0       0       0       
      +0       0       0       0       0
  2496 ;;      Totals:         0       0      10       0       0       0       0       0       0       0       0       0       
      +0       0       0       0       0
  2497 ;;Total ram usage:       10 bytes
  2498 ;; Hardware stack levels used: 1
  2499 ;; Hardware stack levels required when called: 24
  2500 ;; This function calls:
  2501 ;;		Nothing
  2502 ;; This function is called by:
  2503 ;;		_EUSART_Baud_Rate_Calcualtion
  2504 ;; This function uses a non-reentrant model
  2505 ;;
  2506                           
  2507                           	psect	text6
  2508   0030EE                     __ptext6:
  2509                           	callstack 0
  2510   0030EE                     ___fltol:
  2511                           	callstack 2
  2512   0030EE  0101               	movlb	1	; () banked
  2513   0030F0  356B               	rlcf	(___fltol@f1+2)& (0+255),w,b
  2514   0030F2  356C               	rlcf	(___fltol@f1+3)& (0+255),w,b
  2515   0030F4  6F72               	movwf	___fltol@exp1& (0+255),b
  2516   0030F6  5172               	movf	___fltol@exp1& (0+255),w,b
  2517   0030F8  A4D8               	btfss	status,2,c
  2518   0030FA  EF81  F018         	goto	u7051
  2519   0030FE  EF83  F018         	goto	u7050
  2520   003102                     u7051:
  2521   003102  EF8D  F018         	goto	l7265
  2522   003106                     u7050:
  2523   003106                     l7261:
  2524                           
  2525                           ; BSR set to: 1
  2526   003106  0E00               	movlw	0
  2527   003108  6F69               	movwf	?___fltol& (0+255),b
  2528   00310A  0E00               	movlw	0
  2529   00310C  6F6A               	movwf	(?___fltol+1)& (0+255),b
  2530   00310E  0E00               	movlw	0
  2531   003110  6F6B               	movwf	(?___fltol+2)& (0+255),b
  2532   003112  0E00               	movlw	0
  2533   003114  6F6C               	movwf	(?___fltol+3)& (0+255),b
  2534   003116  EFFA  F018         	goto	l1866
  2535   00311A                     l7265:
  2536                           
  2537                           ; BSR set to: 1
  2538   00311A  C169  F16D         	movff	___fltol@f1,??___fltol
  2539   00311E  C16A  F16E         	movff	___fltol@f1+1,??___fltol+1
  2540   003122  C16B  F16F         	movff	___fltol@f1+2,??___fltol+2
  2541   003126  C16C  F170         	movff	___fltol@f1+3,??___fltol+3
  2542   00312A  0E20               	movlw	32
  2543   00312C  EF9D  F018         	goto	u7060
  2544   003130                     u7065:
  2545   003130  90D8               	bcf	status,0,c
  2546   003132  3370               	rrcf	(??___fltol+3)& (0+255),f,b
  2547   003134  336F               	rrcf	(??___fltol+2)& (0+255),f,b
  2548   003136  336E               	rrcf	(??___fltol+1)& (0+255),f,b
  2549   003138  336D               	rrcf	??___fltol& (0+255),f,b
  2550   00313A                     u7060:
  2551   00313A  2EE8               	decfsz	wreg,f,c
  2552   00313C  EF98  F018         	goto	u7065
  2553   003140  516D               	movf	??___fltol& (0+255),w,b
  2554   003142  6F71               	movwf	___fltol@sign1& (0+255),b
  2555   003144                     
  2556                           ; BSR set to: 1
  2557   003144  8F6B               	bsf	(___fltol@f1+2)& (0+255),7,b
  2558   003146                     
  2559                           ; BSR set to: 1
  2560   003146  0EFF               	movlw	255
  2561   003148  1769               	andwf	___fltol@f1& (0+255),f,b
  2562   00314A  0EFF               	movlw	255
  2563   00314C  176A               	andwf	(___fltol@f1+1)& (0+255),f,b
  2564   00314E  0EFF               	movlw	255
  2565   003150  176B               	andwf	(___fltol@f1+2)& (0+255),f,b
  2566   003152  0E00               	movlw	0
  2567   003154  176C               	andwf	(___fltol@f1+3)& (0+255),f,b
  2568   003156                     
  2569                           ; BSR set to: 1
  2570   003156  0E96               	movlw	150
  2571   003158  5F72               	subwf	___fltol@exp1& (0+255),f,b
  2572   00315A                     
  2573                           ; BSR set to: 1
  2574   00315A  BF72               	btfsc	___fltol@exp1& (0+255),7,b
  2575   00315C  EFB4  F018         	goto	u7070
  2576   003160  EFB2  F018         	goto	u7071
  2577   003164                     u7071:
  2578   003164  EFCA  F018         	goto	l7285
  2579   003168                     u7070:
  2580   003168                     
  2581                           ; BSR set to: 1
  2582   003168  5172               	movf	___fltol@exp1& (0+255),w,b
  2583   00316A  0A80               	xorlw	128
  2584   00316C  0F97               	addlw	151
  2585   00316E  B0D8               	btfsc	status,0,c
  2586   003170  EFBC  F018         	goto	u7081
  2587   003174  EFBE  F018         	goto	u7080
  2588   003178                     u7081:
  2589   003178  EFC0  F018         	goto	l7281
  2590   00317C                     u7080:
  2591   00317C  EF83  F018         	goto	l7261
  2592   003180                     l7281:
  2593                           
  2594                           ; BSR set to: 1
  2595   003180  90D8               	bcf	status,0,c
  2596   003182  336C               	rrcf	(___fltol@f1+3)& (0+255),f,b
  2597   003184  336B               	rrcf	(___fltol@f1+2)& (0+255),f,b
  2598   003186  336A               	rrcf	(___fltol@f1+1)& (0+255),f,b
  2599   003188  3369               	rrcf	___fltol@f1& (0+255),f,b
  2600   00318A                     
  2601                           ; BSR set to: 1
  2602   00318A  3F72               	incfsz	___fltol@exp1& (0+255),f,b
  2603   00318C  EFC0  F018         	goto	l7281
  2604   003190  EFE2  F018         	goto	l7295
  2605   003194                     l7285:
  2606                           
  2607                           ; BSR set to: 1
  2608   003194  0E1F               	movlw	31
  2609   003196  6572               	cpfsgt	___fltol@exp1& (0+255),b
  2610   003198  EFD0  F018         	goto	u7091
  2611   00319C  EFD2  F018         	goto	u7090
  2612   0031A0                     u7091:
  2613   0031A0  EFDA  F018         	goto	l7293
  2614   0031A4                     u7090:
  2615   0031A4  EF83  F018         	goto	l7261
  2616   0031A8                     l7291:
  2617                           
  2618                           ; BSR set to: 1
  2619   0031A8  90D8               	bcf	status,0,c
  2620   0031AA  3769               	rlcf	___fltol@f1& (0+255),f,b
  2621   0031AC  376A               	rlcf	(___fltol@f1+1)& (0+255),f,b
  2622   0031AE  376B               	rlcf	(___fltol@f1+2)& (0+255),f,b
  2623   0031B0  376C               	rlcf	(___fltol@f1+3)& (0+255),f,b
  2624   0031B2  0772               	decf	___fltol@exp1& (0+255),f,b
  2625   0031B4                     l7293:
  2626                           
  2627                           ; BSR set to: 1
  2628   0031B4  5172               	movf	___fltol@exp1& (0+255),w,b
  2629   0031B6  A4D8               	btfss	status,2,c
  2630   0031B8  EFE0  F018         	goto	u7101
  2631   0031BC  EFE2  F018         	goto	u7100
  2632   0031C0                     u7101:
  2633   0031C0  EFD4  F018         	goto	l7291
  2634   0031C4                     u7100:
  2635   0031C4                     l7295:
  2636                           
  2637                           ; BSR set to: 1
  2638   0031C4  5171               	movf	___fltol@sign1& (0+255),w,b
  2639   0031C6  B4D8               	btfsc	status,2,c
  2640   0031C8  EFE8  F018         	goto	u7111
  2641   0031CC  EFEA  F018         	goto	u7110
  2642   0031D0                     u7111:
  2643   0031D0  EFF2  F018         	goto	l7299
  2644   0031D4                     u7110:
  2645   0031D4                     
  2646                           ; BSR set to: 1
  2647   0031D4  1F6C               	comf	(___fltol@f1+3)& (0+255),f,b
  2648   0031D6  1F6B               	comf	(___fltol@f1+2)& (0+255),f,b
  2649   0031D8  1F6A               	comf	(___fltol@f1+1)& (0+255),f,b
  2650   0031DA  6D69               	negf	___fltol@f1& (0+255),b
  2651   0031DC  0E00               	movlw	0
  2652   0031DE  236A               	addwfc	(___fltol@f1+1)& (0+255),f,b
  2653   0031E0  236B               	addwfc	(___fltol@f1+2)& (0+255),f,b
  2654   0031E2  236C               	addwfc	(___fltol@f1+3)& (0+255),f,b
  2655   0031E4                     l7299:
  2656                           
  2657                           ; BSR set to: 1
  2658   0031E4  C169  F169         	movff	___fltol@f1,?___fltol
  2659   0031E8  C16A  F16A         	movff	___fltol@f1+1,?___fltol+1
  2660   0031EC  C16B  F16B         	movff	___fltol@f1+2,?___fltol+2
  2661   0031F0  C16C  F16C         	movff	___fltol@f1+3,?___fltol+3
  2662   0031F4                     l1866:
  2663                           
  2664                           ; BSR set to: 1
  2665   0031F4  0012               	return		;funcret
  2666   0031F6                     __end_of___fltol:
  2667                           	callstack 0
  2668                           
  2669 ;; *************** function ___fldiv *****************
  2670 ;; Defined at:
  2671 ;;		line 11 in file "C:\Program Files\Microchip\xc8\v2.41\pic\sources\c99\common\sprcdiv.c"
  2672 ;; Parameters:    Size  Location     Type
  2673 ;;  b               4   14[BANK1 ] long 
  2674 ;;  a               4   18[BANK1 ] long 
  2675 ;; Auto vars:     Size  Location     Type
  2676 ;;  grs             4   33[BANK1 ] unsigned long 
  2677 ;;  rem             4   26[BANK1 ] unsigned long 
  2678 ;;  new_exp         2   31[BANK1 ] short 
  2679 ;;  aexp            1   38[BANK1 ] unsigned char 
  2680 ;;  bexp            1   37[BANK1 ] unsigned char 
  2681 ;;  sign            1   30[BANK1 ] unsigned char 
  2682 ;; Return value:  Size  Location     Type
  2683 ;;                  4   14[BANK1 ] unsigned char 
  2684 ;; Registers used:
  2685 ;;		wreg, status,2, status,0
  2686 ;; Tracked objects:
  2687 ;;		On entry : 0/0
  2688 ;;		On exit  : 0/0
  2689 ;;		Unchanged: 0/0
  2690 ;; Data sizes:     COMRAM   BANK0   BANK1   BANK2   BANK3   BANK4   BANK5   BANK6   BANK7   BANK8   BANK9  BANK10  BANK1
      +1  BANK12  BANK13  BANK14  BANK15
  2691 ;;      Params:         0       0       8       0       0       0       0       0       0       0       0       0       
      +0       0       0       0       0
  2692 ;;      Locals:         0       0      13       0       0       0       0       0       0       0       0       0       
      +0       0       0       0       0
  2693 ;;      Temps:          0       0       4       0       0       0       0       0       0       0       0       0       
      +0       0       0       0       0
  2694 ;;      Totals:         0       0      25       0       0       0       0       0       0       0       0       0       
      +0       0       0       0       0
  2695 ;;Total ram usage:       25 bytes
  2696 ;; Hardware stack levels used: 1
  2697 ;; Hardware stack levels required when called: 24
  2698 ;; This function calls:
  2699 ;;		Nothing
  2700 ;; This function is called by:
  2701 ;;		_EUSART_Baud_Rate_Calcualtion
  2702 ;; This function uses a non-reentrant model
  2703 ;;
  2704                           
  2705                           	psect	text7
  2706   0019E0                     __ptext7:
  2707                           	callstack 0
  2708   0019E0                     ___fldiv:
  2709                           	callstack 2
  2710   0019E0  0101               	movlb	1	; () banked
  2711   0019E2  517A               	movf	(___fldiv@b+3)& (0+255),w,b
  2712   0019E4  0B80               	andlw	128
  2713   0019E6  6F87               	movwf	___fldiv@sign& (0+255),b
  2714   0019E8  517A               	movf	(___fldiv@b+3)& (0+255),w,b
  2715   0019EA  257A               	addwf	(___fldiv@b+3)& (0+255),w,b
  2716   0019EC  6F8E               	movwf	___fldiv@bexp& (0+255),b
  2717   0019EE                     
  2718                           ; BSR set to: 1
  2719   0019EE  AF79               	btfss	(___fldiv@b+2)& (0+255),7,b
  2720   0019F0  EFFC  F00C         	goto	u6821
  2721   0019F4  EFFE  F00C         	goto	u6820
  2722   0019F8                     u6821:
  2723   0019F8  EFFF  F00C         	goto	l7127
  2724   0019FC                     u6820:
  2725   0019FC                     
  2726                           ; BSR set to: 1
  2727   0019FC  818E               	bsf	___fldiv@bexp& (0+255),0,b
  2728   0019FE                     l7127:
  2729                           
  2730                           ; BSR set to: 1
  2731   0019FE  518E               	movf	___fldiv@bexp& (0+255),w,b
  2732   001A00  B4D8               	btfsc	status,2,c
  2733   001A02  EF05  F00D         	goto	u6831
  2734   001A06  EF07  F00D         	goto	u6830
  2735   001A0A                     u6831:
  2736   001A0A  EF1C  F00D         	goto	l7137
  2737   001A0E                     u6830:
  2738   001A0E                     
  2739                           ; BSR set to: 1
  2740   001A0E  298E               	incf	___fldiv@bexp& (0+255),w,b
  2741   001A10  A4D8               	btfss	status,2,c
  2742   001A12  EF0D  F00D         	goto	u6841
  2743   001A16  EF0F  F00D         	goto	u6840
  2744   001A1A                     u6841:
  2745   001A1A  EF17  F00D         	goto	l7133
  2746   001A1E                     u6840:
  2747   001A1E                     
  2748                           ; BSR set to: 1
  2749   001A1E  0E00               	movlw	0
  2750   001A20  6F77               	movwf	___fldiv@b& (0+255),b
  2751   001A22  0E00               	movlw	0
  2752   001A24  6F78               	movwf	(___fldiv@b+1)& (0+255),b
  2753   001A26  0E00               	movlw	0
  2754   001A28  6F79               	movwf	(___fldiv@b+2)& (0+255),b
  2755   001A2A  0E00               	movlw	0
  2756   001A2C  6F7A               	movwf	(___fldiv@b+3)& (0+255),b
  2757   001A2E                     l7133:
  2758                           
  2759                           ; BSR set to: 1
  2760   001A2E  8F79               	bsf	(___fldiv@b+2)& (0+255),7,b
  2761   001A30                     
  2762                           ; BSR set to: 1
  2763   001A30  0E00               	movlw	0
  2764   001A32  6F7A               	movwf	(___fldiv@b+3)& (0+255),b
  2765   001A34  EF24  F00D         	goto	l7139
  2766   001A38                     l7137:
  2767                           
  2768                           ; BSR set to: 1
  2769   001A38  0E00               	movlw	0
  2770   001A3A  6F77               	movwf	___fldiv@b& (0+255),b
  2771   001A3C  0E00               	movlw	0
  2772   001A3E  6F78               	movwf	(___fldiv@b+1)& (0+255),b
  2773   001A40  0E00               	movlw	0
  2774   001A42  6F79               	movwf	(___fldiv@b+2)& (0+255),b
  2775   001A44  0E00               	movlw	0
  2776   001A46  6F7A               	movwf	(___fldiv@b+3)& (0+255),b
  2777   001A48                     l7139:
  2778                           
  2779                           ; BSR set to: 1
  2780   001A48  517E               	movf	(___fldiv@a+3)& (0+255),w,b
  2781   001A4A  0B80               	andlw	128
  2782   001A4C  1B87               	xorwf	___fldiv@sign& (0+255),f,b
  2783   001A4E                     
  2784                           ; BSR set to: 1
  2785   001A4E  517E               	movf	(___fldiv@a+3)& (0+255),w,b
  2786   001A50  257E               	addwf	(___fldiv@a+3)& (0+255),w,b
  2787   001A52  6F8F               	movwf	___fldiv@aexp& (0+255),b
  2788   001A54                     
  2789                           ; BSR set to: 1
  2790   001A54  AF7D               	btfss	(___fldiv@a+2)& (0+255),7,b
  2791   001A56  EF2F  F00D         	goto	u6851
  2792   001A5A  EF31  F00D         	goto	u6850
  2793   001A5E                     u6851:
  2794   001A5E  EF32  F00D         	goto	l7147
  2795   001A62                     u6850:
  2796   001A62                     
  2797                           ; BSR set to: 1
  2798   001A62  818F               	bsf	___fldiv@aexp& (0+255),0,b
  2799   001A64                     l7147:
  2800                           
  2801                           ; BSR set to: 1
  2802   001A64  518F               	movf	___fldiv@aexp& (0+255),w,b
  2803   001A66  B4D8               	btfsc	status,2,c
  2804   001A68  EF38  F00D         	goto	u6861
  2805   001A6C  EF3A  F00D         	goto	u6860
  2806   001A70                     u6861:
  2807   001A70  EF4F  F00D         	goto	l7157
  2808   001A74                     u6860:
  2809   001A74                     
  2810                           ; BSR set to: 1
  2811   001A74  298F               	incf	___fldiv@aexp& (0+255),w,b
  2812   001A76  A4D8               	btfss	status,2,c
  2813   001A78  EF40  F00D         	goto	u6871
  2814   001A7C  EF42  F00D         	goto	u6870
  2815   001A80                     u6871:
  2816   001A80  EF4A  F00D         	goto	l7153
  2817   001A84                     u6870:
  2818   001A84                     
  2819                           ; BSR set to: 1
  2820   001A84  0E00               	movlw	0
  2821   001A86  6F7B               	movwf	___fldiv@a& (0+255),b
  2822   001A88  0E00               	movlw	0
  2823   001A8A  6F7C               	movwf	(___fldiv@a+1)& (0+255),b
  2824   001A8C  0E00               	movlw	0
  2825   001A8E  6F7D               	movwf	(___fldiv@a+2)& (0+255),b
  2826   001A90  0E00               	movlw	0
  2827   001A92  6F7E               	movwf	(___fldiv@a+3)& (0+255),b
  2828   001A94                     l7153:
  2829                           
  2830                           ; BSR set to: 1
  2831   001A94  8F7D               	bsf	(___fldiv@a+2)& (0+255),7,b
  2832   001A96                     
  2833                           ; BSR set to: 1
  2834   001A96  0E00               	movlw	0
  2835   001A98  6F7E               	movwf	(___fldiv@a+3)& (0+255),b
  2836   001A9A  EF57  F00D         	goto	l7159
  2837   001A9E                     l7157:
  2838                           
  2839                           ; BSR set to: 1
  2840   001A9E  0E00               	movlw	0
  2841   001AA0  6F7B               	movwf	___fldiv@a& (0+255),b
  2842   001AA2  0E00               	movlw	0
  2843   001AA4  6F7C               	movwf	(___fldiv@a+1)& (0+255),b
  2844   001AA6  0E00               	movlw	0
  2845   001AA8  6F7D               	movwf	(___fldiv@a+2)& (0+255),b
  2846   001AAA  0E00               	movlw	0
  2847   001AAC  6F7E               	movwf	(___fldiv@a+3)& (0+255),b
  2848   001AAE                     l7159:
  2849                           
  2850                           ; BSR set to: 1
  2851   001AAE  517B               	movf	___fldiv@a& (0+255),w,b
  2852   001AB0  117C               	iorwf	(___fldiv@a+1)& (0+255),w,b
  2853   001AB2  117D               	iorwf	(___fldiv@a+2)& (0+255),w,b
  2854   001AB4  117E               	iorwf	(___fldiv@a+3)& (0+255),w,b
  2855   001AB6  A4D8               	btfss	status,2,c
  2856   001AB8  EF60  F00D         	goto	u6881
  2857   001ABC  EF62  F00D         	goto	u6880
  2858   001AC0                     u6881:
  2859   001AC0  EF7A  F00D         	goto	l7171
  2860   001AC4                     u6880:
  2861   001AC4                     
  2862                           ; BSR set to: 1
  2863   001AC4  0E00               	movlw	0
  2864   001AC6  6F77               	movwf	___fldiv@b& (0+255),b
  2865   001AC8  0E00               	movlw	0
  2866   001ACA  6F78               	movwf	(___fldiv@b+1)& (0+255),b
  2867   001ACC  0E00               	movlw	0
  2868   001ACE  6F79               	movwf	(___fldiv@b+2)& (0+255),b
  2869   001AD0  0E00               	movlw	0
  2870   001AD2  6F7A               	movwf	(___fldiv@b+3)& (0+255),b
  2871   001AD4                     
  2872                           ; BSR set to: 1
  2873   001AD4  0E80               	movlw	128
  2874   001AD6  1379               	iorwf	(___fldiv@b+2)& (0+255),f,b
  2875   001AD8  0E7F               	movlw	127
  2876   001ADA  137A               	iorwf	(___fldiv@b+3)& (0+255),f,b
  2877   001ADC                     l7165:
  2878                           
  2879                           ; BSR set to: 1
  2880   001ADC  5187               	movf	___fldiv@sign& (0+255),w,b
  2881   001ADE  137A               	iorwf	(___fldiv@b+3)& (0+255),f,b
  2882   001AE0                     
  2883                           ; BSR set to: 1
  2884   001AE0  C177  F177         	movff	___fldiv@b,?___fldiv
  2885   001AE4  C178  F178         	movff	___fldiv@b+1,?___fldiv+1
  2886   001AE8  C179  F179         	movff	___fldiv@b+2,?___fldiv+2
  2887   001AEC  C17A  F17A         	movff	___fldiv@b+3,?___fldiv+3
  2888   001AF0  EFBD  F00E         	goto	l2151
  2889   001AF4                     l7171:
  2890                           
  2891                           ; BSR set to: 1
  2892   001AF4  518E               	movf	___fldiv@bexp& (0+255),w,b
  2893   001AF6  A4D8               	btfss	status,2,c
  2894   001AF8  EF80  F00D         	goto	u6891
  2895   001AFC  EF82  F00D         	goto	u6890
  2896   001B00                     u6891:
  2897   001B00  EF8C  F00D         	goto	l7179
  2898   001B04                     u6890:
  2899   001B04                     
  2900                           ; BSR set to: 1
  2901   001B04  0E00               	movlw	0
  2902   001B06  6F77               	movwf	?___fldiv& (0+255),b
  2903   001B08  0E00               	movlw	0
  2904   001B0A  6F78               	movwf	(?___fldiv+1)& (0+255),b
  2905   001B0C  0E00               	movlw	0
  2906   001B0E  6F79               	movwf	(?___fldiv+2)& (0+255),b
  2907   001B10  0E00               	movlw	0
  2908   001B12  6F7A               	movwf	(?___fldiv+3)& (0+255),b
  2909   001B14  EFBD  F00E         	goto	l2151
  2910   001B18                     l7179:
  2911                           
  2912                           ; BSR set to: 1
  2913   001B18  518F               	movf	___fldiv@aexp& (0+255),w,b
  2914   001B1A  C18E  F17F         	movff	___fldiv@bexp,??___fldiv
  2915   001B1E  6B80               	clrf	(??___fldiv+1)& (0+255),b
  2916   001B20  5F7F               	subwf	??___fldiv& (0+255),f,b
  2917   001B22  0E00               	movlw	0
  2918   001B24  5B80               	subwfb	(??___fldiv+1)& (0+255),f,b
  2919   001B26  0E7F               	movlw	127
  2920   001B28  257F               	addwf	??___fldiv& (0+255),w,b
  2921   001B2A  6F88               	movwf	___fldiv@new_exp& (0+255),b
  2922   001B2C  0E00               	movlw	0
  2923   001B2E  2180               	addwfc	(??___fldiv+1)& (0+255),w,b
  2924   001B30  6F89               	movwf	(___fldiv@new_exp+1)& (0+255),b
  2925   001B32                     
  2926                           ; BSR set to: 1
  2927   001B32  C177  F183         	movff	___fldiv@b,___fldiv@rem
  2928   001B36  C178  F184         	movff	___fldiv@b+1,___fldiv@rem+1
  2929   001B3A  C179  F185         	movff	___fldiv@b+2,___fldiv@rem+2
  2930   001B3E  C17A  F186         	movff	___fldiv@b+3,___fldiv@rem+3
  2931   001B42                     
  2932                           ; BSR set to: 1
  2933   001B42  0E00               	movlw	0
  2934   001B44  6F77               	movwf	___fldiv@b& (0+255),b
  2935   001B46  0E00               	movlw	0
  2936   001B48  6F78               	movwf	(___fldiv@b+1)& (0+255),b
  2937   001B4A  0E00               	movlw	0
  2938   001B4C  6F79               	movwf	(___fldiv@b+2)& (0+255),b
  2939   001B4E  0E00               	movlw	0
  2940   001B50  6F7A               	movwf	(___fldiv@b+3)& (0+255),b
  2941   001B52                     
  2942                           ; BSR set to: 1
  2943   001B52  0E00               	movlw	0
  2944   001B54  6F8A               	movwf	___fldiv@grs& (0+255),b
  2945   001B56  0E00               	movlw	0
  2946   001B58  6F8B               	movwf	(___fldiv@grs+1)& (0+255),b
  2947   001B5A  0E00               	movlw	0
  2948   001B5C  6F8C               	movwf	(___fldiv@grs+2)& (0+255),b
  2949   001B5E  0E00               	movlw	0
  2950   001B60  6F8D               	movwf	(___fldiv@grs+3)& (0+255),b
  2951   001B62                     
  2952                           ; BSR set to: 1
  2953   001B62  0E00               	movlw	0
  2954   001B64  6F8F               	movwf	___fldiv@aexp& (0+255),b
  2955   001B66  EFED  F00D         	goto	l2153
  2956   001B6A                     l7189:
  2957                           
  2958                           ; BSR set to: 1
  2959   001B6A  518F               	movf	___fldiv@aexp& (0+255),w,b
  2960   001B6C  B4D8               	btfsc	status,2,c
  2961   001B6E  EFBB  F00D         	goto	u6901
  2962   001B72  EFBD  F00D         	goto	u6900
  2963   001B76                     u6901:
  2964   001B76  EFD4  F00D         	goto	l7197
  2965   001B7A                     u6900:
  2966   001B7A                     
  2967                           ; BSR set to: 1
  2968   001B7A  90D8               	bcf	status,0,c
  2969   001B7C  3783               	rlcf	___fldiv@rem& (0+255),f,b
  2970   001B7E  3784               	rlcf	(___fldiv@rem+1)& (0+255),f,b
  2971   001B80  3785               	rlcf	(___fldiv@rem+2)& (0+255),f,b
  2972   001B82  3786               	rlcf	(___fldiv@rem+3)& (0+255),f,b
  2973   001B84  90D8               	bcf	status,0,c
  2974   001B86  3777               	rlcf	___fldiv@b& (0+255),f,b
  2975   001B88  3778               	rlcf	(___fldiv@b+1)& (0+255),f,b
  2976   001B8A  3779               	rlcf	(___fldiv@b+2)& (0+255),f,b
  2977   001B8C  377A               	rlcf	(___fldiv@b+3)& (0+255),f,b
  2978   001B8E                     
  2979                           ; BSR set to: 1
  2980   001B8E  AF8D               	btfss	(___fldiv@grs+3)& (0+255),7,b
  2981   001B90  EFCC  F00D         	goto	u6911
  2982   001B94  EFCE  F00D         	goto	u6910
  2983   001B98                     u6911:
  2984   001B98  EFCF  F00D         	goto	l2156
  2985   001B9C                     u6910:
  2986   001B9C                     
  2987                           ; BSR set to: 1
  2988   001B9C  8177               	bsf	___fldiv@b& (0+255),0,b
  2989   001B9E                     l2156:
  2990                           
  2991                           ; BSR set to: 1
  2992   001B9E  90D8               	bcf	status,0,c
  2993   001BA0  378A               	rlcf	___fldiv@grs& (0+255),f,b
  2994   001BA2  378B               	rlcf	(___fldiv@grs+1)& (0+255),f,b
  2995   001BA4  378C               	rlcf	(___fldiv@grs+2)& (0+255),f,b
  2996   001BA6  378D               	rlcf	(___fldiv@grs+3)& (0+255),f,b
  2997   001BA8                     l7197:
  2998                           
  2999                           ; BSR set to: 1
  3000   001BA8  517B               	movf	___fldiv@a& (0+255),w,b
  3001   001BAA  5D83               	subwf	___fldiv@rem& (0+255),w,b
  3002   001BAC  517C               	movf	(___fldiv@a+1)& (0+255),w,b
  3003   001BAE  5984               	subwfb	(___fldiv@rem+1)& (0+255),w,b
  3004   001BB0  517D               	movf	(___fldiv@a+2)& (0+255),w,b
  3005   001BB2  5985               	subwfb	(___fldiv@rem+2)& (0+255),w,b
  3006   001BB4  517E               	movf	(___fldiv@a+3)& (0+255),w,b
  3007   001BB6  5986               	subwfb	(___fldiv@rem+3)& (0+255),w,b
  3008   001BB8  A0D8               	btfss	status,0,c
  3009   001BBA  EFE1  F00D         	goto	u6921
  3010   001BBE  EFE3  F00D         	goto	u6920
  3011   001BC2                     u6921:
  3012   001BC2  EFEC  F00D         	goto	l7203
  3013   001BC6                     u6920:
  3014   001BC6                     
  3015                           ; BSR set to: 1
  3016   001BC6  8D8D               	bsf	(___fldiv@grs+3)& (0+255),6,b
  3017   001BC8                     
  3018                           ; BSR set to: 1
  3019   001BC8  517B               	movf	___fldiv@a& (0+255),w,b
  3020   001BCA  5F83               	subwf	___fldiv@rem& (0+255),f,b
  3021   001BCC  517C               	movf	(___fldiv@a+1)& (0+255),w,b
  3022   001BCE  5B84               	subwfb	(___fldiv@rem+1)& (0+255),f,b
  3023   001BD0  517D               	movf	(___fldiv@a+2)& (0+255),w,b
  3024   001BD2  5B85               	subwfb	(___fldiv@rem+2)& (0+255),f,b
  3025   001BD4  517E               	movf	(___fldiv@a+3)& (0+255),w,b
  3026   001BD6  5B86               	subwfb	(___fldiv@rem+3)& (0+255),f,b
  3027   001BD8                     l7203:
  3028                           
  3029                           ; BSR set to: 1
  3030   001BD8  2B8F               	incf	___fldiv@aexp& (0+255),f,b
  3031   001BDA                     l2153:
  3032                           
  3033                           ; BSR set to: 1
  3034   001BDA  0E19               	movlw	25
  3035   001BDC  658F               	cpfsgt	___fldiv@aexp& (0+255),b
  3036   001BDE  EFF3  F00D         	goto	u6931
  3037   001BE2  EFF5  F00D         	goto	u6930
  3038   001BE6                     u6931:
  3039   001BE6  EFB5  F00D         	goto	l7189
  3040   001BEA                     u6930:
  3041   001BEA                     
  3042                           ; BSR set to: 1
  3043   001BEA  5183               	movf	___fldiv@rem& (0+255),w,b
  3044   001BEC  1184               	iorwf	(___fldiv@rem+1)& (0+255),w,b
  3045   001BEE  1185               	iorwf	(___fldiv@rem+2)& (0+255),w,b
  3046   001BF0  1186               	iorwf	(___fldiv@rem+3)& (0+255),w,b
  3047   001BF2  B4D8               	btfsc	status,2,c
  3048   001BF4  EFFE  F00D         	goto	u6941
  3049   001BF8  EF00  F00E         	goto	u6940
  3050   001BFC                     u6941:
  3051   001BFC  EF18  F00E         	goto	l7215
  3052   001C00                     u6940:
  3053   001C00                     
  3054                           ; BSR set to: 1
  3055   001C00  818A               	bsf	___fldiv@grs& (0+255),0,b
  3056   001C02  EF18  F00E         	goto	l7215
  3057   001C06                     l7209:
  3058                           
  3059                           ; BSR set to: 1
  3060   001C06  90D8               	bcf	status,0,c
  3061   001C08  3777               	rlcf	___fldiv@b& (0+255),f,b
  3062   001C0A  3778               	rlcf	(___fldiv@b+1)& (0+255),f,b
  3063   001C0C  3779               	rlcf	(___fldiv@b+2)& (0+255),f,b
  3064   001C0E  377A               	rlcf	(___fldiv@b+3)& (0+255),f,b
  3065   001C10                     
  3066                           ; BSR set to: 1
  3067   001C10  AF8D               	btfss	(___fldiv@grs+3)& (0+255),7,b
  3068   001C12  EF0D  F00E         	goto	u6951
  3069   001C16  EF0F  F00E         	goto	u6950
  3070   001C1A                     u6951:
  3071   001C1A  EF10  F00E         	goto	l2162
  3072   001C1E                     u6950:
  3073   001C1E                     
  3074                           ; BSR set to: 1
  3075   001C1E  8177               	bsf	___fldiv@b& (0+255),0,b
  3076   001C20                     l2162:
  3077                           
  3078                           ; BSR set to: 1
  3079   001C20  90D8               	bcf	status,0,c
  3080   001C22  378A               	rlcf	___fldiv@grs& (0+255),f,b
  3081   001C24  378B               	rlcf	(___fldiv@grs+1)& (0+255),f,b
  3082   001C26  378C               	rlcf	(___fldiv@grs+2)& (0+255),f,b
  3083   001C28  378D               	rlcf	(___fldiv@grs+3)& (0+255),f,b
  3084   001C2A  0788               	decf	___fldiv@new_exp& (0+255),f,b
  3085   001C2C  A0D8               	btfss	status,0,c
  3086   001C2E  0789               	decf	(___fldiv@new_exp+1)& (0+255),f,b
  3087   001C30                     l7215:
  3088                           
  3089                           ; BSR set to: 1
  3090   001C30  AF79               	btfss	(___fldiv@b+2)& (0+255),7,b
  3091   001C32  EF1D  F00E         	goto	u6961
  3092   001C36  EF1F  F00E         	goto	u6960
  3093   001C3A                     u6961:
  3094   001C3A  EF03  F00E         	goto	l7209
  3095   001C3E                     u6960:
  3096   001C3E                     
  3097                           ; BSR set to: 1
  3098   001C3E  0E00               	movlw	0
  3099   001C40  6F8F               	movwf	___fldiv@aexp& (0+255),b
  3100   001C42                     
  3101                           ; BSR set to: 1
  3102   001C42  AF8D               	btfss	(___fldiv@grs+3)& (0+255),7,b
  3103   001C44  EF26  F00E         	goto	u6971
  3104   001C48  EF28  F00E         	goto	u6970
  3105   001C4C                     u6971:
  3106   001C4C  EF4C  F00E         	goto	l2164
  3107   001C50                     u6970:
  3108   001C50                     
  3109                           ; BSR set to: 1
  3110   001C50  0EFF               	movlw	255
  3111   001C52  158A               	andwf	___fldiv@grs& (0+255),w,b
  3112   001C54  6F7F               	movwf	??___fldiv& (0+255),b
  3113   001C56  0EFF               	movlw	255
  3114   001C58  158B               	andwf	(___fldiv@grs+1)& (0+255),w,b
  3115   001C5A  6F80               	movwf	(??___fldiv+1)& (0+255),b
  3116   001C5C  0EFF               	movlw	255
  3117   001C5E  158C               	andwf	(___fldiv@grs+2)& (0+255),w,b
  3118   001C60  6F81               	movwf	(??___fldiv+2)& (0+255),b
  3119   001C62  0E7F               	movlw	127
  3120   001C64  158D               	andwf	(___fldiv@grs+3)& (0+255),w,b
  3121   001C66  6F82               	movwf	(??___fldiv+3)& (0+255),b
  3122   001C68  517F               	movf	??___fldiv& (0+255),w,b
  3123   001C6A  1180               	iorwf	(??___fldiv+1)& (0+255),w,b
  3124   001C6C  1181               	iorwf	(??___fldiv+2)& (0+255),w,b
  3125   001C6E  1182               	iorwf	(??___fldiv+3)& (0+255),w,b
  3126   001C70  B4D8               	btfsc	status,2,c
  3127   001C72  EF3D  F00E         	goto	u6981
  3128   001C76  EF3F  F00E         	goto	u6980
  3129   001C7A                     u6981:
  3130   001C7A  EF43  F00E         	goto	l2165
  3131   001C7E                     u6980:
  3132   001C7E                     l7223:
  3133                           
  3134                           ; BSR set to: 1
  3135   001C7E  0E01               	movlw	1
  3136   001C80  6F8F               	movwf	___fldiv@aexp& (0+255),b
  3137   001C82  EF4C  F00E         	goto	l2164
  3138   001C86                     l2165:
  3139                           
  3140                           ; BSR set to: 1
  3141   001C86  A177               	btfss	___fldiv@b& (0+255),0,b
  3142   001C88  EF48  F00E         	goto	u6991
  3143   001C8C  EF4A  F00E         	goto	u6990
  3144   001C90                     u6991:
  3145   001C90  EF4C  F00E         	goto	l2164
  3146   001C94                     u6990:
  3147   001C94  EF3F  F00E         	goto	l7223
  3148   001C98                     l2164:
  3149                           
  3150                           ; BSR set to: 1
  3151   001C98  518F               	movf	___fldiv@aexp& (0+255),w,b
  3152   001C9A  B4D8               	btfsc	status,2,c
  3153   001C9C  EF52  F00E         	goto	u7001
  3154   001CA0  EF54  F00E         	goto	u7000
  3155   001CA4                     u7001:
  3156   001CA4  EF78  F00E         	goto	l7235
  3157   001CA8                     u7000:
  3158   001CA8                     
  3159                           ; BSR set to: 1
  3160   001CA8  0E01               	movlw	1
  3161   001CAA  2777               	addwf	___fldiv@b& (0+255),f,b
  3162   001CAC  0E00               	movlw	0
  3163   001CAE  2378               	addwfc	(___fldiv@b+1)& (0+255),f,b
  3164   001CB0  2379               	addwfc	(___fldiv@b+2)& (0+255),f,b
  3165   001CB2  237A               	addwfc	(___fldiv@b+3)& (0+255),f,b
  3166   001CB4                     
  3167                           ; BSR set to: 1
  3168   001CB4  A17A               	btfss	(___fldiv@b+3)& (0+255),0,b
  3169   001CB6  EF5F  F00E         	goto	u7011
  3170   001CBA  EF61  F00E         	goto	u7010
  3171   001CBE                     u7011:
  3172   001CBE  EF78  F00E         	goto	l7235
  3173   001CC2                     u7010:
  3174   001CC2                     
  3175                           ; BSR set to: 1
  3176   001CC2  C177  F17F         	movff	___fldiv@b,??___fldiv
  3177   001CC6  C178  F180         	movff	___fldiv@b+1,??___fldiv+1
  3178   001CCA  C179  F181         	movff	___fldiv@b+2,??___fldiv+2
  3179   001CCE  C17A  F182         	movff	___fldiv@b+3,??___fldiv+3
  3180   001CD2  3582               	rlcf	(??___fldiv+3)& (0+255),w,b
  3181   001CD4  3382               	rrcf	(??___fldiv+3)& (0+255),f,b
  3182   001CD6  3381               	rrcf	(??___fldiv+2)& (0+255),f,b
  3183   001CD8  3380               	rrcf	(??___fldiv+1)& (0+255),f,b
  3184   001CDA  337F               	rrcf	??___fldiv& (0+255),f,b
  3185   001CDC  C17F  F177         	movff	??___fldiv,___fldiv@b
  3186   001CE0  C180  F178         	movff	??___fldiv+1,___fldiv@b+1
  3187   001CE4  C181  F179         	movff	??___fldiv+2,___fldiv@b+2
  3188   001CE8  C182  F17A         	movff	??___fldiv+3,___fldiv@b+3
  3189   001CEC                     
  3190                           ; BSR set to: 1
  3191   001CEC  4B88               	infsnz	___fldiv@new_exp& (0+255),f,b
  3192   001CEE  2B89               	incf	(___fldiv@new_exp+1)& (0+255),f,b
  3193   001CF0                     l7235:
  3194                           
  3195                           ; BSR set to: 1
  3196   001CF0  BF89               	btfsc	(___fldiv@new_exp+1)& (0+255),7,b
  3197   001CF2  EF83  F00E         	goto	u7021
  3198   001CF6  5189               	movf	(___fldiv@new_exp+1)& (0+255),w,b
  3199   001CF8  E108               	bnz	u7020
  3200   001CFA  2988               	incf	___fldiv@new_exp& (0+255),w,b
  3201   001CFC  A0D8               	btfss	status,0,c
  3202   001CFE  EF83  F00E         	goto	u7021
  3203   001D02  EF85  F00E         	goto	u7020
  3204   001D06                     u7021:
  3205   001D06  EF90  F00E         	goto	l7239
  3206   001D0A                     u7020:
  3207   001D0A                     
  3208                           ; BSR set to: 1
  3209   001D0A  0E00               	movlw	0
  3210   001D0C  6F89               	movwf	(___fldiv@new_exp+1)& (0+255),b
  3211   001D0E  6988               	setf	___fldiv@new_exp& (0+255),b
  3212   001D10  0E00               	movlw	0
  3213   001D12  6F77               	movwf	___fldiv@b& (0+255),b
  3214   001D14  0E00               	movlw	0
  3215   001D16  6F78               	movwf	(___fldiv@b+1)& (0+255),b
  3216   001D18  0E00               	movlw	0
  3217   001D1A  6F79               	movwf	(___fldiv@b+2)& (0+255),b
  3218   001D1C  0E00               	movlw	0
  3219   001D1E  6F7A               	movwf	(___fldiv@b+3)& (0+255),b
  3220   001D20                     l7239:
  3221                           
  3222                           ; BSR set to: 1
  3223   001D20  BF89               	btfsc	(___fldiv@new_exp+1)& (0+255),7,b
  3224   001D22  EF9D  F00E         	goto	u7030
  3225   001D26  5189               	movf	(___fldiv@new_exp+1)& (0+255),w,b
  3226   001D28  E106               	bnz	u7031
  3227   001D2A  0588               	decf	___fldiv@new_exp& (0+255),w,b
  3228   001D2C  B0D8               	btfsc	status,0,c
  3229   001D2E  EF9B  F00E         	goto	u7031
  3230   001D32  EF9D  F00E         	goto	u7030
  3231   001D36                     u7031:
  3232   001D36  EFAB  F00E         	goto	l7243
  3233   001D3A                     u7030:
  3234   001D3A                     
  3235                           ; BSR set to: 1
  3236   001D3A  0E00               	movlw	0
  3237   001D3C  6F89               	movwf	(___fldiv@new_exp+1)& (0+255),b
  3238   001D3E  0E00               	movlw	0
  3239   001D40  6F88               	movwf	___fldiv@new_exp& (0+255),b
  3240   001D42  0E00               	movlw	0
  3241   001D44  6F77               	movwf	___fldiv@b& (0+255),b
  3242   001D46  0E00               	movlw	0
  3243   001D48  6F78               	movwf	(___fldiv@b+1)& (0+255),b
  3244   001D4A  0E00               	movlw	0
  3245   001D4C  6F79               	movwf	(___fldiv@b+2)& (0+255),b
  3246   001D4E  0E00               	movlw	0
  3247   001D50  6F7A               	movwf	(___fldiv@b+3)& (0+255),b
  3248   001D52  0E00               	movlw	0
  3249   001D54  6F87               	movwf	___fldiv@sign& (0+255),b
  3250   001D56                     l7243:
  3251                           
  3252                           ; BSR set to: 1
  3253   001D56  C188  F18E         	movff	___fldiv@new_exp,___fldiv@bexp
  3254   001D5A                     
  3255                           ; BSR set to: 1
  3256   001D5A  A18E               	btfss	___fldiv@bexp& (0+255),0,b
  3257   001D5C  EFB2  F00E         	goto	u7041
  3258   001D60  EFB4  F00E         	goto	u7040
  3259   001D64                     u7041:
  3260   001D64  EFB7  F00E         	goto	l7249
  3261   001D68                     u7040:
  3262   001D68                     
  3263                           ; BSR set to: 1
  3264   001D68  8F79               	bsf	(___fldiv@b+2)& (0+255),7,b
  3265   001D6A  EFB8  F00E         	goto	l7251
  3266   001D6E                     l7249:
  3267                           
  3268                           ; BSR set to: 1
  3269   001D6E  9F79               	bcf	(___fldiv@b+2)& (0+255),7,b
  3270   001D70                     l7251:
  3271                           
  3272                           ; BSR set to: 1
  3273   001D70  90D8               	bcf	status,0,c
  3274   001D72  318E               	rrcf	___fldiv@bexp& (0+255),w,b
  3275   001D74  6F7A               	movwf	(___fldiv@b+3)& (0+255),b
  3276   001D76  EF6E  F00D         	goto	l7165
  3277   001D7A                     l2151:
  3278                           
  3279                           ; BSR set to: 1
  3280   001D7A  0012               	return		;funcret
  3281   001D7C                     __end_of___fldiv:
  3282                           	callstack 0
  3283                           
  3284 ;; *************** function ___fladd *****************
  3285 ;; Defined at:
  3286 ;;		line 10 in file "C:\Program Files\Microchip\xc8\v2.41\pic\sources\c99\common\sprcadd.c"
  3287 ;; Parameters:    Size  Location     Type
  3288 ;;  b               4   39[BANK1 ] unsigned char 
  3289 ;;  a               4   43[BANK1 ] unsigned char 
  3290 ;; Auto vars:     Size  Location     Type
  3291 ;;  grs             1   54[BANK1 ] unsigned char 
  3292 ;;  bexp            1   53[BANK1 ] unsigned char 
  3293 ;;  aexp            1   52[BANK1 ] unsigned char 
  3294 ;;  signs           1   51[BANK1 ] unsigned char 
  3295 ;; Return value:  Size  Location     Type
  3296 ;;                  4   39[BANK1 ] unsigned char 
  3297 ;; Registers used:
  3298 ;;		wreg, status,2, status,0
  3299 ;; Tracked objects:
  3300 ;;		On entry : 0/0
  3301 ;;		On exit  : 0/0
  3302 ;;		Unchanged: 0/0
  3303 ;; Data sizes:     COMRAM   BANK0   BANK1   BANK2   BANK3   BANK4   BANK5   BANK6   BANK7   BANK8   BANK9  BANK10  BANK1
      +1  BANK12  BANK13  BANK14  BANK15
  3304 ;;      Params:         0       0       8       0       0       0       0       0       0       0       0       0       
      +0       0       0       0       0
  3305 ;;      Locals:         0       0       4       0       0       0       0       0       0       0       0       0       
      +0       0       0       0       0
  3306 ;;      Temps:          0       0       4       0       0       0       0       0       0       0       0       0       
      +0       0       0       0       0
  3307 ;;      Totals:         0       0      16       0       0       0       0       0       0       0       0       0       
      +0       0       0       0       0
  3308 ;;Total ram usage:       16 bytes
  3309 ;; Hardware stack levels used: 1
  3310 ;; Hardware stack levels required when called: 24
  3311 ;; This function calls:
  3312 ;;		Nothing
  3313 ;; This function is called by:
  3314 ;;		_EUSART_Baud_Rate_Calcualtion
  3315 ;; This function uses a non-reentrant model
  3316 ;;
  3317                           
  3318                           	psect	text8
  3319   00151E                     __ptext8:
  3320                           	callstack 0
  3321   00151E                     ___fladd:
  3322                           	callstack 2
  3323   00151E  0101               	movlb	1	; () banked
  3324   001520  5193               	movf	(___fladd@b+3)& (0+255),w,b
  3325   001522  0B80               	andlw	128
  3326   001524  6F9C               	movwf	___fladd@signs& (0+255),b
  3327   001526  5193               	movf	(___fladd@b+3)& (0+255),w,b
  3328   001528  2593               	addwf	(___fladd@b+3)& (0+255),w,b
  3329   00152A  6F9E               	movwf	___fladd@bexp& (0+255),b
  3330   00152C                     
  3331                           ; BSR set to: 1
  3332   00152C  AF92               	btfss	(___fladd@b+2)& (0+255),7,b
  3333   00152E  EF9B  F00A         	goto	u6431
  3334   001532  EF9D  F00A         	goto	u6430
  3335   001536                     u6431:
  3336   001536  EF9E  F00A         	goto	l6925
  3337   00153A                     u6430:
  3338   00153A                     
  3339                           ; BSR set to: 1
  3340   00153A  819E               	bsf	___fladd@bexp& (0+255),0,b
  3341   00153C                     l6925:
  3342                           
  3343                           ; BSR set to: 1
  3344   00153C  519E               	movf	___fladd@bexp& (0+255),w,b
  3345   00153E  B4D8               	btfsc	status,2,c
  3346   001540  EFA4  F00A         	goto	u6441
  3347   001544  EFA6  F00A         	goto	u6440
  3348   001548                     u6441:
  3349   001548  EFBB  F00A         	goto	l6935
  3350   00154C                     u6440:
  3351   00154C                     
  3352                           ; BSR set to: 1
  3353   00154C  299E               	incf	___fladd@bexp& (0+255),w,b
  3354   00154E  A4D8               	btfss	status,2,c
  3355   001550  EFAC  F00A         	goto	u6451
  3356   001554  EFAE  F00A         	goto	u6450
  3357   001558                     u6451:
  3358   001558  EFB6  F00A         	goto	l6931
  3359   00155C                     u6450:
  3360   00155C                     
  3361                           ; BSR set to: 1
  3362   00155C  0E00               	movlw	0
  3363   00155E  6F90               	movwf	___fladd@b& (0+255),b
  3364   001560  0E00               	movlw	0
  3365   001562  6F91               	movwf	(___fladd@b+1)& (0+255),b
  3366   001564  0E00               	movlw	0
  3367   001566  6F92               	movwf	(___fladd@b+2)& (0+255),b
  3368   001568  0E00               	movlw	0
  3369   00156A  6F93               	movwf	(___fladd@b+3)& (0+255),b
  3370   00156C                     l6931:
  3371                           
  3372                           ; BSR set to: 1
  3373   00156C  8F92               	bsf	(___fladd@b+2)& (0+255),7,b
  3374   00156E                     
  3375                           ; BSR set to: 1
  3376   00156E  0E00               	movlw	0
  3377   001570  6F93               	movwf	(___fladd@b+3)& (0+255),b
  3378   001572  EFC3  F00A         	goto	l6937
  3379   001576                     l6935:
  3380                           
  3381                           ; BSR set to: 1
  3382   001576  0E00               	movlw	0
  3383   001578  6F90               	movwf	___fladd@b& (0+255),b
  3384   00157A  0E00               	movlw	0
  3385   00157C  6F91               	movwf	(___fladd@b+1)& (0+255),b
  3386   00157E  0E00               	movlw	0
  3387   001580  6F92               	movwf	(___fladd@b+2)& (0+255),b
  3388   001582  0E00               	movlw	0
  3389   001584  6F93               	movwf	(___fladd@b+3)& (0+255),b
  3390   001586                     l6937:
  3391                           
  3392                           ; BSR set to: 1
  3393   001586  5197               	movf	(___fladd@a+3)& (0+255),w,b
  3394   001588  0B80               	andlw	128
  3395   00158A  6F9D               	movwf	___fladd@aexp& (0+255),b
  3396   00158C                     
  3397                           ; BSR set to: 1
  3398   00158C  519C               	movf	___fladd@signs& (0+255),w,b
  3399   00158E  199D               	xorwf	___fladd@aexp& (0+255),w,b
  3400   001590  B4D8               	btfsc	status,2,c
  3401   001592  EFCD  F00A         	goto	u6461
  3402   001596  EFCF  F00A         	goto	u6460
  3403   00159A                     u6461:
  3404   00159A  EFD0  F00A         	goto	l6943
  3405   00159E                     u6460:
  3406   00159E                     
  3407                           ; BSR set to: 1
  3408   00159E  8D9C               	bsf	___fladd@signs& (0+255),6,b
  3409   0015A0                     l6943:
  3410                           
  3411                           ; BSR set to: 1
  3412   0015A0  5197               	movf	(___fladd@a+3)& (0+255),w,b
  3413   0015A2  2597               	addwf	(___fladd@a+3)& (0+255),w,b
  3414   0015A4  6F9D               	movwf	___fladd@aexp& (0+255),b
  3415   0015A6                     
  3416                           ; BSR set to: 1
  3417   0015A6  AF96               	btfss	(___fladd@a+2)& (0+255),7,b
  3418   0015A8  EFD8  F00A         	goto	u6471
  3419   0015AC  EFDA  F00A         	goto	u6470
  3420   0015B0                     u6471:
  3421   0015B0  EFDB  F00A         	goto	l6949
  3422   0015B4                     u6470:
  3423   0015B4                     
  3424                           ; BSR set to: 1
  3425   0015B4  819D               	bsf	___fladd@aexp& (0+255),0,b
  3426   0015B6                     l6949:
  3427                           
  3428                           ; BSR set to: 1
  3429   0015B6  519D               	movf	___fladd@aexp& (0+255),w,b
  3430   0015B8  B4D8               	btfsc	status,2,c
  3431   0015BA  EFE1  F00A         	goto	u6481
  3432   0015BE  EFE3  F00A         	goto	u6480
  3433   0015C2                     u6481:
  3434   0015C2  EFF8  F00A         	goto	l6959
  3435   0015C6                     u6480:
  3436   0015C6                     
  3437                           ; BSR set to: 1
  3438   0015C6  299D               	incf	___fladd@aexp& (0+255),w,b
  3439   0015C8  A4D8               	btfss	status,2,c
  3440   0015CA  EFE9  F00A         	goto	u6491
  3441   0015CE  EFEB  F00A         	goto	u6490
  3442   0015D2                     u6491:
  3443   0015D2  EFF3  F00A         	goto	l6955
  3444   0015D6                     u6490:
  3445   0015D6                     
  3446                           ; BSR set to: 1
  3447   0015D6  0E00               	movlw	0
  3448   0015D8  6F94               	movwf	___fladd@a& (0+255),b
  3449   0015DA  0E00               	movlw	0
  3450   0015DC  6F95               	movwf	(___fladd@a+1)& (0+255),b
  3451   0015DE  0E00               	movlw	0
  3452   0015E0  6F96               	movwf	(___fladd@a+2)& (0+255),b
  3453   0015E2  0E00               	movlw	0
  3454   0015E4  6F97               	movwf	(___fladd@a+3)& (0+255),b
  3455   0015E6                     l6955:
  3456                           
  3457                           ; BSR set to: 1
  3458   0015E6  8F96               	bsf	(___fladd@a+2)& (0+255),7,b
  3459   0015E8                     
  3460                           ; BSR set to: 1
  3461   0015E8  0E00               	movlw	0
  3462   0015EA  6F97               	movwf	(___fladd@a+3)& (0+255),b
  3463   0015EC  EF00  F00B         	goto	l6961
  3464   0015F0                     l6959:
  3465                           
  3466                           ; BSR set to: 1
  3467   0015F0  0E00               	movlw	0
  3468   0015F2  6F94               	movwf	___fladd@a& (0+255),b
  3469   0015F4  0E00               	movlw	0
  3470   0015F6  6F95               	movwf	(___fladd@a+1)& (0+255),b
  3471   0015F8  0E00               	movlw	0
  3472   0015FA  6F96               	movwf	(___fladd@a+2)& (0+255),b
  3473   0015FC  0E00               	movlw	0
  3474   0015FE  6F97               	movwf	(___fladd@a+3)& (0+255),b
  3475   001600                     l6961:
  3476                           
  3477                           ; BSR set to: 1
  3478   001600  519E               	movf	___fladd@bexp& (0+255),w,b
  3479   001602  5D9D               	subwf	___fladd@aexp& (0+255),w,b
  3480   001604  B0D8               	btfsc	status,0,c
  3481   001606  EF07  F00B         	goto	u6501
  3482   00160A  EF09  F00B         	goto	u6500
  3483   00160E                     u6501:
  3484   00160E  EF30  F00B         	goto	l6997
  3485   001612                     u6500:
  3486   001612                     
  3487                           ; BSR set to: 1
  3488   001612  AD9C               	btfss	___fladd@signs& (0+255),6,b
  3489   001614  EF0E  F00B         	goto	u6511
  3490   001618  EF10  F00B         	goto	u6510
  3491   00161C                     u6511:
  3492   00161C  EF12  F00B         	goto	l6967
  3493   001620                     u6510:
  3494   001620                     
  3495                           ; BSR set to: 1
  3496   001620  0E80               	movlw	128
  3497   001622  1B9C               	xorwf	___fladd@signs& (0+255),f,b
  3498   001624                     l6967:
  3499                           
  3500                           ; BSR set to: 1
  3501   001624  C19E  F19F         	movff	___fladd@bexp,___fladd@grs
  3502   001628                     
  3503                           ; BSR set to: 1
  3504   001628  C19D  F19E         	movff	___fladd@aexp,___fladd@bexp
  3505   00162C                     
  3506                           ; BSR set to: 1
  3507   00162C  C19F  F19D         	movff	___fladd@grs,___fladd@aexp
  3508   001630                     
  3509                           ; BSR set to: 1
  3510   001630  C190  F19F         	movff	___fladd@b,___fladd@grs
  3511   001634                     
  3512                           ; BSR set to: 1
  3513   001634  C194  F190         	movff	___fladd@a,___fladd@b
  3514   001638                     
  3515                           ; BSR set to: 1
  3516   001638  C19F  F194         	movff	___fladd@grs,___fladd@a
  3517   00163C                     
  3518                           ; BSR set to: 1
  3519   00163C  C191  F19F         	movff	___fladd@b+1,___fladd@grs
  3520   001640                     
  3521                           ; BSR set to: 1
  3522   001640  C195  F191         	movff	___fladd@a+1,___fladd@b+1
  3523   001644                     
  3524                           ; BSR set to: 1
  3525   001644  C19F  F195         	movff	___fladd@grs,___fladd@a+1
  3526   001648                     
  3527                           ; BSR set to: 1
  3528   001648  C192  F19F         	movff	___fladd@b+2,___fladd@grs
  3529   00164C                     
  3530                           ; BSR set to: 1
  3531   00164C  C196  F192         	movff	___fladd@a+2,___fladd@b+2
  3532   001650                     
  3533                           ; BSR set to: 1
  3534   001650  C19F  F196         	movff	___fladd@grs,___fladd@a+2
  3535   001654                     
  3536                           ; BSR set to: 1
  3537   001654  C193  F19F         	movff	___fladd@b+3,___fladd@grs
  3538   001658                     
  3539                           ; BSR set to: 1
  3540   001658  C197  F193         	movff	___fladd@a+3,___fladd@b+3
  3541   00165C                     
  3542                           ; BSR set to: 1
  3543   00165C  C19F  F197         	movff	___fladd@grs,___fladd@a+3
  3544   001660                     l6997:
  3545                           
  3546                           ; BSR set to: 1
  3547   001660  0E00               	movlw	0
  3548   001662  6F9F               	movwf	___fladd@grs& (0+255),b
  3549   001664                     
  3550                           ; BSR set to: 1
  3551   001664  519E               	movf	___fladd@bexp& (0+255),w,b
  3552   001666  C19D  F198         	movff	___fladd@aexp,??___fladd
  3553   00166A  6B99               	clrf	(??___fladd+1)& (0+255),b
  3554   00166C  5F98               	subwf	??___fladd& (0+255),f,b
  3555   00166E  0E00               	movlw	0
  3556   001670  5B99               	subwfb	(??___fladd+1)& (0+255),f,b
  3557   001672  BF99               	btfsc	(??___fladd+1)& (0+255),7,b
  3558   001674  EF45  F00B         	goto	u6521
  3559   001678  5199               	movf	(??___fladd+1)& (0+255),w,b
  3560   00167A  E109               	bnz	u6520
  3561   00167C  0E1A               	movlw	26
  3562   00167E  5D98               	subwf	??___fladd& (0+255),w,b
  3563   001680  A0D8               	btfss	status,0,c
  3564   001682  EF45  F00B         	goto	u6521
  3565   001686  EF47  F00B         	goto	u6520
  3566   00168A                     u6521:
  3567   00168A  EF7E  F00B         	goto	l2098
  3568   00168E                     u6520:
  3569   00168E                     
  3570                           ; BSR set to: 1
  3571   00168E  5190               	movf	___fladd@b& (0+255),w,b
  3572   001690  1191               	iorwf	(___fladd@b+1)& (0+255),w,b
  3573   001692  1192               	iorwf	(___fladd@b+2)& (0+255),w,b
  3574   001694  1193               	iorwf	(___fladd@b+3)& (0+255),w,b
  3575   001696  A4D8               	btfss	status,2,c
  3576   001698  EF50  F00B         	goto	u6531
  3577   00169C  EF53  F00B         	goto	u6530
  3578   0016A0                     u6531:
  3579   0016A0  0E01               	movlw	1
  3580   0016A2  EF54  F00B         	goto	u6540
  3581   0016A6                     u6530:
  3582   0016A6  0E00               	movlw	0
  3583   0016A8                     u6540:
  3584   0016A8  6F9F               	movwf	___fladd@grs& (0+255),b
  3585   0016AA                     
  3586                           ; BSR set to: 1
  3587   0016AA  0E00               	movlw	0
  3588   0016AC  6F90               	movwf	___fladd@b& (0+255),b
  3589   0016AE  0E00               	movlw	0
  3590   0016B0  6F91               	movwf	(___fladd@b+1)& (0+255),b
  3591   0016B2  0E00               	movlw	0
  3592   0016B4  6F92               	movwf	(___fladd@b+2)& (0+255),b
  3593   0016B6  0E00               	movlw	0
  3594   0016B8  6F93               	movwf	(___fladd@b+3)& (0+255),b
  3595   0016BA                     
  3596                           ; BSR set to: 1
  3597   0016BA  C19D  F19E         	movff	___fladd@aexp,___fladd@bexp
  3598   0016BE  EF87  F00B         	goto	l2097
  3599   0016C2                     l2099:
  3600                           
  3601                           ; BSR set to: 1
  3602   0016C2  A19F               	btfss	___fladd@grs& (0+255),0,b
  3603   0016C4  EF66  F00B         	goto	u6551
  3604   0016C8  EF68  F00B         	goto	u6550
  3605   0016CC                     u6551:
  3606   0016CC  EF6E  F00B         	goto	l7009
  3607   0016D0                     u6550:
  3608   0016D0                     
  3609                           ; BSR set to: 1
  3610   0016D0  90D8               	bcf	status,0,c
  3611   0016D2  319F               	rrcf	___fladd@grs& (0+255),w,b
  3612   0016D4  0901               	iorlw	1
  3613   0016D6  6F9F               	movwf	___fladd@grs& (0+255),b
  3614   0016D8  EF70  F00B         	goto	l7011
  3615   0016DC                     l7009:
  3616                           
  3617                           ; BSR set to: 1
  3618   0016DC  90D8               	bcf	status,0,c
  3619   0016DE  339F               	rrcf	___fladd@grs& (0+255),f,b
  3620   0016E0                     l7011:
  3621                           
  3622                           ; BSR set to: 1
  3623   0016E0  A190               	btfss	___fladd@b& (0+255),0,b
  3624   0016E2  EF75  F00B         	goto	u6561
  3625   0016E6  EF77  F00B         	goto	u6560
  3626   0016EA                     u6561:
  3627   0016EA  EF78  F00B         	goto	l7015
  3628   0016EE                     u6560:
  3629   0016EE                     
  3630                           ; BSR set to: 1
  3631   0016EE  8F9F               	bsf	___fladd@grs& (0+255),7,b
  3632   0016F0                     l7015:
  3633                           
  3634                           ; BSR set to: 1
  3635   0016F0  3593               	rlcf	(___fladd@b+3)& (0+255),w,b
  3636   0016F2  3393               	rrcf	(___fladd@b+3)& (0+255),f,b
  3637   0016F4  3392               	rrcf	(___fladd@b+2)& (0+255),f,b
  3638   0016F6  3391               	rrcf	(___fladd@b+1)& (0+255),f,b
  3639   0016F8  3390               	rrcf	___fladd@b& (0+255),f,b
  3640   0016FA                     
  3641                           ; BSR set to: 1
  3642   0016FA  2B9E               	incf	___fladd@bexp& (0+255),f,b
  3643   0016FC                     l2098:
  3644                           
  3645                           ; BSR set to: 1
  3646   0016FC  519D               	movf	___fladd@aexp& (0+255),w,b
  3647   0016FE  5D9E               	subwf	___fladd@bexp& (0+255),w,b
  3648   001700  A0D8               	btfss	status,0,c
  3649   001702  EF85  F00B         	goto	u6571
  3650   001706  EF87  F00B         	goto	u6570
  3651   00170A                     u6571:
  3652   00170A  EF61  F00B         	goto	l2099
  3653   00170E                     u6570:
  3654   00170E                     l2097:
  3655                           
  3656                           ; BSR set to: 1
  3657   00170E  BD9C               	btfsc	___fladd@signs& (0+255),6,b
  3658   001710  EF8C  F00B         	goto	u6581
  3659   001714  EF8E  F00B         	goto	u6580
  3660   001718                     u6581:
  3661   001718  EFCE  F00B         	goto	l7043
  3662   00171C                     u6580:
  3663   00171C                     
  3664                           ; BSR set to: 1
  3665   00171C  519E               	movf	___fladd@bexp& (0+255),w,b
  3666   00171E  A4D8               	btfss	status,2,c
  3667   001720  EF94  F00B         	goto	u6591
  3668   001724  EF96  F00B         	goto	u6590
  3669   001728                     u6591:
  3670   001728  EFA0  F00B         	goto	l7025
  3671   00172C                     u6590:
  3672   00172C                     
  3673                           ; BSR set to: 1
  3674   00172C  0E00               	movlw	0
  3675   00172E  6F90               	movwf	?___fladd& (0+255),b
  3676   001730  0E00               	movlw	0
  3677   001732  6F91               	movwf	(?___fladd+1)& (0+255),b
  3678   001734  0E00               	movlw	0
  3679   001736  6F92               	movwf	(?___fladd+2)& (0+255),b
  3680   001738  0E00               	movlw	0
  3681   00173A  6F93               	movwf	(?___fladd+3)& (0+255),b
  3682   00173C  EFEF  F00C         	goto	l2106
  3683   001740                     l7025:
  3684                           
  3685                           ; BSR set to: 1
  3686   001740  5194               	movf	___fladd@a& (0+255),w,b
  3687   001742  2790               	addwf	___fladd@b& (0+255),f,b
  3688   001744  5195               	movf	(___fladd@a+1)& (0+255),w,b
  3689   001746  2391               	addwfc	(___fladd@b+1)& (0+255),f,b
  3690   001748  5196               	movf	(___fladd@a+2)& (0+255),w,b
  3691   00174A  2392               	addwfc	(___fladd@b+2)& (0+255),f,b
  3692   00174C  5197               	movf	(___fladd@a+3)& (0+255),w,b
  3693   00174E  2393               	addwfc	(___fladd@b+3)& (0+255),f,b
  3694   001750                     
  3695                           ; BSR set to: 1
  3696   001750  A193               	btfss	(___fladd@b+3)& (0+255),0,b
  3697   001752  EFAD  F00B         	goto	u6601
  3698   001756  EFAF  F00B         	goto	u6600
  3699   00175A                     u6601:
  3700   00175A  EF5B  F00C         	goto	l7079
  3701   00175E                     u6600:
  3702   00175E                     
  3703                           ; BSR set to: 1
  3704   00175E  A19F               	btfss	___fladd@grs& (0+255),0,b
  3705   001760  EFB4  F00B         	goto	u6611
  3706   001764  EFB6  F00B         	goto	u6610
  3707   001768                     u6611:
  3708   001768  EFBC  F00B         	goto	l7033
  3709   00176C                     u6610:
  3710   00176C                     
  3711                           ; BSR set to: 1
  3712   00176C  90D8               	bcf	status,0,c
  3713   00176E  319F               	rrcf	___fladd@grs& (0+255),w,b
  3714   001770  0901               	iorlw	1
  3715   001772  6F9F               	movwf	___fladd@grs& (0+255),b
  3716   001774  EFBE  F00B         	goto	l7035
  3717   001778                     l7033:
  3718                           
  3719                           ; BSR set to: 1
  3720   001778  90D8               	bcf	status,0,c
  3721   00177A  339F               	rrcf	___fladd@grs& (0+255),f,b
  3722   00177C                     l7035:
  3723                           
  3724                           ; BSR set to: 1
  3725   00177C  A190               	btfss	___fladd@b& (0+255),0,b
  3726   00177E  EFC3  F00B         	goto	u6621
  3727   001782  EFC5  F00B         	goto	u6620
  3728   001786                     u6621:
  3729   001786  EFC6  F00B         	goto	l7039
  3730   00178A                     u6620:
  3731   00178A                     
  3732                           ; BSR set to: 1
  3733   00178A  8F9F               	bsf	___fladd@grs& (0+255),7,b
  3734   00178C                     l7039:
  3735                           
  3736                           ; BSR set to: 1
  3737   00178C  3593               	rlcf	(___fladd@b+3)& (0+255),w,b
  3738   00178E  3393               	rrcf	(___fladd@b+3)& (0+255),f,b
  3739   001790  3392               	rrcf	(___fladd@b+2)& (0+255),f,b
  3740   001792  3391               	rrcf	(___fladd@b+1)& (0+255),f,b
  3741   001794  3390               	rrcf	___fladd@b& (0+255),f,b
  3742   001796                     
  3743                           ; BSR set to: 1
  3744   001796  2B9E               	incf	___fladd@bexp& (0+255),f,b
  3745   001798  EF5B  F00C         	goto	l7079
  3746   00179C                     l7043:
  3747                           
  3748                           ; BSR set to: 1
  3749   00179C  5194               	movf	___fladd@a& (0+255),w,b
  3750   00179E  5D90               	subwf	___fladd@b& (0+255),w,b
  3751   0017A0  5195               	movf	(___fladd@a+1)& (0+255),w,b
  3752   0017A2  5991               	subwfb	(___fladd@b+1)& (0+255),w,b
  3753   0017A4  5196               	movf	(___fladd@a+2)& (0+255),w,b
  3754   0017A6  5992               	subwfb	(___fladd@b+2)& (0+255),w,b
  3755   0017A8  5193               	movf	(___fladd@b+3)& (0+255),w,b
  3756   0017AA  0A80               	xorlw	128
  3757   0017AC  6F98               	movwf	??___fladd& (0+255),b
  3758   0017AE  5197               	movf	(___fladd@a+3)& (0+255),w,b
  3759   0017B0  0A80               	xorlw	128
  3760   0017B2  5998               	subwfb	??___fladd& (0+255),w,b
  3761   0017B4  B0D8               	btfsc	status,0,c
  3762   0017B6  EFDF  F00B         	goto	u6631
  3763   0017BA  EFE1  F00B         	goto	u6630
  3764   0017BE                     u6631:
  3765   0017BE  EF0C  F00C         	goto	l7053
  3766   0017C2                     u6630:
  3767   0017C2                     
  3768                           ; BSR set to: 1
  3769   0017C2  5190               	movf	___fladd@b& (0+255),w,b
  3770   0017C4  5D94               	subwf	___fladd@a& (0+255),w,b
  3771   0017C6  6F98               	movwf	??___fladd& (0+255),b
  3772   0017C8  5191               	movf	(___fladd@b+1)& (0+255),w,b
  3773   0017CA  5995               	subwfb	(___fladd@a+1)& (0+255),w,b
  3774   0017CC  6F99               	movwf	(??___fladd+1)& (0+255),b
  3775   0017CE  5192               	movf	(___fladd@b+2)& (0+255),w,b
  3776   0017D0  5996               	subwfb	(___fladd@a+2)& (0+255),w,b
  3777   0017D2  6F9A               	movwf	(??___fladd+2)& (0+255),b
  3778   0017D4  5193               	movf	(___fladd@b+3)& (0+255),w,b
  3779   0017D6  5997               	subwfb	(___fladd@a+3)& (0+255),w,b
  3780   0017D8  6F9B               	movwf	(??___fladd+3)& (0+255),b
  3781   0017DA  0EFF               	movlw	255
  3782   0017DC  2598               	addwf	??___fladd& (0+255),w,b
  3783   0017DE  6F90               	movwf	___fladd@b& (0+255),b
  3784   0017E0  0EFF               	movlw	255
  3785   0017E2  2199               	addwfc	(??___fladd+1)& (0+255),w,b
  3786   0017E4  6F91               	movwf	(___fladd@b+1)& (0+255),b
  3787   0017E6  0EFF               	movlw	255
  3788   0017E8  219A               	addwfc	(??___fladd+2)& (0+255),w,b
  3789   0017EA  6F92               	movwf	(___fladd@b+2)& (0+255),b
  3790   0017EC  0EFF               	movlw	255
  3791   0017EE  219B               	addwfc	(??___fladd+3)& (0+255),w,b
  3792   0017F0  6F93               	movwf	(___fladd@b+3)& (0+255),b
  3793   0017F2  0E80               	movlw	128
  3794   0017F4  1B9C               	xorwf	___fladd@signs& (0+255),f,b
  3795   0017F6                     
  3796                           ; BSR set to: 1
  3797   0017F6  6D9F               	negf	___fladd@grs& (0+255),b
  3798   0017F8                     
  3799                           ; BSR set to: 1
  3800   0017F8  519F               	movf	___fladd@grs& (0+255),w,b
  3801   0017FA  A4D8               	btfss	status,2,c
  3802   0017FC  EF02  F00C         	goto	u6641
  3803   001800  EF04  F00C         	goto	u6640
  3804   001804                     u6641:
  3805   001804  EF14  F00C         	goto	l2114
  3806   001808                     u6640:
  3807   001808                     
  3808                           ; BSR set to: 1
  3809   001808  0E01               	movlw	1
  3810   00180A  2790               	addwf	___fladd@b& (0+255),f,b
  3811   00180C  0E00               	movlw	0
  3812   00180E  2391               	addwfc	(___fladd@b+1)& (0+255),f,b
  3813   001810  2392               	addwfc	(___fladd@b+2)& (0+255),f,b
  3814   001812  2393               	addwfc	(___fladd@b+3)& (0+255),f,b
  3815   001814  EF14  F00C         	goto	l2114
  3816   001818                     l7053:
  3817                           
  3818                           ; BSR set to: 1
  3819   001818  5194               	movf	___fladd@a& (0+255),w,b
  3820   00181A  5F90               	subwf	___fladd@b& (0+255),f,b
  3821   00181C  5195               	movf	(___fladd@a+1)& (0+255),w,b
  3822   00181E  5B91               	subwfb	(___fladd@b+1)& (0+255),f,b
  3823   001820  5196               	movf	(___fladd@a+2)& (0+255),w,b
  3824   001822  5B92               	subwfb	(___fladd@b+2)& (0+255),f,b
  3825   001824  5197               	movf	(___fladd@a+3)& (0+255),w,b
  3826   001826  5B93               	subwfb	(___fladd@b+3)& (0+255),f,b
  3827   001828                     l2114:
  3828                           
  3829                           ; BSR set to: 1
  3830   001828  5190               	movf	___fladd@b& (0+255),w,b
  3831   00182A  1191               	iorwf	(___fladd@b+1)& (0+255),w,b
  3832   00182C  1192               	iorwf	(___fladd@b+2)& (0+255),w,b
  3833   00182E  1193               	iorwf	(___fladd@b+3)& (0+255),w,b
  3834   001830  A4D8               	btfss	status,2,c
  3835   001832  EF1D  F00C         	goto	u6651
  3836   001836  EF1F  F00C         	goto	u6650
  3837   00183A                     u6651:
  3838   00183A  EF54  F00C         	goto	l7077
  3839   00183E                     u6650:
  3840   00183E                     
  3841                           ; BSR set to: 1
  3842   00183E  519F               	movf	___fladd@grs& (0+255),w,b
  3843   001840  A4D8               	btfss	status,2,c
  3844   001842  EF25  F00C         	goto	u6661
  3845   001846  EF27  F00C         	goto	u6660
  3846   00184A                     u6661:
  3847   00184A  EF54  F00C         	goto	l7077
  3848   00184E                     u6660:
  3849   00184E                     
  3850                           ; BSR set to: 1
  3851   00184E  0E00               	movlw	0
  3852   001850  6F90               	movwf	?___fladd& (0+255),b
  3853   001852  0E00               	movlw	0
  3854   001854  6F91               	movwf	(?___fladd+1)& (0+255),b
  3855   001856  0E00               	movlw	0
  3856   001858  6F92               	movwf	(?___fladd+2)& (0+255),b
  3857   00185A  0E00               	movlw	0
  3858   00185C  6F93               	movwf	(?___fladd+3)& (0+255),b
  3859   00185E  EFEF  F00C         	goto	l2106
  3860   001862                     l7061:
  3861                           
  3862                           ; BSR set to: 1
  3863   001862  90D8               	bcf	status,0,c
  3864   001864  3790               	rlcf	___fladd@b& (0+255),f,b
  3865   001866  3791               	rlcf	(___fladd@b+1)& (0+255),f,b
  3866   001868  3792               	rlcf	(___fladd@b+2)& (0+255),f,b
  3867   00186A  3793               	rlcf	(___fladd@b+3)& (0+255),f,b
  3868   00186C                     
  3869                           ; BSR set to: 1
  3870   00186C  AF9F               	btfss	___fladd@grs& (0+255),7,b
  3871   00186E  EF3B  F00C         	goto	u6671
  3872   001872  EF3D  F00C         	goto	u6670
  3873   001876                     u6671:
  3874   001876  EF3E  F00C         	goto	l7067
  3875   00187A                     u6670:
  3876   00187A                     
  3877                           ; BSR set to: 1
  3878   00187A  8190               	bsf	___fladd@b& (0+255),0,b
  3879   00187C                     l7067:
  3880                           
  3881                           ; BSR set to: 1
  3882   00187C  A19F               	btfss	___fladd@grs& (0+255),0,b
  3883   00187E  EF43  F00C         	goto	u6681
  3884   001882  EF45  F00C         	goto	u6680
  3885   001886                     u6681:
  3886   001886  EF49  F00C         	goto	l7071
  3887   00188A                     u6680:
  3888   00188A                     
  3889                           ; BSR set to: 1
  3890   00188A  80D8               	bsf	status,0,c
  3891   00188C  379F               	rlcf	___fladd@grs& (0+255),f,b
  3892   00188E  EF4B  F00C         	goto	l7073
  3893   001892                     l7071:
  3894                           
  3895                           ; BSR set to: 1
  3896   001892  90D8               	bcf	status,0,c
  3897   001894  379F               	rlcf	___fladd@grs& (0+255),f,b
  3898   001896                     l7073:
  3899                           
  3900                           ; BSR set to: 1
  3901   001896  519E               	movf	___fladd@bexp& (0+255),w,b
  3902   001898  B4D8               	btfsc	status,2,c
  3903   00189A  EF51  F00C         	goto	u6691
  3904   00189E  EF53  F00C         	goto	u6690
  3905   0018A2                     u6691:
  3906   0018A2  EF54  F00C         	goto	l7077
  3907   0018A6                     u6690:
  3908   0018A6                     
  3909                           ; BSR set to: 1
  3910   0018A6  079E               	decf	___fladd@bexp& (0+255),f,b
  3911   0018A8                     l7077:
  3912                           
  3913                           ; BSR set to: 1
  3914   0018A8  AF92               	btfss	(___fladd@b+2)& (0+255),7,b
  3915   0018AA  EF59  F00C         	goto	u6701
  3916   0018AE  EF5B  F00C         	goto	u6700
  3917   0018B2                     u6701:
  3918   0018B2  EF31  F00C         	goto	l7061
  3919   0018B6                     u6700:
  3920   0018B6                     l7079:
  3921                           
  3922                           ; BSR set to: 1
  3923   0018B6  0E00               	movlw	0
  3924   0018B8  6F9D               	movwf	___fladd@aexp& (0+255),b
  3925   0018BA                     
  3926                           ; BSR set to: 1
  3927   0018BA  AF9F               	btfss	___fladd@grs& (0+255),7,b
  3928   0018BC  EF62  F00C         	goto	u6711
  3929   0018C0  EF64  F00C         	goto	u6710
  3930   0018C4                     u6711:
  3931   0018C4  EF7C  F00C         	goto	l2123
  3932   0018C8                     u6710:
  3933   0018C8                     
  3934                           ; BSR set to: 1
  3935   0018C8  C19F  F198         	movff	___fladd@grs,??___fladd
  3936   0018CC  0E7F               	movlw	127
  3937   0018CE  1798               	andwf	??___fladd& (0+255),f,b
  3938   0018D0  B4D8               	btfsc	status,2,c
  3939   0018D2  EF6D  F00C         	goto	u6721
  3940   0018D6  EF6F  F00C         	goto	u6720
  3941   0018DA                     u6721:
  3942   0018DA  EF73  F00C         	goto	l2124
  3943   0018DE                     u6720:
  3944   0018DE                     l7085:
  3945                           
  3946                           ; BSR set to: 1
  3947   0018DE  0E01               	movlw	1
  3948   0018E0  6F9D               	movwf	___fladd@aexp& (0+255),b
  3949   0018E2  EF7C  F00C         	goto	l2123
  3950   0018E6                     l2124:
  3951                           
  3952                           ; BSR set to: 1
  3953   0018E6  A190               	btfss	___fladd@b& (0+255),0,b
  3954   0018E8  EF78  F00C         	goto	u6731
  3955   0018EC  EF7A  F00C         	goto	u6730
  3956   0018F0                     u6731:
  3957   0018F0  EF7C  F00C         	goto	l2123
  3958   0018F4                     u6730:
  3959   0018F4  EF6F  F00C         	goto	l7085
  3960   0018F8                     l2123:
  3961                           
  3962                           ; BSR set to: 1
  3963   0018F8  519D               	movf	___fladd@aexp& (0+255),w,b
  3964   0018FA  B4D8               	btfsc	status,2,c
  3965   0018FC  EF82  F00C         	goto	u6741
  3966   001900  EF84  F00C         	goto	u6740
  3967   001904                     u6741:
  3968   001904  EFAF  F00C         	goto	l7097
  3969   001908                     u6740:
  3970   001908                     
  3971                           ; BSR set to: 1
  3972   001908  0E01               	movlw	1
  3973   00190A  2790               	addwf	___fladd@b& (0+255),f,b
  3974   00190C  0E00               	movlw	0
  3975   00190E  2391               	addwfc	(___fladd@b+1)& (0+255),f,b
  3976   001910  2392               	addwfc	(___fladd@b+2)& (0+255),f,b
  3977   001912  2393               	addwfc	(___fladd@b+3)& (0+255),f,b
  3978   001914                     
  3979                           ; BSR set to: 1
  3980   001914  A193               	btfss	(___fladd@b+3)& (0+255),0,b
  3981   001916  EF8F  F00C         	goto	u6751
  3982   00191A  EF91  F00C         	goto	u6750
  3983   00191E                     u6751:
  3984   00191E  EFAF  F00C         	goto	l7097
  3985   001922                     u6750:
  3986   001922                     
  3987                           ; BSR set to: 1
  3988   001922  C190  F198         	movff	___fladd@b,??___fladd
  3989   001926  C191  F199         	movff	___fladd@b+1,??___fladd+1
  3990   00192A  C192  F19A         	movff	___fladd@b+2,??___fladd+2
  3991   00192E  C193  F19B         	movff	___fladd@b+3,??___fladd+3
  3992   001932  359B               	rlcf	(??___fladd+3)& (0+255),w,b
  3993   001934  339B               	rrcf	(??___fladd+3)& (0+255),f,b
  3994   001936  339A               	rrcf	(??___fladd+2)& (0+255),f,b
  3995   001938  3399               	rrcf	(??___fladd+1)& (0+255),f,b
  3996   00193A  3398               	rrcf	??___fladd& (0+255),f,b
  3997   00193C  C198  F190         	movff	??___fladd,___fladd@b
  3998   001940  C199  F191         	movff	??___fladd+1,___fladd@b+1
  3999   001944  C19A  F192         	movff	??___fladd+2,___fladd@b+2
  4000   001948  C19B  F193         	movff	??___fladd+3,___fladd@b+3
  4001   00194C  299E               	incf	___fladd@bexp& (0+255),w,b
  4002   00194E  B4D8               	btfsc	status,2,c
  4003   001950  EFAC  F00C         	goto	u6761
  4004   001954  EFAE  F00C         	goto	u6760
  4005   001958                     u6761:
  4006   001958  EFAF  F00C         	goto	l7097
  4007   00195C                     u6760:
  4008   00195C                     
  4009                           ; BSR set to: 1
  4010   00195C  2B9E               	incf	___fladd@bexp& (0+255),f,b
  4011   00195E                     l7097:
  4012                           
  4013                           ; BSR set to: 1
  4014   00195E  299E               	incf	___fladd@bexp& (0+255),w,b
  4015   001960  B4D8               	btfsc	status,2,c
  4016   001962  EFB5  F00C         	goto	u6771
  4017   001966  EFB7  F00C         	goto	u6770
  4018   00196A                     u6771:
  4019   00196A  EFBF  F00C         	goto	l7101
  4020   00196E                     u6770:
  4021   00196E                     
  4022                           ; BSR set to: 1
  4023   00196E  519E               	movf	___fladd@bexp& (0+255),w,b
  4024   001970  A4D8               	btfss	status,2,c
  4025   001972  EFBD  F00C         	goto	u6781
  4026   001976  EFBF  F00C         	goto	u6780
  4027   00197A                     u6781:
  4028   00197A  EFD1  F00C         	goto	l7105
  4029   00197E                     u6780:
  4030   00197E                     l7101:
  4031                           
  4032                           ; BSR set to: 1
  4033   00197E  0E00               	movlw	0
  4034   001980  6F90               	movwf	___fladd@b& (0+255),b
  4035   001982  0E00               	movlw	0
  4036   001984  6F91               	movwf	(___fladd@b+1)& (0+255),b
  4037   001986  0E00               	movlw	0
  4038   001988  6F92               	movwf	(___fladd@b+2)& (0+255),b
  4039   00198A  0E00               	movlw	0
  4040   00198C  6F93               	movwf	(___fladd@b+3)& (0+255),b
  4041   00198E  519E               	movf	___fladd@bexp& (0+255),w,b
  4042   001990  A4D8               	btfss	status,2,c
  4043   001992  EFCD  F00C         	goto	u6791
  4044   001996  EFCF  F00C         	goto	u6790
  4045   00199A                     u6791:
  4046   00199A  EFD1  F00C         	goto	l7105
  4047   00199E                     u6790:
  4048   00199E                     
  4049                           ; BSR set to: 1
  4050   00199E  0E00               	movlw	0
  4051   0019A0  6F9C               	movwf	___fladd@signs& (0+255),b
  4052   0019A2                     l7105:
  4053                           
  4054                           ; BSR set to: 1
  4055   0019A2  A19E               	btfss	___fladd@bexp& (0+255),0,b
  4056   0019A4  EFD6  F00C         	goto	u6801
  4057   0019A8  EFD8  F00C         	goto	u6800
  4058   0019AC                     u6801:
  4059   0019AC  EFDB  F00C         	goto	l7109
  4060   0019B0                     u6800:
  4061   0019B0                     
  4062                           ; BSR set to: 1
  4063   0019B0  8F92               	bsf	(___fladd@b+2)& (0+255),7,b
  4064   0019B2  EFDC  F00C         	goto	l7111
  4065   0019B6                     l7109:
  4066                           
  4067                           ; BSR set to: 1
  4068   0019B6  9F92               	bcf	(___fladd@b+2)& (0+255),7,b
  4069   0019B8                     l7111:
  4070                           
  4071                           ; BSR set to: 1
  4072   0019B8  90D8               	bcf	status,0,c
  4073   0019BA  319E               	rrcf	___fladd@bexp& (0+255),w,b
  4074   0019BC  6F93               	movwf	(___fladd@b+3)& (0+255),b
  4075   0019BE                     
  4076                           ; BSR set to: 1
  4077   0019BE  AF9C               	btfss	___fladd@signs& (0+255),7,b
  4078   0019C0  EFE4  F00C         	goto	u6811
  4079   0019C4  EFE6  F00C         	goto	u6810
  4080   0019C8                     u6811:
  4081   0019C8  EFE7  F00C         	goto	l7117
  4082   0019CC                     u6810:
  4083   0019CC                     
  4084                           ; BSR set to: 1
  4085   0019CC  8F93               	bsf	(___fladd@b+3)& (0+255),7,b
  4086   0019CE                     l7117:
  4087                           
  4088                           ; BSR set to: 1
  4089   0019CE  C190  F190         	movff	___fladd@b,?___fladd
  4090   0019D2  C191  F191         	movff	___fladd@b+1,?___fladd+1
  4091   0019D6  C192  F192         	movff	___fladd@b+2,?___fladd+2
  4092   0019DA  C193  F193         	movff	___fladd@b+3,?___fladd+3
  4093   0019DE                     l2106:
  4094                           
  4095                           ; BSR set to: 1
  4096   0019DE  0012               	return		;funcret
  4097   0019E0                     __end_of___fladd:
  4098                           	callstack 0
  4099                           
  4100 ;; *************** function _EUSART_ASYNC_TX_Init *****************
  4101 ;; Defined at:
  4102 ;;		line 190 in file "MCAL_Layer/USART/hal_usart.c"
  4103 ;; Parameters:    Size  Location     Type
  4104 ;;  _eusart         2    0[BANK1 ] PTR const struct .
  4105 ;;		 -> usart_obj(18), 
  4106 ;; Auto vars:     Size  Location     Type
  4107 ;;		None
  4108 ;; Return value:  Size  Location     Type
  4109 ;;                  1    wreg      void 
  4110 ;; Registers used:
  4111 ;;		wreg, fsr2l, fsr2h, status,2, status,0
  4112 ;; Tracked objects:
  4113 ;;		On entry : 0/0
  4114 ;;		On exit  : 0/0
  4115 ;;		Unchanged: 0/0
  4116 ;; Data sizes:     COMRAM   BANK0   BANK1   BANK2   BANK3   BANK4   BANK5   BANK6   BANK7   BANK8   BANK9  BANK10  BANK1
      +1  BANK12  BANK13  BANK14  BANK15
  4117 ;;      Params:         0       0       2       0       0       0       0       0       0       0       0       0       
      +0       0       0       0       0
  4118 ;;      Locals:         0       0       0       0       0       0       0       0       0       0       0       0       
      +0       0       0       0       0
  4119 ;;      Temps:          0       0       1       0       0       0       0       0       0       0       0       0       
      +0       0       0       0       0
  4120 ;;      Totals:         0       0       3       0       0       0       0       0       0       0       0       0       
      +0       0       0       0       0
  4121 ;;Total ram usage:        3 bytes
  4122 ;; Hardware stack levels used: 1
  4123 ;; Hardware stack levels required when called: 24
  4124 ;; This function calls:
  4125 ;;		Nothing
  4126 ;; This function is called by:
  4127 ;;		_EUSART_ASYNC_Init
  4128 ;; This function uses a non-reentrant model
  4129 ;;
  4130                           
  4131                           	psect	text9
  4132   0031F6                     __ptext9:
  4133                           	callstack 0
  4134   0031F6                     _EUSART_ASYNC_TX_Init:
  4135                           	callstack 3
  4136   0031F6                     
  4137                           ;MCAL_Layer/USART/hal_usart.c: 190: static void EUSART_ASYNC_TX_Init(const usart_t* _eus
      +                          art);MCAL_Layer/USART/hal_usart.c: 191: {;MCAL_Layer/USART/hal_usart.c: 192:     if(1 ==
      +                           _eusart->usart_tx_cfg.usart_tx_enable)
  4138   0031F6  0101               	movlb	1	; () banked
  4139   0031F8  EE20 F005          	lfsr	2,5
  4140   0031FC  5169               	movf	EUSART_ASYNC_TX_Init@_eusart& (0+255),w,b
  4141   0031FE  26D9               	addwf	fsr2l,f,c
  4142   003200  516A               	movf	(EUSART_ASYNC_TX_Init@_eusart+1)& (0+255),w,b
  4143   003202  22DA               	addwfc	fsr2h,f,c
  4144   003204  AADF               	btfss	indf2,5,c
  4145   003206  EF07  F019         	goto	u7431
  4146   00320A  EF09  F019         	goto	u7430
  4147   00320E                     u7431:
  4148   00320E  EF74  F019         	goto	l1538
  4149   003212                     u7430:
  4150   003212                     
  4151                           ; BSR set to: 1
  4152                           ;MCAL_Layer/USART/hal_usart.c: 193:     {;MCAL_Layer/USART/hal_usart.c: 195:         (*(
      +                          (volatile TXSTA_t *)(0xFAC))).TXEN = 1;
  4153   003212  8AAC               	bsf	172,5,c	;volatile
  4154   003214                     
  4155                           ; BSR set to: 1
  4156                           ;MCAL_Layer/USART/hal_usart.c: 197:         if(1 == _eusart->usart_tx_cfg.usart_tx_inter
      +                          rupt_enable)
  4157   003214  EE20 F005          	lfsr	2,5
  4158   003218  5169               	movf	EUSART_ASYNC_TX_Init@_eusart& (0+255),w,b
  4159   00321A  26D9               	addwf	fsr2l,f,c
  4160   00321C  516A               	movf	(EUSART_ASYNC_TX_Init@_eusart+1)& (0+255),w,b
  4161   00321E  22DA               	addwfc	fsr2h,f,c
  4162   003220  ACDF               	btfss	indf2,6,c
  4163   003222  EF15  F019         	goto	u7441
  4164   003226  EF17  F019         	goto	u7440
  4165   00322A                     u7441:
  4166   00322A  EF1A  F019         	goto	l7573
  4167   00322E                     u7440:
  4168   00322E                     
  4169                           ; BSR set to: 1
  4170                           ;MCAL_Layer/USART/hal_usart.c: 198:         {;MCAL_Layer/USART/hal_usart.c: 199:        
      +                               (*((volatile PIE1_t *)(0xF9D))).TXIE = 1;
  4171   00322E  889D               	bsf	157,4,c	;volatile
  4172                           
  4173                           ;MCAL_Layer/USART/hal_usart.c: 200:         }
  4174   003230  EF28  F019         	goto	l7577
  4175   003234                     l7573:
  4176                           
  4177                           ; BSR set to: 1
  4178   003234  EE20 F005          	lfsr	2,5
  4179   003238  5169               	movf	EUSART_ASYNC_TX_Init@_eusart& (0+255),w,b
  4180   00323A  26D9               	addwf	fsr2l,f,c
  4181   00323C  516A               	movf	(EUSART_ASYNC_TX_Init@_eusart+1)& (0+255),w,b
  4182   00323E  22DA               	addwfc	fsr2h,f,c
  4183   003240  BCDF               	btfsc	indf2,6,c
  4184   003242  EF25  F019         	goto	u7451
  4185   003246  EF27  F019         	goto	u7450
  4186   00324A                     u7451:
  4187   00324A  EF28  F019         	goto	l7577
  4188   00324E                     u7450:
  4189   00324E                     
  4190                           ; BSR set to: 1
  4191                           ;MCAL_Layer/USART/hal_usart.c: 202:         {;MCAL_Layer/USART/hal_usart.c: 203:        
      +                               (*((volatile PIE1_t *)(0xF9D))).TXIE = 0;
  4192   00324E  989D               	bcf	157,4,c	;volatile
  4193   003250                     l7577:
  4194                           
  4195                           ; BSR set to: 1
  4196                           ;MCAL_Layer/USART/hal_usart.c: 206:       EUSART_TX_InterruptHandler = _eusart->EUSART_T
      +                          xDefaultInterruptHandler;
  4197   003250  EE20 F00A          	lfsr	2,10
  4198   003254  5169               	movf	EUSART_ASYNC_TX_Init@_eusart& (0+255),w,b
  4199   003256  26D9               	addwf	fsr2l,f,c
  4200   003258  516A               	movf	(EUSART_ASYNC_TX_Init@_eusart+1)& (0+255),w,b
  4201   00325A  22DA               	addwfc	fsr2h,f,c
  4202   00325C  CFDE F0F7          	movff	postinc2,_EUSART_TX_InterruptHandler
  4203   003260  CFDD F0F8          	movff	postdec2,_EUSART_TX_InterruptHandler+1
  4204   003264                     
  4205                           ; BSR set to: 1
  4206                           ;MCAL_Layer/USART/hal_usart.c: 213:             ((*((volatile RCON_t *)(0xFD0))).IPEN=1)
      +                          ;
  4207   003264  8ED0               	bsf	208,7,c	;volatile
  4208                           
  4209                           ;MCAL_Layer/USART/hal_usart.c: 214:             if(_eusart->usart_tx_cfg.usart_tx_int_pr
      +                          iority == INTERRUPT_HIGH_PRIORITY){
  4210   003266  EE20 F006          	lfsr	2,6
  4211   00326A  5169               	movf	EUSART_ASYNC_TX_Init@_eusart& (0+255),w,b
  4212   00326C  26D9               	addwf	fsr2l,f,c
  4213   00326E  516A               	movf	(EUSART_ASYNC_TX_Init@_eusart+1)& (0+255),w,b
  4214   003270  22DA               	addwfc	fsr2h,f,c
  4215   003272  04DE               	decf	postinc2,w,c
  4216   003274  A4D8               	btfss	status,2,c
  4217   003276  EF3F  F019         	goto	u7461
  4218   00327A  EF41  F019         	goto	u7460
  4219   00327E                     u7461:
  4220   00327E  EF45  F019         	goto	l7583
  4221   003282                     u7460:
  4222   003282                     
  4223                           ; BSR set to: 1
  4224                           ;MCAL_Layer/USART/hal_usart.c: 215:                 ((*((volatile IPR1_t *)(0xF9F))).TXI
      +                          P=1);
  4225   003282  889F               	bsf	159,4,c	;volatile
  4226                           
  4227                           ;MCAL_Layer/USART/hal_usart.c: 216:                 ((*((volatile INTCON_t *)(0xFF2))).G
      +                          IEH = 1);
  4228   003284  8EF2               	bsf	242,7,c	;volatile
  4229                           
  4230                           ;MCAL_Layer/USART/hal_usart.c: 217:             }
  4231   003286  EF56  F019         	goto	l7587
  4232   00328A                     l7583:
  4233                           
  4234                           ; BSR set to: 1
  4235   00328A  EE20 F006          	lfsr	2,6
  4236   00328E  5169               	movf	EUSART_ASYNC_TX_Init@_eusart& (0+255),w,b
  4237   003290  26D9               	addwf	fsr2l,f,c
  4238   003292  516A               	movf	(EUSART_ASYNC_TX_Init@_eusart+1)& (0+255),w,b
  4239   003294  22DA               	addwfc	fsr2h,f,c
  4240   003296  50DF               	movf	indf2,w,c
  4241   003298  A4D8               	btfss	status,2,c
  4242   00329A  EF51  F019         	goto	u7471
  4243   00329E  EF53  F019         	goto	u7470
  4244   0032A2                     u7471:
  4245   0032A2  EF56  F019         	goto	l7587
  4246   0032A6                     u7470:
  4247   0032A6                     
  4248                           ; BSR set to: 1
  4249                           ;MCAL_Layer/USART/hal_usart.c: 219:             {;MCAL_Layer/USART/hal_usart.c: 220:    
      +                                    ((*((volatile IPR1_t *)(0xF9F))).TXIP=0);
  4250   0032A6  989F               	bcf	159,4,c	;volatile
  4251                           
  4252                           ;MCAL_Layer/USART/hal_usart.c: 221:              ((*((volatile INTCON_t *)(0xFF2))).GIEH
      +                           = 1);
  4253   0032A8  8EF2               	bsf	242,7,c	;volatile
  4254                           
  4255                           ;MCAL_Layer/USART/hal_usart.c: 222:              ((*((volatile INTCON_t *)(0xFF2))).GIEL
      +                           = 1);
  4256   0032AA  8CF2               	bsf	242,6,c	;volatile
  4257   0032AC                     l7587:
  4258                           
  4259                           ; BSR set to: 1
  4260                           ;MCAL_Layer/USART/hal_usart.c: 227:         if(1 == _eusart->usart_tx_cfg.usart_tx_9bit_
      +                          enable)
  4261   0032AC  EE20 F005          	lfsr	2,5
  4262   0032B0  5169               	movf	EUSART_ASYNC_TX_Init@_eusart& (0+255),w,b
  4263   0032B2  26D9               	addwf	fsr2l,f,c
  4264   0032B4  516A               	movf	(EUSART_ASYNC_TX_Init@_eusart+1)& (0+255),w,b
  4265   0032B6  22DA               	addwfc	fsr2h,f,c
  4266   0032B8  AEDF               	btfss	indf2,7,c
  4267   0032BA  EF61  F019         	goto	u7481
  4268   0032BE  EF63  F019         	goto	u7480
  4269   0032C2                     u7481:
  4270   0032C2  EF66  F019         	goto	l7591
  4271   0032C6                     u7480:
  4272   0032C6                     
  4273                           ; BSR set to: 1
  4274                           ;MCAL_Layer/USART/hal_usart.c: 228:         {;MCAL_Layer/USART/hal_usart.c: 229:        
      +                               (*((volatile TXSTA_t *)(0xFAC))).TX9 =1;
  4275   0032C6  8CAC               	bsf	172,6,c	;volatile
  4276                           
  4277                           ;MCAL_Layer/USART/hal_usart.c: 230:         }
  4278   0032C8  EF74  F019         	goto	l1538
  4279   0032CC                     l7591:
  4280                           
  4281                           ; BSR set to: 1
  4282   0032CC  EE20 F005          	lfsr	2,5
  4283   0032D0  5169               	movf	EUSART_ASYNC_TX_Init@_eusart& (0+255),w,b
  4284   0032D2  26D9               	addwf	fsr2l,f,c
  4285   0032D4  516A               	movf	(EUSART_ASYNC_TX_Init@_eusart+1)& (0+255),w,b
  4286   0032D6  22DA               	addwfc	fsr2h,f,c
  4287   0032D8  BEDF               	btfsc	indf2,7,c
  4288   0032DA  EF71  F019         	goto	u7491
  4289   0032DE  EF73  F019         	goto	u7490
  4290   0032E2                     u7491:
  4291   0032E2  EF74  F019         	goto	l1538
  4292   0032E6                     u7490:
  4293   0032E6                     
  4294                           ; BSR set to: 1
  4295                           ;MCAL_Layer/USART/hal_usart.c: 232:         {;MCAL_Layer/USART/hal_usart.c: 233:        
      +                               (*((volatile TXSTA_t *)(0xFAC))).TX9 =0;
  4296   0032E6  9CAC               	bcf	172,6,c	;volatile
  4297   0032E8                     l1538:
  4298                           
  4299                           ; BSR set to: 1
  4300   0032E8  0012               	return		;funcret
  4301   0032EA                     __end_of_EUSART_ASYNC_TX_Init:
  4302                           	callstack 0
  4303                           
  4304 ;; *************** function _EUSART_ASYNC_RX_Init *****************
  4305 ;; Defined at:
  4306 ;;		line 238 in file "MCAL_Layer/USART/hal_usart.c"
  4307 ;; Parameters:    Size  Location     Type
  4308 ;;  _eusart         2    0[BANK1 ] PTR const struct .
  4309 ;;		 -> usart_obj(18), 
  4310 ;; Auto vars:     Size  Location     Type
  4311 ;;		None
  4312 ;; Return value:  Size  Location     Type
  4313 ;;                  1    wreg      void 
  4314 ;; Registers used:
  4315 ;;		wreg, fsr2l, fsr2h, status,2, status,0
  4316 ;; Tracked objects:
  4317 ;;		On entry : 0/0
  4318 ;;		On exit  : 0/0
  4319 ;;		Unchanged: 0/0
  4320 ;; Data sizes:     COMRAM   BANK0   BANK1   BANK2   BANK3   BANK4   BANK5   BANK6   BANK7   BANK8   BANK9  BANK10  BANK1
      +1  BANK12  BANK13  BANK14  BANK15
  4321 ;;      Params:         0       0       2       0       0       0       0       0       0       0       0       0       
      +0       0       0       0       0
  4322 ;;      Locals:         0       0       0       0       0       0       0       0       0       0       0       0       
      +0       0       0       0       0
  4323 ;;      Temps:          0       0       1       0       0       0       0       0       0       0       0       0       
      +0       0       0       0       0
  4324 ;;      Totals:         0       0       3       0       0       0       0       0       0       0       0       0       
      +0       0       0       0       0
  4325 ;;Total ram usage:        3 bytes
  4326 ;; Hardware stack levels used: 1
  4327 ;; Hardware stack levels required when called: 24
  4328 ;; This function calls:
  4329 ;;		Nothing
  4330 ;; This function is called by:
  4331 ;;		_EUSART_ASYNC_Init
  4332 ;; This function uses a non-reentrant model
  4333 ;;
  4334                           
  4335                           	psect	text10
  4336   002FD2                     __ptext10:
  4337                           	callstack 0
  4338   002FD2                     _EUSART_ASYNC_RX_Init:
  4339                           	callstack 3
  4340   002FD2                     
  4341                           ;MCAL_Layer/USART/hal_usart.c: 238: static void EUSART_ASYNC_RX_Init(const usart_t* _eus
      +                          art);MCAL_Layer/USART/hal_usart.c: 239: {;MCAL_Layer/USART/hal_usart.c: 240:     if(1 ==
      +                           _eusart->usart_rx_cfg.usart_rx_enable)
  4342   002FD2  0101               	movlb	1	; () banked
  4343   002FD4  EE20 F007          	lfsr	2,7
  4344   002FD8  5169               	movf	EUSART_ASYNC_RX_Init@_eusart& (0+255),w,b
  4345   002FDA  26D9               	addwf	fsr2l,f,c
  4346   002FDC  516A               	movf	(EUSART_ASYNC_RX_Init@_eusart+1)& (0+255),w,b
  4347   002FDE  22DA               	addwfc	fsr2h,f,c
  4348   002FE0  AADF               	btfss	indf2,5,c
  4349   002FE2  EFF5  F017         	goto	u7501
  4350   002FE6  EFF7  F017         	goto	u7500
  4351   002FEA                     u7501:
  4352   002FEA  EF76  F018         	goto	l1552
  4353   002FEE                     u7500:
  4354   002FEE                     
  4355                           ; BSR set to: 1
  4356                           ;MCAL_Layer/USART/hal_usart.c: 241:     {;MCAL_Layer/USART/hal_usart.c: 243:         (*(
      +                          (volatile RCSTA_t *)(0xFAB))).CREN = 1;
  4357   002FEE  88AB               	bsf	171,4,c	;volatile
  4358   002FF0                     
  4359                           ; BSR set to: 1
  4360                           ;MCAL_Layer/USART/hal_usart.c: 245:         if(1 == _eusart->usart_rx_cfg.usart_rx_inter
      +                          rupt_enable)
  4361   002FF0  EE20 F007          	lfsr	2,7
  4362   002FF4  5169               	movf	EUSART_ASYNC_RX_Init@_eusart& (0+255),w,b
  4363   002FF6  26D9               	addwf	fsr2l,f,c
  4364   002FF8  516A               	movf	(EUSART_ASYNC_RX_Init@_eusart+1)& (0+255),w,b
  4365   002FFA  22DA               	addwfc	fsr2h,f,c
  4366   002FFC  ACDF               	btfss	indf2,6,c
  4367   002FFE  EF03  F018         	goto	u7511
  4368   003002  EF05  F018         	goto	u7510
  4369   003006                     u7511:
  4370   003006  EF08  F018         	goto	l7603
  4371   00300A                     u7510:
  4372   00300A                     
  4373                           ; BSR set to: 1
  4374                           ;MCAL_Layer/USART/hal_usart.c: 246:         {;MCAL_Layer/USART/hal_usart.c: 247:        
      +                               (*((volatile PIE1_t *)(0xF9D))).RCIE =1;
  4375   00300A  8A9D               	bsf	157,5,c	;volatile
  4376                           
  4377                           ;MCAL_Layer/USART/hal_usart.c: 248:         }
  4378   00300C  EF16  F018         	goto	l7607
  4379   003010                     l7603:
  4380                           
  4381                           ; BSR set to: 1
  4382   003010  EE20 F007          	lfsr	2,7
  4383   003014  5169               	movf	EUSART_ASYNC_RX_Init@_eusart& (0+255),w,b
  4384   003016  26D9               	addwf	fsr2l,f,c
  4385   003018  516A               	movf	(EUSART_ASYNC_RX_Init@_eusart+1)& (0+255),w,b
  4386   00301A  22DA               	addwfc	fsr2h,f,c
  4387   00301C  BCDF               	btfsc	indf2,6,c
  4388   00301E  EF13  F018         	goto	u7521
  4389   003022  EF15  F018         	goto	u7520
  4390   003026                     u7521:
  4391   003026  EF16  F018         	goto	l7607
  4392   00302A                     u7520:
  4393   00302A                     
  4394                           ; BSR set to: 1
  4395                           ;MCAL_Layer/USART/hal_usart.c: 250:         {;MCAL_Layer/USART/hal_usart.c: 251:        
      +                               (*((volatile PIE1_t *)(0xF9D))).RCIE =0;
  4396   00302A  9A9D               	bcf	157,5,c	;volatile
  4397   00302C                     l7607:
  4398                           
  4399                           ; BSR set to: 1
  4400                           ;MCAL_Layer/USART/hal_usart.c: 254:         EUSART_RX_InterruptHandler = _eusart->EUSART
      +                          _RxDefaultInterruptHandler;
  4401   00302C  EE20 F00C          	lfsr	2,12
  4402   003030  5169               	movf	EUSART_ASYNC_RX_Init@_eusart& (0+255),w,b
  4403   003032  26D9               	addwf	fsr2l,f,c
  4404   003034  516A               	movf	(EUSART_ASYNC_RX_Init@_eusart+1)& (0+255),w,b
  4405   003036  22DA               	addwfc	fsr2h,f,c
  4406   003038  CFDE F0F5          	movff	postinc2,_EUSART_RX_InterruptHandler
  4407   00303C  CFDD F0F6          	movff	postdec2,_EUSART_RX_InterruptHandler+1
  4408                           
  4409                           ;MCAL_Layer/USART/hal_usart.c: 255:         EUSART_FramingErrorHandler = _eusart->EUSART
      +                          _FramingErrorHandler;
  4410   003040  EE20 F00E          	lfsr	2,14
  4411   003044  5169               	movf	EUSART_ASYNC_RX_Init@_eusart& (0+255),w,b
  4412   003046  26D9               	addwf	fsr2l,f,c
  4413   003048  516A               	movf	(EUSART_ASYNC_RX_Init@_eusart+1)& (0+255),w,b
  4414   00304A  22DA               	addwfc	fsr2h,f,c
  4415   00304C  CFDE F0F3          	movff	postinc2,_EUSART_FramingErrorHandler
  4416   003050  CFDD F0F4          	movff	postdec2,_EUSART_FramingErrorHandler+1
  4417                           
  4418                           ;MCAL_Layer/USART/hal_usart.c: 256:         EUSART_OverrunErrorHandler = _eusart->EUSART
      +                          _OverrunErrorHandler;
  4419   003054  EE20 F010          	lfsr	2,16
  4420   003058  5169               	movf	EUSART_ASYNC_RX_Init@_eusart& (0+255),w,b
  4421   00305A  26D9               	addwf	fsr2l,f,c
  4422   00305C  516A               	movf	(EUSART_ASYNC_RX_Init@_eusart+1)& (0+255),w,b
  4423   00305E  22DA               	addwfc	fsr2h,f,c
  4424   003060  CFDE F0F1          	movff	postinc2,_EUSART_OverrunErrorHandler
  4425   003064  CFDD F0F2          	movff	postdec2,_EUSART_OverrunErrorHandler+1
  4426   003068                     
  4427                           ; BSR set to: 1
  4428                           ;MCAL_Layer/USART/hal_usart.c: 263:             ((*((volatile RCON_t *)(0xFD0))).IPEN=1)
      +                          ;
  4429   003068  8ED0               	bsf	208,7,c	;volatile
  4430                           
  4431                           ;MCAL_Layer/USART/hal_usart.c: 264:             if(_eusart->usart_rx_cfg.usart_rx_int_pr
      +                          iority == INTERRUPT_HIGH_PRIORITY){
  4432   00306A  EE20 F008          	lfsr	2,8
  4433   00306E  5169               	movf	EUSART_ASYNC_RX_Init@_eusart& (0+255),w,b
  4434   003070  26D9               	addwf	fsr2l,f,c
  4435   003072  516A               	movf	(EUSART_ASYNC_RX_Init@_eusart+1)& (0+255),w,b
  4436   003074  22DA               	addwfc	fsr2h,f,c
  4437   003076  04DE               	decf	postinc2,w,c
  4438   003078  A4D8               	btfss	status,2,c
  4439   00307A  EF41  F018         	goto	u7531
  4440   00307E  EF43  F018         	goto	u7530
  4441   003082                     u7531:
  4442   003082  EF47  F018         	goto	l7613
  4443   003086                     u7530:
  4444   003086                     
  4445                           ; BSR set to: 1
  4446                           ;MCAL_Layer/USART/hal_usart.c: 265:                 ((*((volatile IPR1_t *)(0xF9F))).RCI
      +                          P=1);
  4447   003086  8A9F               	bsf	159,5,c	;volatile
  4448                           
  4449                           ;MCAL_Layer/USART/hal_usart.c: 266:                 ((*((volatile INTCON_t *)(0xFF2))).G
      +                          IEH = 1);
  4450   003088  8EF2               	bsf	242,7,c	;volatile
  4451                           
  4452                           ;MCAL_Layer/USART/hal_usart.c: 267:             }
  4453   00308A  EF58  F018         	goto	l7617
  4454   00308E                     l7613:
  4455                           
  4456                           ; BSR set to: 1
  4457   00308E  EE20 F008          	lfsr	2,8
  4458   003092  5169               	movf	EUSART_ASYNC_RX_Init@_eusart& (0+255),w,b
  4459   003094  26D9               	addwf	fsr2l,f,c
  4460   003096  516A               	movf	(EUSART_ASYNC_RX_Init@_eusart+1)& (0+255),w,b
  4461   003098  22DA               	addwfc	fsr2h,f,c
  4462   00309A  50DF               	movf	indf2,w,c
  4463   00309C  A4D8               	btfss	status,2,c
  4464   00309E  EF53  F018         	goto	u7541
  4465   0030A2  EF55  F018         	goto	u7540
  4466   0030A6                     u7541:
  4467   0030A6  EF58  F018         	goto	l7617
  4468   0030AA                     u7540:
  4469   0030AA                     
  4470                           ; BSR set to: 1
  4471                           ;MCAL_Layer/USART/hal_usart.c: 269:             {;MCAL_Layer/USART/hal_usart.c: 270:    
      +                                    ((*((volatile IPR1_t *)(0xF9F))).RCIP=0);
  4472   0030AA  9A9F               	bcf	159,5,c	;volatile
  4473                           
  4474                           ;MCAL_Layer/USART/hal_usart.c: 271:              ((*((volatile INTCON_t *)(0xFF2))).GIEH
      +                           = 1);
  4475   0030AC  8EF2               	bsf	242,7,c	;volatile
  4476                           
  4477                           ;MCAL_Layer/USART/hal_usart.c: 272:              ((*((volatile INTCON_t *)(0xFF2))).GIEL
      +                           = 1);
  4478   0030AE  8CF2               	bsf	242,6,c	;volatile
  4479   0030B0                     l7617:
  4480                           
  4481                           ; BSR set to: 1
  4482                           ;MCAL_Layer/USART/hal_usart.c: 277:         if(1 == _eusart->usart_rx_cfg.usart_rx_9bit_
      +                          enable)
  4483   0030B0  EE20 F007          	lfsr	2,7
  4484   0030B4  5169               	movf	EUSART_ASYNC_RX_Init@_eusart& (0+255),w,b
  4485   0030B6  26D9               	addwf	fsr2l,f,c
  4486   0030B8  516A               	movf	(EUSART_ASYNC_RX_Init@_eusart+1)& (0+255),w,b
  4487   0030BA  22DA               	addwfc	fsr2h,f,c
  4488   0030BC  AEDF               	btfss	indf2,7,c
  4489   0030BE  EF63  F018         	goto	u7551
  4490   0030C2  EF65  F018         	goto	u7550
  4491   0030C6                     u7551:
  4492   0030C6  EF68  F018         	goto	l7621
  4493   0030CA                     u7550:
  4494   0030CA                     
  4495                           ; BSR set to: 1
  4496                           ;MCAL_Layer/USART/hal_usart.c: 278:         {;MCAL_Layer/USART/hal_usart.c: 280:        
      +                               (*((volatile RCSTA_t *)(0xFAB))).RX9 = 1;
  4497   0030CA  8CAB               	bsf	171,6,c	;volatile
  4498                           
  4499                           ;MCAL_Layer/USART/hal_usart.c: 281:         }
  4500   0030CC  EF76  F018         	goto	l1552
  4501   0030D0                     l7621:
  4502                           
  4503                           ; BSR set to: 1
  4504   0030D0  EE20 F007          	lfsr	2,7
  4505   0030D4  5169               	movf	EUSART_ASYNC_RX_Init@_eusart& (0+255),w,b
  4506   0030D6  26D9               	addwf	fsr2l,f,c
  4507   0030D8  516A               	movf	(EUSART_ASYNC_RX_Init@_eusart+1)& (0+255),w,b
  4508   0030DA  22DA               	addwfc	fsr2h,f,c
  4509   0030DC  BEDF               	btfsc	indf2,7,c
  4510   0030DE  EF73  F018         	goto	u7561
  4511   0030E2  EF75  F018         	goto	u7560
  4512   0030E6                     u7561:
  4513   0030E6  EF76  F018         	goto	l1552
  4514   0030EA                     u7560:
  4515   0030EA                     
  4516                           ; BSR set to: 1
  4517                           ;MCAL_Layer/USART/hal_usart.c: 283:         {;MCAL_Layer/USART/hal_usart.c: 284:        
      +                               (*((volatile RCSTA_t *)(0xFAB))).RX9 = 0;
  4518   0030EA  9CAB               	bcf	171,6,c	;volatile
  4519   0030EC                     l1552:
  4520                           
  4521                           ; BSR set to: 1
  4522   0030EC  0012               	return		;funcret
  4523   0030EE                     __end_of_EUSART_ASYNC_RX_Init:
  4524                           	callstack 0
  4525                           
  4526 ;; *************** function _ecu_layer_initialize *****************
  4527 ;; Defined at:
  4528 ;;		line 154 in file "ECU_Layer/ecu_layer_init.c"
  4529 ;; Parameters:    Size  Location     Type
  4530 ;;		None
  4531 ;; Auto vars:     Size  Location     Type
  4532 ;;  ret             1    0        unsigned char 
  4533 ;; Return value:  Size  Location     Type
  4534 ;;                  1    wreg      void 
  4535 ;; Registers used:
  4536 ;;		wreg, fsr2l, fsr2h, status,2, status,0, prodl, prodh, cstack
  4537 ;; Tracked objects:
  4538 ;;		On entry : 0/0
  4539 ;;		On exit  : 0/0
  4540 ;;		Unchanged: 0/0
  4541 ;; Data sizes:     COMRAM   BANK0   BANK1   BANK2   BANK3   BANK4   BANK5   BANK6   BANK7   BANK8   BANK9  BANK10  BANK1
      +1  BANK12  BANK13  BANK14  BANK15
  4542 ;;      Params:         0       0       0       0       0       0       0       0       0       0       0       0       
      +0       0       0       0       0
  4543 ;;      Locals:         0       0       0       0       0       0       0       0       0       0       0       0       
      +0       0       0       0       0
  4544 ;;      Temps:          0       0       0       0       0       0       0       0       0       0       0       0       
      +0       0       0       0       0
  4545 ;;      Totals:         0       0       0       0       0       0       0       0       0       0       0       0       
      +0       0       0       0       0
  4546 ;;Total ram usage:        0 bytes
  4547 ;; Hardware stack levels used: 1
  4548 ;; Hardware stack levels required when called: 28
  4549 ;; This function calls:
  4550 ;;		_lcd_4bit_initialize
  4551 ;; This function is called by:
  4552 ;;		_main
  4553 ;; This function uses a non-reentrant model
  4554 ;;
  4555                           
  4556                           	psect	text11
  4557   004736                     __ptext11:
  4558                           	callstack 0
  4559   004736                     _ecu_layer_initialize:
  4560                           	callstack 2
  4561   004736  0ECE               	movlw	low _lcd1
  4562   004738  0101               	movlb	1	; () banked
  4563   00473A  6F7B               	movwf	lcd_4bit_initialize@lcd& (0+255),b
  4564   00473C  0E01               	movlw	high _lcd1
  4565   00473E  6F7C               	movwf	(lcd_4bit_initialize@lcd+1)& (0+255),b
  4566   004740  EC75  F019         	call	_lcd_4bit_initialize	;wreg free
  4567   004744  0012               	return		;funcret
  4568   004746                     __end_of_ecu_layer_initialize:
  4569                           	callstack 0
  4570                           
  4571 ;; *************** function _lcd_4bit_initialize *****************
  4572 ;; Defined at:
  4573 ;;		line 13 in file "ECU_Layer/Chr_LCD/ecu_chr_lcd.c"
  4574 ;; Parameters:    Size  Location     Type
  4575 ;;  lcd             2   18[BANK1 ] PTR const struct .
  4576 ;;		 -> lcd1(6), 
  4577 ;; Auto vars:     Size  Location     Type
  4578 ;;  l_data_pins_    1   23[BANK1 ] unsigned char 
  4579 ;;  ret             1   22[BANK1 ] unsigned char 
  4580 ;; Return value:  Size  Location     Type
  4581 ;;                  1    wreg      unsigned char 
  4582 ;; Registers used:
  4583 ;;		wreg, fsr2l, fsr2h, status,2, status,0, prodl, prodh, cstack
  4584 ;; Tracked objects:
  4585 ;;		On entry : 0/0
  4586 ;;		On exit  : 0/0
  4587 ;;		Unchanged: 0/0
  4588 ;; Data sizes:     COMRAM   BANK0   BANK1   BANK2   BANK3   BANK4   BANK5   BANK6   BANK7   BANK8   BANK9  BANK10  BANK1
      +1  BANK12  BANK13  BANK14  BANK15
  4589 ;;      Params:         0       0       2       0       0       0       0       0       0       0       0       0       
      +0       0       0       0       0
  4590 ;;      Locals:         0       0       2       0       0       0       0       0       0       0       0       0       
      +0       0       0       0       0
  4591 ;;      Temps:          0       0       2       0       0       0       0       0       0       0       0       0       
      +0       0       0       0       0
  4592 ;;      Totals:         0       0       6       0       0       0       0       0       0       0       0       0       
      +0       0       0       0       0
  4593 ;;Total ram usage:        6 bytes
  4594 ;; Hardware stack levels used: 1
  4595 ;; Hardware stack levels required when called: 27
  4596 ;; This function calls:
  4597 ;;		_gpio_pin_initialize
  4598 ;;		_lcd_4bit_send_command
  4599 ;; This function is called by:
  4600 ;;		_ecu_layer_initialize
  4601 ;; This function uses a non-reentrant model
  4602 ;;
  4603                           
  4604                           	psect	text12
  4605   0032EA                     __ptext12:
  4606                           	callstack 0
  4607   0032EA                     _lcd_4bit_initialize:
  4608                           	callstack 2
  4609   0032EA                     
  4610                           ;ECU_Layer/Chr_LCD/ecu_chr_lcd.c: 15:      uint8 l_data_pins_counter=0;
  4611   0032EA  0E00               	movlw	0
  4612   0032EC  0101               	movlb	1	; () banked
  4613   0032EE  6F80               	movwf	lcd_4bit_initialize@l_data_pins_counter& (0+255),b
  4614   0032F0                     
  4615                           ; BSR set to: 1
  4616                           ;ECU_Layer/Chr_LCD/ecu_chr_lcd.c: 16:     if(lcd==((void*)0)){
  4617   0032F0  517B               	movf	lcd_4bit_initialize@lcd& (0+255),w,b
  4618   0032F2  117C               	iorwf	(lcd_4bit_initialize@lcd+1)& (0+255),w,b
  4619   0032F4  A4D8               	btfss	status,2,c
  4620   0032F6  EF7F  F019         	goto	u7821
  4621   0032FA  EF81  F019         	goto	u7820
  4622   0032FE                     u7821:
  4623   0032FE  EF85  F019         	goto	l7837
  4624   003302                     u7820:
  4625   003302                     
  4626                           ; BSR set to: 1
  4627                           ;ECU_Layer/Chr_LCD/ecu_chr_lcd.c: 17:         ret=(Std_ReturnType)0x00;
  4628   003302  0E00               	movlw	0
  4629   003304  6F7F               	movwf	lcd_4bit_initialize@ret& (0+255),b
  4630                           
  4631                           ;ECU_Layer/Chr_LCD/ecu_chr_lcd.c: 18:     }
  4632   003306  EFEB  F019         	goto	l7865
  4633   00330A                     l7837:
  4634                           
  4635                           ; BSR set to: 1
  4636                           ;ECU_Layer/Chr_LCD/ecu_chr_lcd.c: 20:         ret=gpio_pin_initialize(&(lcd->lcd_rs));
  4637   00330A  C17B  F173         	movff	lcd_4bit_initialize@lcd,gpio_pin_initialize@pin_config
  4638   00330E  C17C  F174         	movff	lcd_4bit_initialize@lcd+1,gpio_pin_initialize@pin_config+1
  4639   003312  EC74  F01D         	call	_gpio_pin_initialize	;wreg free
  4640   003316  0101               	movlb	1	; () banked
  4641   003318  6F7F               	movwf	lcd_4bit_initialize@ret& (0+255),b
  4642                           
  4643                           ;ECU_Layer/Chr_LCD/ecu_chr_lcd.c: 21:         ret=gpio_pin_initialize(&(lcd->lcd_en));
  4644   00331A  0E01               	movlw	1
  4645   00331C  257B               	addwf	lcd_4bit_initialize@lcd& (0+255),w,b
  4646   00331E  6F73               	movwf	gpio_pin_initialize@pin_config& (0+255),b
  4647   003320  0E00               	movlw	0
  4648   003322  217C               	addwfc	(lcd_4bit_initialize@lcd+1)& (0+255),w,b
  4649   003324  6F74               	movwf	(gpio_pin_initialize@pin_config+1)& (0+255),b
  4650   003326  EC74  F01D         	call	_gpio_pin_initialize	;wreg free
  4651   00332A  0101               	movlb	1	; () banked
  4652   00332C  6F7F               	movwf	lcd_4bit_initialize@ret& (0+255),b
  4653   00332E                     
  4654                           ; BSR set to: 1
  4655                           ;ECU_Layer/Chr_LCD/ecu_chr_lcd.c: 22:         for(l_data_pins_counter=0;l_data_pins_coun
      +                          ter<4;l_data_pins_counter++){
  4656   00332E  0E00               	movlw	0
  4657   003330  6F80               	movwf	lcd_4bit_initialize@l_data_pins_counter& (0+255),b
  4658   003332                     l7845:
  4659                           
  4660                           ; BSR set to: 1
  4661   003332  5180               	movf	lcd_4bit_initialize@l_data_pins_counter& (0+255),w,b
  4662   003334  257B               	addwf	lcd_4bit_initialize@lcd& (0+255),w,b
  4663   003336  6F7D               	movwf	??_lcd_4bit_initialize& (0+255),b
  4664   003338  0E00               	movlw	0
  4665   00333A  217C               	addwfc	(lcd_4bit_initialize@lcd+1)& (0+255),w,b
  4666   00333C  6F7E               	movwf	(??_lcd_4bit_initialize+1)& (0+255),b
  4667   00333E  0E02               	movlw	2
  4668   003340  257D               	addwf	??_lcd_4bit_initialize& (0+255),w,b
  4669   003342  6F73               	movwf	gpio_pin_initialize@pin_config& (0+255),b
  4670   003344  0E00               	movlw	0
  4671   003346  217E               	addwfc	(??_lcd_4bit_initialize+1)& (0+255),w,b
  4672   003348  6F74               	movwf	(gpio_pin_initialize@pin_config+1)& (0+255),b
  4673   00334A  EC74  F01D         	call	_gpio_pin_initialize	;wreg free
  4674   00334E                     
  4675                           ;ECU_Layer/Chr_LCD/ecu_chr_lcd.c: 24:         }
  4676   00334E  0101               	movlb	1	; () banked
  4677   003350  2B80               	incf	lcd_4bit_initialize@l_data_pins_counter& (0+255),f,b
  4678   003352                     
  4679                           ; BSR set to: 1
  4680   003352  0E03               	movlw	3
  4681   003354  6580               	cpfsgt	lcd_4bit_initialize@l_data_pins_counter& (0+255),b
  4682   003356  EFAF  F019         	goto	u7831
  4683   00335A  EFB1  F019         	goto	u7830
  4684   00335E                     u7831:
  4685   00335E  EF99  F019         	goto	l7845
  4686   003362                     u7830:
  4687   003362                     
  4688                           ; BSR set to: 1
  4689   003362  C17B  F177         	movff	lcd_4bit_initialize@lcd,lcd_4bit_send_command@lcd
  4690   003366  C17C  F178         	movff	lcd_4bit_initialize@lcd+1,lcd_4bit_send_command@lcd+1
  4691   00336A  0E33               	movlw	51
  4692   00336C  6F79               	movwf	lcd_4bit_send_command@command& (0+255),b
  4693   00336E  EC86  F01E         	call	_lcd_4bit_send_command	;wreg free
  4694   003372                     
  4695                           ;ECU_Layer/Chr_LCD/ecu_chr_lcd.c: 27:         _delay((unsigned long)((150)*(4000000UL/40
      +                          00000.0)));
  4696   003372  0E32               	movlw	50
  4697   003374                     u14967:
  4698   003374  2EE8               	decfsz	wreg,f,c
  4699   003376  D7FE               	bra	u14967
  4700   003378  C17B  F177         	movff	lcd_4bit_initialize@lcd,lcd_4bit_send_command@lcd
  4701   00337C  C17C  F178         	movff	lcd_4bit_initialize@lcd+1,lcd_4bit_send_command@lcd+1
  4702   003380  0E32               	movlw	50
  4703   003382  0101               	movlb	1	; () banked
  4704   003384  6F79               	movwf	lcd_4bit_send_command@command& (0+255),b
  4705   003386  EC86  F01E         	call	_lcd_4bit_send_command	;wreg free
  4706   00338A  C17B  F177         	movff	lcd_4bit_initialize@lcd,lcd_4bit_send_command@lcd
  4707   00338E  C17C  F178         	movff	lcd_4bit_initialize@lcd+1,lcd_4bit_send_command@lcd+1
  4708   003392  0E28               	movlw	40
  4709   003394  0101               	movlb	1	; () banked
  4710   003396  6F79               	movwf	lcd_4bit_send_command@command& (0+255),b
  4711   003398  EC86  F01E         	call	_lcd_4bit_send_command	;wreg free
  4712   00339C  C17B  F177         	movff	lcd_4bit_initialize@lcd,lcd_4bit_send_command@lcd
  4713   0033A0  C17C  F178         	movff	lcd_4bit_initialize@lcd+1,lcd_4bit_send_command@lcd+1
  4714   0033A4  0E01               	movlw	1
  4715   0033A6  0101               	movlb	1	; () banked
  4716   0033A8  6F79               	movwf	lcd_4bit_send_command@command& (0+255),b
  4717   0033AA  EC86  F01E         	call	_lcd_4bit_send_command	;wreg free
  4718   0033AE  C17B  F177         	movff	lcd_4bit_initialize@lcd,lcd_4bit_send_command@lcd
  4719   0033B2  C17C  F178         	movff	lcd_4bit_initialize@lcd+1,lcd_4bit_send_command@lcd+1
  4720   0033B6  0E06               	movlw	6
  4721   0033B8  0101               	movlb	1	; () banked
  4722   0033BA  6F79               	movwf	lcd_4bit_send_command@command& (0+255),b
  4723   0033BC  EC86  F01E         	call	_lcd_4bit_send_command	;wreg free
  4724   0033C0                     
  4725                           ;ECU_Layer/Chr_LCD/ecu_chr_lcd.c: 32:         ret=lcd_4bit_send_command(lcd,0X0C);
  4726   0033C0  C17B  F177         	movff	lcd_4bit_initialize@lcd,lcd_4bit_send_command@lcd
  4727   0033C4  C17C  F178         	movff	lcd_4bit_initialize@lcd+1,lcd_4bit_send_command@lcd+1
  4728   0033C8  0E0C               	movlw	12
  4729   0033CA  0101               	movlb	1	; () banked
  4730   0033CC  6F79               	movwf	lcd_4bit_send_command@command& (0+255),b
  4731   0033CE  EC86  F01E         	call	_lcd_4bit_send_command	;wreg free
  4732   0033D2  0101               	movlb	1	; () banked
  4733   0033D4  6F7F               	movwf	lcd_4bit_initialize@ret& (0+255),b
  4734   0033D6                     l7865:
  4735                           
  4736                           ; BSR set to: 1
  4737                           ;ECU_Layer/Chr_LCD/ecu_chr_lcd.c: 34:     return ret;
  4738   0033D6  517F               	movf	lcd_4bit_initialize@ret& (0+255),w,b
  4739   0033D8                     
  4740                           ; BSR set to: 1
  4741   0033D8  0012               	return		;funcret
  4742   0033DA                     __end_of_lcd_4bit_initialize:
  4743                           	callstack 0
  4744                           
  4745 ;; *************** function _lcd_4bit_send_command *****************
  4746 ;; Defined at:
  4747 ;;		line 43 in file "ECU_Layer/Chr_LCD/ecu_chr_lcd.c"
  4748 ;; Parameters:    Size  Location     Type
  4749 ;;  lcd             2   14[BANK1 ] PTR const struct .
  4750 ;;		 -> lcd1(6), 
  4751 ;;  command         1   16[BANK1 ] unsigned char 
  4752 ;; Auto vars:     Size  Location     Type
  4753 ;;  ret             1   17[BANK1 ] unsigned char 
  4754 ;; Return value:  Size  Location     Type
  4755 ;;                  1    wreg      unsigned char 
  4756 ;; Registers used:
  4757 ;;		wreg, fsr2l, fsr2h, status,2, status,0, prodl, prodh, cstack
  4758 ;; Tracked objects:
  4759 ;;		On entry : 0/0
  4760 ;;		On exit  : 0/0
  4761 ;;		Unchanged: 0/0
  4762 ;; Data sizes:     COMRAM   BANK0   BANK1   BANK2   BANK3   BANK4   BANK5   BANK6   BANK7   BANK8   BANK9  BANK10  BANK1
      +1  BANK12  BANK13  BANK14  BANK15
  4763 ;;      Params:         0       0       3       0       0       0       0       0       0       0       0       0       
      +0       0       0       0       0
  4764 ;;      Locals:         0       0       1       0       0       0       0       0       0       0       0       0       
      +0       0       0       0       0
  4765 ;;      Temps:          0       0       0       0       0       0       0       0       0       0       0       0       
      +0       0       0       0       0
  4766 ;;      Totals:         0       0       4       0       0       0       0       0       0       0       0       0       
      +0       0       0       0       0
  4767 ;;Total ram usage:        4 bytes
  4768 ;; Hardware stack levels used: 1
  4769 ;; Hardware stack levels required when called: 26
  4770 ;; This function calls:
  4771 ;;		_gpio_pin_write_logic
  4772 ;;		_lcd_4bit_send_enable_signal
  4773 ;;		_lcd_send_4bits
  4774 ;; This function is called by:
  4775 ;;		_lcd_4bit_initialize
  4776 ;;		_lcd_4bit_send_custom_char
  4777 ;;		_lcd_4bit_set_cursor
  4778 ;; This function uses a non-reentrant model
  4779 ;;
  4780                           
  4781                           	psect	text13
  4782   003D0C                     __ptext13:
  4783                           	callstack 0
  4784   003D0C                     _lcd_4bit_send_command:
  4785                           	callstack 2
  4786   003D0C                     
  4787                           ;ECU_Layer/Chr_LCD/ecu_chr_lcd.c: 45:     if(lcd==((void*)0)){
  4788   003D0C  0101               	movlb	1	; () banked
  4789   003D0E  5177               	movf	lcd_4bit_send_command@lcd& (0+255),w,b
  4790   003D10  1178               	iorwf	(lcd_4bit_send_command@lcd+1)& (0+255),w,b
  4791   003D12  A4D8               	btfss	status,2,c
  4792   003D14  EF8E  F01E         	goto	u7661
  4793   003D18  EF90  F01E         	goto	u7660
  4794   003D1C                     u7661:
  4795   003D1C  EF94  F01E         	goto	l7703
  4796   003D20                     u7660:
  4797   003D20                     
  4798                           ; BSR set to: 1
  4799                           ;ECU_Layer/Chr_LCD/ecu_chr_lcd.c: 46:         ret=(Std_ReturnType)0x00;
  4800   003D20  0E00               	movlw	0
  4801   003D22  6F7A               	movwf	lcd_4bit_send_command@ret& (0+255),b
  4802                           
  4803                           ;ECU_Layer/Chr_LCD/ecu_chr_lcd.c: 47:     }
  4804   003D24  EFC3  F01E         	goto	l7705
  4805   003D28                     l7703:
  4806                           
  4807                           ; BSR set to: 1
  4808                           ;ECU_Layer/Chr_LCD/ecu_chr_lcd.c: 49:         ret=gpio_pin_write_logic(&(lcd->lcd_rs),LO
      +                          W);
  4809   003D28  C177  F169         	movff	lcd_4bit_send_command@lcd,gpio_pin_write_logic@pin_config
  4810   003D2C  C178  F16A         	movff	lcd_4bit_send_command@lcd+1,gpio_pin_write_logic@pin_config+1
  4811   003D30  0E00               	movlw	0
  4812   003D32  6F6B               	movwf	gpio_pin_write_logic@logic& (0+255),b
  4813   003D34  ECC5  F014         	call	_gpio_pin_write_logic	;wreg free
  4814   003D38  0101               	movlb	1	; () banked
  4815   003D3A  6F7A               	movwf	lcd_4bit_send_command@ret& (0+255),b
  4816                           
  4817                           ;ECU_Layer/Chr_LCD/ecu_chr_lcd.c: 50:         ret=lcd_send_4bits(lcd, command >> 4);
  4818   003D3C  C177  F173         	movff	lcd_4bit_send_command@lcd,lcd_send_4bits@lcd
  4819   003D40  C178  F174         	movff	lcd_4bit_send_command@lcd+1,lcd_send_4bits@lcd+1
  4820   003D44  3979               	swapf	lcd_4bit_send_command@command& (0+255),w,b
  4821   003D46  0B0F               	andlw	15
  4822   003D48  6F75               	movwf	lcd_send_4bits@_data_command& (0+255),b
  4823   003D4A  ECE2  F01C         	call	_lcd_send_4bits	;wreg free
  4824   003D4E  0101               	movlb	1	; () banked
  4825   003D50  6F7A               	movwf	lcd_4bit_send_command@ret& (0+255),b
  4826                           
  4827                           ;ECU_Layer/Chr_LCD/ecu_chr_lcd.c: 51:         ret=lcd_4bit_send_enable_signal(lcd);
  4828   003D52  C177  F173         	movff	lcd_4bit_send_command@lcd,lcd_4bit_send_enable_signal@lcd
  4829   003D56  C178  F174         	movff	lcd_4bit_send_command@lcd+1,lcd_4bit_send_enable_signal@lcd+1
  4830   003D5A  EC86  F020         	call	_lcd_4bit_send_enable_signal	;wreg free
  4831   003D5E  0101               	movlb	1	; () banked
  4832   003D60  6F7A               	movwf	lcd_4bit_send_command@ret& (0+255),b
  4833                           
  4834                           ;ECU_Layer/Chr_LCD/ecu_chr_lcd.c: 52:         ret=lcd_send_4bits(lcd, command);
  4835   003D62  C177  F173         	movff	lcd_4bit_send_command@lcd,lcd_send_4bits@lcd
  4836   003D66  C178  F174         	movff	lcd_4bit_send_command@lcd+1,lcd_send_4bits@lcd+1
  4837   003D6A  C179  F175         	movff	lcd_4bit_send_command@command,lcd_send_4bits@_data_command
  4838   003D6E  ECE2  F01C         	call	_lcd_send_4bits	;wreg free
  4839   003D72  0101               	movlb	1	; () banked
  4840   003D74  6F7A               	movwf	lcd_4bit_send_command@ret& (0+255),b
  4841                           
  4842                           ;ECU_Layer/Chr_LCD/ecu_chr_lcd.c: 53:         ret=lcd_4bit_send_enable_signal(lcd);
  4843   003D76  C177  F173         	movff	lcd_4bit_send_command@lcd,lcd_4bit_send_enable_signal@lcd
  4844   003D7A  C178  F174         	movff	lcd_4bit_send_command@lcd+1,lcd_4bit_send_enable_signal@lcd+1
  4845   003D7E  EC86  F020         	call	_lcd_4bit_send_enable_signal	;wreg free
  4846   003D82  0101               	movlb	1	; () banked
  4847   003D84  6F7A               	movwf	lcd_4bit_send_command@ret& (0+255),b
  4848   003D86                     l7705:
  4849                           
  4850                           ; BSR set to: 1
  4851                           ;ECU_Layer/Chr_LCD/ecu_chr_lcd.c: 55:     return ret;
  4852   003D86  517A               	movf	lcd_4bit_send_command@ret& (0+255),w,b
  4853   003D88                     
  4854                           ; BSR set to: 1
  4855   003D88  0012               	return		;funcret
  4856   003D8A                     __end_of_lcd_4bit_send_command:
  4857                           	callstack 0
  4858                           
  4859 ;; *************** function _lcd_send_4bits *****************
  4860 ;; Defined at:
  4861 ;;		line 396 in file "ECU_Layer/Chr_LCD/ecu_chr_lcd.c"
  4862 ;; Parameters:    Size  Location     Type
  4863 ;;  lcd             2   10[BANK1 ] PTR const struct .
  4864 ;;		 -> lcd1(6), 
  4865 ;;  _data_comman    1   12[BANK1 ] unsigned char 
  4866 ;; Auto vars:     Size  Location     Type
  4867 ;;  ret             1   13[BANK1 ] unsigned char 
  4868 ;; Return value:  Size  Location     Type
  4869 ;;                  1    wreg      unsigned char 
  4870 ;; Registers used:
  4871 ;;		wreg, fsr2l, fsr2h, status,2, status,0, prodl, prodh, cstack
  4872 ;; Tracked objects:
  4873 ;;		On entry : 0/0
  4874 ;;		On exit  : 0/0
  4875 ;;		Unchanged: 0/0
  4876 ;; Data sizes:     COMRAM   BANK0   BANK1   BANK2   BANK3   BANK4   BANK5   BANK6   BANK7   BANK8   BANK9  BANK10  BANK1
      +1  BANK12  BANK13  BANK14  BANK15
  4877 ;;      Params:         0       0       3       0       0       0       0       0       0       0       0       0       
      +0       0       0       0       0
  4878 ;;      Locals:         0       0       1       0       0       0       0       0       0       0       0       0       
      +0       0       0       0       0
  4879 ;;      Temps:          0       0       0       0       0       0       0       0       0       0       0       0       
      +0       0       0       0       0
  4880 ;;      Totals:         0       0       4       0       0       0       0       0       0       0       0       0       
      +0       0       0       0       0
  4881 ;;Total ram usage:        4 bytes
  4882 ;; Hardware stack levels used: 1
  4883 ;; Hardware stack levels required when called: 25
  4884 ;; This function calls:
  4885 ;;		_gpio_pin_write_logic
  4886 ;; This function is called by:
  4887 ;;		_lcd_4bit_send_command
  4888 ;; This function uses a non-reentrant model
  4889 ;;
  4890                           
  4891                           	psect	text14
  4892   0039C4                     __ptext14:
  4893                           	callstack 0
  4894   0039C4                     _lcd_send_4bits:
  4895                           	callstack 2
  4896   0039C4                     
  4897                           ;ECU_Layer/Chr_LCD/ecu_chr_lcd.c: 398:     if(lcd==((void*)0)){
  4898   0039C4  0101               	movlb	1	; () banked
  4899   0039C6  5173               	movf	lcd_send_4bits@lcd& (0+255),w,b
  4900   0039C8  1174               	iorwf	(lcd_send_4bits@lcd+1)& (0+255),w,b
  4901   0039CA  A4D8               	btfss	status,2,c
  4902   0039CC  EFEA  F01C         	goto	u7351
  4903   0039D0  EFEC  F01C         	goto	u7350
  4904   0039D4                     u7351:
  4905   0039D4  EFF0  F01C         	goto	l7453
  4906   0039D8                     u7350:
  4907   0039D8                     
  4908                           ; BSR set to: 1
  4909                           ;ECU_Layer/Chr_LCD/ecu_chr_lcd.c: 399:         ret=(Std_ReturnType)0x00;
  4910   0039D8  0E00               	movlw	0
  4911   0039DA  6F76               	movwf	lcd_send_4bits@ret& (0+255),b
  4912                           
  4913                           ;ECU_Layer/Chr_LCD/ecu_chr_lcd.c: 400:     }
  4914   0039DC  EF29  F01D         	goto	l7455
  4915   0039E0                     l7453:
  4916                           
  4917                           ; BSR set to: 1
  4918                           ;ECU_Layer/Chr_LCD/ecu_chr_lcd.c: 402:         ret=gpio_pin_write_logic(&(lcd->lcd_data[
      +                          0]),( _data_command >> 0 ) & (uint8)0x01);
  4919   0039E0  0E02               	movlw	2
  4920   0039E2  2573               	addwf	lcd_send_4bits@lcd& (0+255),w,b
  4921   0039E4  6F69               	movwf	gpio_pin_write_logic@pin_config& (0+255),b
  4922   0039E6  0E00               	movlw	0
  4923   0039E8  2174               	addwfc	(lcd_send_4bits@lcd+1)& (0+255),w,b
  4924   0039EA  6F6A               	movwf	(gpio_pin_write_logic@pin_config+1)& (0+255),b
  4925   0039EC  5175               	movf	lcd_send_4bits@_data_command& (0+255),w,b
  4926   0039EE  0B01               	andlw	1
  4927   0039F0  6F6B               	movwf	gpio_pin_write_logic@logic& (0+255),b
  4928   0039F2  ECC5  F014         	call	_gpio_pin_write_logic	;wreg free
  4929   0039F6  0101               	movlb	1	; () banked
  4930   0039F8  6F76               	movwf	lcd_send_4bits@ret& (0+255),b
  4931                           
  4932                           ;ECU_Layer/Chr_LCD/ecu_chr_lcd.c: 403:         ret=gpio_pin_write_logic(&(lcd->lcd_data[
      +                          1]),( _data_command >> 1 ) & (uint8)0x01);
  4933   0039FA  0E03               	movlw	3
  4934   0039FC  2573               	addwf	lcd_send_4bits@lcd& (0+255),w,b
  4935   0039FE  6F69               	movwf	gpio_pin_write_logic@pin_config& (0+255),b
  4936   003A00  0E00               	movlw	0
  4937   003A02  2174               	addwfc	(lcd_send_4bits@lcd+1)& (0+255),w,b
  4938   003A04  6F6A               	movwf	(gpio_pin_write_logic@pin_config+1)& (0+255),b
  4939   003A06  90D8               	bcf	status,0,c
  4940   003A08  3175               	rrcf	lcd_send_4bits@_data_command& (0+255),w,b
  4941   003A0A  0B01               	andlw	1
  4942   003A0C  6F6B               	movwf	gpio_pin_write_logic@logic& (0+255),b
  4943   003A0E  ECC5  F014         	call	_gpio_pin_write_logic	;wreg free
  4944   003A12  0101               	movlb	1	; () banked
  4945   003A14  6F76               	movwf	lcd_send_4bits@ret& (0+255),b
  4946                           
  4947                           ;ECU_Layer/Chr_LCD/ecu_chr_lcd.c: 404:         ret=gpio_pin_write_logic(&(lcd->lcd_data[
      +                          2]),( _data_command >> 2 ) & (uint8)0x01);
  4948   003A16  0E04               	movlw	4
  4949   003A18  2573               	addwf	lcd_send_4bits@lcd& (0+255),w,b
  4950   003A1A  6F69               	movwf	gpio_pin_write_logic@pin_config& (0+255),b
  4951   003A1C  0E00               	movlw	0
  4952   003A1E  2174               	addwfc	(lcd_send_4bits@lcd+1)& (0+255),w,b
  4953   003A20  6F6A               	movwf	(gpio_pin_write_logic@pin_config+1)& (0+255),b
  4954   003A22  4175               	rrncf	lcd_send_4bits@_data_command& (0+255),w,b
  4955   003A24  42E8               	rrncf	wreg,f,c
  4956   003A26  0B3F               	andlw	63
  4957   003A28  0B01               	andlw	1
  4958   003A2A  6F6B               	movwf	gpio_pin_write_logic@logic& (0+255),b
  4959   003A2C  ECC5  F014         	call	_gpio_pin_write_logic	;wreg free
  4960   003A30  0101               	movlb	1	; () banked
  4961   003A32  6F76               	movwf	lcd_send_4bits@ret& (0+255),b
  4962                           
  4963                           ;ECU_Layer/Chr_LCD/ecu_chr_lcd.c: 405:         ret=gpio_pin_write_logic(&(lcd->lcd_data[
      +                          3]),( _data_command >> 3 ) & (uint8)0x01);
  4964   003A34  0E05               	movlw	5
  4965   003A36  2573               	addwf	lcd_send_4bits@lcd& (0+255),w,b
  4966   003A38  6F69               	movwf	gpio_pin_write_logic@pin_config& (0+255),b
  4967   003A3A  0E00               	movlw	0
  4968   003A3C  2174               	addwfc	(lcd_send_4bits@lcd+1)& (0+255),w,b
  4969   003A3E  6F6A               	movwf	(gpio_pin_write_logic@pin_config+1)& (0+255),b
  4970   003A40  3975               	swapf	lcd_send_4bits@_data_command& (0+255),w,b
  4971   003A42  46E8               	rlncf	wreg,f,c
  4972   003A44  0B1F               	andlw	31
  4973   003A46  0B01               	andlw	1
  4974   003A48  6F6B               	movwf	gpio_pin_write_logic@logic& (0+255),b
  4975   003A4A  ECC5  F014         	call	_gpio_pin_write_logic	;wreg free
  4976   003A4E  0101               	movlb	1	; () banked
  4977   003A50  6F76               	movwf	lcd_send_4bits@ret& (0+255),b
  4978   003A52                     l7455:
  4979                           
  4980                           ; BSR set to: 1
  4981                           ;ECU_Layer/Chr_LCD/ecu_chr_lcd.c: 407:     return ret;
  4982   003A52  5176               	movf	lcd_send_4bits@ret& (0+255),w,b
  4983   003A54                     
  4984                           ; BSR set to: 1
  4985   003A54  0012               	return		;funcret
  4986   003A56                     __end_of_lcd_send_4bits:
  4987                           	callstack 0
  4988                           
  4989 ;; *************** function _lcd_4bit_send_enable_signal *****************
  4990 ;; Defined at:
  4991 ;;		line 409 in file "ECU_Layer/Chr_LCD/ecu_chr_lcd.c"
  4992 ;; Parameters:    Size  Location     Type
  4993 ;;  lcd             2   10[BANK1 ] PTR const struct .
  4994 ;;		 -> lcd1(6), 
  4995 ;; Auto vars:     Size  Location     Type
  4996 ;;  ret             1   12[BANK1 ] unsigned char 
  4997 ;; Return value:  Size  Location     Type
  4998 ;;                  1    wreg      unsigned char 
  4999 ;; Registers used:
  5000 ;;		wreg, fsr2l, fsr2h, status,2, status,0, prodl, prodh, cstack
  5001 ;; Tracked objects:
  5002 ;;		On entry : 0/0
  5003 ;;		On exit  : 0/0
  5004 ;;		Unchanged: 0/0
  5005 ;; Data sizes:     COMRAM   BANK0   BANK1   BANK2   BANK3   BANK4   BANK5   BANK6   BANK7   BANK8   BANK9  BANK10  BANK1
      +1  BANK12  BANK13  BANK14  BANK15
  5006 ;;      Params:         0       0       2       0       0       0       0       0       0       0       0       0       
      +0       0       0       0       0
  5007 ;;      Locals:         0       0       1       0       0       0       0       0       0       0       0       0       
      +0       0       0       0       0
  5008 ;;      Temps:          0       0       0       0       0       0       0       0       0       0       0       0       
      +0       0       0       0       0
  5009 ;;      Totals:         0       0       3       0       0       0       0       0       0       0       0       0       
      +0       0       0       0       0
  5010 ;;Total ram usage:        3 bytes
  5011 ;; Hardware stack levels used: 1
  5012 ;; Hardware stack levels required when called: 25
  5013 ;; This function calls:
  5014 ;;		_gpio_pin_write_logic
  5015 ;; This function is called by:
  5016 ;;		_lcd_4bit_send_command
  5017 ;; This function uses a non-reentrant model
  5018 ;;
  5019                           
  5020                           	psect	text15
  5021   00410C                     __ptext15:
  5022                           	callstack 0
  5023   00410C                     _lcd_4bit_send_enable_signal:
  5024                           	callstack 2
  5025   00410C                     
  5026                           ;ECU_Layer/Chr_LCD/ecu_chr_lcd.c: 411:     if(lcd==((void*)0)){
  5027   00410C  0101               	movlb	1	; () banked
  5028   00410E  5173               	movf	lcd_4bit_send_enable_signal@lcd& (0+255),w,b
  5029   004110  1174               	iorwf	(lcd_4bit_send_enable_signal@lcd+1)& (0+255),w,b
  5030   004112  A4D8               	btfss	status,2,c
  5031   004114  EF8E  F020         	goto	u7361
  5032   004118  EF90  F020         	goto	u7360
  5033   00411C                     u7361:
  5034   00411C  EF94  F020         	goto	l7465
  5035   004120                     u7360:
  5036   004120                     
  5037                           ; BSR set to: 1
  5038                           ;ECU_Layer/Chr_LCD/ecu_chr_lcd.c: 412:         ret=(Std_ReturnType)0x00;
  5039   004120  0E00               	movlw	0
  5040   004122  6F75               	movwf	lcd_4bit_send_enable_signal@ret& (0+255),b
  5041                           
  5042                           ;ECU_Layer/Chr_LCD/ecu_chr_lcd.c: 413:     }
  5043   004124  EFAE  F020         	goto	l7469
  5044   004128                     l7465:
  5045                           
  5046                           ; BSR set to: 1
  5047   004128  0E01               	movlw	1
  5048   00412A  2573               	addwf	lcd_4bit_send_enable_signal@lcd& (0+255),w,b
  5049   00412C  6F69               	movwf	gpio_pin_write_logic@pin_config& (0+255),b
  5050   00412E  0E00               	movlw	0
  5051   004130  2174               	addwfc	(lcd_4bit_send_enable_signal@lcd+1)& (0+255),w,b
  5052   004132  6F6A               	movwf	(gpio_pin_write_logic@pin_config+1)& (0+255),b
  5053   004134  0E01               	movlw	1
  5054   004136  6F6B               	movwf	gpio_pin_write_logic@logic& (0+255),b
  5055   004138  ECC5  F014         	call	_gpio_pin_write_logic	;wreg free
  5056   00413C                     
  5057                           ;ECU_Layer/Chr_LCD/ecu_chr_lcd.c: 416:         _delay((unsigned long)((5)*(4000000UL/400
      +                          0000.0)));
  5058   00413C  D000               	nop2		;2 cycle nop
  5059   00413E  D000               	nop2		;2 cycle nop
  5060   004140  F000               	nop	
  5061                           
  5062                           ;ECU_Layer/Chr_LCD/ecu_chr_lcd.c: 417:         ret=gpio_pin_write_logic(&(lcd->lcd_en),L
      +                          OW);
  5063   004142  0E01               	movlw	1
  5064   004144  0101               	movlb	1	; () banked
  5065   004146  2573               	addwf	lcd_4bit_send_enable_signal@lcd& (0+255),w,b
  5066   004148  6F69               	movwf	gpio_pin_write_logic@pin_config& (0+255),b
  5067   00414A  0E00               	movlw	0
  5068   00414C  2174               	addwfc	(lcd_4bit_send_enable_signal@lcd+1)& (0+255),w,b
  5069   00414E  6F6A               	movwf	(gpio_pin_write_logic@pin_config+1)& (0+255),b
  5070   004150  0E00               	movlw	0
  5071   004152  6F6B               	movwf	gpio_pin_write_logic@logic& (0+255),b
  5072   004154  ECC5  F014         	call	_gpio_pin_write_logic	;wreg free
  5073   004158  0101               	movlb	1	; () banked
  5074   00415A  6F75               	movwf	lcd_4bit_send_enable_signal@ret& (0+255),b
  5075   00415C                     l7469:
  5076                           
  5077                           ; BSR set to: 1
  5078                           ;ECU_Layer/Chr_LCD/ecu_chr_lcd.c: 419:     return ret;
  5079   00415C  5175               	movf	lcd_4bit_send_enable_signal@ret& (0+255),w,b
  5080   00415E                     
  5081                           ; BSR set to: 1
  5082   00415E  0012               	return		;funcret
  5083   004160                     __end_of_lcd_4bit_send_enable_signal:
  5084                           	callstack 0
  5085                           
  5086 ;; *************** function _gpio_pin_initialize *****************
  5087 ;; Defined at:
  5088 ;;		line 24 in file "MCAL_Layer/GPIO/hal_gpio.c"
  5089 ;; Parameters:    Size  Location     Type
  5090 ;;  pin_config      2   10[BANK1 ] PTR const struct .
  5091 ;;		 -> lcd1.lcd_data(4), lcd1(6), relay_initialize@pin_obj(1), led_initialize@pin_obj(1), 
  5092 ;; Auto vars:     Size  Location     Type
  5093 ;;  ret             1   13[BANK1 ] unsigned char 
  5094 ;; Return value:  Size  Location     Type
  5095 ;;                  1    wreg      unsigned char 
  5096 ;; Registers used:
  5097 ;;		wreg, fsr2l, fsr2h, status,2, status,0, prodl, prodh, cstack
  5098 ;; Tracked objects:
  5099 ;;		On entry : 0/0
  5100 ;;		On exit  : 0/0
  5101 ;;		Unchanged: 0/0
  5102 ;; Data sizes:     COMRAM   BANK0   BANK1   BANK2   BANK3   BANK4   BANK5   BANK6   BANK7   BANK8   BANK9  BANK10  BANK1
      +1  BANK12  BANK13  BANK14  BANK15
  5103 ;;      Params:         0       0       2       0       0       0       0       0       0       0       0       0       
      +0       0       0       0       0
  5104 ;;      Locals:         0       0       1       0       0       0       0       0       0       0       0       0       
      +0       0       0       0       0
  5105 ;;      Temps:          0       0       1       0       0       0       0       0       0       0       0       0       
      +0       0       0       0       0
  5106 ;;      Totals:         0       0       4       0       0       0       0       0       0       0       0       0       
      +0       0       0       0       0
  5107 ;;Total ram usage:        4 bytes
  5108 ;; Hardware stack levels used: 1
  5109 ;; Hardware stack levels required when called: 25
  5110 ;; This function calls:
  5111 ;;		_gpio_pin_direction_initialize
  5112 ;;		_gpio_pin_write_logic
  5113 ;; This function is called by:
  5114 ;;		_lcd_4bit_initialize
  5115 ;;		_seven_segment_initialize
  5116 ;;		_lcd_8bit_initialize
  5117 ;;		_dc_motor_initialize
  5118 ;;		_keypad_initialize
  5119 ;;		_led_initialize
  5120 ;;		_relay_initialize
  5121 ;;		_CCP_Init
  5122 ;; This function uses a non-reentrant model
  5123 ;;
  5124                           
  5125                           	psect	text16
  5126   003AE8                     __ptext16:
  5127                           	callstack 0
  5128   003AE8                     _gpio_pin_initialize:
  5129                           	callstack 3
  5130   003AE8                     
  5131                           ;MCAL_Layer/GPIO/hal_gpio.c: 26:     if((pin_config==((void*)0))||(pin_config->pin>8 -1)
      +                          ||(pin_config->port>5 -1)){
  5132   003AE8  0101               	movlb	1	; () banked
  5133   003AEA  5173               	movf	gpio_pin_initialize@pin_config& (0+255),w,b
  5134   003AEC  1174               	iorwf	(gpio_pin_initialize@pin_config+1)& (0+255),w,b
  5135   003AEE  B4D8               	btfsc	status,2,c
  5136   003AF0  EF7C  F01D         	goto	u7631
  5137   003AF4  EF7E  F01D         	goto	u7630
  5138   003AF8                     u7631:
  5139   003AF8  EF9E  F01D         	goto	l7689
  5140   003AFC                     u7630:
  5141   003AFC                     
  5142                           ; BSR set to: 1
  5143   003AFC  C173  FFD9         	movff	gpio_pin_initialize@pin_config,fsr2l
  5144   003B00  C174  FFDA         	movff	gpio_pin_initialize@pin_config+1,fsr2h
  5145   003B04  30DF               	rrcf	223,w,c
  5146   003B06  32E8               	rrcf	wreg,f,c
  5147   003B08  32E8               	rrcf	wreg,f,c
  5148   003B0A  0B07               	andlw	7
  5149   003B0C  6F75               	movwf	??_gpio_pin_initialize& (0+255),b
  5150   003B0E  0E08               	movlw	8
  5151   003B10  6175               	cpfslt	??_gpio_pin_initialize& (0+255),b
  5152   003B12  EF8D  F01D         	goto	u7641
  5153   003B16  EF8F  F01D         	goto	u7640
  5154   003B1A                     u7641:
  5155   003B1A  EF9E  F01D         	goto	l7689
  5156   003B1E                     u7640:
  5157   003B1E                     
  5158                           ; BSR set to: 1
  5159   003B1E  C173  FFD9         	movff	gpio_pin_initialize@pin_config,fsr2l
  5160   003B22  C174  FFDA         	movff	gpio_pin_initialize@pin_config+1,fsr2h
  5161   003B26  50DF               	movf	223,w,c
  5162   003B28  0B07               	andlw	7
  5163   003B2A  6F75               	movwf	??_gpio_pin_initialize& (0+255),b
  5164   003B2C  0E04               	movlw	4
  5165   003B2E  6575               	cpfsgt	??_gpio_pin_initialize& (0+255),b
  5166   003B30  EF9C  F01D         	goto	u7651
  5167   003B34  EF9E  F01D         	goto	u7650
  5168   003B38                     u7651:
  5169   003B38  EFA2  F01D         	goto	l7691
  5170   003B3C                     u7650:
  5171   003B3C                     l7689:
  5172                           
  5173                           ; BSR set to: 1
  5174                           ;MCAL_Layer/GPIO/hal_gpio.c: 27:         ret=(Std_ReturnType)0x00;
  5175   003B3C  0E00               	movlw	0
  5176   003B3E  6F76               	movwf	gpio_pin_initialize@ret& (0+255),b
  5177                           
  5178                           ;MCAL_Layer/GPIO/hal_gpio.c: 28:     }
  5179   003B40  EFBA  F01D         	goto	l7693
  5180   003B44                     l7691:
  5181                           
  5182                           ; BSR set to: 1
  5183                           ;MCAL_Layer/GPIO/hal_gpio.c: 30:         ret=gpio_pin_direction_initialize(pin_config);
  5184   003B44  C173  F169         	movff	gpio_pin_initialize@pin_config,gpio_pin_direction_initialize@pin_config
  5185   003B48  C174  F16A         	movff	gpio_pin_initialize@pin_config+1,gpio_pin_direction_initialize@pin_config+1
  5186   003B4C  EC11  F014         	call	_gpio_pin_direction_initialize	;wreg free
  5187   003B50  0101               	movlb	1	; () banked
  5188   003B52  6F76               	movwf	gpio_pin_initialize@ret& (0+255),b
  5189                           
  5190                           ;MCAL_Layer/GPIO/hal_gpio.c: 31:         ret=gpio_pin_write_logic(pin_config,pin_config-
      +                          >logic);
  5191   003B54  C173  F169         	movff	gpio_pin_initialize@pin_config,gpio_pin_write_logic@pin_config
  5192   003B58  C174  F16A         	movff	gpio_pin_initialize@pin_config+1,gpio_pin_write_logic@pin_config+1
  5193   003B5C  C173  FFD9         	movff	gpio_pin_initialize@pin_config,fsr2l
  5194   003B60  C174  FFDA         	movff	gpio_pin_initialize@pin_config+1,fsr2h
  5195   003B64  0E00               	movlw	0
  5196   003B66  BEDF               	btfsc	indf2,7,c
  5197   003B68  0E01               	movlw	1
  5198   003B6A  6F6B               	movwf	gpio_pin_write_logic@logic& (0+255),b
  5199   003B6C  ECC5  F014         	call	_gpio_pin_write_logic	;wreg free
  5200   003B70  0101               	movlb	1	; () banked
  5201   003B72  6F76               	movwf	gpio_pin_initialize@ret& (0+255),b
  5202   003B74                     l7693:
  5203                           
  5204                           ; BSR set to: 1
  5205                           ;MCAL_Layer/GPIO/hal_gpio.c: 33:     return ret;
  5206   003B74  5176               	movf	gpio_pin_initialize@ret& (0+255),w,b
  5207   003B76                     
  5208                           ; BSR set to: 1
  5209   003B76  0012               	return		;funcret
  5210   003B78                     __end_of_gpio_pin_initialize:
  5211                           	callstack 0
  5212                           
  5213 ;; *************** function _gpio_pin_write_logic *****************
  5214 ;; Defined at:
  5215 ;;		line 94 in file "MCAL_Layer/GPIO/hal_gpio.c"
  5216 ;; Parameters:    Size  Location     Type
  5217 ;;  pin_config      2    0[BANK1 ] PTR const struct .
  5218 ;;		 -> lcd1.lcd_data(4), lcd1(6), relay_turn_off@pin_obj(1), relay_turn_on@pin_obj(1), 
  5219 ;;		 -> relay_initialize@pin_obj(1), led_turn_off@pin_obj(1), led_turn_on@pin_obj(1), led_initialize@pin_obj(1), 
  5220 ;;  logic           1    2[BANK1 ] enum E3269
  5221 ;; Auto vars:     Size  Location     Type
  5222 ;;  ret             1    9[BANK1 ] unsigned char 
  5223 ;; Return value:  Size  Location     Type
  5224 ;;                  1    wreg      unsigned char 
  5225 ;; Registers used:
  5226 ;;		wreg, fsr2l, fsr2h, status,2, status,0, prodl, prodh
  5227 ;; Tracked objects:
  5228 ;;		On entry : 0/0
  5229 ;;		On exit  : 0/0
  5230 ;;		Unchanged: 0/0
  5231 ;; Data sizes:     COMRAM   BANK0   BANK1   BANK2   BANK3   BANK4   BANK5   BANK6   BANK7   BANK8   BANK9  BANK10  BANK1
      +1  BANK12  BANK13  BANK14  BANK15
  5232 ;;      Params:         0       0       3       0       0       0       0       0       0       0       0       0       
      +0       0       0       0       0
  5233 ;;      Locals:         0       0       1       0       0       0       0       0       0       0       0       0       
      +0       0       0       0       0
  5234 ;;      Temps:          0       0       6       0       0       0       0       0       0       0       0       0       
      +0       0       0       0       0
  5235 ;;      Totals:         0       0      10       0       0       0       0       0       0       0       0       0       
      +0       0       0       0       0
  5236 ;;Total ram usage:       10 bytes
  5237 ;; Hardware stack levels used: 1
  5238 ;; Hardware stack levels required when called: 24
  5239 ;; This function calls:
  5240 ;;		Nothing
  5241 ;; This function is called by:
  5242 ;;		_lcd_4bit_send_command
  5243 ;;		_lcd_send_4bits
  5244 ;;		_lcd_4bit_send_enable_signal
  5245 ;;		_gpio_pin_initialize
  5246 ;;		_seven_segment_write_number
  5247 ;;		_lcd_8bit_send_command
  5248 ;;		_lcd_8bit_send_char_data
  5249 ;;		_lcd_8bit_send_enable_signal
  5250 ;;		_dc_motor_move_right
  5251 ;;		_dc_motor_move_left
  5252 ;;		_dc_motor_stop
  5253 ;;		_keypad_get_value
  5254 ;;		_led_turn_on
  5255 ;;		_led_turn_off
  5256 ;;		_relay_turn_on
  5257 ;;		_relay_turn_off
  5258 ;; This function uses a non-reentrant model
  5259 ;;
  5260                           
  5261                           	psect	text17
  5262   00298A                     __ptext17:
  5263                           	callstack 0
  5264   00298A                     _gpio_pin_write_logic:
  5265                           	callstack 2
  5266   00298A                     
  5267                           ;MCAL_Layer/GPIO/hal_gpio.c: 95:       Std_ReturnType ret=(Std_ReturnType)0x01;
  5268   00298A  0E01               	movlw	1
  5269   00298C  0101               	movlb	1	; () banked
  5270   00298E  6F72               	movwf	gpio_pin_write_logic@ret& (0+255),b
  5271   002990                     
  5272                           ; BSR set to: 1
  5273                           ;MCAL_Layer/GPIO/hal_gpio.c: 96:     if((pin_config==((void*)0))||(pin_config->pin>8 -1)
      +                          ||(pin_config->port>5 -1)){
  5274   002990  5169               	movf	gpio_pin_write_logic@pin_config& (0+255),w,b
  5275   002992  116A               	iorwf	(gpio_pin_write_logic@pin_config+1)& (0+255),w,b
  5276   002994  B4D8               	btfsc	status,2,c
  5277   002996  EFCF  F014         	goto	u6381
  5278   00299A  EFD1  F014         	goto	u6380
  5279   00299E                     u6381:
  5280   00299E  EFF1  F014         	goto	l6901
  5281   0029A2                     u6380:
  5282   0029A2                     
  5283                           ; BSR set to: 1
  5284   0029A2  C169  FFD9         	movff	gpio_pin_write_logic@pin_config,fsr2l
  5285   0029A6  C16A  FFDA         	movff	gpio_pin_write_logic@pin_config+1,fsr2h
  5286   0029AA  30DF               	rrcf	223,w,c
  5287   0029AC  32E8               	rrcf	wreg,f,c
  5288   0029AE  32E8               	rrcf	wreg,f,c
  5289   0029B0  0B07               	andlw	7
  5290   0029B2  6F6C               	movwf	??_gpio_pin_write_logic& (0+255),b
  5291   0029B4  0E08               	movlw	8
  5292   0029B6  616C               	cpfslt	??_gpio_pin_write_logic& (0+255),b
  5293   0029B8  EFE0  F014         	goto	u6391
  5294   0029BC  EFE2  F014         	goto	u6390
  5295   0029C0                     u6391:
  5296   0029C0  EFF1  F014         	goto	l6901
  5297   0029C4                     u6390:
  5298   0029C4                     
  5299                           ; BSR set to: 1
  5300   0029C4  C169  FFD9         	movff	gpio_pin_write_logic@pin_config,fsr2l
  5301   0029C8  C16A  FFDA         	movff	gpio_pin_write_logic@pin_config+1,fsr2h
  5302   0029CC  50DF               	movf	223,w,c
  5303   0029CE  0B07               	andlw	7
  5304   0029D0  6F6C               	movwf	??_gpio_pin_write_logic& (0+255),b
  5305   0029D2  0E04               	movlw	4
  5306   0029D4  656C               	cpfsgt	??_gpio_pin_write_logic& (0+255),b
  5307   0029D6  EFEF  F014         	goto	u6401
  5308   0029DA  EFF1  F014         	goto	u6400
  5309   0029DE                     u6401:
  5310   0029DE  EF56  F015         	goto	l6909
  5311   0029E2                     u6400:
  5312   0029E2                     l6901:
  5313                           
  5314                           ; BSR set to: 1
  5315                           ;MCAL_Layer/GPIO/hal_gpio.c: 97:         ret=(Std_ReturnType)0x00;
  5316   0029E2  0E00               	movlw	0
  5317   0029E4  6F72               	movwf	gpio_pin_write_logic@ret& (0+255),b
  5318                           
  5319                           ;MCAL_Layer/GPIO/hal_gpio.c: 98:     }
  5320   0029E6  EF6B  F015         	goto	l6911
  5321   0029EA                     l6903:
  5322                           
  5323                           ; BSR set to: 1
  5324                           ;MCAL_Layer/GPIO/hal_gpio.c: 102:                 (*lat_registers[pin_config->port]|=((u
      +                          int8)0x01<<pin_config->pin));
  5325   0029EA  C169  FFD9         	movff	gpio_pin_write_logic@pin_config,fsr2l
  5326   0029EE  C16A  FFDA         	movff	gpio_pin_write_logic@pin_config+1,fsr2h
  5327   0029F2  30DF               	rrcf	223,w,c
  5328   0029F4  32E8               	rrcf	wreg,f,c
  5329   0029F6  32E8               	rrcf	wreg,f,c
  5330   0029F8  0B07               	andlw	7
  5331   0029FA  6F6C               	movwf	??_gpio_pin_write_logic& (0+255),b
  5332   0029FC  0E01               	movlw	1
  5333   0029FE  6F6D               	movwf	(??_gpio_pin_write_logic+1)& (0+255),b
  5334   002A00  2B6C               	incf	??_gpio_pin_write_logic& (0+255),f,b
  5335   002A02  EF05  F015         	goto	u6414
  5336   002A06                     u6415:
  5337   002A06  90D8               	bcf	status,0,c
  5338   002A08  376D               	rlcf	(??_gpio_pin_write_logic+1)& (0+255),f,b
  5339   002A0A                     u6414:
  5340   002A0A  2F6C               	decfsz	??_gpio_pin_write_logic& (0+255),f,b
  5341   002A0C  EF03  F015         	goto	u6415
  5342   002A10  C169  FFD9         	movff	gpio_pin_write_logic@pin_config,fsr2l
  5343   002A14  C16A  FFDA         	movff	gpio_pin_write_logic@pin_config+1,fsr2h
  5344   002A18  50DF               	movf	223,w,c
  5345   002A1A  0B07               	andlw	7
  5346   002A1C  0101               	movlb	1	; () banked
  5347   002A1E  6F6E               	movwf	(??_gpio_pin_write_logic+2)& (0+255),b
  5348   002A20  516E               	movf	(??_gpio_pin_write_logic+2)& (0+255),w,b
  5349   002A22  0D02               	mullw	2
  5350   002A24  0EBA               	movlw	low _lat_registers
  5351   002A26  24F3               	addwf	243,w,c
  5352   002A28  6ED9               	movwf	fsr2l,c
  5353   002A2A  0E01               	movlw	high _lat_registers
  5354   002A2C  20F4               	addwfc	prodh,w,c
  5355   002A2E  6EDA               	movwf	fsr2h,c
  5356   002A30  CFDE F16F          	movff	postinc2,??_gpio_pin_write_logic+3
  5357   002A34  CFDD F170          	movff	postdec2,??_gpio_pin_write_logic+4
  5358   002A38  C16F  FFD9         	movff	??_gpio_pin_write_logic+3,fsr2l
  5359   002A3C  C170  FFDA         	movff	??_gpio_pin_write_logic+4,fsr2h
  5360   002A40  516D               	movf	(??_gpio_pin_write_logic+1)& (0+255),w,b
  5361   002A42  12DF               	iorwf	indf2,f,c
  5362                           
  5363                           ;MCAL_Layer/GPIO/hal_gpio.c: 103:                 break;
  5364   002A44  EF6B  F015         	goto	l6911
  5365   002A48                     l6905:
  5366                           
  5367                           ; BSR set to: 1
  5368                           ;MCAL_Layer/GPIO/hal_gpio.c: 105:                 (*lat_registers[pin_config->port]&=~((
      +                          uint8)0x01<<pin_config->pin));
  5369   002A48  C169  FFD9         	movff	gpio_pin_write_logic@pin_config,fsr2l
  5370   002A4C  C16A  FFDA         	movff	gpio_pin_write_logic@pin_config+1,fsr2h
  5371   002A50  30DF               	rrcf	223,w,c
  5372   002A52  32E8               	rrcf	wreg,f,c
  5373   002A54  32E8               	rrcf	wreg,f,c
  5374   002A56  0B07               	andlw	7
  5375   002A58  6F6C               	movwf	??_gpio_pin_write_logic& (0+255),b
  5376   002A5A  0E01               	movlw	1
  5377   002A5C  6F6D               	movwf	(??_gpio_pin_write_logic+1)& (0+255),b
  5378   002A5E  2B6C               	incf	??_gpio_pin_write_logic& (0+255),f,b
  5379   002A60  EF34  F015         	goto	u6424
  5380   002A64                     u6425:
  5381   002A64  90D8               	bcf	status,0,c
  5382   002A66  376D               	rlcf	(??_gpio_pin_write_logic+1)& (0+255),f,b
  5383   002A68                     u6424:
  5384   002A68  2F6C               	decfsz	??_gpio_pin_write_logic& (0+255),f,b
  5385   002A6A  EF32  F015         	goto	u6425
  5386   002A6E  0101               	movlb	1	; () banked
  5387   002A70  516D               	movf	(??_gpio_pin_write_logic+1)& (0+255),w,b
  5388   002A72  0AFF               	xorlw	255
  5389   002A74  6F6E               	movwf	(??_gpio_pin_write_logic+2)& (0+255),b
  5390   002A76  C169  FFD9         	movff	gpio_pin_write_logic@pin_config,fsr2l
  5391   002A7A  C16A  FFDA         	movff	gpio_pin_write_logic@pin_config+1,fsr2h
  5392   002A7E  50DF               	movf	223,w,c
  5393   002A80  0B07               	andlw	7
  5394   002A82  6F6F               	movwf	(??_gpio_pin_write_logic+3)& (0+255),b
  5395   002A84  516F               	movf	(??_gpio_pin_write_logic+3)& (0+255),w,b
  5396   002A86  0D02               	mullw	2
  5397   002A88  0EBA               	movlw	low _lat_registers
  5398   002A8A  24F3               	addwf	243,w,c
  5399   002A8C  6ED9               	movwf	fsr2l,c
  5400   002A8E  0E01               	movlw	high _lat_registers
  5401   002A90  20F4               	addwfc	prodh,w,c
  5402   002A92  6EDA               	movwf	fsr2h,c
  5403   002A94  CFDE F170          	movff	postinc2,??_gpio_pin_write_logic+4
  5404   002A98  CFDD F171          	movff	postdec2,??_gpio_pin_write_logic+5
  5405   002A9C  C170  FFD9         	movff	??_gpio_pin_write_logic+4,fsr2l
  5406   002AA0  C171  FFDA         	movff	??_gpio_pin_write_logic+5,fsr2h
  5407   002AA4  516E               	movf	(??_gpio_pin_write_logic+2)& (0+255),w,b
  5408   002AA6  16DF               	andwf	indf2,f,c
  5409                           
  5410                           ;MCAL_Layer/GPIO/hal_gpio.c: 106:                 break;
  5411   002AA8  EF6B  F015         	goto	l6911
  5412   002AAC                     l6909:
  5413                           
  5414                           ; BSR set to: 1
  5415   002AAC  516B               	movf	gpio_pin_write_logic@logic& (0+255),w,b
  5416   002AAE  6F6C               	movwf	??_gpio_pin_write_logic& (0+255),b
  5417   002AB0  6B6D               	clrf	(??_gpio_pin_write_logic+1)& (0+255),b
  5418                           
  5419                           ; Switch on 2 bytes has been partitioned into a top level switch of size 1, and 1 sub-sw
      +                          itches
  5420                           ; Switch size 1, requested type "simple"
  5421                           ; Number of cases is 1, Range of values is 0 to 0
  5422                           ; switch strategies available:
  5423                           ; Name         Instructions Cycles
  5424                           ; simple_byte            4     3 (average)
  5425                           ;	Chosen strategy is simple_byte
  5426   002AB2  516D               	movf	(??_gpio_pin_write_logic+1)& (0+255),w,b
  5427   002AB4  0A00               	xorlw	0	; case 0
  5428   002AB6  B4D8               	btfsc	status,2,c
  5429   002AB8  EF60  F015         	goto	l12173
  5430   002ABC  EFF1  F014         	goto	l6901
  5431   002AC0                     l12173:
  5432                           
  5433                           ; BSR set to: 1
  5434                           ; Switch size 1, requested type "simple"
  5435                           ; Number of cases is 2, Range of values is 0 to 1
  5436                           ; switch strategies available:
  5437                           ; Name         Instructions Cycles
  5438                           ; simple_byte            7     4 (average)
  5439                           ;	Chosen strategy is simple_byte
  5440   002AC0  516C               	movf	??_gpio_pin_write_logic& (0+255),w,b
  5441   002AC2  0A00               	xorlw	0	; case 0
  5442   002AC4  B4D8               	btfsc	status,2,c
  5443   002AC6  EF24  F015         	goto	l6905
  5444   002ACA  0A01               	xorlw	1	; case 1
  5445   002ACC  B4D8               	btfsc	status,2,c
  5446   002ACE  EFF5  F014         	goto	l6903
  5447   002AD2  EFF1  F014         	goto	l6901
  5448   002AD6                     l6911:
  5449                           
  5450                           ; BSR set to: 1
  5451                           ;MCAL_Layer/GPIO/hal_gpio.c: 110:     return ret;
  5452   002AD6  5172               	movf	gpio_pin_write_logic@ret& (0+255),w,b
  5453   002AD8                     
  5454                           ; BSR set to: 1
  5455   002AD8  0012               	return		;funcret
  5456   002ADA                     __end_of_gpio_pin_write_logic:
  5457                           	callstack 0
  5458                           
  5459 ;; *************** function _gpio_pin_direction_initialize *****************
  5460 ;; Defined at:
  5461 ;;		line 44 in file "MCAL_Layer/GPIO/hal_gpio.c"
  5462 ;; Parameters:    Size  Location     Type
  5463 ;;  pin_config      2    0[BANK1 ] PTR const struct .
  5464 ;;		 -> lcd1.lcd_data(4), lcd1(6), relay_initialize@pin_obj(1), led_initialize@pin_obj(1), 
  5465 ;; Auto vars:     Size  Location     Type
  5466 ;;  ret             1    8[BANK1 ] unsigned char 
  5467 ;; Return value:  Size  Location     Type
  5468 ;;                  1    wreg      unsigned char 
  5469 ;; Registers used:
  5470 ;;		wreg, fsr2l, fsr2h, status,2, status,0, prodl, prodh
  5471 ;; Tracked objects:
  5472 ;;		On entry : 0/0
  5473 ;;		On exit  : 0/0
  5474 ;;		Unchanged: 0/0
  5475 ;; Data sizes:     COMRAM   BANK0   BANK1   BANK2   BANK3   BANK4   BANK5   BANK6   BANK7   BANK8   BANK9  BANK10  BANK1
      +1  BANK12  BANK13  BANK14  BANK15
  5476 ;;      Params:         0       0       2       0       0       0       0       0       0       0       0       0       
      +0       0       0       0       0
  5477 ;;      Locals:         0       0       1       0       0       0       0       0       0       0       0       0       
      +0       0       0       0       0
  5478 ;;      Temps:          0       0       6       0       0       0       0       0       0       0       0       0       
      +0       0       0       0       0
  5479 ;;      Totals:         0       0       9       0       0       0       0       0       0       0       0       0       
      +0       0       0       0       0
  5480 ;;Total ram usage:        9 bytes
  5481 ;; Hardware stack levels used: 1
  5482 ;; Hardware stack levels required when called: 24
  5483 ;; This function calls:
  5484 ;;		Nothing
  5485 ;; This function is called by:
  5486 ;;		_gpio_pin_initialize
  5487 ;;		_button_initialize
  5488 ;;		_keypad_initialize
  5489 ;;		_Interrupt_INTx_Pin_Init
  5490 ;;		_Interrupt_RBx_Pin_Init
  5491 ;; This function uses a non-reentrant model
  5492 ;;
  5493                           
  5494                           	psect	text18
  5495   002822                     __ptext18:
  5496                           	callstack 0
  5497   002822                     _gpio_pin_direction_initialize:
  5498                           	callstack 3
  5499   002822                     
  5500                           ;MCAL_Layer/GPIO/hal_gpio.c: 45:     Std_ReturnType ret=(Std_ReturnType)0x01;
  5501   002822  0E01               	movlw	1
  5502   002824  0101               	movlb	1	; () banked
  5503   002826  6F71               	movwf	gpio_pin_direction_initialize@ret& (0+255),b
  5504   002828                     
  5505                           ; BSR set to: 1
  5506                           ;MCAL_Layer/GPIO/hal_gpio.c: 46:     if((pin_config==((void*)0))||(pin_config->pin>8 -1)
      +                          ||(pin_config->port>5 -1)){
  5507   002828  5169               	movf	gpio_pin_direction_initialize@pin_config& (0+255),w,b
  5508   00282A  116A               	iorwf	(gpio_pin_direction_initialize@pin_config+1)& (0+255),w,b
  5509   00282C  B4D8               	btfsc	status,2,c
  5510   00282E  EF1B  F014         	goto	u7281
  5511   002832  EF1D  F014         	goto	u7280
  5512   002836                     u7281:
  5513   002836  EF3D  F014         	goto	l7429
  5514   00283A                     u7280:
  5515   00283A                     
  5516                           ; BSR set to: 1
  5517   00283A  C169  FFD9         	movff	gpio_pin_direction_initialize@pin_config,fsr2l
  5518   00283E  C16A  FFDA         	movff	gpio_pin_direction_initialize@pin_config+1,fsr2h
  5519   002842  30DF               	rrcf	223,w,c
  5520   002844  32E8               	rrcf	wreg,f,c
  5521   002846  32E8               	rrcf	wreg,f,c
  5522   002848  0B07               	andlw	7
  5523   00284A  6F6B               	movwf	??_gpio_pin_direction_initialize& (0+255),b
  5524   00284C  0E08               	movlw	8
  5525   00284E  616B               	cpfslt	??_gpio_pin_direction_initialize& (0+255),b
  5526   002850  EF2C  F014         	goto	u7291
  5527   002854  EF2E  F014         	goto	u7290
  5528   002858                     u7291:
  5529   002858  EF3D  F014         	goto	l7429
  5530   00285C                     u7290:
  5531   00285C                     
  5532                           ; BSR set to: 1
  5533   00285C  C169  FFD9         	movff	gpio_pin_direction_initialize@pin_config,fsr2l
  5534   002860  C16A  FFDA         	movff	gpio_pin_direction_initialize@pin_config+1,fsr2h
  5535   002864  50DF               	movf	223,w,c
  5536   002866  0B07               	andlw	7
  5537   002868  6F6B               	movwf	??_gpio_pin_direction_initialize& (0+255),b
  5538   00286A  0E04               	movlw	4
  5539   00286C  656B               	cpfsgt	??_gpio_pin_direction_initialize& (0+255),b
  5540   00286E  EF3B  F014         	goto	u7301
  5541   002872  EF3D  F014         	goto	u7300
  5542   002876                     u7301:
  5543   002876  EFA2  F014         	goto	l7437
  5544   00287A                     u7300:
  5545   00287A                     l7429:
  5546                           
  5547                           ; BSR set to: 1
  5548                           ;MCAL_Layer/GPIO/hal_gpio.c: 47:         ret=(Std_ReturnType)0x00;
  5549   00287A  0E00               	movlw	0
  5550   00287C  6F71               	movwf	gpio_pin_direction_initialize@ret& (0+255),b
  5551                           
  5552                           ;MCAL_Layer/GPIO/hal_gpio.c: 48:     }
  5553   00287E  EFC3  F014         	goto	l7439
  5554   002882                     l7431:
  5555                           
  5556                           ; BSR set to: 1
  5557                           ;MCAL_Layer/GPIO/hal_gpio.c: 52:                 (*tris_registers[pin_config->port]&=~((
      +                          uint8)0x01<<pin_config->pin));
  5558   002882  C169  FFD9         	movff	gpio_pin_direction_initialize@pin_config,fsr2l
  5559   002886  C16A  FFDA         	movff	gpio_pin_direction_initialize@pin_config+1,fsr2h
  5560   00288A  30DF               	rrcf	223,w,c
  5561   00288C  32E8               	rrcf	wreg,f,c
  5562   00288E  32E8               	rrcf	wreg,f,c
  5563   002890  0B07               	andlw	7
  5564   002892  6F6B               	movwf	??_gpio_pin_direction_initialize& (0+255),b
  5565   002894  0E01               	movlw	1
  5566   002896  6F6C               	movwf	(??_gpio_pin_direction_initialize+1)& (0+255),b
  5567   002898  2B6B               	incf	??_gpio_pin_direction_initialize& (0+255),f,b
  5568   00289A  EF51  F014         	goto	u7314
  5569   00289E                     u7315:
  5570   00289E  90D8               	bcf	status,0,c
  5571   0028A0  376C               	rlcf	(??_gpio_pin_direction_initialize+1)& (0+255),f,b
  5572   0028A2                     u7314:
  5573   0028A2  2F6B               	decfsz	??_gpio_pin_direction_initialize& (0+255),f,b
  5574   0028A4  EF4F  F014         	goto	u7315
  5575   0028A8  0101               	movlb	1	; () banked
  5576   0028AA  516C               	movf	(??_gpio_pin_direction_initialize+1)& (0+255),w,b
  5577   0028AC  0AFF               	xorlw	255
  5578   0028AE  6F6D               	movwf	(??_gpio_pin_direction_initialize+2)& (0+255),b
  5579   0028B0  C169  FFD9         	movff	gpio_pin_direction_initialize@pin_config,fsr2l
  5580   0028B4  C16A  FFDA         	movff	gpio_pin_direction_initialize@pin_config+1,fsr2h
  5581   0028B8  50DF               	movf	223,w,c
  5582   0028BA  0B07               	andlw	7
  5583   0028BC  6F6E               	movwf	(??_gpio_pin_direction_initialize+3)& (0+255),b
  5584   0028BE  516E               	movf	(??_gpio_pin_direction_initialize+3)& (0+255),w,b
  5585   0028C0  0D02               	mullw	2
  5586   0028C2  0EC4               	movlw	low _tris_registers
  5587   0028C4  24F3               	addwf	243,w,c
  5588   0028C6  6ED9               	movwf	fsr2l,c
  5589   0028C8  0E01               	movlw	high _tris_registers
  5590   0028CA  20F4               	addwfc	prodh,w,c
  5591   0028CC  6EDA               	movwf	fsr2h,c
  5592   0028CE  CFDE F16F          	movff	postinc2,??_gpio_pin_direction_initialize+4
  5593   0028D2  CFDD F170          	movff	postdec2,??_gpio_pin_direction_initialize+5
  5594   0028D6  C16F  FFD9         	movff	??_gpio_pin_direction_initialize+4,fsr2l
  5595   0028DA  C170  FFDA         	movff	??_gpio_pin_direction_initialize+5,fsr2h
  5596   0028DE  516D               	movf	(??_gpio_pin_direction_initialize+2)& (0+255),w,b
  5597   0028E0  16DF               	andwf	indf2,f,c
  5598                           
  5599                           ;MCAL_Layer/GPIO/hal_gpio.c: 53:                 break;
  5600   0028E2  EFC3  F014         	goto	l7439
  5601   0028E6                     l7433:
  5602                           
  5603                           ; BSR set to: 1
  5604                           ;MCAL_Layer/GPIO/hal_gpio.c: 55:                 (*tris_registers[pin_config->port]|=((u
      +                          int8)0x01<<pin_config->pin));
  5605   0028E6  C169  FFD9         	movff	gpio_pin_direction_initialize@pin_config,fsr2l
  5606   0028EA  C16A  FFDA         	movff	gpio_pin_direction_initialize@pin_config+1,fsr2h
  5607   0028EE  30DF               	rrcf	223,w,c
  5608   0028F0  32E8               	rrcf	wreg,f,c
  5609   0028F2  32E8               	rrcf	wreg,f,c
  5610   0028F4  0B07               	andlw	7
  5611   0028F6  6F6B               	movwf	??_gpio_pin_direction_initialize& (0+255),b
  5612   0028F8  0E01               	movlw	1
  5613   0028FA  6F6C               	movwf	(??_gpio_pin_direction_initialize+1)& (0+255),b
  5614   0028FC  2B6B               	incf	??_gpio_pin_direction_initialize& (0+255),f,b
  5615   0028FE  EF83  F014         	goto	u7324
  5616   002902                     u7325:
  5617   002902  90D8               	bcf	status,0,c
  5618   002904  376C               	rlcf	(??_gpio_pin_direction_initialize+1)& (0+255),f,b
  5619   002906                     u7324:
  5620   002906  2F6B               	decfsz	??_gpio_pin_direction_initialize& (0+255),f,b
  5621   002908  EF81  F014         	goto	u7325
  5622   00290C  C169  FFD9         	movff	gpio_pin_direction_initialize@pin_config,fsr2l
  5623   002910  C16A  FFDA         	movff	gpio_pin_direction_initialize@pin_config+1,fsr2h
  5624   002914  50DF               	movf	223,w,c
  5625   002916  0B07               	andlw	7
  5626   002918  0101               	movlb	1	; () banked
  5627   00291A  6F6D               	movwf	(??_gpio_pin_direction_initialize+2)& (0+255),b
  5628   00291C  516D               	movf	(??_gpio_pin_direction_initialize+2)& (0+255),w,b
  5629   00291E  0D02               	mullw	2
  5630   002920  0EC4               	movlw	low _tris_registers
  5631   002922  24F3               	addwf	243,w,c
  5632   002924  6ED9               	movwf	fsr2l,c
  5633   002926  0E01               	movlw	high _tris_registers
  5634   002928  20F4               	addwfc	prodh,w,c
  5635   00292A  6EDA               	movwf	fsr2h,c
  5636   00292C  CFDE F16E          	movff	postinc2,??_gpio_pin_direction_initialize+3
  5637   002930  CFDD F16F          	movff	postdec2,??_gpio_pin_direction_initialize+4
  5638   002934  C16E  FFD9         	movff	??_gpio_pin_direction_initialize+3,fsr2l
  5639   002938  C16F  FFDA         	movff	??_gpio_pin_direction_initialize+4,fsr2h
  5640   00293C  516C               	movf	(??_gpio_pin_direction_initialize+1)& (0+255),w,b
  5641   00293E  12DF               	iorwf	indf2,f,c
  5642                           
  5643                           ;MCAL_Layer/GPIO/hal_gpio.c: 56:                 break;
  5644   002940  EFC3  F014         	goto	l7439
  5645   002944                     l7437:
  5646                           
  5647                           ; BSR set to: 1
  5648   002944  C169  FFD9         	movff	gpio_pin_direction_initialize@pin_config,fsr2l
  5649   002948  C16A  FFDA         	movff	gpio_pin_direction_initialize@pin_config+1,fsr2h
  5650   00294C  BCDF               	btfsc	indf2,6,c
  5651   00294E  EFAB  F014         	goto	u7331
  5652   002952  EFAE  F014         	goto	u7330
  5653   002956                     u7331:
  5654   002956  0E01               	movlw	1
  5655   002958  EFAF  F014         	goto	u7340
  5656   00295C                     u7330:
  5657   00295C  0E00               	movlw	0
  5658   00295E                     u7340:
  5659   00295E  6F6B               	movwf	??_gpio_pin_direction_initialize& (0+255),b
  5660   002960  6B6C               	clrf	(??_gpio_pin_direction_initialize+1)& (0+255),b
  5661                           
  5662                           ; Switch on 2 bytes has been partitioned into a top level switch of size 1, and 1 sub-sw
      +                          itches
  5663                           ; Switch size 1, requested type "simple"
  5664                           ; Number of cases is 1, Range of values is 0 to 0
  5665                           ; switch strategies available:
  5666                           ; Name         Instructions Cycles
  5667                           ; simple_byte            4     3 (average)
  5668                           ;	Chosen strategy is simple_byte
  5669   002962  516C               	movf	(??_gpio_pin_direction_initialize+1)& (0+255),w,b
  5670   002964  0A00               	xorlw	0	; case 0
  5671   002966  B4D8               	btfsc	status,2,c
  5672   002968  EFB8  F014         	goto	l12175
  5673   00296C  EF3D  F014         	goto	l7429
  5674   002970                     l12175:
  5675                           
  5676                           ; BSR set to: 1
  5677                           ; Switch size 1, requested type "simple"
  5678                           ; Number of cases is 2, Range of values is 0 to 1
  5679                           ; switch strategies available:
  5680                           ; Name         Instructions Cycles
  5681                           ; simple_byte            7     4 (average)
  5682                           ;	Chosen strategy is simple_byte
  5683   002970  516B               	movf	??_gpio_pin_direction_initialize& (0+255),w,b
  5684   002972  0A00               	xorlw	0	; case 0
  5685   002974  B4D8               	btfsc	status,2,c
  5686   002976  EF41  F014         	goto	l7431
  5687   00297A  0A01               	xorlw	1	; case 1
  5688   00297C  B4D8               	btfsc	status,2,c
  5689   00297E  EF73  F014         	goto	l7433
  5690   002982  EF3D  F014         	goto	l7429
  5691   002986                     l7439:
  5692                           
  5693                           ; BSR set to: 1
  5694                           ;MCAL_Layer/GPIO/hal_gpio.c: 61:     return ret;
  5695   002986  5171               	movf	gpio_pin_direction_initialize@ret& (0+255),w,b
  5696   002988                     
  5697                           ; BSR set to: 1
  5698   002988  0012               	return		;funcret
  5699   00298A                     __end_of_gpio_pin_direction_initialize:
  5700                           	callstack 0
  5701                           
  5702 ;; *************** function _InterruptManagerLow *****************
  5703 ;; Defined at:
  5704 ;;		line 73 in file "MCAL_Layer/Interrupt/mcal_interrupt_manager.c"
  5705 ;; Parameters:    Size  Location     Type
  5706 ;;		None
  5707 ;; Auto vars:     Size  Location     Type
  5708 ;;		None
  5709 ;; Return value:  Size  Location     Type
  5710 ;;                  1    wreg      void 
  5711 ;; Registers used:
  5712 ;;		wreg, fsr1l, fsr1h, fsr2l, fsr2h, status,2, status,0, pcl, pclath, pclatu, tosl, tblptrl, tblptrh, tblptru, prodl, p
      +rodh, cstack
  5713 ;; Tracked objects:
  5714 ;;		On entry : 0/0
  5715 ;;		On exit  : 0/0
  5716 ;;		Unchanged: 0/0
  5717 ;; Data sizes:     COMRAM   BANK0   BANK1   BANK2   BANK3   BANK4   BANK5   BANK6   BANK7   BANK8   BANK9  BANK10  BANK1
      +1  BANK12  BANK13  BANK14  BANK15
  5718 ;;      Params:         0       0       0       0       0       0       0       0       0       0       0       0       
      +0       0       0       0       0
  5719 ;;      Locals:         0       0       0       0       0       0       0       0       0       0       0       0       
      +0       0       0       0       0
  5720 ;;      Temps:          0      15       0       0       0       0       0       0       0       0       0       0       
      +0       0       0       0       0
  5721 ;;      Totals:         0      15       0       0       0       0       0       0       0       0       0       0       
      +0       0       0       0       0
  5722 ;;Total ram usage:       15 bytes
  5723 ;; Hardware stack levels used: 1
  5724 ;; Hardware stack levels required when called: 23
  5725 ;; This function calls:
  5726 ;;		_ADC_ISR
  5727 ;;		_CCP1_ISR
  5728 ;;		_CCP2_ISR
  5729 ;;		_EUSART_RX_ISR
  5730 ;;		_EUSART_TX_ISR
  5731 ;;		_INT1_ISR
  5732 ;;		_INT2_ISR
  5733 ;;		_RB4_ISR
  5734 ;;		_RB5_ISR
  5735 ;;		_RB6_ISR
  5736 ;;		_RB7_ISR
  5737 ;;		_TMR0_ISR
  5738 ;;		_TMR1_ISR
  5739 ;;		_TMR2_ISR
  5740 ;;		_TMR3_ISR
  5741 ;; This function is called by:
  5742 ;;		Interrupt level 1
  5743 ;; This function uses a non-reentrant model
  5744 ;;
  5745                           
  5746                           	psect	intcodelo
  5747   000018                     __pintcodelo:
  5748                           	callstack 0
  5749   000018                     _InterruptManagerLow:
  5750                           	callstack 2
  5751                           
  5752                           ; BSR set to: 1
  5753                           ;incstack = 0
  5754   000018  807F               	bsf	int$flags,0,c	;set compiler interrupt flag (level 1)
  5755   00001A  CFD8 F0E0          	movff	status,??_InterruptManagerLow
  5756   00001E  CFE8 F0E1          	movff	wreg,??_InterruptManagerLow+1
  5757   000022  CFE0 F0E2          	movff	bsr,??_InterruptManagerLow+2
  5758   000026  CFFA F0E3          	movff	pclath,??_InterruptManagerLow+3
  5759   00002A  CFFB F0E4          	movff	pclatu,??_InterruptManagerLow+4
  5760   00002E  CFE1 F0E5          	movff	fsr1l,??_InterruptManagerLow+5
  5761   000032  CFE2 F0E6          	movff	fsr1h,??_InterruptManagerLow+6
  5762   000036  CFD9 F0E7          	movff	fsr2l,??_InterruptManagerLow+7
  5763   00003A  CFDA F0E8          	movff	fsr2h,??_InterruptManagerLow+8
  5764   00003E  CFF3 F0E9          	movff	prodl,??_InterruptManagerLow+9
  5765   000042  CFF4 F0EA          	movff	prodh,??_InterruptManagerLow+10
  5766   000046  CFF6 F0EB          	movff	tblptrl,??_InterruptManagerLow+11
  5767   00004A  CFF7 F0EC          	movff	tblptrh,??_InterruptManagerLow+12
  5768   00004E  CFF8 F0ED          	movff	tblptru,??_InterruptManagerLow+13
  5769   000052  CFF5 F0EE          	movff	tablat,??_InterruptManagerLow+14
  5770   000056                     
  5771                           ;MCAL_Layer/Interrupt/mcal_interrupt_manager.c: 74:       if((0 == (*((volatile INTCON3_
      +                          t *)(0xFF0))).INT1IP)&&(1 == (*((volatile INTCON3_t *)(0xFF0))).INT1IF)){
  5772   000056  BCF0               	btfsc	240,6,c	;volatile
  5773   000058  EF30  F000         	goto	i1u1461_21
  5774   00005C  EF32  F000         	goto	i1u1461_20
  5775   000060                     i1u1461_21:
  5776   000060  EF3B  F000         	goto	i1l1169
  5777   000064                     i1u1461_20:
  5778   000064  A0F0               	btfss	240,0,c	;volatile
  5779   000066  EF37  F000         	goto	i1u1462_21
  5780   00006A  EF39  F000         	goto	i1u1462_20
  5781   00006E                     i1u1462_21:
  5782   00006E  EF3B  F000         	goto	i1l1169
  5783   000072                     i1u1462_20:
  5784   000072                     
  5785                           ;MCAL_Layer/Interrupt/mcal_interrupt_manager.c: 75:         INT1_ISR();
  5786   000072  ECDA  F023         	call	_INT1_ISR	;wreg free
  5787   000076                     i1l1169:
  5788                           
  5789                           ;MCAL_Layer/Interrupt/mcal_interrupt_manager.c: 78:     if((0 == (*((volatile INTCON3_t 
      +                          *)(0xFF0))).INT2IP)&&(1 == (*((volatile INTCON3_t *)(0xFF0))).INT2IF)){
  5790   000076  BEF0               	btfsc	240,7,c	;volatile
  5791   000078  EF40  F000         	goto	i1u1463_21
  5792   00007C  EF42  F000         	goto	i1u1463_20
  5793   000080                     i1u1463_21:
  5794   000080  EF4B  F000         	goto	i1l1171
  5795   000084                     i1u1463_20:
  5796   000084  A2F0               	btfss	240,1,c	;volatile
  5797   000086  EF47  F000         	goto	i1u1464_21
  5798   00008A  EF49  F000         	goto	i1u1464_20
  5799   00008E                     i1u1464_21:
  5800   00008E  EF4B  F000         	goto	i1l1171
  5801   000092                     i1u1464_20:
  5802   000092                     
  5803                           ;MCAL_Layer/Interrupt/mcal_interrupt_manager.c: 79:         INT2_ISR();
  5804   000092  ECD8  F023         	call	_INT2_ISR	;wreg free
  5805   000096                     i1l1171:
  5806                           
  5807                           ;MCAL_Layer/Interrupt/mcal_interrupt_manager.c: 82:      if((0 == (*((volatile INTCON2_t
      +                           *)(0xFF1))).RBIP)&&(1 == (*((volatile INTCON_t *)(0xFF2))).RBIF) && (((((*((volatile ui
      +                          nt8*)(0xF81)))>>4)&((uint8)0x01)))!=RB4_pin_init_value)){
  5808   000096  B0F1               	btfsc	241,0,c	;volatile
  5809   000098  EF50  F000         	goto	i1u1465_21
  5810   00009C  EF52  F000         	goto	i1u1465_20
  5811   0000A0                     i1u1465_21:
  5812   0000A0  EF68  F000         	goto	i1l1173
  5813   0000A4                     i1u1465_20:
  5814   0000A4  A0F2               	btfss	242,0,c	;volatile
  5815   0000A6  EF57  F000         	goto	i1u1466_21
  5816   0000AA  EF59  F000         	goto	i1u1466_20
  5817   0000AE                     i1u1466_21:
  5818   0000AE  EF68  F000         	goto	i1l1173
  5819   0000B2                     i1u1466_20:
  5820   0000B2  3881               	swapf	129,w,c	;volatile
  5821   0000B4  0B0F               	andlw	15
  5822   0000B6  0B01               	andlw	1
  5823   0000B8  1876               	xorwf	_RB4_pin_init_value^0,w,c	;volatile
  5824   0000BA  B4D8               	btfsc	status,2,c
  5825   0000BC  EF62  F000         	goto	i1u1467_21
  5826   0000C0  EF64  F000         	goto	i1u1467_20
  5827   0000C4                     i1u1467_21:
  5828   0000C4  EF68  F000         	goto	i1l1173
  5829   0000C8                     i1u1467_20:
  5830   0000C8                     
  5831                           ;MCAL_Layer/Interrupt/mcal_interrupt_manager.c: 83:         RB4_pin_init_value^=1;
  5832   0000C8  0E01               	movlw	1
  5833   0000CA  1A76               	xorwf	_RB4_pin_init_value^0,f,c	;volatile
  5834   0000CC                     
  5835                           ;MCAL_Layer/Interrupt/mcal_interrupt_manager.c: 84:         RB4_ISR();
  5836   0000CC  ECD6  F023         	call	_RB4_ISR	;wreg free
  5837   0000D0                     i1l1173:
  5838                           
  5839                           ;MCAL_Layer/Interrupt/mcal_interrupt_manager.c: 87:        if((0 == (*((volatile INTCON2
      +                          _t *)(0xFF1))).RBIP)&&(1 == (*((volatile INTCON_t *)(0xFF2))).RBIF) && (((((*((volatile 
      +                          uint8*)(0xF81)))>>5)&((uint8)0x01)))!=RB5_pin_init_value)){
  5840   0000D0  B0F1               	btfsc	241,0,c	;volatile
  5841   0000D2  EF6D  F000         	goto	i1u1468_21
  5842   0000D6  EF6F  F000         	goto	i1u1468_20
  5843   0000DA                     i1u1468_21:
  5844   0000DA  EF86  F000         	goto	i1l1175
  5845   0000DE                     i1u1468_20:
  5846   0000DE  A0F2               	btfss	242,0,c	;volatile
  5847   0000E0  EF74  F000         	goto	i1u1469_21
  5848   0000E4  EF76  F000         	goto	i1u1469_20
  5849   0000E8                     i1u1469_21:
  5850   0000E8  EF86  F000         	goto	i1l1175
  5851   0000EC                     i1u1469_20:
  5852   0000EC  3881               	swapf	129,w,c	;volatile
  5853   0000EE  42E8               	rrncf	wreg,f,c
  5854   0000F0  0B07               	andlw	7
  5855   0000F2  0B01               	andlw	1
  5856   0000F4  1875               	xorwf	_RB5_pin_init_value^0,w,c	;volatile
  5857   0000F6  B4D8               	btfsc	status,2,c
  5858   0000F8  EF80  F000         	goto	i1u1470_21
  5859   0000FC  EF82  F000         	goto	i1u1470_20
  5860   000100                     i1u1470_21:
  5861   000100  EF86  F000         	goto	i1l1175
  5862   000104                     i1u1470_20:
  5863   000104                     
  5864                           ;MCAL_Layer/Interrupt/mcal_interrupt_manager.c: 88:         RB5_pin_init_value^=1;
  5865   000104  0E01               	movlw	1
  5866   000106  1A75               	xorwf	_RB5_pin_init_value^0,f,c	;volatile
  5867   000108                     
  5868                           ;MCAL_Layer/Interrupt/mcal_interrupt_manager.c: 89:         RB5_ISR();
  5869   000108  ECD4  F023         	call	_RB5_ISR	;wreg free
  5870   00010C                     i1l1175:
  5871                           
  5872                           ;MCAL_Layer/Interrupt/mcal_interrupt_manager.c: 92:        if((0 == (*((volatile INTCON2
      +                          _t *)(0xFF1))).RBIP)&&(1 == (*((volatile INTCON_t *)(0xFF2))).RBIF) && (((((*((volatile 
      +                          uint8*)(0xF81)))>>6)&((uint8)0x01)))!=RB6_pin_init_value)){
  5873   00010C  B0F1               	btfsc	241,0,c	;volatile
  5874   00010E  EF8B  F000         	goto	i1u1471_21
  5875   000112  EF8D  F000         	goto	i1u1471_20
  5876   000116                     i1u1471_21:
  5877   000116  EFA4  F000         	goto	i1l1177
  5878   00011A                     i1u1471_20:
  5879   00011A  A0F2               	btfss	242,0,c	;volatile
  5880   00011C  EF92  F000         	goto	i1u1472_21
  5881   000120  EF94  F000         	goto	i1u1472_20
  5882   000124                     i1u1472_21:
  5883   000124  EFA4  F000         	goto	i1l1177
  5884   000128                     i1u1472_20:
  5885   000128  4481               	rlncf	129,w,c	;volatile
  5886   00012A  46E8               	rlncf	wreg,f,c
  5887   00012C  0B03               	andlw	3
  5888   00012E  0B01               	andlw	1
  5889   000130  1874               	xorwf	_RB6_pin_init_value^0,w,c	;volatile
  5890   000132  B4D8               	btfsc	status,2,c
  5891   000134  EF9E  F000         	goto	i1u1473_21
  5892   000138  EFA0  F000         	goto	i1u1473_20
  5893   00013C                     i1u1473_21:
  5894   00013C  EFA4  F000         	goto	i1l1177
  5895   000140                     i1u1473_20:
  5896   000140                     
  5897                           ;MCAL_Layer/Interrupt/mcal_interrupt_manager.c: 93:         RB6_pin_init_value^=1;
  5898   000140  0E01               	movlw	1
  5899   000142  1A74               	xorwf	_RB6_pin_init_value^0,f,c	;volatile
  5900   000144                     
  5901                           ;MCAL_Layer/Interrupt/mcal_interrupt_manager.c: 94:         RB6_ISR();
  5902   000144  ECD2  F023         	call	_RB6_ISR	;wreg free
  5903   000148                     i1l1177:
  5904                           
  5905                           ;MCAL_Layer/Interrupt/mcal_interrupt_manager.c: 97:        if((0 == (*((volatile INTCON2
      +                          _t *)(0xFF1))).RBIP)&&(1 == (*((volatile INTCON_t *)(0xFF2))).RBIF) && (((((*((volatile 
      +                          uint8*)(0xF81)))>>7)&((uint8)0x01)))!=RB7_pin_init_value)){
  5906   000148  B0F1               	btfsc	241,0,c	;volatile
  5907   00014A  EFA9  F000         	goto	i1u1474_21
  5908   00014E  EFAB  F000         	goto	i1u1474_20
  5909   000152                     i1u1474_21:
  5910   000152  EFC0  F000         	goto	i1l1179
  5911   000156                     i1u1474_20:
  5912   000156  A0F2               	btfss	242,0,c	;volatile
  5913   000158  EFB0  F000         	goto	i1u1475_21
  5914   00015C  EFB2  F000         	goto	i1u1475_20
  5915   000160                     i1u1475_21:
  5916   000160  EFC0  F000         	goto	i1l1179
  5917   000164                     i1u1475_20:
  5918   000164  4481               	rlncf	129,w,c	;volatile
  5919   000166  0B01               	andlw	1
  5920   000168  1873               	xorwf	_RB7_pin_init_value^0,w,c	;volatile
  5921   00016A  B4D8               	btfsc	status,2,c
  5922   00016C  EFBA  F000         	goto	i1u1476_21
  5923   000170  EFBC  F000         	goto	i1u1476_20
  5924   000174                     i1u1476_21:
  5925   000174  EFC0  F000         	goto	i1l1179
  5926   000178                     i1u1476_20:
  5927   000178                     
  5928                           ;MCAL_Layer/Interrupt/mcal_interrupt_manager.c: 98:         RB7_pin_init_value^=1;
  5929   000178  0E01               	movlw	1
  5930   00017A  1A73               	xorwf	_RB7_pin_init_value^0,f,c	;volatile
  5931   00017C                     
  5932                           ;MCAL_Layer/Interrupt/mcal_interrupt_manager.c: 99:         RB7_ISR();
  5933   00017C  ECD0  F023         	call	_RB7_ISR	;wreg free
  5934   000180                     i1l1179:
  5935                           
  5936                           ;MCAL_Layer/Interrupt/mcal_interrupt_manager.c: 102:      if((0 == (*((volatile IPR1_t *
      +                          )(0xF9F))).ADIP)&&(1 == (*((volatile PIR1_t *)(0xF9E))).ADIF)){
  5937   000180  BC9F               	btfsc	159,6,c	;volatile
  5938   000182  EFC5  F000         	goto	i1u1477_21
  5939   000186  EFC7  F000         	goto	i1u1477_20
  5940   00018A                     i1u1477_21:
  5941   00018A  EFD0  F000         	goto	i1l1181
  5942   00018E                     i1u1477_20:
  5943   00018E  AC9E               	btfss	158,6,c	;volatile
  5944   000190  EFCC  F000         	goto	i1u1478_21
  5945   000194  EFCE  F000         	goto	i1u1478_20
  5946   000198                     i1u1478_21:
  5947   000198  EFD0  F000         	goto	i1l1181
  5948   00019C                     i1u1478_20:
  5949   00019C                     
  5950                           ;MCAL_Layer/Interrupt/mcal_interrupt_manager.c: 103:         ADC_ISR();
  5951   00019C  ECE0  F023         	call	_ADC_ISR	;wreg free
  5952   0001A0                     i1l1181:
  5953                           
  5954                           ;MCAL_Layer/Interrupt/mcal_interrupt_manager.c: 106:     if((0 == (*((volatile INTCON2_t
      +                           *)(0xFF1))).TMR0IP)&&(1 == (*((volatile INTCON_t *)(0xFF2))).TMR0IF)){
  5955   0001A0  B4F1               	btfsc	241,2,c	;volatile
  5956   0001A2  EFD5  F000         	goto	i1u1479_21
  5957   0001A6  EFD7  F000         	goto	i1u1479_20
  5958   0001AA                     i1u1479_21:
  5959   0001AA  EFE0  F000         	goto	i1l1183
  5960   0001AE                     i1u1479_20:
  5961   0001AE  A4F2               	btfss	242,2,c	;volatile
  5962   0001B0  EFDC  F000         	goto	i1u1480_21
  5963   0001B4  EFDE  F000         	goto	i1u1480_20
  5964   0001B8                     i1u1480_21:
  5965   0001B8  EFE0  F000         	goto	i1l1183
  5966   0001BC                     i1u1480_20:
  5967   0001BC                     
  5968                           ;MCAL_Layer/Interrupt/mcal_interrupt_manager.c: 107:         TMR0_ISR();
  5969   0001BC  ECAF  F023         	call	_TMR0_ISR	;wreg free
  5970   0001C0                     i1l1183:
  5971                           
  5972                           ;MCAL_Layer/Interrupt/mcal_interrupt_manager.c: 110:     if((0 == (*((volatile IPR1_t *)
      +                          (0xF9F))).TMR1IP)&&(1 == (*((volatile PIR1_t *)(0xF9E))).TMR1IF)){
  5973   0001C0  B09F               	btfsc	159,0,c	;volatile
  5974   0001C2  EFE5  F000         	goto	i1u1481_21
  5975   0001C6  EFE7  F000         	goto	i1u1481_20
  5976   0001CA                     i1u1481_21:
  5977   0001CA  EFF0  F000         	goto	i1l1185
  5978   0001CE                     i1u1481_20:
  5979   0001CE  A09E               	btfss	158,0,c	;volatile
  5980   0001D0  EFEC  F000         	goto	i1u1482_21
  5981   0001D4  EFEE  F000         	goto	i1u1482_20
  5982   0001D8                     i1u1482_21:
  5983   0001D8  EFF0  F000         	goto	i1l1185
  5984   0001DC                     i1u1482_20:
  5985   0001DC                     
  5986                           ;MCAL_Layer/Interrupt/mcal_interrupt_manager.c: 111:         TMR1_ISR();
  5987   0001DC  ECA9  F023         	call	_TMR1_ISR	;wreg free
  5988   0001E0                     i1l1185:
  5989                           
  5990                           ;MCAL_Layer/Interrupt/mcal_interrupt_manager.c: 114:       if((0 == (*((volatile IPR1_t 
      +                          *)(0xF9F))).TMR2IP)&&(1 == (*((volatile PIR1_t *)(0xF9E))).TMR2IF)){
  5991   0001E0  B29F               	btfsc	159,1,c	;volatile
  5992   0001E2  EFF5  F000         	goto	i1u1483_21
  5993   0001E6  EFF7  F000         	goto	i1u1483_20
  5994   0001EA                     i1u1483_21:
  5995   0001EA  EF00  F001         	goto	i1l1187
  5996   0001EE                     i1u1483_20:
  5997   0001EE  A29E               	btfss	158,1,c	;volatile
  5998   0001F0  EFFC  F000         	goto	i1u1484_21
  5999   0001F4  EFFE  F000         	goto	i1u1484_20
  6000   0001F8                     i1u1484_21:
  6001   0001F8  EF00  F001         	goto	i1l1187
  6002   0001FC                     i1u1484_20:
  6003   0001FC                     
  6004                           ;MCAL_Layer/Interrupt/mcal_interrupt_manager.c: 115:         TMR2_ISR();
  6005   0001FC  ECCA  F023         	call	_TMR2_ISR	;wreg free
  6006   000200                     i1l1187:
  6007                           
  6008                           ;MCAL_Layer/Interrupt/mcal_interrupt_manager.c: 118:      if((0 == (*((volatile IPR2_t *
      +                          )(0xFA2))).TMR3IP)&&(1 == (*((volatile PIR2_t *)(0xFA1))).TMR3IF)){
  6009   000200  B2A2               	btfsc	162,1,c	;volatile
  6010   000202  EF05  F001         	goto	i1u1485_21
  6011   000206  EF07  F001         	goto	i1u1485_20
  6012   00020A                     i1u1485_21:
  6013   00020A  EF10  F001         	goto	i1l1189
  6014   00020E                     i1u1485_20:
  6015   00020E  A2A1               	btfss	161,1,c	;volatile
  6016   000210  EF0C  F001         	goto	i1u1486_21
  6017   000214  EF0E  F001         	goto	i1u1486_20
  6018   000218                     i1u1486_21:
  6019   000218  EF10  F001         	goto	i1l1189
  6020   00021C                     i1u1486_20:
  6021   00021C                     
  6022                           ;MCAL_Layer/Interrupt/mcal_interrupt_manager.c: 119:         TMR3_ISR();
  6023   00021C  ECA3  F023         	call	_TMR3_ISR	;wreg free
  6024   000220                     i1l1189:
  6025                           
  6026                           ;MCAL_Layer/Interrupt/mcal_interrupt_manager.c: 122:       if((0 == (*((volatile IPR1_t 
      +                          *)(0xF9F))).CCP1IP)&&(1 == (*((volatile PIR1_t *)(0xF9E))).CCP1IF)){
  6027   000220  B49F               	btfsc	159,2,c	;volatile
  6028   000222  EF15  F001         	goto	i1u1487_21
  6029   000226  EF17  F001         	goto	i1u1487_20
  6030   00022A                     i1u1487_21:
  6031   00022A  EF20  F001         	goto	i1l1191
  6032   00022E                     i1u1487_20:
  6033   00022E  A49E               	btfss	158,2,c	;volatile
  6034   000230  EF1C  F001         	goto	i1u1488_21
  6035   000234  EF1E  F001         	goto	i1u1488_20
  6036   000238                     i1u1488_21:
  6037   000238  EF20  F001         	goto	i1l1191
  6038   00023C                     i1u1488_20:
  6039   00023C                     
  6040                           ;MCAL_Layer/Interrupt/mcal_interrupt_manager.c: 123:         CCP1_ISR();
  6041   00023C  ECDE  F023         	call	_CCP1_ISR	;wreg free
  6042   000240                     i1l1191:
  6043                           
  6044                           ;MCAL_Layer/Interrupt/mcal_interrupt_manager.c: 126:       if((0 == (*((volatile IPR2_t 
      +                          *)(0xFA2))).CCP2IP)&&(1 == (*((volatile PIR2_t *)(0xFA1))).CCP2IF)){
  6045   000240  B0A2               	btfsc	162,0,c	;volatile
  6046   000242  EF25  F001         	goto	i1u1489_21
  6047   000246  EF27  F001         	goto	i1u1489_20
  6048   00024A                     i1u1489_21:
  6049   00024A  EF30  F001         	goto	i1l1193
  6050   00024E                     i1u1489_20:
  6051   00024E  A0A1               	btfss	161,0,c	;volatile
  6052   000250  EF2C  F001         	goto	i1u1490_21
  6053   000254  EF2E  F001         	goto	i1u1490_20
  6054   000258                     i1u1490_21:
  6055   000258  EF30  F001         	goto	i1l1193
  6056   00025C                     i1u1490_20:
  6057   00025C                     
  6058                           ;MCAL_Layer/Interrupt/mcal_interrupt_manager.c: 127:         CCP2_ISR();
  6059   00025C  ECDC  F023         	call	_CCP2_ISR	;wreg free
  6060   000260                     i1l1193:
  6061                           
  6062                           ;MCAL_Layer/Interrupt/mcal_interrupt_manager.c: 130:     if((0 == (*((volatile IPR1_t *)
      +                          (0xF9F))).TXIP)&&(1 == (*((volatile PIR1_t *)(0xF9E))).TXIF)){
  6063   000260  B89F               	btfsc	159,4,c	;volatile
  6064   000262  EF35  F001         	goto	i1u1491_21
  6065   000266  EF37  F001         	goto	i1u1491_20
  6066   00026A                     i1u1491_21:
  6067   00026A  EF40  F001         	goto	i1l1195
  6068   00026E                     i1u1491_20:
  6069   00026E  A89E               	btfss	158,4,c	;volatile
  6070   000270  EF3C  F001         	goto	i1u1492_21
  6071   000274  EF3E  F001         	goto	i1u1492_20
  6072   000278                     i1u1492_21:
  6073   000278  EF40  F001         	goto	i1l1195
  6074   00027C                     i1u1492_20:
  6075   00027C                     
  6076                           ;MCAL_Layer/Interrupt/mcal_interrupt_manager.c: 131:         EUSART_TX_ISR();
  6077   00027C  EC2D  F023         	call	_EUSART_TX_ISR	;wreg free
  6078   000280                     i1l1195:
  6079                           
  6080                           ;MCAL_Layer/Interrupt/mcal_interrupt_manager.c: 134:     if((0 == (*((volatile IPR1_t *)
      +                          (0xF9F))).RCIP)&&(1 == (*((volatile PIR1_t *)(0xF9E))).RCIF)){
  6081   000280  BA9F               	btfsc	159,5,c	;volatile
  6082   000282  EF45  F001         	goto	i1u1493_21
  6083   000286  EF47  F001         	goto	i1u1493_20
  6084   00028A                     i1u1493_21:
  6085   00028A  EF50  F001         	goto	i1l1198
  6086   00028E                     i1u1493_20:
  6087   00028E  AA9E               	btfss	158,5,c	;volatile
  6088   000290  EF4C  F001         	goto	i1u1494_21
  6089   000294  EF4E  F001         	goto	i1u1494_20
  6090   000298                     i1u1494_21:
  6091   000298  EF50  F001         	goto	i1l1198
  6092   00029C                     i1u1494_20:
  6093   00029C                     
  6094                           ;MCAL_Layer/Interrupt/mcal_interrupt_manager.c: 135:         EUSART_RX_ISR();
  6095   00029C  EC00  F01E         	call	_EUSART_RX_ISR	;wreg free
  6096   0002A0                     i1l1198:
  6097   0002A0  C0EE  FFF5         	movff	??_InterruptManagerLow+14,tablat
  6098   0002A4  C0ED  FFF8         	movff	??_InterruptManagerLow+13,tblptru
  6099   0002A8  C0EC  FFF7         	movff	??_InterruptManagerLow+12,tblptrh
  6100   0002AC  C0EB  FFF6         	movff	??_InterruptManagerLow+11,tblptrl
  6101   0002B0  C0EA  FFF4         	movff	??_InterruptManagerLow+10,prodh
  6102   0002B4  C0E9  FFF3         	movff	??_InterruptManagerLow+9,prodl
  6103   0002B8  C0E8  FFDA         	movff	??_InterruptManagerLow+8,fsr2h
  6104   0002BC  C0E7  FFD9         	movff	??_InterruptManagerLow+7,fsr2l
  6105   0002C0  C0E6  FFE2         	movff	??_InterruptManagerLow+6,fsr1h
  6106   0002C4  C0E5  FFE1         	movff	??_InterruptManagerLow+5,fsr1l
  6107   0002C8  C0E4  FFFB         	movff	??_InterruptManagerLow+4,pclatu
  6108   0002CC  C0E3  FFFA         	movff	??_InterruptManagerLow+3,pclath
  6109   0002D0  C0E2  FFE0         	movff	??_InterruptManagerLow+2,bsr
  6110   0002D4  C0E1  FFE8         	movff	??_InterruptManagerLow+1,wreg
  6111   0002D8  C0E0  FFD8         	movff	??_InterruptManagerLow,status
  6112   0002DC  907F               	bcf	int$flags,0,c	;clear compiler interrupt flag (level 1)
  6113   0002DE  0010               	retfie	
  6114   0002E0                     __end_of_InterruptManagerLow:
  6115                           	callstack 0
  6116                           
  6117 ;; *************** function _TMR3_ISR *****************
  6118 ;; Defined at:
  6119 ;;		line 139 in file "MCAL_Layer/Timer3/hal_timer3.c"
  6120 ;; Parameters:    Size  Location     Type
  6121 ;;		None
  6122 ;; Auto vars:     Size  Location     Type
  6123 ;;		None
  6124 ;; Return value:  Size  Location     Type
  6125 ;;                  1    wreg      void 
  6126 ;; Registers used:
  6127 ;;		wreg, status,2
  6128 ;; Tracked objects:
  6129 ;;		On entry : 0/0
  6130 ;;		On exit  : 0/0
  6131 ;;		Unchanged: 0/0
  6132 ;; Data sizes:     COMRAM   BANK0   BANK1   BANK2   BANK3   BANK4   BANK5   BANK6   BANK7   BANK8   BANK9  BANK10  BANK1
      +1  BANK12  BANK13  BANK14  BANK15
  6133 ;;      Params:         0       0       0       0       0       0       0       0       0       0       0       0       
      +0       0       0       0       0
  6134 ;;      Locals:         0       0       0       0       0       0       0       0       0       0       0       0       
      +0       0       0       0       0
  6135 ;;      Temps:          0       0       0       0       0       0       0       0       0       0       0       0       
      +0       0       0       0       0
  6136 ;;      Totals:         0       0       0       0       0       0       0       0       0       0       0       0       
      +0       0       0       0       0
  6137 ;;Total ram usage:        0 bytes
  6138 ;; Hardware stack levels used: 1
  6139 ;; Hardware stack levels required when called: 12
  6140 ;; This function calls:
  6141 ;;		Nothing
  6142 ;; This function is called by:
  6143 ;;		_InterruptManagerLow
  6144 ;; This function uses a non-reentrant model
  6145 ;;
  6146                           
  6147                           	psect	text20
  6148   004746                     __ptext20:
  6149                           	callstack 0
  6150   004746                     _TMR3_ISR:
  6151                           	callstack 12
  6152   004746                     
  6153                           ;MCAL_Layer/Timer3/hal_timer3.c: 141:     (*((volatile uint8 *)(0xFB3))) = (timer3_prelo
      +                          ad)>>8;
  6154   004746  506C               	movf	(_timer3_preload+1)^0,w,c
  6155   004748  6EB3               	movwf	179,c	;volatile
  6156   00474A                     
  6157                           ;MCAL_Layer/Timer3/hal_timer3.c: 142:     (*((volatile uint8 *)(0xFB2))) = (uint8)(timer
      +                          3_preload);
  6158   00474A  C06B  FFB2         	movff	_timer3_preload,4018	;volatile
  6159   00474E                     
  6160                           ;MCAL_Layer/Timer3/hal_timer3.c: 143:     ((*((volatile PIR2_t *)(0xFA1))).TMR3IF=0);
  6161   00474E  92A1               	bcf	161,1,c	;volatile
  6162   004750  0012               	return		;funcret
  6163   004752                     __end_of_TMR3_ISR:
  6164                           	callstack 0
  6165                           
  6166 ;; *************** function _TMR2_ISR *****************
  6167 ;; Defined at:
  6168 ;;		line 111 in file "MCAL_Layer/Timer2/hal_timer2.c"
  6169 ;; Parameters:    Size  Location     Type
  6170 ;;		None
  6171 ;; Auto vars:     Size  Location     Type
  6172 ;;		None
  6173 ;; Return value:  Size  Location     Type
  6174 ;;                  1    wreg      void 
  6175 ;; Registers used:
  6176 ;;		None
  6177 ;; Tracked objects:
  6178 ;;		On entry : 0/0
  6179 ;;		On exit  : 0/0
  6180 ;;		Unchanged: 0/0
  6181 ;; Data sizes:     COMRAM   BANK0   BANK1   BANK2   BANK3   BANK4   BANK5   BANK6   BANK7   BANK8   BANK9  BANK10  BANK1
      +1  BANK12  BANK13  BANK14  BANK15
  6182 ;;      Params:         0       0       0       0       0       0       0       0       0       0       0       0       
      +0       0       0       0       0
  6183 ;;      Locals:         0       0       0       0       0       0       0       0       0       0       0       0       
      +0       0       0       0       0
  6184 ;;      Temps:          0       0       0       0       0       0       0       0       0       0       0       0       
      +0       0       0       0       0
  6185 ;;      Totals:         0       0       0       0       0       0       0       0       0       0       0       0       
      +0       0       0       0       0
  6186 ;;Total ram usage:        0 bytes
  6187 ;; Hardware stack levels used: 1
  6188 ;; Hardware stack levels required when called: 12
  6189 ;; This function calls:
  6190 ;;		Nothing
  6191 ;; This function is called by:
  6192 ;;		_InterruptManagerLow
  6193 ;; This function uses a non-reentrant model
  6194 ;;
  6195                           
  6196                           	psect	text21
  6197   004794                     __ptext21:
  6198                           	callstack 0
  6199   004794                     _TMR2_ISR:
  6200                           	callstack 12
  6201   004794                     
  6202                           ;MCAL_Layer/Timer2/hal_timer2.c: 112:     (*((volatile uint8 *)(0xFCC))) = timer2_preloa
      +                          d;
  6203   004794  C072  FFCC         	movff	_timer2_preload,4044	;volatile
  6204   004798  0012               	return		;funcret
  6205   00479A                     __end_of_TMR2_ISR:
  6206                           	callstack 0
  6207                           
  6208 ;; *************** function _TMR1_ISR *****************
  6209 ;; Defined at:
  6210 ;;		line 114 in file "MCAL_Layer/Timer1/hal_timer1.c"
  6211 ;; Parameters:    Size  Location     Type
  6212 ;;		None
  6213 ;; Auto vars:     Size  Location     Type
  6214 ;;		None
  6215 ;; Return value:  Size  Location     Type
  6216 ;;                  1    wreg      void 
  6217 ;; Registers used:
  6218 ;;		wreg, status,2
  6219 ;; Tracked objects:
  6220 ;;		On entry : 0/0
  6221 ;;		On exit  : 0/0
  6222 ;;		Unchanged: 0/0
  6223 ;; Data sizes:     COMRAM   BANK0   BANK1   BANK2   BANK3   BANK4   BANK5   BANK6   BANK7   BANK8   BANK9  BANK10  BANK1
      +1  BANK12  BANK13  BANK14  BANK15
  6224 ;;      Params:         0       0       0       0       0       0       0       0       0       0       0       0       
      +0       0       0       0       0
  6225 ;;      Locals:         0       0       0       0       0       0       0       0       0       0       0       0       
      +0       0       0       0       0
  6226 ;;      Temps:          0       0       0       0       0       0       0       0       0       0       0       0       
      +0       0       0       0       0
  6227 ;;      Totals:         0       0       0       0       0       0       0       0       0       0       0       0       
      +0       0       0       0       0
  6228 ;;Total ram usage:        0 bytes
  6229 ;; Hardware stack levels used: 1
  6230 ;; Hardware stack levels required when called: 12
  6231 ;; This function calls:
  6232 ;;		Nothing
  6233 ;; This function is called by:
  6234 ;;		_InterruptManagerLow
  6235 ;; This function uses a non-reentrant model
  6236 ;;
  6237                           
  6238                           	psect	text22
  6239   004752                     __ptext22:
  6240                           	callstack 0
  6241   004752                     _TMR1_ISR:
  6242                           	callstack 12
  6243   004752                     
  6244                           ;MCAL_Layer/Timer1/hal_timer1.c: 115:     (*((volatile uint8 *)(0xFCF))) = (timer1_prelo
      +                          ad)>>8;
  6245   004752  506E               	movf	(_timer1_preload+1)^0,w,c
  6246   004754  6ECF               	movwf	207,c	;volatile
  6247   004756                     
  6248                           ;MCAL_Layer/Timer1/hal_timer1.c: 116:     (*((volatile uint8 *)(0xFCE))) = (uint8)(timer
      +                          1_preload);
  6249   004756  C06D  FFCE         	movff	_timer1_preload,4046	;volatile
  6250   00475A                     
  6251                           ;MCAL_Layer/Timer1/hal_timer1.c: 117:     ((*((volatile PIR1_t *)(0xF9E))).TMR1IF=0);
  6252   00475A  909E               	bcf	158,0,c	;volatile
  6253   00475C  0012               	return		;funcret
  6254   00475E                     __end_of_TMR1_ISR:
  6255                           	callstack 0
  6256                           
  6257 ;; *************** function _TMR0_ISR *****************
  6258 ;; Defined at:
  6259 ;;		line 110 in file "MCAL_Layer/Timer0/hal_timer0.c"
  6260 ;; Parameters:    Size  Location     Type
  6261 ;;		None
  6262 ;; Auto vars:     Size  Location     Type
  6263 ;;		None
  6264 ;; Return value:  Size  Location     Type
  6265 ;;                  1    wreg      void 
  6266 ;; Registers used:
  6267 ;;		wreg, status,2
  6268 ;; Tracked objects:
  6269 ;;		On entry : 0/0
  6270 ;;		On exit  : 0/0
  6271 ;;		Unchanged: 0/0
  6272 ;; Data sizes:     COMRAM   BANK0   BANK1   BANK2   BANK3   BANK4   BANK5   BANK6   BANK7   BANK8   BANK9  BANK10  BANK1
      +1  BANK12  BANK13  BANK14  BANK15
  6273 ;;      Params:         0       0       0       0       0       0       0       0       0       0       0       0       
      +0       0       0       0       0
  6274 ;;      Locals:         0       0       0       0       0       0       0       0       0       0       0       0       
      +0       0       0       0       0
  6275 ;;      Temps:          0       0       0       0       0       0       0       0       0       0       0       0       
      +0       0       0       0       0
  6276 ;;      Totals:         0       0       0       0       0       0       0       0       0       0       0       0       
      +0       0       0       0       0
  6277 ;;Total ram usage:        0 bytes
  6278 ;; Hardware stack levels used: 1
  6279 ;; Hardware stack levels required when called: 12
  6280 ;; This function calls:
  6281 ;;		Nothing
  6282 ;; This function is called by:
  6283 ;;		_InterruptManagerLow
  6284 ;; This function uses a non-reentrant model
  6285 ;;
  6286                           
  6287                           	psect	text23
  6288   00475E                     __ptext23:
  6289                           	callstack 0
  6290   00475E                     _TMR0_ISR:
  6291                           	callstack 12
  6292   00475E                     
  6293                           ;MCAL_Layer/Timer0/hal_timer0.c: 112:     TMR0H = (timer0_preload)>>8;
  6294   00475E  5070               	movf	(_timer0_preload+1)^0,w,c
  6295   004760  6ED7               	movwf	215,c	;volatile
  6296   004762                     
  6297                           ;MCAL_Layer/Timer0/hal_timer0.c: 113:     (*((volatile uint8 *)(0xFD6))) = (uint8)(timer
      +                          0_preload);
  6298   004762  C06F  FFD6         	movff	_timer0_preload,4054	;volatile
  6299   004766                     
  6300                           ;MCAL_Layer/Timer0/hal_timer0.c: 114:     ((*((volatile INTCON_t *)(0xFF2))).TMR0IF=0);
  6301   004766  94F2               	bcf	242,2,c	;volatile
  6302   004768  0012               	return		;funcret
  6303   00476A                     __end_of_TMR0_ISR:
  6304                           	callstack 0
  6305                           
  6306 ;; *************** function _RB7_ISR *****************
  6307 ;; Defined at:
  6308 ;;		line 180 in file "MCAL_Layer/Interrupt/mcal_external_interrupt.c"
  6309 ;; Parameters:    Size  Location     Type
  6310 ;;		None
  6311 ;; Auto vars:     Size  Location     Type
  6312 ;;		None
  6313 ;; Return value:  Size  Location     Type
  6314 ;;                  1    wreg      void 
  6315 ;; Registers used:
  6316 ;;		None
  6317 ;; Tracked objects:
  6318 ;;		On entry : 0/0
  6319 ;;		On exit  : 0/0
  6320 ;;		Unchanged: 0/0
  6321 ;; Data sizes:     COMRAM   BANK0   BANK1   BANK2   BANK3   BANK4   BANK5   BANK6   BANK7   BANK8   BANK9  BANK10  BANK1
      +1  BANK12  BANK13  BANK14  BANK15
  6322 ;;      Params:         0       0       0       0       0       0       0       0       0       0       0       0       
      +0       0       0       0       0
  6323 ;;      Locals:         0       0       0       0       0       0       0       0       0       0       0       0       
      +0       0       0       0       0
  6324 ;;      Temps:          0       0       0       0       0       0       0       0       0       0       0       0       
      +0       0       0       0       0
  6325 ;;      Totals:         0       0       0       0       0       0       0       0       0       0       0       0       
      +0       0       0       0       0
  6326 ;;Total ram usage:        0 bytes
  6327 ;; Hardware stack levels used: 1
  6328 ;; Hardware stack levels required when called: 12
  6329 ;; This function calls:
  6330 ;;		Nothing
  6331 ;; This function is called by:
  6332 ;;		_InterruptManagerLow
  6333 ;; This function uses a non-reentrant model
  6334 ;;
  6335                           
  6336                           	psect	text24
  6337   0047A0                     __ptext24:
  6338                           	callstack 0
  6339   0047A0                     _RB7_ISR:
  6340                           	callstack 12
  6341   0047A0                     
  6342                           ;MCAL_Layer/Interrupt/mcal_external_interrupt.c: 182:     ((*((volatile INTCON_t *)(0xFF
      +                          2))).RBIF=0);
  6343   0047A0  90F2               	bcf	242,0,c	;volatile
  6344   0047A2  0012               	return		;funcret
  6345   0047A4                     __end_of_RB7_ISR:
  6346                           	callstack 0
  6347                           
  6348 ;; *************** function _RB6_ISR *****************
  6349 ;; Defined at:
  6350 ;;		line 172 in file "MCAL_Layer/Interrupt/mcal_external_interrupt.c"
  6351 ;; Parameters:    Size  Location     Type
  6352 ;;		None
  6353 ;; Auto vars:     Size  Location     Type
  6354 ;;		None
  6355 ;; Return value:  Size  Location     Type
  6356 ;;                  1    wreg      void 
  6357 ;; Registers used:
  6358 ;;		None
  6359 ;; Tracked objects:
  6360 ;;		On entry : 0/0
  6361 ;;		On exit  : 0/0
  6362 ;;		Unchanged: 0/0
  6363 ;; Data sizes:     COMRAM   BANK0   BANK1   BANK2   BANK3   BANK4   BANK5   BANK6   BANK7   BANK8   BANK9  BANK10  BANK1
      +1  BANK12  BANK13  BANK14  BANK15
  6364 ;;      Params:         0       0       0       0       0       0       0       0       0       0       0       0       
      +0       0       0       0       0
  6365 ;;      Locals:         0       0       0       0       0       0       0       0       0       0       0       0       
      +0       0       0       0       0
  6366 ;;      Temps:          0       0       0       0       0       0       0       0       0       0       0       0       
      +0       0       0       0       0
  6367 ;;      Totals:         0       0       0       0       0       0       0       0       0       0       0       0       
      +0       0       0       0       0
  6368 ;;Total ram usage:        0 bytes
  6369 ;; Hardware stack levels used: 1
  6370 ;; Hardware stack levels required when called: 12
  6371 ;; This function calls:
  6372 ;;		Nothing
  6373 ;; This function is called by:
  6374 ;;		_InterruptManagerLow
  6375 ;; This function uses a non-reentrant model
  6376 ;;
  6377                           
  6378                           	psect	text25
  6379   0047A4                     __ptext25:
  6380                           	callstack 0
  6381   0047A4                     _RB6_ISR:
  6382                           	callstack 12
  6383   0047A4                     
  6384                           ;MCAL_Layer/Interrupt/mcal_external_interrupt.c: 174:     ((*((volatile INTCON_t *)(0xFF
      +                          2))).RBIF=0);
  6385   0047A4  90F2               	bcf	242,0,c	;volatile
  6386   0047A6  0012               	return		;funcret
  6387   0047A8                     __end_of_RB6_ISR:
  6388                           	callstack 0
  6389                           
  6390 ;; *************** function _RB5_ISR *****************
  6391 ;; Defined at:
  6392 ;;		line 164 in file "MCAL_Layer/Interrupt/mcal_external_interrupt.c"
  6393 ;; Parameters:    Size  Location     Type
  6394 ;;		None
  6395 ;; Auto vars:     Size  Location     Type
  6396 ;;		None
  6397 ;; Return value:  Size  Location     Type
  6398 ;;                  1    wreg      void 
  6399 ;; Registers used:
  6400 ;;		None
  6401 ;; Tracked objects:
  6402 ;;		On entry : 0/0
  6403 ;;		On exit  : 0/0
  6404 ;;		Unchanged: 0/0
  6405 ;; Data sizes:     COMRAM   BANK0   BANK1   BANK2   BANK3   BANK4   BANK5   BANK6   BANK7   BANK8   BANK9  BANK10  BANK1
      +1  BANK12  BANK13  BANK14  BANK15
  6406 ;;      Params:         0       0       0       0       0       0       0       0       0       0       0       0       
      +0       0       0       0       0
  6407 ;;      Locals:         0       0       0       0       0       0       0       0       0       0       0       0       
      +0       0       0       0       0
  6408 ;;      Temps:          0       0       0       0       0       0       0       0       0       0       0       0       
      +0       0       0       0       0
  6409 ;;      Totals:         0       0       0       0       0       0       0       0       0       0       0       0       
      +0       0       0       0       0
  6410 ;;Total ram usage:        0 bytes
  6411 ;; Hardware stack levels used: 1
  6412 ;; Hardware stack levels required when called: 12
  6413 ;; This function calls:
  6414 ;;		Nothing
  6415 ;; This function is called by:
  6416 ;;		_InterruptManagerLow
  6417 ;; This function uses a non-reentrant model
  6418 ;;
  6419                           
  6420                           	psect	text26
  6421   0047A8                     __ptext26:
  6422                           	callstack 0
  6423   0047A8                     _RB5_ISR:
  6424                           	callstack 12
  6425   0047A8                     
  6426                           ;MCAL_Layer/Interrupt/mcal_external_interrupt.c: 166:     ((*((volatile INTCON_t *)(0xFF
      +                          2))).RBIF=0);
  6427   0047A8  90F2               	bcf	242,0,c	;volatile
  6428   0047AA  0012               	return		;funcret
  6429   0047AC                     __end_of_RB5_ISR:
  6430                           	callstack 0
  6431                           
  6432 ;; *************** function _RB4_ISR *****************
  6433 ;; Defined at:
  6434 ;;		line 156 in file "MCAL_Layer/Interrupt/mcal_external_interrupt.c"
  6435 ;; Parameters:    Size  Location     Type
  6436 ;;		None
  6437 ;; Auto vars:     Size  Location     Type
  6438 ;;		None
  6439 ;; Return value:  Size  Location     Type
  6440 ;;                  1    wreg      void 
  6441 ;; Registers used:
  6442 ;;		None
  6443 ;; Tracked objects:
  6444 ;;		On entry : 0/0
  6445 ;;		On exit  : 0/0
  6446 ;;		Unchanged: 0/0
  6447 ;; Data sizes:     COMRAM   BANK0   BANK1   BANK2   BANK3   BANK4   BANK5   BANK6   BANK7   BANK8   BANK9  BANK10  BANK1
      +1  BANK12  BANK13  BANK14  BANK15
  6448 ;;      Params:         0       0       0       0       0       0       0       0       0       0       0       0       
      +0       0       0       0       0
  6449 ;;      Locals:         0       0       0       0       0       0       0       0       0       0       0       0       
      +0       0       0       0       0
  6450 ;;      Temps:          0       0       0       0       0       0       0       0       0       0       0       0       
      +0       0       0       0       0
  6451 ;;      Totals:         0       0       0       0       0       0       0       0       0       0       0       0       
      +0       0       0       0       0
  6452 ;;Total ram usage:        0 bytes
  6453 ;; Hardware stack levels used: 1
  6454 ;; Hardware stack levels required when called: 12
  6455 ;; This function calls:
  6456 ;;		Nothing
  6457 ;; This function is called by:
  6458 ;;		_InterruptManagerLow
  6459 ;; This function uses a non-reentrant model
  6460 ;;
  6461                           
  6462                           	psect	text27
  6463   0047AC                     __ptext27:
  6464                           	callstack 0
  6465   0047AC                     _RB4_ISR:
  6466                           	callstack 12
  6467   0047AC                     
  6468                           ;MCAL_Layer/Interrupt/mcal_external_interrupt.c: 158:     ((*((volatile INTCON_t *)(0xFF
      +                          2))).RBIF=0);
  6469   0047AC  90F2               	bcf	242,0,c	;volatile
  6470   0047AE  0012               	return		;funcret
  6471   0047B0                     __end_of_RB4_ISR:
  6472                           	callstack 0
  6473                           
  6474 ;; *************** function _INT2_ISR *****************
  6475 ;; Defined at:
  6476 ;;		line 148 in file "MCAL_Layer/Interrupt/mcal_external_interrupt.c"
  6477 ;; Parameters:    Size  Location     Type
  6478 ;;		None
  6479 ;; Auto vars:     Size  Location     Type
  6480 ;;		None
  6481 ;; Return value:  Size  Location     Type
  6482 ;;                  1    wreg      void 
  6483 ;; Registers used:
  6484 ;;		None
  6485 ;; Tracked objects:
  6486 ;;		On entry : 0/0
  6487 ;;		On exit  : 0/0
  6488 ;;		Unchanged: 0/0
  6489 ;; Data sizes:     COMRAM   BANK0   BANK1   BANK2   BANK3   BANK4   BANK5   BANK6   BANK7   BANK8   BANK9  BANK10  BANK1
      +1  BANK12  BANK13  BANK14  BANK15
  6490 ;;      Params:         0       0       0       0       0       0       0       0       0       0       0       0       
      +0       0       0       0       0
  6491 ;;      Locals:         0       0       0       0       0       0       0       0       0       0       0       0       
      +0       0       0       0       0
  6492 ;;      Temps:          0       0       0       0       0       0       0       0       0       0       0       0       
      +0       0       0       0       0
  6493 ;;      Totals:         0       0       0       0       0       0       0       0       0       0       0       0       
      +0       0       0       0       0
  6494 ;;Total ram usage:        0 bytes
  6495 ;; Hardware stack levels used: 1
  6496 ;; Hardware stack levels required when called: 12
  6497 ;; This function calls:
  6498 ;;		Nothing
  6499 ;; This function is called by:
  6500 ;;		_InterruptManagerLow
  6501 ;; This function uses a non-reentrant model
  6502 ;;
  6503                           
  6504                           	psect	text28
  6505   0047B0                     __ptext28:
  6506                           	callstack 0
  6507   0047B0                     _INT2_ISR:
  6508                           	callstack 12
  6509   0047B0                     
  6510                           ;MCAL_Layer/Interrupt/mcal_external_interrupt.c: 150:     ((*((volatile INTCON3_t *)(0xF
      +                          F0))).INT2IF=0);
  6511   0047B0  92F0               	bcf	240,1,c	;volatile
  6512   0047B2  0012               	return		;funcret
  6513   0047B4                     __end_of_INT2_ISR:
  6514                           	callstack 0
  6515                           
  6516 ;; *************** function _INT1_ISR *****************
  6517 ;; Defined at:
  6518 ;;		line 140 in file "MCAL_Layer/Interrupt/mcal_external_interrupt.c"
  6519 ;; Parameters:    Size  Location     Type
  6520 ;;		None
  6521 ;; Auto vars:     Size  Location     Type
  6522 ;;		None
  6523 ;; Return value:  Size  Location     Type
  6524 ;;                  1    wreg      void 
  6525 ;; Registers used:
  6526 ;;		None
  6527 ;; Tracked objects:
  6528 ;;		On entry : 0/0
  6529 ;;		On exit  : 0/0
  6530 ;;		Unchanged: 0/0
  6531 ;; Data sizes:     COMRAM   BANK0   BANK1   BANK2   BANK3   BANK4   BANK5   BANK6   BANK7   BANK8   BANK9  BANK10  BANK1
      +1  BANK12  BANK13  BANK14  BANK15
  6532 ;;      Params:         0       0       0       0       0       0       0       0       0       0       0       0       
      +0       0       0       0       0
  6533 ;;      Locals:         0       0       0       0       0       0       0       0       0       0       0       0       
      +0       0       0       0       0
  6534 ;;      Temps:          0       0       0       0       0       0       0       0       0       0       0       0       
      +0       0       0       0       0
  6535 ;;      Totals:         0       0       0       0       0       0       0       0       0       0       0       0       
      +0       0       0       0       0
  6536 ;;Total ram usage:        0 bytes
  6537 ;; Hardware stack levels used: 1
  6538 ;; Hardware stack levels required when called: 12
  6539 ;; This function calls:
  6540 ;;		Nothing
  6541 ;; This function is called by:
  6542 ;;		_InterruptManagerLow
  6543 ;; This function uses a non-reentrant model
  6544 ;;
  6545                           
  6546                           	psect	text29
  6547   0047B4                     __ptext29:
  6548                           	callstack 0
  6549   0047B4                     _INT1_ISR:
  6550                           	callstack 12
  6551   0047B4                     
  6552                           ;MCAL_Layer/Interrupt/mcal_external_interrupt.c: 142:     ((*((volatile INTCON3_t *)(0xF
      +                          F0))).INT1IF=0);
  6553   0047B4  90F0               	bcf	240,0,c	;volatile
  6554   0047B6  0012               	return		;funcret
  6555   0047B8                     __end_of_INT1_ISR:
  6556                           	callstack 0
  6557                           
  6558 ;; *************** function _EUSART_TX_ISR *****************
  6559 ;; Defined at:
  6560 ;;		line 290 in file "MCAL_Layer/USART/hal_usart.c"
  6561 ;; Parameters:    Size  Location     Type
  6562 ;;		None
  6563 ;; Auto vars:     Size  Location     Type
  6564 ;;		None
  6565 ;; Return value:  Size  Location     Type
  6566 ;;                  1    wreg      void 
  6567 ;; Registers used:
  6568 ;;		wreg, fsr1l, fsr1h, fsr2l, fsr2h, status,2, status,0, pcl, pclath, pclatu, tosl, tblptrl, tblptrh, tblptru, prodl, p
      +rodh, cstack
  6569 ;; Tracked objects:
  6570 ;;		On entry : 0/0
  6571 ;;		On exit  : 0/0
  6572 ;;		Unchanged: 0/0
  6573 ;; Data sizes:     COMRAM   BANK0   BANK1   BANK2   BANK3   BANK4   BANK5   BANK6   BANK7   BANK8   BANK9  BANK10  BANK1
      +1  BANK12  BANK13  BANK14  BANK15
  6574 ;;      Params:         0       0       0       0       0       0       0       0       0       0       0       0       
      +0       0       0       0       0
  6575 ;;      Locals:         0       0       0       0       0       0       0       0       0       0       0       0       
      +0       0       0       0       0
  6576 ;;      Temps:          0       0       0       0       0       0       0       0       0       0       0       0       
      +0       0       0       0       0
  6577 ;;      Totals:         0       0       0       0       0       0       0       0       0       0       0       0       
      +0       0       0       0       0
  6578 ;;Total ram usage:        0 bytes
  6579 ;; Hardware stack levels used: 1
  6580 ;; Hardware stack levels required when called: 22
  6581 ;; This function calls:
  6582 ;;		NULL
  6583 ;;		_USART_TX_INT
  6584 ;; This function is called by:
  6585 ;;		_InterruptManagerLow
  6586 ;; This function uses a non-reentrant model
  6587 ;;
  6588                           
  6589                           	psect	text30
  6590   00465A                     __ptext30:
  6591                           	callstack 0
  6592   00465A                     _EUSART_TX_ISR:
  6593                           	callstack 2
  6594   00465A                     
  6595                           ;MCAL_Layer/USART/hal_usart.c: 292:     ((*((volatile PIE1_t *)(0xF9D))).TXIE=0);
  6596   00465A  989D               	bcf	157,4,c	;volatile
  6597   00465C                     
  6598                           ;MCAL_Layer/USART/hal_usart.c: 294:     if(EUSART_TX_InterruptHandler){
  6599   00465C  0100               	movlb	0	; () banked
  6600   00465E  51F7               	movf	_EUSART_TX_InterruptHandler& (0+255),w,b
  6601   004660  11F8               	iorwf	(_EUSART_TX_InterruptHandler+1)& (0+255),w,b
  6602   004662  B4D8               	btfsc	status,2,c
  6603   004664  EF36  F023         	goto	i1u1405_21
  6604   004668  EF38  F023         	goto	i1u1405_20
  6605   00466C                     i1u1405_21:
  6606   00466C  EF44  F023         	goto	i1l1557
  6607   004670                     i1u1405_20:
  6608   004670                     
  6609                           ; BSR set to: 0
  6610                           ;MCAL_Layer/USART/hal_usart.c: 295:         EUSART_TX_InterruptHandler();
  6611   004670  D802               	call	i1u1406_28
  6612   004672  EF44  F023         	goto	i1u1406_29
  6613   004676                     i1u1406_28:
  6614   004676  0005               	push	
  6615   004678  6EFA               	movwf	pclath,c
  6616   00467A  51F7               	movf	_EUSART_TX_InterruptHandler& (0+255),w,b
  6617   00467C  6EFD               	movwf	tosl,c
  6618   00467E  51F8               	movf	(_EUSART_TX_InterruptHandler+1)& (0+255),w,b
  6619   004680  6EFE               	movwf	tosh,c
  6620   004682  6AFF               	clrf	tosu,c
  6621   004684  50FA               	movf	pclath,w,c
  6622   004686  0012               	return		;indir
  6623   004688                     i1u1406_29:
  6624   004688                     i1l1557:
  6625   004688  0012               	return		;funcret
  6626   00468A                     __end_of_EUSART_TX_ISR:
  6627                           	callstack 0
  6628                           
  6629 ;; *************** function _USART_TX_INT *****************
  6630 ;; Defined at:
  6631 ;;		line 28 in file "application.c"
  6632 ;; Parameters:    Size  Location     Type
  6633 ;;		None
  6634 ;; Auto vars:     Size  Location     Type
  6635 ;;  counter_Str     4   92[BANK0 ] unsigned char [4]
  6636 ;; Return value:  Size  Location     Type
  6637 ;;                  1    wreg      void 
  6638 ;; Registers used:
  6639 ;;		wreg, fsr1l, fsr1h, fsr2l, fsr2h, status,2, status,0, tblptrl, tblptrh, tblptru, prodl, prodh, cstack
  6640 ;; Tracked objects:
  6641 ;;		On entry : 0/0
  6642 ;;		On exit  : 0/0
  6643 ;;		Unchanged: 0/0
  6644 ;; Data sizes:     COMRAM   BANK0   BANK1   BANK2   BANK3   BANK4   BANK5   BANK6   BANK7   BANK8   BANK9  BANK10  BANK1
      +1  BANK12  BANK13  BANK14  BANK15
  6645 ;;      Params:         0       0       0       0       0       0       0       0       0       0       0       0       
      +0       0       0       0       0
  6646 ;;      Locals:         0       4       0       0       0       0       0       0       0       0       0       0       
      +0       0       0       0       0
  6647 ;;      Temps:          0       0       0       0       0       0       0       0       0       0       0       0       
      +0       0       0       0       0
  6648 ;;      Totals:         0       4       0       0       0       0       0       0       0       0       0       0       
      +0       0       0       0       0
  6649 ;;Total ram usage:        4 bytes
  6650 ;; Hardware stack levels used: 1
  6651 ;; Hardware stack levels required when called: 21
  6652 ;; This function calls:
  6653 ;;		_convert_uint8_to_string
  6654 ;;		_lcd_4bit_send_string
  6655 ;;		i1_lcd_4bit_send_command
  6656 ;; This function is called by:
  6657 ;;		_USART_ASYNC_9600_BAUDRATE_INIT
  6658 ;;		_EUSART_TX_ISR
  6659 ;;		i2_EUSART_TX_ISR
  6660 ;; This function uses a non-reentrant model
  6661 ;;
  6662                           
  6663                           	psect	text31
  6664   0040B6                     __ptext31:
  6665                           	callstack 0
  6666   0040B6                     _USART_TX_INT:
  6667                           	callstack 0
  6668                           
  6669                           ;Skip over the trampoline to the duplicate function for level 2
  6670   0040B6  A27F               	btfss	int$flags,1,c
  6671   0040B8  EF60  F020         	goto	_USART_TX_INT$intlevel1
  6672   0040BC  EF13  F022         	goto	i2_USART_TX_INT
  6673   0040C0                     _USART_TX_INT$intlevel1:
  6674                           	callstack 2
  6675   0040C0                     
  6676                           ;application.c: 30:     uint8 counter_Str[4]={0};
  6677   0040C0  C111  F0DC         	movff	USART_TX_INT@F3631,USART_TX_INT@counter_Str
  6678   0040C4  C112  F0DD         	movff	USART_TX_INT@F3631+1,USART_TX_INT@counter_Str+1
  6679   0040C8  C113  F0DE         	movff	USART_TX_INT@F3631+2,USART_TX_INT@counter_Str+2
  6680   0040CC  C114  F0DF         	movff	USART_TX_INT@F3631+3,USART_TX_INT@counter_Str+3
  6681   0040D0                     
  6682                           ;application.c: 31:     counter++;
  6683   0040D0  0100               	movlb	0	; () banked
  6684   0040D2  2BFE               	incf	_counter& (0+255),f,b	;volatile
  6685   0040D4                     
  6686                           ; BSR set to: 0
  6687                           ;application.c: 32:     convert_uint8_to_string(counter,counter_Str);
  6688   0040D4  0EDC               	movlw	low USART_TX_INT@counter_Str
  6689   0040D6  6FD4               	movwf	convert_uint8_to_string@str& (0+255),b
  6690   0040D8  0E00               	movlw	high USART_TX_INT@counter_Str
  6691   0040DA  6FD5               	movwf	(convert_uint8_to_string@str+1)& (0+255),b
  6692   0040DC  51FE               	movf	_counter& (0+255),w,b	;volatile
  6693   0040DE  EC7D  F01B         	call	_convert_uint8_to_string
  6694   0040E2                     
  6695                           ;application.c: 33:     lcd_4bit_send_command(&lcd1,0X01);
  6696   0040E2  0ECE               	movlw	low _lcd1
  6697   0040E4  0100               	movlb	0	; () banked
  6698   0040E6  6F8E               	movwf	i1lcd_4bit_send_command@lcd& (0+255),b
  6699   0040E8  0E01               	movlw	high _lcd1
  6700   0040EA  6F8F               	movwf	(i1lcd_4bit_send_command@lcd+1)& (0+255),b
  6701   0040EC  0E01               	movlw	1
  6702   0040EE  6F90               	movwf	i1lcd_4bit_send_command@command& (0+255),b
  6703   0040F0  EC80  F01F         	call	i1_lcd_4bit_send_command	;wreg free
  6704   0040F4                     
  6705                           ;application.c: 34:     lcd_4bit_send_string(&lcd1,counter_Str);
  6706   0040F4  0ECE               	movlw	low _lcd1
  6707   0040F6  0100               	movlb	0	; () banked
  6708   0040F8  6F92               	movwf	lcd_4bit_send_string@lcd& (0+255),b
  6709   0040FA  0E01               	movlw	high _lcd1
  6710   0040FC  6F93               	movwf	(lcd_4bit_send_string@lcd+1)& (0+255),b
  6711   0040FE  0EDC               	movlw	low USART_TX_INT@counter_Str
  6712   004100  6F94               	movwf	lcd_4bit_send_string@str& (0+255),b
  6713   004102  0E00               	movlw	high USART_TX_INT@counter_Str
  6714   004104  6F95               	movwf	(lcd_4bit_send_string@str+1)& (0+255),b
  6715   004106  EC04  F021         	call	_lcd_4bit_send_string	;wreg free
  6716   00410A  0012               	return		;funcret
  6717   00410C                     __end_of_USART_TX_INT:
  6718                           	callstack 0
  6719                           
  6720 ;; *************** function _lcd_4bit_send_string *****************
  6721 ;; Defined at:
  6722 ;;		line 102 in file "ECU_Layer/Chr_LCD/ecu_chr_lcd.c"
  6723 ;; Parameters:    Size  Location     Type
  6724 ;;  lcd             2   18[BANK0 ] PTR const struct .
  6725 ;;		 -> lcd1(6), 
  6726 ;;  str             2   20[BANK0 ] PTR unsigned char 
  6727 ;;		 -> USART_TX_INT@counter_Str(4), 
  6728 ;; Auto vars:     Size  Location     Type
  6729 ;;  ret             1    0        unsigned char 
  6730 ;; Return value:  Size  Location     Type
  6731 ;;                  1    wreg      unsigned char 
  6732 ;; Registers used:
  6733 ;;		wreg, fsr2l, fsr2h, status,2, status,0, prodl, prodh, cstack
  6734 ;; Tracked objects:
  6735 ;;		On entry : 0/0
  6736 ;;		On exit  : 0/0
  6737 ;;		Unchanged: 0/0
  6738 ;; Data sizes:     COMRAM   BANK0   BANK1   BANK2   BANK3   BANK4   BANK5   BANK6   BANK7   BANK8   BANK9  BANK10  BANK1
      +1  BANK12  BANK13  BANK14  BANK15
  6739 ;;      Params:         0       4       0       0       0       0       0       0       0       0       0       0       
      +0       0       0       0       0
  6740 ;;      Locals:         0       0       0       0       0       0       0       0       0       0       0       0       
      +0       0       0       0       0
  6741 ;;      Temps:          0       0       0       0       0       0       0       0       0       0       0       0       
      +0       0       0       0       0
  6742 ;;      Totals:         0       4       0       0       0       0       0       0       0       0       0       0       
      +0       0       0       0       0
  6743 ;;Total ram usage:        4 bytes
  6744 ;; Hardware stack levels used: 1
  6745 ;; Hardware stack levels required when called: 15
  6746 ;; This function calls:
  6747 ;;		_lcd_4bit_send_char_data
  6748 ;; This function is called by:
  6749 ;;		_USART_TX_INT
  6750 ;; This function uses a non-reentrant model
  6751 ;;
  6752                           
  6753                           	psect	text32
  6754   004208                     __ptext32:
  6755                           	callstack 0
  6756   004208                     _lcd_4bit_send_string:
  6757                           	callstack 7
  6758   004208                     
  6759                           ;ECU_Layer/Chr_LCD/ecu_chr_lcd.c: 104:     if(lcd==((void*)0)){
  6760   004208  0100               	movlb	0	; () banked
  6761   00420A  5192               	movf	lcd_4bit_send_string@lcd& (0+255),w,b
  6762   00420C  1193               	iorwf	(lcd_4bit_send_string@lcd+1)& (0+255),w,b
  6763   00420E  A4D8               	btfss	status,2,c
  6764   004210  EF0C  F021         	goto	i1u1394_21
  6765   004214  EF0E  F021         	goto	i1u1394_20
  6766   004218                     i1u1394_21:
  6767   004218  EF1F  F021         	goto	i1l11709
  6768   00421C                     i1u1394_20:
  6769   00421C                     
  6770                           ; BSR set to: 0
  6771                           ;ECU_Layer/Chr_LCD/ecu_chr_lcd.c: 106:     }
  6772   00421C  EF2B  F021         	goto	i1l94
  6773   004220                     i1l11705:
  6774                           
  6775                           ; BSR set to: 0
  6776   004220  C092  F08E         	movff	lcd_4bit_send_string@lcd,lcd_4bit_send_char_data@lcd
  6777   004224  C093  F08F         	movff	lcd_4bit_send_string@lcd+1,lcd_4bit_send_char_data@lcd+1
  6778   004228  C094  FFD9         	movff	lcd_4bit_send_string@str,fsr2l
  6779   00422C  C095  FFDA         	movff	lcd_4bit_send_string@str+1,fsr2h
  6780   004230  50DF               	movf	indf2,w,c
  6781   004232  6F90               	movwf	lcd_4bit_send_char_data@data& (0+255),b
  6782   004234  EC04  F01F         	call	_lcd_4bit_send_char_data	;wreg free
  6783   004238  0100               	movlb	0	; () banked
  6784   00423A  4B94               	infsnz	lcd_4bit_send_string@str& (0+255),f,b
  6785   00423C  2B95               	incf	(lcd_4bit_send_string@str+1)& (0+255),f,b
  6786   00423E                     i1l11709:
  6787                           
  6788                           ; BSR set to: 0
  6789                           ;ECU_Layer/Chr_LCD/ecu_chr_lcd.c: 108:         while(*str){
  6790   00423E  C094  FFD9         	movff	lcd_4bit_send_string@str,fsr2l
  6791   004242  C095  FFDA         	movff	lcd_4bit_send_string@str+1,fsr2h
  6792   004246  50DF               	movf	indf2,w,c
  6793   004248  A4D8               	btfss	status,2,c
  6794   00424A  EF29  F021         	goto	i1u1395_21
  6795   00424E  EF2B  F021         	goto	i1u1395_20
  6796   004252                     i1u1395_21:
  6797   004252  EF10  F021         	goto	i1l11705
  6798   004256                     i1u1395_20:
  6799   004256                     i1l94:
  6800                           
  6801                           ; BSR set to: 0
  6802   004256  0012               	return		;funcret
  6803   004258                     __end_of_lcd_4bit_send_string:
  6804                           	callstack 0
  6805                           
  6806 ;; *************** function _convert_uint8_to_string *****************
  6807 ;; Defined at:
  6808 ;;		line 326 in file "ECU_Layer/Chr_LCD/ecu_chr_lcd.c"
  6809 ;; Parameters:    Size  Location     Type
  6810 ;;  value           1    wreg     unsigned char 
  6811 ;;  str             2   84[BANK0 ] PTR unsigned char 
  6812 ;;		 -> USART_TX_INT@counter_Str(4), 
  6813 ;; Auto vars:     Size  Location     Type
  6814 ;;  value           1   90[BANK0 ] unsigned char 
  6815 ;;  Temp_str        4   86[BANK0 ] unsigned char [4]
  6816 ;;  cnt             1   91[BANK0 ] unsigned char 
  6817 ;;  ret             1    0        unsigned char 
  6818 ;; Return value:  Size  Location     Type
  6819 ;;                  1    wreg      unsigned char 
  6820 ;; Registers used:
  6821 ;;		wreg, fsr1l, fsr1h, fsr2l, fsr2h, status,2, status,0, tblptrl, tblptrh, tblptru, cstack
  6822 ;; Tracked objects:
  6823 ;;		On entry : 0/0
  6824 ;;		On exit  : 0/0
  6825 ;;		Unchanged: 0/0
  6826 ;; Data sizes:     COMRAM   BANK0   BANK1   BANK2   BANK3   BANK4   BANK5   BANK6   BANK7   BANK8   BANK9  BANK10  BANK1
      +1  BANK12  BANK13  BANK14  BANK15
  6827 ;;      Params:         0       2       0       0       0       0       0       0       0       0       0       0       
      +0       0       0       0       0
  6828 ;;      Locals:         0       6       0       0       0       0       0       0       0       0       0       0       
      +0       0       0       0       0
  6829 ;;      Temps:          0       0       0       0       0       0       0       0       0       0       0       0       
      +0       0       0       0       0
  6830 ;;      Totals:         0       8       0       0       0       0       0       0       0       0       0       0       
      +0       0       0       0       0
  6831 ;;Total ram usage:        8 bytes
  6832 ;; Hardware stack levels used: 1
  6833 ;; Hardware stack levels required when called: 20
  6834 ;; This function calls:
  6835 ;;		_memset
  6836 ;;		_sprintf
  6837 ;; This function is called by:
  6838 ;;		_USART_TX_INT
  6839 ;; This function uses a non-reentrant model
  6840 ;;
  6841                           
  6842                           	psect	text33
  6843   0036FA                     __ptext33:
  6844                           	callstack 0
  6845   0036FA                     _convert_uint8_to_string:
  6846                           	callstack 2
  6847                           
  6848                           ; BSR set to: 0
  6849                           ;incstack = 0
  6850                           ;convert_uint8_to_string@value stored from wreg
  6851   0036FA  0100               	movlb	0	; () banked
  6852   0036FC  6FDA               	movwf	convert_uint8_to_string@value& (0+255),b
  6853   0036FE                     
  6854                           ;ECU_Layer/Chr_LCD/ecu_chr_lcd.c: 328:    uint8 Temp_str[4]={0};
  6855   0036FE  C115  F0D6         	movff	convert_uint8_to_string@F3495,convert_uint8_to_string@Temp_str
  6856   003702  C116  F0D7         	movff	convert_uint8_to_string@F3495+1,convert_uint8_to_string@Temp_str+1
  6857   003706  C117  F0D8         	movff	convert_uint8_to_string@F3495+2,convert_uint8_to_string@Temp_str+2
  6858   00370A  C118  F0D9         	movff	convert_uint8_to_string@F3495+3,convert_uint8_to_string@Temp_str+3
  6859                           
  6860                           ;ECU_Layer/Chr_LCD/ecu_chr_lcd.c: 329:    uint8 cnt =0;
  6861   00370E  0E00               	movlw	0
  6862   003710  0100               	movlb	0	; () banked
  6863   003712  6FDB               	movwf	convert_uint8_to_string@cnt& (0+255),b
  6864   003714                     
  6865                           ; BSR set to: 0
  6866                           ;ECU_Layer/Chr_LCD/ecu_chr_lcd.c: 330:     if(str==((void*)0)){
  6867   003714  51D4               	movf	convert_uint8_to_string@str& (0+255),w,b
  6868   003716  11D5               	iorwf	(convert_uint8_to_string@str+1)& (0+255),w,b
  6869   003718  A4D8               	btfss	status,2,c
  6870   00371A  EF91  F01B         	goto	i1u769_21
  6871   00371E  EF93  F01B         	goto	i1u769_20
  6872   003722                     i1u769_21:
  6873   003722  EF95  F01B         	goto	i1l7729
  6874   003726                     i1u769_20:
  6875   003726                     
  6876                           ; BSR set to: 0
  6877                           ;ECU_Layer/Chr_LCD/ecu_chr_lcd.c: 332:     }
  6878   003726  EFD8  F01B         	goto	i1l168
  6879   00372A                     i1l7729:
  6880                           
  6881                           ; BSR set to: 0
  6882                           ;ECU_Layer/Chr_LCD/ecu_chr_lcd.c: 334:         memset(str,'\0',4);
  6883   00372A  C0D4  F080         	movff	convert_uint8_to_string@str,memset@dest
  6884   00372E  C0D5  F081         	movff	convert_uint8_to_string@str+1,memset@dest+1
  6885   003732  0E00               	movlw	0
  6886   003734  6F83               	movwf	(memset@c+1)& (0+255),b
  6887   003736  0E00               	movlw	0
  6888   003738  6F82               	movwf	memset@c& (0+255),b
  6889   00373A  0E00               	movlw	0
  6890   00373C  6F85               	movwf	(memset@n+1)& (0+255),b
  6891   00373E  0E04               	movlw	4
  6892   003740  6F84               	movwf	memset@n& (0+255),b
  6893   003742  EC9A  F012         	call	_memset	;wreg free
  6894   003746                     
  6895                           ;ECU_Layer/Chr_LCD/ecu_chr_lcd.c: 335:         sprintf(Temp_str,"%i",value);
  6896   003746  0ED6               	movlw	low convert_uint8_to_string@Temp_str
  6897   003748  0100               	movlb	0	; () banked
  6898   00374A  6FBE               	movwf	sprintf@s& (0+255),b
  6899   00374C  0E00               	movlw	high convert_uint8_to_string@Temp_str
  6900   00374E  6FBF               	movwf	(sprintf@s+1)& (0+255),b
  6901   003750  0E11               	movlw	low STR_1
  6902   003752  6FC0               	movwf	sprintf@fmt& (0+255),b
  6903   003754  0E10               	movlw	high STR_1
  6904   003756  6FC1               	movwf	(sprintf@fmt+1)& (0+255),b
  6905   003758  C0DA  F0C2         	movff	convert_uint8_to_string@value,?_sprintf+4
  6906   00375C  6BC3               	clrf	(?_sprintf+5)& (0+255),b
  6907   00375E  EC2C  F021         	call	_sprintf	;wreg free
  6908                           
  6909                           ;ECU_Layer/Chr_LCD/ecu_chr_lcd.c: 336:         while (Temp_str[cnt] != '\0'){
  6910   003762  EFC2  F01B         	goto	i1l7737
  6911   003766                     i1l7733:
  6912                           
  6913                           ; BSR set to: 0
  6914                           ;ECU_Layer/Chr_LCD/ecu_chr_lcd.c: 337:             str[cnt] = Temp_str [cnt];
  6915   003766  0ED6               	movlw	low convert_uint8_to_string@Temp_str
  6916   003768  25DB               	addwf	convert_uint8_to_string@cnt& (0+255),w,b
  6917   00376A  6ED9               	movwf	fsr2l,c
  6918   00376C  6ADA               	clrf	fsr2h,c
  6919   00376E  0E00               	movlw	high convert_uint8_to_string@Temp_str
  6920   003770  22DA               	addwfc	fsr2h,f,c
  6921   003772  51DB               	movf	convert_uint8_to_string@cnt& (0+255),w,b
  6922   003774  25D4               	addwf	convert_uint8_to_string@str& (0+255),w,b
  6923   003776  6EE1               	movwf	fsr1l,c
  6924   003778  0E00               	movlw	0
  6925   00377A  21D5               	addwfc	(convert_uint8_to_string@str+1)& (0+255),w,b
  6926   00377C  6EE2               	movwf	fsr1h,c
  6927   00377E  CFDF FFE7          	movff	indf2,indf1
  6928   003782                     
  6929                           ; BSR set to: 0
  6930                           ;ECU_Layer/Chr_LCD/ecu_chr_lcd.c: 338:             cnt++;
  6931   003782  2BDB               	incf	convert_uint8_to_string@cnt& (0+255),f,b
  6932   003784                     i1l7737:
  6933                           
  6934                           ;ECU_Layer/Chr_LCD/ecu_chr_lcd.c: 336:         while (Temp_str[cnt] != '\0'){
  6935   003784  0ED6               	movlw	low convert_uint8_to_string@Temp_str
  6936   003786  0100               	movlb	0	; () banked
  6937   003788  25DB               	addwf	convert_uint8_to_string@cnt& (0+255),w,b
  6938   00378A  6ED9               	movwf	fsr2l,c
  6939   00378C  6ADA               	clrf	fsr2h,c
  6940   00378E  0E00               	movlw	high convert_uint8_to_string@Temp_str
  6941   003790  22DA               	addwfc	fsr2h,f,c
  6942   003792  50DF               	movf	indf2,w,c
  6943   003794  A4D8               	btfss	status,2,c
  6944   003796  EFCF  F01B         	goto	i1u770_21
  6945   00379A  EFD1  F01B         	goto	i1u770_20
  6946   00379E                     i1u770_21:
  6947   00379E  EFB3  F01B         	goto	i1l7733
  6948   0037A2                     i1u770_20:
  6949   0037A2                     
  6950                           ; BSR set to: 0
  6951                           ;ECU_Layer/Chr_LCD/ecu_chr_lcd.c: 340:         str[3] = '\0';
  6952   0037A2  EE20 F003          	lfsr	2,3
  6953   0037A6  51D4               	movf	convert_uint8_to_string@str& (0+255),w,b
  6954   0037A8  26D9               	addwf	fsr2l,f,c
  6955   0037AA  51D5               	movf	(convert_uint8_to_string@str+1)& (0+255),w,b
  6956   0037AC  22DA               	addwfc	fsr2h,f,c
  6957   0037AE  6ADF               	clrf	indf2,c
  6958   0037B0                     i1l168:
  6959                           
  6960                           ; BSR set to: 0
  6961   0037B0  0012               	return		;funcret
  6962   0037B2                     __end_of_convert_uint8_to_string:
  6963                           	callstack 0
  6964                           
  6965 ;; *************** function _sprintf *****************
  6966 ;; Defined at:
  6967 ;;		line 9 in file "C:\Program Files\Microchip\xc8\v2.41\pic\sources\c99\common\nf_sprintf.c"
  6968 ;; Parameters:    Size  Location     Type
  6969 ;;  s               2   62[BANK0 ] PTR unsigned char 
  6970 ;;		 -> convert_uint32_to_string@Temp_str(11), convert_uint16_to_string@Temp_str(6), convert_uint8_to_string@Temp_str(4)
      +, 
  6971 ;;  fmt             2   64[BANK0 ] PTR const unsigned char 
  6972 ;;		 -> STR_3(3), STR_2(3), STR_1(3), 
  6973 ;; Auto vars:     Size  Location     Type
  6974 ;;  f              12   72[BANK0 ] struct _IO_FILE
  6975 ;;  ap              2   70[BANK0 ] PTR void [1]
  6976 ;;		 -> ?_sprintf(2), 
  6977 ;;  ret             2    0        int 
  6978 ;; Return value:  Size  Location     Type
  6979 ;;                  2   62[BANK0 ] int 
  6980 ;; Registers used:
  6981 ;;		wreg, fsr1l, fsr1h, fsr2l, fsr2h, status,2, status,0, tblptrl, tblptrh, tblptru, cstack
  6982 ;; Tracked objects:
  6983 ;;		On entry : 0/0
  6984 ;;		On exit  : 0/0
  6985 ;;		Unchanged: 0/0
  6986 ;; Data sizes:     COMRAM   BANK0   BANK1   BANK2   BANK3   BANK4   BANK5   BANK6   BANK7   BANK8   BANK9  BANK10  BANK1
      +1  BANK12  BANK13  BANK14  BANK15
  6987 ;;      Params:         0       8       0       0       0       0       0       0       0       0       0       0       
      +0       0       0       0       0
  6988 ;;      Locals:         0      14       0       0       0       0       0       0       0       0       0       0       
      +0       0       0       0       0
  6989 ;;      Temps:          0       0       0       0       0       0       0       0       0       0       0       0       
      +0       0       0       0       0
  6990 ;;      Totals:         0      22       0       0       0       0       0       0       0       0       0       0       
      +0       0       0       0       0
  6991 ;;Total ram usage:       22 bytes
  6992 ;; Hardware stack levels used: 1
  6993 ;; Hardware stack levels required when called: 19
  6994 ;; This function calls:
  6995 ;;		_vfprintf
  6996 ;; This function is called by:
  6997 ;;		_convert_uint8_to_string
  6998 ;;		_convert_uint16_to_string
  6999 ;;		_convert_uint32_to_string
  7000 ;; This function uses a non-reentrant model
  7001 ;;
  7002                           
  7003                           	psect	text34
  7004   004258                     __ptext34:
  7005                           	callstack 0
  7006   004258                     _sprintf:
  7007                           	callstack 2
  7008   004258  0EC2               	movlw	low (?_sprintf+4)
  7009   00425A  0100               	movlb	0	; () banked
  7010   00425C  6FC6               	movwf	sprintf@ap& (0+255),b
  7011   00425E  0E00               	movlw	high (?_sprintf+4)
  7012   004260  6FC7               	movwf	(sprintf@ap+1)& (0+255),b
  7013   004262  C0BE  F0C8         	movff	sprintf@s,sprintf@f
  7014   004266  C0BF  F0C9         	movff	sprintf@s+1,sprintf@f+1
  7015   00426A                     
  7016                           ; BSR set to: 0
  7017   00426A  0E00               	movlw	0
  7018   00426C  6FCC               	movwf	(sprintf@f+4)& (0+255),b
  7019   00426E  0E00               	movlw	0
  7020   004270  6FCB               	movwf	(sprintf@f+3)& (0+255),b
  7021   004272                     
  7022                           ; BSR set to: 0
  7023   004272  0E00               	movlw	0
  7024   004274  6FD3               	movwf	(sprintf@f+11)& (0+255),b
  7025   004276  0E00               	movlw	0
  7026   004278  6FD2               	movwf	(sprintf@f+10)& (0+255),b
  7027   00427A                     
  7028                           ; BSR set to: 0
  7029   00427A  0EC8               	movlw	low sprintf@f
  7030   00427C  6FB6               	movwf	vfprintf@fp& (0+255),b
  7031   00427E  0E00               	movlw	high sprintf@f
  7032   004280  6FB7               	movwf	(vfprintf@fp+1)& (0+255),b
  7033   004282  C0C0  F0B8         	movff	sprintf@fmt,vfprintf@fmt
  7034   004286  C0C1  F0B9         	movff	sprintf@fmt+1,vfprintf@fmt+1
  7035   00428A  0EC6               	movlw	low sprintf@ap
  7036   00428C  6FBA               	movwf	vfprintf@ap& (0+255),b
  7037   00428E  0E00               	movlw	high sprintf@ap
  7038   004290  6FBB               	movwf	(vfprintf@ap+1)& (0+255),b
  7039   004292  ECB0  F020         	call	_vfprintf	;wreg free
  7040   004296  0100               	movlb	0	; () banked
  7041   004298  51CB               	movf	(sprintf@f+3)& (0+255),w,b
  7042   00429A  25BE               	addwf	sprintf@s& (0+255),w,b
  7043   00429C  6ED9               	movwf	fsr2l,c
  7044   00429E  51CC               	movf	(sprintf@f+4)& (0+255),w,b
  7045   0042A0  21BF               	addwfc	(sprintf@s+1)& (0+255),w,b
  7046   0042A2  6EDA               	movwf	fsr2h,c
  7047   0042A4  6ADF               	clrf	indf2,c
  7048   0042A6                     
  7049                           ; BSR set to: 0
  7050   0042A6  0012               	return		;funcret
  7051   0042A8                     __end_of_sprintf:
  7052                           	callstack 0
  7053                           
  7054 ;; *************** function _vfprintf *****************
  7055 ;; Defined at:
  7056 ;;		line 1546 in file "C:\Program Files\Microchip\xc8\v2.41\pic\sources\c99\common\doprnt.c"
  7057 ;; Parameters:    Size  Location     Type
  7058 ;;  fp              2   54[BANK0 ] PTR struct _IO_FILE
  7059 ;;		 -> sprintf@f(12), 
  7060 ;;  fmt             2   56[BANK0 ] PTR const unsigned char 
  7061 ;;		 -> STR_3(3), STR_2(3), STR_1(3), 
  7062 ;;  ap              2   58[BANK0 ] PTR PTR void 
  7063 ;;		 -> sprintf@ap(2), 
  7064 ;; Auto vars:     Size  Location     Type
  7065 ;;  cfmt            2   60[BANK0 ] PTR unsigned char 
  7066 ;;		 -> STR_3(3), STR_2(3), STR_1(3), 
  7067 ;; Return value:  Size  Location     Type
  7068 ;;                  2   54[BANK0 ] int 
  7069 ;; Registers used:
  7070 ;;		wreg, fsr1l, fsr1h, fsr2l, fsr2h, status,2, status,0, tblptrl, tblptrh, tblptru, cstack
  7071 ;; Tracked objects:
  7072 ;;		On entry : 0/0
  7073 ;;		On exit  : 0/0
  7074 ;;		Unchanged: 0/0
  7075 ;; Data sizes:     COMRAM   BANK0   BANK1   BANK2   BANK3   BANK4   BANK5   BANK6   BANK7   BANK8   BANK9  BANK10  BANK1
      +1  BANK12  BANK13  BANK14  BANK15
  7076 ;;      Params:         0       6       0       0       0       0       0       0       0       0       0       0       
      +0       0       0       0       0
  7077 ;;      Locals:         0       2       0       0       0       0       0       0       0       0       0       0       
      +0       0       0       0       0
  7078 ;;      Temps:          0       0       0       0       0       0       0       0       0       0       0       0       
      +0       0       0       0       0
  7079 ;;      Totals:         0       8       0       0       0       0       0       0       0       0       0       0       
      +0       0       0       0       0
  7080 ;;Total ram usage:        8 bytes
  7081 ;; Hardware stack levels used: 1
  7082 ;; Hardware stack levels required when called: 18
  7083 ;; This function calls:
  7084 ;;		_vfpfcnvrt
  7085 ;; This function is called by:
  7086 ;;		_sprintf
  7087 ;; This function uses a non-reentrant model
  7088 ;;
  7089                           
  7090                           	psect	text35
  7091   004160                     __ptext35:
  7092                           	callstack 0
  7093   004160                     _vfprintf:
  7094                           	callstack 2
  7095   004160                     
  7096                           ;C:\Program Files\Microchip\xc8\v2.41\pic\sources\c99\common\doprnt.c: 1546: int vfprint
      +                          f(FILE *fp, const char *fmt, va_list ap);C:\Program Files\Microchip\xc8\v2.41\pic\source
      +                          s\c99\common\doprnt.c: 1547: {;C:\Program Files\Microchip\xc8\v2.41\pic\sources\c99\comm
      +                          on\doprnt.c: 1549:     char *cfmt;;C:\Program Files\Microchip\xc8\v2.41\pic\sources\c99\
      +                          common\doprnt.c: 1551:     cfmt = (char *)fmt;
  7097   004160  C0B8  F0BC         	movff	vfprintf@fmt,vfprintf@cfmt
  7098   004164  C0B9  F0BD         	movff	vfprintf@fmt+1,vfprintf@cfmt+1
  7099                           
  7100                           ;C:\Program Files\Microchip\xc8\v2.41\pic\sources\c99\common\doprnt.c: 1555:     while (
      +                          *cfmt) {
  7101   004168  EFC5  F020         	goto	i1l7353
  7102   00416C                     i1l7351:
  7103                           
  7104                           ;C:\Program Files\Microchip\xc8\v2.41\pic\sources\c99\common\doprnt.c: 1559:    vfpfcnvr
      +                          t(fp, &cfmt, ap);
  7105   00416C  C0B6  F0A8         	movff	vfprintf@fp,vfpfcnvrt@fp
  7106   004170  C0B7  F0A9         	movff	vfprintf@fp+1,vfpfcnvrt@fp+1
  7107   004174  0EBC               	movlw	low vfprintf@cfmt
  7108   004176  0100               	movlb	0	; () banked
  7109   004178  6FAA               	movwf	vfpfcnvrt@fmt& (0+255),b
  7110   00417A  0E00               	movlw	high vfprintf@cfmt
  7111   00417C  6FAB               	movwf	(vfpfcnvrt@fmt+1)& (0+255),b
  7112   00417E  C0BA  F0AC         	movff	vfprintf@ap,vfpfcnvrt@ap
  7113   004182  C0BB  F0AD         	movff	vfprintf@ap+1,vfpfcnvrt@ap+1
  7114   004186  ECBA  F016         	call	_vfpfcnvrt	;wreg free
  7115   00418A                     i1l7353:
  7116                           
  7117                           ;C:\Program Files\Microchip\xc8\v2.41\pic\sources\c99\common\doprnt.c: 1555:     while (
      +                          *cfmt) {
  7118   00418A  C0BC  FFF6         	movff	vfprintf@cfmt,tblptrl
  7119   00418E  C0BD  FFF7         	movff	vfprintf@cfmt+1,tblptrh
  7120   004192                     	if	1	;Program memory is < 0x10000, tblptru is always zero
  7121   004192  6AF8               	clrf	tblptru,c
  7122   004194                     	endif
  7123   004194                     	if	0	;tblptru may be non-zero
  7124   004194                     	endif
  7125   004194  0008               	tblrd		*
  7126   004196  50F5               	movf	tablat,w,c
  7127   004198  0900               	iorlw	0
  7128   00419A  A4D8               	btfss	status,2,c
  7129   00419C  EFD2  F020         	goto	i1u722_21
  7130   0041A0  EFD4  F020         	goto	i1u722_20
  7131   0041A4                     i1u722_21:
  7132   0041A4  EFB6  F020         	goto	i1l7351
  7133   0041A8                     i1u722_20:
  7134   0041A8                     
  7135                           ;C:\Program Files\Microchip\xc8\v2.41\pic\sources\c99\common\doprnt.c: 1564:  return 0;
  7136   0041A8  0E00               	movlw	0
  7137   0041AA  0100               	movlb	0	; () banked
  7138   0041AC  6FB7               	movwf	(?_vfprintf+1)& (0+255),b
  7139   0041AE  0E00               	movlw	0
  7140   0041B0  6FB6               	movwf	?_vfprintf& (0+255),b
  7141   0041B2                     
  7142                           ; BSR set to: 0
  7143   0041B2  0012               	return		;funcret
  7144   0041B4                     __end_of_vfprintf:
  7145                           	callstack 0
  7146                           
  7147 ;; *************** function _vfpfcnvrt *****************
  7148 ;; Defined at:
  7149 ;;		line 1048 in file "C:\Program Files\Microchip\xc8\v2.41\pic\sources\c99\common\doprnt.c"
  7150 ;; Parameters:    Size  Location     Type
  7151 ;;  fp              2   40[BANK0 ] PTR struct _IO_FILE
  7152 ;;		 -> sprintf@f(12), 
  7153 ;;  fmt             2   42[BANK0 ] PTR PTR unsigned char 
  7154 ;;		 -> vfprintf@cfmt(2), 
  7155 ;;  ap              2   44[BANK0 ] PTR PTR void 
  7156 ;;		 -> sprintf@ap(2), 
  7157 ;; Auto vars:     Size  Location     Type
  7158 ;;  convarg         4   48[BANK0 ] struct .
  7159 ;;  cp              2   52[BANK0 ] PTR unsigned char 
  7160 ;;		 -> STR_3(3), STR_2(3), STR_1(3), 
  7161 ;;  i               2    0        int 
  7162 ;;  done            2    0        int 
  7163 ;;  c               1    0        unsigned char 
  7164 ;; Return value:  Size  Location     Type
  7165 ;;                  1    wreg      void 
  7166 ;; Registers used:
  7167 ;;		wreg, fsr1l, fsr1h, fsr2l, fsr2h, status,2, status,0, tblptrl, tblptrh, tblptru, cstack
  7168 ;; Tracked objects:
  7169 ;;		On entry : 0/0
  7170 ;;		On exit  : 0/0
  7171 ;;		Unchanged: 0/0
  7172 ;; Data sizes:     COMRAM   BANK0   BANK1   BANK2   BANK3   BANK4   BANK5   BANK6   BANK7   BANK8   BANK9  BANK10  BANK1
      +1  BANK12  BANK13  BANK14  BANK15
  7173 ;;      Params:         0       6       0       0       0       0       0       0       0       0       0       0       
      +0       0       0       0       0
  7174 ;;      Locals:         0       6       0       0       0       0       0       0       0       0       0       0       
      +0       0       0       0       0
  7175 ;;      Temps:          0       2       0       0       0       0       0       0       0       0       0       0       
      +0       0       0       0       0
  7176 ;;      Totals:         0      14       0       0       0       0       0       0       0       0       0       0       
      +0       0       0       0       0
  7177 ;;Total ram usage:       14 bytes
  7178 ;; Hardware stack levels used: 1
  7179 ;; Hardware stack levels required when called: 17
  7180 ;; This function calls:
  7181 ;;		_dtoa
  7182 ;;		_fputc
  7183 ;; This function is called by:
  7184 ;;		_vfprintf
  7185 ;; This function uses a non-reentrant model
  7186 ;;
  7187                           
  7188                           	psect	text36
  7189   002D74                     __ptext36:
  7190                           	callstack 0
  7191   002D74                     _vfpfcnvrt:
  7192                           	callstack 2
  7193   002D74                     
  7194                           ;C:\Program Files\Microchip\xc8\v2.41\pic\sources\c99\common\doprnt.c: 1048: vfpfcnvrt(F
      +                          ILE *fp, char *fmt[], va_list ap);C:\Program Files\Microchip\xc8\v2.41\pic\sources\c99\c
      +                          ommon\doprnt.c: 1049: {;C:\Program Files\Microchip\xc8\v2.41\pic\sources\c99\common\dopr
      +                          nt.c: 1050:     char c, *cp;;C:\Program Files\Microchip\xc8\v2.41\pic\sources\c99\common
      +                          \doprnt.c: 1051:     int done, i;;C:\Program Files\Microchip\xc8\v2.41\pic\sources\c99\c
      +                          ommon\doprnt.c: 1059:  } convarg;;C:\Program Files\Microchip\xc8\v2.41\pic\sources\c99\c
      +                          ommon\doprnt.c: 1062:     if ((*fmt)[0] == '%') {
  7195   002D74  C0AA  FFD9         	movff	vfpfcnvrt@fmt,fsr2l
  7196   002D78  C0AB  FFDA         	movff	vfpfcnvrt@fmt+1,fsr2h
  7197   002D7C  CFDE FFF6          	movff	postinc2,tblptrl
  7198   002D80  CFDD FFF7          	movff	postdec2,tblptrh
  7199   002D84                     	if	1	;Program memory is < 0x10000, tblptru is always zero
  7200   002D84  6AF8               	clrf	tblptru,c
  7201   002D86                     	endif
  7202   002D86                     	if	0	;tblptru may be non-zero
  7203   002D86                     	endif
  7204   002D86  0008               	tblrd		*
  7205   002D88  50F5               	movf	tablat,w,c
  7206   002D8A  0A25               	xorlw	37
  7207   002D8C  A4D8               	btfss	status,2,c
  7208   002D8E  EFCB  F016         	goto	i1u622_21
  7209   002D92  EFCD  F016         	goto	i1u622_20
  7210   002D96                     i1u622_21:
  7211   002D96  EF3B  F017         	goto	i1l6805
  7212   002D9A                     i1u622_20:
  7213   002D9A                     
  7214                           ;C:\Program Files\Microchip\xc8\v2.41\pic\sources\c99\common\doprnt.c: 1063:         ++*
      +                          fmt;
  7215   002D9A  C0AA  FFD9         	movff	vfpfcnvrt@fmt,fsr2l
  7216   002D9E  C0AB  FFDA         	movff	vfpfcnvrt@fmt+1,fsr2h
  7217   002DA2  2ADE               	incf	postinc2,f,c
  7218   002DA4  0E00               	movlw	0
  7219   002DA6  22DD               	addwfc	postdec2,f,c
  7220   002DA8                     
  7221                           ;C:\Program Files\Microchip\xc8\v2.41\pic\sources\c99\common\doprnt.c: 1065:         fla
      +                          gs = width = 0;
  7222   002DA8  0E00               	movlw	0
  7223   002DAA  0101               	movlb	1	; () banked
  7224   002DAC  6F1A               	movwf	(_width+1)& (0+255),b
  7225   002DAE  0E00               	movlw	0
  7226   002DB0  6F19               	movwf	_width& (0+255),b
  7227   002DB2  C119  F0FD         	movff	_width,_flags
  7228   002DB6                     
  7229                           ; BSR set to: 1
  7230                           ;C:\Program Files\Microchip\xc8\v2.41\pic\sources\c99\common\doprnt.c: 1066:         pre
      +                          c = -1;
  7231   002DB6  0100               	movlb	0	; () banked
  7232   002DB8  69EF               	setf	_prec& (0+255),b
  7233   002DBA  69F0               	setf	(_prec+1)& (0+255),b
  7234   002DBC                     
  7235                           ; BSR set to: 0
  7236                           ;C:\Program Files\Microchip\xc8\v2.41\pic\sources\c99\common\doprnt.c: 1143:   cp = *fmt
      +                          ;
  7237   002DBC  C0AA  FFD9         	movff	vfpfcnvrt@fmt,fsr2l
  7238   002DC0  C0AB  FFDA         	movff	vfpfcnvrt@fmt+1,fsr2h
  7239   002DC4  CFDE F0B4          	movff	postinc2,vfpfcnvrt@cp
  7240   002DC8  CFDD F0B5          	movff	postdec2,vfpfcnvrt@cp+1
  7241   002DCC                     
  7242                           ; BSR set to: 0
  7243                           ;C:\Program Files\Microchip\xc8\v2.41\pic\sources\c99\common\doprnt.c: 1213:   if (*cp =
      +                          = 'd' || *cp == 'i') {
  7244   002DCC  C0B4  FFF6         	movff	vfpfcnvrt@cp,tblptrl
  7245   002DD0  C0B5  FFF7         	movff	vfpfcnvrt@cp+1,tblptrh
  7246   002DD4                     	if	1	;Program memory is < 0x10000, tblptru is always zero
  7247   002DD4  6AF8               	clrf	tblptru,c
  7248   002DD6                     	endif
  7249   002DD6                     	if	0	;tblptru may be non-zero
  7250   002DD6                     	endif
  7251   002DD6  0008               	tblrd		*
  7252   002DD8  50F5               	movf	tablat,w,c
  7253   002DDA  0A64               	xorlw	100
  7254   002DDC  B4D8               	btfsc	status,2,c
  7255   002DDE  EFF3  F016         	goto	i1u623_21
  7256   002DE2  EFF5  F016         	goto	i1u623_20
  7257   002DE6                     i1u623_21:
  7258   002DE6  EF04  F017         	goto	i1l6795
  7259   002DEA                     i1u623_20:
  7260   002DEA                     
  7261                           ; BSR set to: 0
  7262   002DEA  C0B4  FFF6         	movff	vfpfcnvrt@cp,tblptrl
  7263   002DEE  C0B5  FFF7         	movff	vfpfcnvrt@cp+1,tblptrh
  7264   002DF2                     	if	1	;Program memory is < 0x10000, tblptru is always zero
  7265   002DF2  6AF8               	clrf	tblptru,c
  7266   002DF4                     	endif
  7267   002DF4                     	if	0	;tblptru may be non-zero
  7268   002DF4                     	endif
  7269   002DF4  0008               	tblrd		*
  7270   002DF6  50F5               	movf	tablat,w,c
  7271   002DF8  0A69               	xorlw	105
  7272   002DFA  A4D8               	btfss	status,2,c
  7273   002DFC  EF02  F017         	goto	i1u624_21
  7274   002E00  EF04  F017         	goto	i1u624_20
  7275   002E04                     i1u624_21:
  7276   002E04  EF32  F017         	goto	i1l6801
  7277   002E08                     i1u624_20:
  7278   002E08                     i1l6795:
  7279                           
  7280                           ; BSR set to: 0
  7281                           ;C:\Program Files\Microchip\xc8\v2.41\pic\sources\c99\common\doprnt.c: 1256:    convarg.
      +                          sint = (vfpf_sint_t)(int)(*(int *)__va_arg(*(int **)ap, (int)0));
  7282   002E08  C0AC  FFD9         	movff	vfpfcnvrt@ap,fsr2l
  7283   002E0C  C0AD  FFDA         	movff	vfpfcnvrt@ap+1,fsr2h
  7284   002E10  CFDF F0AE          	movff	indf2,??_vfpfcnvrt
  7285   002E14  0E02               	movlw	2
  7286   002E16  26DE               	addwf	postinc2,f,c
  7287   002E18  CFDF F0AF          	movff	indf2,??_vfpfcnvrt+1
  7288   002E1C  0E00               	movlw	0
  7289   002E1E  22DD               	addwfc	postdec2,f,c
  7290   002E20  C0AE  FFD9         	movff	??_vfpfcnvrt,fsr2l
  7291   002E24  C0AF  FFDA         	movff	??_vfpfcnvrt+1,fsr2h
  7292   002E28  CFDE F0B0          	movff	postinc2,vfpfcnvrt@convarg
  7293   002E2C  CFDD F0B1          	movff	postdec2,vfpfcnvrt@convarg+1
  7294                           
  7295                           ;C:\Program Files\Microchip\xc8\v2.41\pic\sources\c99\common\doprnt.c: 1258:    *fmt = c
      +                          p+1;
  7296   002E30  0E01               	movlw	1
  7297   002E32  25B4               	addwf	vfpfcnvrt@cp& (0+255),w,b
  7298   002E34  6FAE               	movwf	??_vfpfcnvrt& (0+255),b
  7299   002E36  0E00               	movlw	0
  7300   002E38  21B5               	addwfc	(vfpfcnvrt@cp+1)& (0+255),w,b
  7301   002E3A  6FAF               	movwf	(??_vfpfcnvrt+1)& (0+255),b
  7302   002E3C  C0AA  FFD9         	movff	vfpfcnvrt@fmt,fsr2l
  7303   002E40  C0AB  FFDA         	movff	vfpfcnvrt@fmt+1,fsr2h
  7304   002E44  C0AE  FFDE         	movff	??_vfpfcnvrt,postinc2
  7305   002E48  C0AF  FFDD         	movff	??_vfpfcnvrt+1,postdec2
  7306   002E4C                     
  7307                           ; BSR set to: 0
  7308                           ;C:\Program Files\Microchip\xc8\v2.41\pic\sources\c99\common\doprnt.c: 1259:    return (
      +                          void) dtoa(fp, convarg.sint);;	Return value of _vfpfcnvrt is never used
  7309   002E4C  C0A8  F09B         	movff	vfpfcnvrt@fp,dtoa@fp
  7310   002E50  C0A9  F09C         	movff	vfpfcnvrt@fp+1,dtoa@fp+1
  7311   002E54  C0B0  F09D         	movff	vfpfcnvrt@convarg,dtoa@d
  7312   002E58  C0B1  F09E         	movff	vfpfcnvrt@convarg+1,dtoa@d+1
  7313   002E5C  EC02  F011         	call	_dtoa	;wreg free
  7314   002E60  EF51  F017         	goto	i1l2309
  7315   002E64                     i1l6801:
  7316                           
  7317                           ;C:\Program Files\Microchip\xc8\v2.41\pic\sources\c99\common\doprnt.c: 1535:         ++*
      +                          fmt;
  7318   002E64  C0AA  FFD9         	movff	vfpfcnvrt@fmt,fsr2l
  7319   002E68  C0AB  FFDA         	movff	vfpfcnvrt@fmt+1,fsr2h
  7320   002E6C  2ADE               	incf	postinc2,f,c
  7321   002E6E  0E00               	movlw	0
  7322   002E70  22DD               	addwfc	postdec2,f,c
  7323   002E72  EF51  F017         	goto	i1l2309
  7324   002E76                     i1l6805:
  7325                           
  7326                           ;C:\Program Files\Microchip\xc8\v2.41\pic\sources\c99\common\doprnt.c: 1540:     fputc((
      +                          int)(*fmt)[0], fp);
  7327   002E76  C0AA  FFD9         	movff	vfpfcnvrt@fmt,fsr2l
  7328   002E7A  C0AB  FFDA         	movff	vfpfcnvrt@fmt+1,fsr2h
  7329   002E7E  CFDE FFF6          	movff	postinc2,tblptrl
  7330   002E82  CFDD FFF7          	movff	postdec2,tblptrh
  7331   002E86                     	if	1	;Program memory is < 0x10000, tblptru is always zero
  7332   002E86  6AF8               	clrf	tblptru,c
  7333   002E88                     	endif
  7334   002E88                     	if	0	;tblptru may be non-zero
  7335   002E88                     	endif
  7336   002E88  0008               	tblrd		*
  7337   002E8A  50F5               	movf	tablat,w,c
  7338   002E8C  0100               	movlb	0	; () banked
  7339   002E8E  6F80               	movwf	fputc@c& (0+255),b
  7340   002E90  6B81               	clrf	(fputc@c+1)& (0+255),b
  7341   002E92  C0A8  F082         	movff	vfpfcnvrt@fp,fputc@fp
  7342   002E96  C0A9  F083         	movff	vfpfcnvrt@fp+1,fputc@fp+1
  7343   002E9A  ECED  F019         	call	_fputc	;wreg free
  7344   002E9E  EF32  F017         	goto	i1l6801
  7345   002EA2                     i1l2309:
  7346   002EA2  0012               	return		;funcret
  7347   002EA4                     __end_of_vfpfcnvrt:
  7348                           	callstack 0
  7349                           
  7350 ;; *************** function _dtoa *****************
  7351 ;; Defined at:
  7352 ;;		line 470 in file "C:\Program Files\Microchip\xc8\v2.41\pic\sources\c99\common\doprnt.c"
  7353 ;; Parameters:    Size  Location     Type
  7354 ;;  fp              2   27[BANK0 ] PTR struct _IO_FILE
  7355 ;;		 -> sprintf@f(12), 
  7356 ;;  d               2   29[BANK0 ] int 
  7357 ;; Auto vars:     Size  Location     Type
  7358 ;;  i               2   37[BANK0 ] int 
  7359 ;;  w               2   35[BANK0 ] int 
  7360 ;;  p               2   33[BANK0 ] int 
  7361 ;;  s               1   39[BANK0 ] unsigned char 
  7362 ;; Return value:  Size  Location     Type
  7363 ;;                  1    wreg      void 
  7364 ;; Registers used:
  7365 ;;		wreg, fsr1l, fsr1h, fsr2l, fsr2h, status,2, status,0, cstack
  7366 ;; Tracked objects:
  7367 ;;		On entry : 0/0
  7368 ;;		On exit  : 0/0
  7369 ;;		Unchanged: 0/0
  7370 ;; Data sizes:     COMRAM   BANK0   BANK1   BANK2   BANK3   BANK4   BANK5   BANK6   BANK7   BANK8   BANK9  BANK10  BANK1
      +1  BANK12  BANK13  BANK14  BANK15
  7371 ;;      Params:         0       4       0       0       0       0       0       0       0       0       0       0       
      +0       0       0       0       0
  7372 ;;      Locals:         0       9       0       0       0       0       0       0       0       0       0       0       
      +0       0       0       0       0
  7373 ;;      Temps:          0       0       0       0       0       0       0       0       0       0       0       0       
      +0       0       0       0       0
  7374 ;;      Totals:         0      13       0       0       0       0       0       0       0       0       0       0       
      +0       0       0       0       0
  7375 ;;Total ram usage:       13 bytes
  7376 ;; Hardware stack levels used: 1
  7377 ;; Hardware stack levels required when called: 16
  7378 ;; This function calls:
  7379 ;;		___awdiv
  7380 ;;		___awmod
  7381 ;;		_abs
  7382 ;;		_pad
  7383 ;; This function is called by:
  7384 ;;		_vfpfcnvrt
  7385 ;; This function uses a non-reentrant model
  7386 ;;
  7387                           
  7388                           	psect	text37
  7389   002204                     __ptext37:
  7390                           	callstack 0
  7391   002204                     _dtoa:
  7392                           	callstack 2
  7393   002204                     
  7394                           ;C:\Program Files\Microchip\xc8\v2.41\pic\sources\c99\common\doprnt.c: 470: static void 
      +                          dtoa(FILE *fp, vfpf_sint_t d);C:\Program Files\Microchip\xc8\v2.41\pic\sources\c99\commo
      +                          n\doprnt.c: 471: {;C:\Program Files\Microchip\xc8\v2.41\pic\sources\c99\common\doprnt.c:
      +                           472:  char s;;C:\Program Files\Microchip\xc8\v2.41\pic\sources\c99\common\doprnt.c: 473
      +                          :     int i, p, w;;C:\Program Files\Microchip\xc8\v2.41\pic\sources\c99\common\doprnt.c:
      +                           476:     s = d < 0 ? 1 : 0;
  7395   002204  0100               	movlb	0	; () banked
  7396   002206  BF9E               	btfsc	(dtoa@d+1)& (0+255),7,b
  7397   002208  EF08  F011         	goto	i1u602_21
  7398   00220C  EF0B  F011         	goto	i1u602_20
  7399   002210                     i1u602_21:
  7400   002210  0E01               	movlw	1
  7401   002212  EF0C  F011         	goto	i1u603_20
  7402   002216                     i1u602_20:
  7403   002216  0E00               	movlw	0
  7404   002218                     i1u603_20:
  7405   002218  6FA7               	movwf	dtoa@s& (0+255),b
  7406   00221A                     
  7407                           ; BSR set to: 0
  7408                           ;C:\Program Files\Microchip\xc8\v2.41\pic\sources\c99\common\doprnt.c: 477:     if (s) {
  7409   00221A  51A7               	movf	dtoa@s& (0+255),w,b
  7410   00221C  B4D8               	btfsc	status,2,c
  7411   00221E  EF13  F011         	goto	i1u604_21
  7412   002222  EF15  F011         	goto	i1u604_20
  7413   002226                     i1u604_21:
  7414   002226  EF19  F011         	goto	i1l6687
  7415   00222A                     i1u604_20:
  7416   00222A                     
  7417                           ; BSR set to: 0
  7418                           ;C:\Program Files\Microchip\xc8\v2.41\pic\sources\c99\common\doprnt.c: 478:         d = 
      +                          -d;
  7419   00222A  6D9D               	negf	dtoa@d& (0+255),b
  7420   00222C  1F9E               	comf	(dtoa@d+1)& (0+255),f,b
  7421   00222E  B0D8               	btfsc	status,0,c
  7422   002230  2B9E               	incf	(dtoa@d+1)& (0+255),f,b
  7423   002232                     i1l6687:
  7424                           
  7425                           ; BSR set to: 0
  7426                           ;C:\Program Files\Microchip\xc8\v2.41\pic\sources\c99\common\doprnt.c: 487:     p = (0 <
      +                          = prec) ? prec : 1;
  7427   002232  BFF0               	btfsc	(_prec+1)& (0+255),7,b
  7428   002234  EF20  F011         	goto	i1u605_20
  7429   002238  EF1E  F011         	goto	i1u605_21
  7430   00223C                     i1u605_21:
  7431   00223C  EF26  F011         	goto	i1l2288
  7432   002240                     i1u605_20:
  7433   002240                     
  7434                           ; BSR set to: 0
  7435   002240  0E00               	movlw	0
  7436   002242  6FA2               	movwf	(dtoa@p+1)& (0+255),b
  7437   002244  0E01               	movlw	1
  7438   002246  6FA1               	movwf	dtoa@p& (0+255),b
  7439   002248  EF2A  F011         	goto	i1l2290
  7440   00224C                     i1l2288:
  7441                           
  7442                           ; BSR set to: 0
  7443   00224C  C0EF  F0A1         	movff	_prec,dtoa@p
  7444   002250  C0F0  F0A2         	movff	_prec+1,dtoa@p+1
  7445   002254                     i1l2290:
  7446                           
  7447                           ; BSR set to: 0
  7448                           ;C:\Program Files\Microchip\xc8\v2.41\pic\sources\c99\common\doprnt.c: 488:     w = widt
      +                          h;
  7449   002254  C119  F0A3         	movff	_width,dtoa@w
  7450   002258  C11A  F0A4         	movff	_width+1,dtoa@w+1
  7451   00225C                     
  7452                           ; BSR set to: 0
  7453                           ;C:\Program Files\Microchip\xc8\v2.41\pic\sources\c99\common\doprnt.c: 489:     if (s
  7454   00225C  51A7               	movf	dtoa@s& (0+255),w,b
  7455   00225E  B4D8               	btfsc	status,2,c
  7456   002260  EF34  F011         	goto	i1u606_21
  7457   002264  EF36  F011         	goto	i1u606_20
  7458   002268                     i1u606_21:
  7459   002268  EF4D  F011         	goto	i1l2291
  7460   00226C                     i1u606_20:
  7461   00226C                     
  7462                           ; BSR set to: 0
  7463                           ;C:\Program Files\Microchip\xc8\v2.41\pic\sources\c99\common\doprnt.c: 493:     ) {;C:\P
      +                          rogram Files\Microchip\xc8\v2.41\pic\sources\c99\common\doprnt.c: 494:         --w;
  7464   00226C  07A3               	decf	dtoa@w& (0+255),f,b
  7465   00226E  A0D8               	btfss	status,0,c
  7466   002270  07A4               	decf	(dtoa@w+1)& (0+255),f,b
  7467   002272                     
  7468                           ; BSR set to: 0
  7469                           ;C:\Program Files\Microchip\xc8\v2.41\pic\sources\c99\common\doprnt.c: 495:   s = s ? '-
      +                          ' : '+';
  7470   002272  51A7               	movf	dtoa@s& (0+255),w,b
  7471   002274  A4D8               	btfss	status,2,c
  7472   002276  EF3F  F011         	goto	i1u607_21
  7473   00227A  EF41  F011         	goto	i1u607_20
  7474   00227E                     i1u607_21:
  7475   00227E  EF47  F011         	goto	i1l6699
  7476   002282                     i1u607_20:
  7477   002282                     
  7478                           ; BSR set to: 0
  7479   002282  0E00               	movlw	0
  7480   002284  6FA0               	movwf	(_dtoa$3417+1)& (0+255),b
  7481   002286  0E2B               	movlw	43
  7482   002288  6F9F               	movwf	_dtoa$3417& (0+255),b
  7483   00228A  EF4B  F011         	goto	i1l6701
  7484   00228E                     i1l6699:
  7485                           
  7486                           ; BSR set to: 0
  7487   00228E  0E00               	movlw	0
  7488   002290  6FA0               	movwf	(_dtoa$3417+1)& (0+255),b
  7489   002292  0E2D               	movlw	45
  7490   002294  6F9F               	movwf	_dtoa$3417& (0+255),b
  7491   002296                     i1l6701:
  7492                           
  7493                           ; BSR set to: 0
  7494   002296  C09F  F0A7         	movff	_dtoa$3417,dtoa@s
  7495   00229A                     i1l2291:
  7496                           
  7497                           ; BSR set to: 0
  7498                           ;C:\Program Files\Microchip\xc8\v2.41\pic\sources\c99\common\doprnt.c: 505:     i = size
      +                          of(dbuf) - 1;
  7499   00229A  0E00               	movlw	0
  7500   00229C  6FA6               	movwf	(dtoa@i+1)& (0+255),b
  7501   00229E  0E1F               	movlw	31
  7502   0022A0  6FA5               	movwf	dtoa@i& (0+255),b
  7503   0022A2                     
  7504                           ; BSR set to: 0
  7505                           ;C:\Program Files\Microchip\xc8\v2.41\pic\sources\c99\common\doprnt.c: 506:     dbuf[i] 
      +                          = '\0';
  7506   0022A2  0E00               	movlw	0
  7507   0022A4  0101               	movlb	1	; () banked
  7508   0022A6  6F56               	movwf	(_dbuf+31)& (0+255),b
  7509                           
  7510                           ;C:\Program Files\Microchip\xc8\v2.41\pic\sources\c99\common\doprnt.c: 507:     while (!
      +                          (i < 1) && (d || (0 < p)
  7511   0022A8  EF87  F011         	goto	i1l6715
  7512   0022AC                     i1l6705:
  7513                           
  7514                           ; BSR set to: 0
  7515                           ;C:\Program Files\Microchip\xc8\v2.41\pic\sources\c99\common\doprnt.c: 511:     )) {;C:\
      +                          Program Files\Microchip\xc8\v2.41\pic\sources\c99\common\doprnt.c: 512:         --i;
  7516   0022AC  07A5               	decf	dtoa@i& (0+255),f,b
  7517   0022AE  A0D8               	btfss	status,0,c
  7518   0022B0  07A6               	decf	(dtoa@i+1)& (0+255),f,b
  7519   0022B2                     
  7520                           ; BSR set to: 0
  7521                           ;C:\Program Files\Microchip\xc8\v2.41\pic\sources\c99\common\doprnt.c: 513:         dbuf
      +                          [i] = (char)((int)'0' + abs(d % 10));
  7522   0022B2  0E37               	movlw	low _dbuf
  7523   0022B4  25A5               	addwf	dtoa@i& (0+255),w,b
  7524   0022B6  6ED9               	movwf	fsr2l,c
  7525   0022B8  0E01               	movlw	high _dbuf
  7526   0022BA  21A6               	addwfc	(dtoa@i+1)& (0+255),w,b
  7527   0022BC  6EDA               	movwf	fsr2h,c
  7528   0022BE  C09D  F080         	movff	dtoa@d,___awmod@dividend
  7529   0022C2  C09E  F081         	movff	dtoa@d+1,___awmod@dividend+1
  7530   0022C6  0E00               	movlw	0
  7531   0022C8  6F83               	movwf	(___awmod@divisor+1)& (0+255),b
  7532   0022CA  0E0A               	movlw	10
  7533   0022CC  6F82               	movwf	___awmod@divisor& (0+255),b
  7534   0022CE  ECD9  F01B         	call	___awmod	;wreg free
  7535   0022D2  C080  F086         	movff	?___awmod,abs@a
  7536   0022D6  C081  F087         	movff	?___awmod+1,abs@a+1
  7537   0022DA  EC7C  F022         	call	_abs	;wreg free
  7538   0022DE  0100               	movlb	0	; () banked
  7539   0022E0  5186               	movf	?_abs& (0+255),w,b
  7540   0022E2  0F30               	addlw	48
  7541   0022E4  6EDF               	movwf	indf2,c
  7542   0022E6                     
  7543                           ; BSR set to: 0
  7544                           ;C:\Program Files\Microchip\xc8\v2.41\pic\sources\c99\common\doprnt.c: 514:         --p;
  7545   0022E6  07A1               	decf	dtoa@p& (0+255),f,b
  7546   0022E8  A0D8               	btfss	status,0,c
  7547   0022EA  07A2               	decf	(dtoa@p+1)& (0+255),f,b
  7548   0022EC                     
  7549                           ; BSR set to: 0
  7550                           ;C:\Program Files\Microchip\xc8\v2.41\pic\sources\c99\common\doprnt.c: 515:         --w;
  7551   0022EC  07A3               	decf	dtoa@w& (0+255),f,b
  7552   0022EE  A0D8               	btfss	status,0,c
  7553   0022F0  07A4               	decf	(dtoa@w+1)& (0+255),f,b
  7554   0022F2                     
  7555                           ; BSR set to: 0
  7556                           ;C:\Program Files\Microchip\xc8\v2.41\pic\sources\c99\common\doprnt.c: 516:         d = 
      +                          d / 10;
  7557   0022F2  C09D  F080         	movff	dtoa@d,___awdiv@dividend
  7558   0022F6  C09E  F081         	movff	dtoa@d+1,___awdiv@dividend+1
  7559   0022FA  0E00               	movlw	0
  7560   0022FC  6F83               	movwf	(___awdiv@divisor+1)& (0+255),b
  7561   0022FE  0E0A               	movlw	10
  7562   002300  6F82               	movwf	___awdiv@divisor& (0+255),b
  7563   002302  ECB8  F01A         	call	___awdiv	;wreg free
  7564   002306  C080  F09D         	movff	?___awdiv,dtoa@d
  7565   00230A  C081  F09E         	movff	?___awdiv+1,dtoa@d+1
  7566   00230E                     i1l6715:
  7567                           
  7568                           ;C:\Program Files\Microchip\xc8\v2.41\pic\sources\c99\common\doprnt.c: 507:     while (!
      +                          (i < 1) && (d || (0 < p)
  7569   00230E  0100               	movlb	0	; () banked
  7570   002310  BFA6               	btfsc	(dtoa@i+1)& (0+255),7,b
  7571   002312  EF93  F011         	goto	i1u608_21
  7572   002316  51A6               	movf	(dtoa@i+1)& (0+255),w,b
  7573   002318  E108               	bnz	i1u608_20
  7574   00231A  05A5               	decf	dtoa@i& (0+255),w,b
  7575   00231C  A0D8               	btfss	status,0,c
  7576   00231E  EF93  F011         	goto	i1u608_21
  7577   002322  EF95  F011         	goto	i1u608_20
  7578   002326                     i1u608_21:
  7579   002326  EFAB  F011         	goto	i1l6721
  7580   00232A                     i1u608_20:
  7581   00232A                     
  7582                           ; BSR set to: 0
  7583   00232A  519D               	movf	dtoa@d& (0+255),w,b
  7584   00232C  119E               	iorwf	(dtoa@d+1)& (0+255),w,b
  7585   00232E  A4D8               	btfss	status,2,c
  7586   002330  EF9C  F011         	goto	i1u609_21
  7587   002334  EF9E  F011         	goto	i1u609_20
  7588   002338                     i1u609_21:
  7589   002338  EF56  F011         	goto	i1l6705
  7590   00233C                     i1u609_20:
  7591   00233C                     
  7592                           ; BSR set to: 0
  7593   00233C  BFA2               	btfsc	(dtoa@p+1)& (0+255),7,b
  7594   00233E  EFAB  F011         	goto	i1u610_20
  7595   002342  51A2               	movf	(dtoa@p+1)& (0+255),w,b
  7596   002344  E106               	bnz	i1u610_21
  7597   002346  05A1               	decf	dtoa@p& (0+255),w,b
  7598   002348  B0D8               	btfsc	status,0,c
  7599   00234A  EFA9  F011         	goto	i1u610_21
  7600   00234E  EFAB  F011         	goto	i1u610_20
  7601   002352                     i1u610_21:
  7602   002352  EF56  F011         	goto	i1l6705
  7603   002356                     i1u610_20:
  7604   002356                     i1l6721:
  7605                           
  7606                           ; BSR set to: 0
  7607                           ;C:\Program Files\Microchip\xc8\v2.41\pic\sources\c99\common\doprnt.c: 520:     if (s !=
      +                           0) {
  7608   002356  51A7               	movf	dtoa@s& (0+255),w,b
  7609   002358  B4D8               	btfsc	status,2,c
  7610   00235A  EFB1  F011         	goto	i1u611_21
  7611   00235E  EFB3  F011         	goto	i1u611_20
  7612   002362                     i1u611_21:
  7613   002362  EFBE  F011         	goto	i1l6727
  7614   002366                     i1u611_20:
  7615   002366                     
  7616                           ; BSR set to: 0
  7617                           ;C:\Program Files\Microchip\xc8\v2.41\pic\sources\c99\common\doprnt.c: 521:         --i;
  7618   002366  07A5               	decf	dtoa@i& (0+255),f,b
  7619   002368  A0D8               	btfss	status,0,c
  7620   00236A  07A6               	decf	(dtoa@i+1)& (0+255),f,b
  7621   00236C                     
  7622                           ; BSR set to: 0
  7623                           ;C:\Program Files\Microchip\xc8\v2.41\pic\sources\c99\common\doprnt.c: 522:         dbuf
      +                          [i] = s;
  7624   00236C  0E37               	movlw	low _dbuf
  7625   00236E  25A5               	addwf	dtoa@i& (0+255),w,b
  7626   002370  6ED9               	movwf	fsr2l,c
  7627   002372  0E01               	movlw	high _dbuf
  7628   002374  21A6               	addwfc	(dtoa@i+1)& (0+255),w,b
  7629   002376  6EDA               	movwf	fsr2h,c
  7630   002378  C0A7  FFDF         	movff	dtoa@s,indf2
  7631   00237C                     i1l6727:
  7632                           
  7633                           ; BSR set to: 0
  7634                           ;C:\Program Files\Microchip\xc8\v2.41\pic\sources\c99\common\doprnt.c: 526:     return (
      +                          void) pad(fp, &dbuf[i], w);
  7635   00237C  C09B  F090         	movff	dtoa@fp,pad@fp
  7636   002380  C09C  F091         	movff	dtoa@fp+1,pad@fp+1
  7637   002384  0E37               	movlw	low _dbuf
  7638   002386  25A5               	addwf	dtoa@i& (0+255),w,b
  7639   002388  6F92               	movwf	pad@buf& (0+255),b
  7640   00238A  0E01               	movlw	high _dbuf
  7641   00238C  21A6               	addwfc	(dtoa@i+1)& (0+255),w,b
  7642   00238E  6F93               	movwf	(pad@buf+1)& (0+255),b
  7643   002390  C0A3  F094         	movff	dtoa@w,pad@p
  7644   002394  C0A4  F095         	movff	dtoa@w+1,pad@p+1
  7645   002398  ECC5  F01E         	call	_pad	;wreg free
  7646   00239C  0012               	return		;funcret
  7647   00239E                     __end_of_dtoa:
  7648                           	callstack 0
  7649                           
  7650 ;; *************** function _pad *****************
  7651 ;; Defined at:
  7652 ;;		line 152 in file "C:\Program Files\Microchip\xc8\v2.41\pic\sources\c99\common\doprnt.c"
  7653 ;; Parameters:    Size  Location     Type
  7654 ;;  fp              2   16[BANK0 ] PTR struct _IO_FILE
  7655 ;;		 -> sprintf@f(12), 
  7656 ;;  buf             2   18[BANK0 ] PTR unsigned char 
  7657 ;;		 -> dbuf(32), 
  7658 ;;  p               2   20[BANK0 ] int 
  7659 ;; Auto vars:     Size  Location     Type
  7660 ;;  w               2   25[BANK0 ] int 
  7661 ;;  i               2   23[BANK0 ] int 
  7662 ;; Return value:  Size  Location     Type
  7663 ;;                  1    wreg      void 
  7664 ;; Registers used:
  7665 ;;		wreg, fsr1l, fsr1h, fsr2l, fsr2h, status,2, status,0, cstack
  7666 ;; Tracked objects:
  7667 ;;		On entry : 0/0
  7668 ;;		On exit  : 0/0
  7669 ;;		Unchanged: 0/0
  7670 ;; Data sizes:     COMRAM   BANK0   BANK1   BANK2   BANK3   BANK4   BANK5   BANK6   BANK7   BANK8   BANK9  BANK10  BANK1
      +1  BANK12  BANK13  BANK14  BANK15
  7671 ;;      Params:         0       6       0       0       0       0       0       0       0       0       0       0       
      +0       0       0       0       0
  7672 ;;      Locals:         0       4       0       0       0       0       0       0       0       0       0       0       
      +0       0       0       0       0
  7673 ;;      Temps:          0       1       0       0       0       0       0       0       0       0       0       0       
      +0       0       0       0       0
  7674 ;;      Totals:         0      11       0       0       0       0       0       0       0       0       0       0       
      +0       0       0       0       0
  7675 ;;Total ram usage:       11 bytes
  7676 ;; Hardware stack levels used: 1
  7677 ;; Hardware stack levels required when called: 15
  7678 ;; This function calls:
  7679 ;;		_fputc
  7680 ;;		_fputs
  7681 ;; This function is called by:
  7682 ;;		_dtoa
  7683 ;; This function uses a non-reentrant model
  7684 ;;
  7685                           
  7686                           	psect	text38
  7687   003D8A                     __ptext38:
  7688                           	callstack 0
  7689   003D8A                     _pad:
  7690                           	callstack 2
  7691   003D8A                     
  7692                           ;C:\Program Files\Microchip\xc8\v2.41\pic\sources\c99\common\doprnt.c: 152: static void 
      +                          pad(FILE *fp, char *buf, int p);C:\Program Files\Microchip\xc8\v2.41\pic\sources\c99\com
      +                          mon\doprnt.c: 153: {;C:\Program Files\Microchip\xc8\v2.41\pic\sources\c99\common\doprnt.
      +                          c: 154:     int i, w;;C:\Program Files\Microchip\xc8\v2.41\pic\sources\c99\common\doprnt
      +                          .c: 164:     w = (p < 0) ? 0 : p;
  7693   003D8A  0100               	movlb	0	; () banked
  7694   003D8C  BF95               	btfsc	(pad@p+1)& (0+255),7,b
  7695   003D8E  EFCB  F01E         	goto	i1u584_21
  7696   003D92  EFCD  F01E         	goto	i1u584_20
  7697   003D96                     i1u584_21:
  7698   003D96  EFD3  F01E         	goto	i1l6569
  7699   003D9A                     i1u584_20:
  7700   003D9A                     
  7701                           ; BSR set to: 0
  7702   003D9A  C094  F099         	movff	pad@p,pad@w
  7703   003D9E  C095  F09A         	movff	pad@p+1,pad@w+1
  7704   003DA2  EFD7  F01E         	goto	i1l2279
  7705   003DA6                     i1l6569:
  7706                           
  7707                           ; BSR set to: 0
  7708   003DA6  0E00               	movlw	0
  7709   003DA8  6F9A               	movwf	(pad@w+1)& (0+255),b
  7710   003DAA  0E00               	movlw	0
  7711   003DAC  6F99               	movwf	pad@w& (0+255),b
  7712   003DAE                     i1l2279:
  7713                           
  7714                           ; BSR set to: 0
  7715                           ;C:\Program Files\Microchip\xc8\v2.41\pic\sources\c99\common\doprnt.c: 165:     i = 0;
  7716   003DAE  0E00               	movlw	0
  7717   003DB0  6F98               	movwf	(pad@i+1)& (0+255),b
  7718   003DB2  0E00               	movlw	0
  7719   003DB4  6F97               	movwf	pad@i& (0+255),b
  7720                           
  7721                           ;C:\Program Files\Microchip\xc8\v2.41\pic\sources\c99\common\doprnt.c: 166:     while (i
      +                           < w) {
  7722   003DB6  EFEA  F01E         	goto	i1l6575
  7723   003DBA                     i1l6571:
  7724                           
  7725                           ; BSR set to: 0
  7726                           ;C:\Program Files\Microchip\xc8\v2.41\pic\sources\c99\common\doprnt.c: 167:         fput
      +                          c(' ', fp);
  7727   003DBA  0E00               	movlw	0
  7728   003DBC  6F81               	movwf	(fputc@c+1)& (0+255),b
  7729   003DBE  0E20               	movlw	32
  7730   003DC0  6F80               	movwf	fputc@c& (0+255),b
  7731   003DC2  C090  F082         	movff	pad@fp,fputc@fp
  7732   003DC6  C091  F083         	movff	pad@fp+1,fputc@fp+1
  7733   003DCA  ECED  F019         	call	_fputc	;wreg free
  7734   003DCE                     
  7735                           ;C:\Program Files\Microchip\xc8\v2.41\pic\sources\c99\common\doprnt.c: 168:         ++i;
  7736   003DCE  0100               	movlb	0	; () banked
  7737   003DD0  4B97               	infsnz	pad@i& (0+255),f,b
  7738   003DD2  2B98               	incf	(pad@i+1)& (0+255),f,b
  7739   003DD4                     i1l6575:
  7740                           
  7741                           ; BSR set to: 0
  7742                           ;C:\Program Files\Microchip\xc8\v2.41\pic\sources\c99\common\doprnt.c: 166:     while (i
      +                           < w) {
  7743   003DD4  5199               	movf	pad@w& (0+255),w,b
  7744   003DD6  5D97               	subwf	pad@i& (0+255),w,b
  7745   003DD8  5198               	movf	(pad@i+1)& (0+255),w,b
  7746   003DDA  0A80               	xorlw	128
  7747   003DDC  6F96               	movwf	??_pad& (0+255),b
  7748   003DDE  519A               	movf	(pad@w+1)& (0+255),w,b
  7749   003DE0  0A80               	xorlw	128
  7750   003DE2  5996               	subwfb	??_pad& (0+255),w,b
  7751   003DE4  A0D8               	btfss	status,0,c
  7752   003DE6  EFF7  F01E         	goto	i1u585_21
  7753   003DEA  EFF9  F01E         	goto	i1u585_20
  7754   003DEE                     i1u585_21:
  7755   003DEE  EFDD  F01E         	goto	i1l6571
  7756   003DF2                     i1u585_20:
  7757   003DF2                     
  7758                           ; BSR set to: 0
  7759                           ;C:\Program Files\Microchip\xc8\v2.41\pic\sources\c99\common\doprnt.c: 175:         fput
      +                          s((const char *)buf, fp);
  7760   003DF2  C092  F089         	movff	pad@buf,fputs@s
  7761   003DF6  C093  F08A         	movff	pad@buf+1,fputs@s+1
  7762   003DFA  C090  F08B         	movff	pad@fp,fputs@fp
  7763   003DFE  C091  F08C         	movff	pad@fp+1,fputs@fp+1
  7764   003E02  ECEF  F021         	call	_fputs	;wreg free
  7765   003E06  0012               	return		;funcret
  7766   003E08                     __end_of_pad:
  7767                           	callstack 0
  7768                           
  7769 ;; *************** function _fputs *****************
  7770 ;; Defined at:
  7771 ;;		line 8 in file "C:\Program Files\Microchip\xc8\v2.41\pic\sources\c99\common\nf_fputs.c"
  7772 ;; Parameters:    Size  Location     Type
  7773 ;;  s               2    9[BANK0 ] PTR const unsigned char 
  7774 ;;		 -> dbuf(32), 
  7775 ;;  fp              2   11[BANK0 ] PTR struct _IO_FILE
  7776 ;;		 -> sprintf@f(12), 
  7777 ;; Auto vars:     Size  Location     Type
  7778 ;;  i               2   14[BANK0 ] int 
  7779 ;;  c               1   13[BANK0 ] unsigned char 
  7780 ;; Return value:  Size  Location     Type
  7781 ;;                  2    9[BANK0 ] int 
  7782 ;; Registers used:
  7783 ;;		wreg, fsr1l, fsr1h, fsr2l, fsr2h, status,2, status,0, cstack
  7784 ;; Tracked objects:
  7785 ;;		On entry : 0/0
  7786 ;;		On exit  : 0/0
  7787 ;;		Unchanged: 0/0
  7788 ;; Data sizes:     COMRAM   BANK0   BANK1   BANK2   BANK3   BANK4   BANK5   BANK6   BANK7   BANK8   BANK9  BANK10  BANK1
      +1  BANK12  BANK13  BANK14  BANK15
  7789 ;;      Params:         0       4       0       0       0       0       0       0       0       0       0       0       
      +0       0       0       0       0
  7790 ;;      Locals:         0       3       0       0       0       0       0       0       0       0       0       0       
      +0       0       0       0       0
  7791 ;;      Temps:          0       0       0       0       0       0       0       0       0       0       0       0       
      +0       0       0       0       0
  7792 ;;      Totals:         0       7       0       0       0       0       0       0       0       0       0       0       
      +0       0       0       0       0
  7793 ;;Total ram usage:        7 bytes
  7794 ;; Hardware stack levels used: 1
  7795 ;; Hardware stack levels required when called: 14
  7796 ;; This function calls:
  7797 ;;		_fputc
  7798 ;; This function is called by:
  7799 ;;		_pad
  7800 ;; This function uses a non-reentrant model
  7801 ;;
  7802                           
  7803                           	psect	text39
  7804   0043DE                     __ptext39:
  7805                           	callstack 0
  7806   0043DE                     _fputs:
  7807                           	callstack 2
  7808   0043DE  0E00               	movlw	0
  7809   0043E0  0100               	movlb	0	; () banked
  7810   0043E2  6F8F               	movwf	(fputs@i+1)& (0+255),b
  7811   0043E4  0E00               	movlw	0
  7812   0043E6  6F8E               	movwf	fputs@i& (0+255),b
  7813   0043E8  EF02  F022         	goto	i1l6475
  7814   0043EC                     i1l6471:
  7815                           
  7816                           ; BSR set to: 0
  7817   0043EC  C08D  F080         	movff	fputs@c,fputc@c
  7818   0043F0  6B81               	clrf	(fputc@c+1)& (0+255),b
  7819   0043F2  C08B  F082         	movff	fputs@fp,fputc@fp
  7820   0043F6  C08C  F083         	movff	fputs@fp+1,fputc@fp+1
  7821   0043FA  ECED  F019         	call	_fputc	;wreg free
  7822   0043FE  0100               	movlb	0	; () banked
  7823   004400  4B8E               	infsnz	fputs@i& (0+255),f,b
  7824   004402  2B8F               	incf	(fputs@i+1)& (0+255),f,b
  7825   004404                     i1l6475:
  7826                           
  7827                           ; BSR set to: 0
  7828   004404  518E               	movf	fputs@i& (0+255),w,b
  7829   004406  2589               	addwf	fputs@s& (0+255),w,b
  7830   004408  6ED9               	movwf	fsr2l,c
  7831   00440A  518F               	movf	(fputs@i+1)& (0+255),w,b
  7832   00440C  218A               	addwfc	(fputs@s+1)& (0+255),w,b
  7833   00440E  6EDA               	movwf	fsr2h,c
  7834   004410  50DF               	movf	indf2,w,c
  7835   004412  6F8D               	movwf	fputs@c& (0+255),b
  7836   004414  518D               	movf	fputs@c& (0+255),w,b
  7837   004416  A4D8               	btfss	status,2,c
  7838   004418  EF10  F022         	goto	i1u570_21
  7839   00441C  EF12  F022         	goto	i1u570_20
  7840   004420                     i1u570_21:
  7841   004420  EFF6  F021         	goto	i1l6471
  7842   004424                     i1u570_20:
  7843   004424                     
  7844                           ; BSR set to: 0
  7845   004424  0012               	return		;funcret
  7846   004426                     __end_of_fputs:
  7847                           	callstack 0
  7848                           
  7849 ;; *************** function _fputc *****************
  7850 ;; Defined at:
  7851 ;;		line 8 in file "C:\Program Files\Microchip\xc8\v2.41\pic\sources\c99\common\nf_fputc.c"
  7852 ;; Parameters:    Size  Location     Type
  7853 ;;  c               2    0[BANK0 ] int 
  7854 ;;  fp              2    2[BANK0 ] PTR struct _IO_FILE
  7855 ;;		 -> sprintf@f(12), 
  7856 ;; Auto vars:     Size  Location     Type
  7857 ;;		None
  7858 ;; Return value:  Size  Location     Type
  7859 ;;                  2    0[BANK0 ] int 
  7860 ;; Registers used:
  7861 ;;		wreg, fsr1l, fsr1h, fsr2l, fsr2h, status,2, status,0, cstack
  7862 ;; Tracked objects:
  7863 ;;		On entry : 0/0
  7864 ;;		On exit  : 0/0
  7865 ;;		Unchanged: 0/0
  7866 ;; Data sizes:     COMRAM   BANK0   BANK1   BANK2   BANK3   BANK4   BANK5   BANK6   BANK7   BANK8   BANK9  BANK10  BANK1
      +1  BANK12  BANK13  BANK14  BANK15
  7867 ;;      Params:         0       4       0       0       0       0       0       0       0       0       0       0       
      +0       0       0       0       0
  7868 ;;      Locals:         0       0       0       0       0       0       0       0       0       0       0       0       
      +0       0       0       0       0
  7869 ;;      Temps:          0       5       0       0       0       0       0       0       0       0       0       0       
      +0       0       0       0       0
  7870 ;;      Totals:         0       9       0       0       0       0       0       0       0       0       0       0       
      +0       0       0       0       0
  7871 ;;Total ram usage:        9 bytes
  7872 ;; Hardware stack levels used: 1
  7873 ;; Hardware stack levels required when called: 13
  7874 ;; This function calls:
  7875 ;;		_putch
  7876 ;; This function is called by:
  7877 ;;		_pad
  7878 ;;		_vfpfcnvrt
  7879 ;;		_fputs
  7880 ;; This function uses a non-reentrant model
  7881 ;;
  7882                           
  7883                           	psect	text40
  7884   0033DA                     __ptext40:
  7885                           	callstack 0
  7886   0033DA                     _fputc:
  7887                           	callstack 5
  7888   0033DA  0100               	movlb	0	; () banked
  7889   0033DC  5182               	movf	fputc@fp& (0+255),w,b
  7890   0033DE  1183               	iorwf	(fputc@fp+1)& (0+255),w,b
  7891   0033E0  B4D8               	btfsc	status,2,c
  7892   0033E2  EFF5  F019         	goto	i1u562_21
  7893   0033E6  EFF7  F019         	goto	i1u562_20
  7894   0033EA                     i1u562_21:
  7895   0033EA  EF00  F01A         	goto	i1l6445
  7896   0033EE                     i1u562_20:
  7897   0033EE                     
  7898                           ; BSR set to: 0
  7899   0033EE  5182               	movf	fputc@fp& (0+255),w,b
  7900   0033F0  1183               	iorwf	(fputc@fp+1)& (0+255),w,b
  7901   0033F2  A4D8               	btfss	status,2,c
  7902   0033F4  EFFE  F019         	goto	i1u563_21
  7903   0033F8  EF00  F01A         	goto	i1u563_20
  7904   0033FC                     i1u563_21:
  7905   0033FC  EF05  F01A         	goto	i1l6447
  7906   003400                     i1u563_20:
  7907   003400                     i1l6445:
  7908                           
  7909                           ; BSR set to: 0
  7910   003400  5180               	movf	fputc@c& (0+255),w,b
  7911   003402  ECF6  F023         	call	_putch
  7912   003406  EF52  F01A         	goto	i1l2334
  7913   00340A                     i1l6447:
  7914                           
  7915                           ; BSR set to: 0
  7916   00340A  EE20 F00A          	lfsr	2,10
  7917   00340E  5182               	movf	fputc@fp& (0+255),w,b
  7918   003410  26D9               	addwf	fsr2l,f,c
  7919   003412  5183               	movf	(fputc@fp+1)& (0+255),w,b
  7920   003414  22DA               	addwfc	fsr2h,f,c
  7921   003416  50DE               	movf	postinc2,w,c
  7922   003418  10DE               	iorwf	postinc2,w,c
  7923   00341A  B4D8               	btfsc	status,2,c
  7924   00341C  EF12  F01A         	goto	i1u564_21
  7925   003420  EF14  F01A         	goto	i1u564_20
  7926   003424                     i1u564_21:
  7927   003424  EF2F  F01A         	goto	i1l6451
  7928   003428                     i1u564_20:
  7929   003428                     
  7930                           ; BSR set to: 0
  7931   003428  EE20 F00A          	lfsr	2,10
  7932   00342C  5182               	movf	fputc@fp& (0+255),w,b
  7933   00342E  26D9               	addwf	fsr2l,f,c
  7934   003430  5183               	movf	(fputc@fp+1)& (0+255),w,b
  7935   003432  22DA               	addwfc	fsr2h,f,c
  7936   003434  EE10 F003          	lfsr	1,3
  7937   003438  5182               	movf	fputc@fp& (0+255),w,b
  7938   00343A  26E1               	addwf	fsr1l,f,c
  7939   00343C  5183               	movf	(fputc@fp+1)& (0+255),w,b
  7940   00343E  22E2               	addwfc	fsr1h,f,c
  7941   003440  50DE               	movf	postinc2,w,c
  7942   003442  5CE6               	subwf	postinc1,w,c
  7943   003444  50E6               	movf	postinc1,w,c
  7944   003446  0A80               	xorlw	128
  7945   003448  6F88               	movwf	(??_fputc+4)& (0+255),b
  7946   00344A  50DE               	movf	postinc2,w,c
  7947   00344C  0A80               	xorlw	128
  7948   00344E  5988               	subwfb	(??_fputc+4)& (0+255),w,b
  7949   003450  B0D8               	btfsc	status,0,c
  7950   003452  EF2D  F01A         	goto	i1u565_21
  7951   003456  EF2F  F01A         	goto	i1u565_20
  7952   00345A                     i1u565_21:
  7953   00345A  EF52  F01A         	goto	i1l2334
  7954   00345E                     i1u565_20:
  7955   00345E                     i1l6451:
  7956                           
  7957                           ; BSR set to: 0
  7958   00345E  EE20 F003          	lfsr	2,3
  7959   003462  5182               	movf	fputc@fp& (0+255),w,b
  7960   003464  26D9               	addwf	fsr2l,f,c
  7961   003466  5183               	movf	(fputc@fp+1)& (0+255),w,b
  7962   003468  22DA               	addwfc	fsr2h,f,c
  7963   00346A  CFDE F084          	movff	postinc2,??_fputc
  7964   00346E  CFDD F085          	movff	postdec2,??_fputc+1
  7965   003472  C082  FFD9         	movff	fputc@fp,fsr2l
  7966   003476  C083  FFDA         	movff	fputc@fp+1,fsr2h
  7967   00347A  CFDE F086          	movff	postinc2,??_fputc+2
  7968   00347E  CFDD F087          	movff	postdec2,??_fputc+3
  7969   003482  5184               	movf	??_fputc& (0+255),w,b
  7970   003484  2586               	addwf	(??_fputc+2)& (0+255),w,b
  7971   003486  6ED9               	movwf	fsr2l,c
  7972   003488  5185               	movf	(??_fputc+1)& (0+255),w,b
  7973   00348A  2187               	addwfc	(??_fputc+3)& (0+255),w,b
  7974   00348C  6EDA               	movwf	fsr2h,c
  7975   00348E  C080  FFDF         	movff	fputc@c,indf2
  7976   003492  EE20 F003          	lfsr	2,3
  7977   003496  5182               	movf	fputc@fp& (0+255),w,b
  7978   003498  26D9               	addwf	fsr2l,f,c
  7979   00349A  5183               	movf	(fputc@fp+1)& (0+255),w,b
  7980   00349C  22DA               	addwfc	fsr2h,f,c
  7981   00349E  2ADE               	incf	postinc2,f,c
  7982   0034A0  0E00               	movlw	0
  7983   0034A2  22DD               	addwfc	postdec2,f,c
  7984   0034A4                     i1l2334:
  7985   0034A4  0012               	return		;funcret
  7986   0034A6                     __end_of_fputc:
  7987                           	callstack 0
  7988                           
  7989 ;; *************** function _putch *****************
  7990 ;; Defined at:
  7991 ;;		line 7 in file "C:\Program Files\Microchip\xc8\v2.41\pic\sources\c99\common\putch.c"
  7992 ;; Parameters:    Size  Location     Type
  7993 ;;  c               1    wreg     unsigned char 
  7994 ;; Auto vars:     Size  Location     Type
  7995 ;;  c               1    0[COMRAM] unsigned char 
  7996 ;; Return value:  Size  Location     Type
  7997 ;;                  1    wreg      void 
  7998 ;; Registers used:
  7999 ;;		wreg
  8000 ;; Tracked objects:
  8001 ;;		On entry : 0/0
  8002 ;;		On exit  : 0/0
  8003 ;;		Unchanged: 0/0
  8004 ;; Data sizes:     COMRAM   BANK0   BANK1   BANK2   BANK3   BANK4   BANK5   BANK6   BANK7   BANK8   BANK9  BANK10  BANK1
      +1  BANK12  BANK13  BANK14  BANK15
  8005 ;;      Params:         0       0       0       0       0       0       0       0       0       0       0       0       
      +0       0       0       0       0
  8006 ;;      Locals:         0       0       0       0       0       0       0       0       0       0       0       0       
      +0       0       0       0       0
  8007 ;;      Temps:          0       0       0       0       0       0       0       0       0       0       0       0       
      +0       0       0       0       0
  8008 ;;      Totals:         0       0       0       0       0       0       0       0       0       0       0       0       
      +0       0       0       0       0
  8009 ;;Total ram usage:        0 bytes
  8010 ;; Hardware stack levels used: 1
  8011 ;; Hardware stack levels required when called: 12
  8012 ;; This function calls:
  8013 ;;		Nothing
  8014 ;; This function is called by:
  8015 ;;		_fputc
  8016 ;; This function uses a non-reentrant model
  8017 ;;
  8018                           
  8019                           	psect	text41
  8020   0047EC                     __ptext41:
  8021                           	callstack 0
  8022   0047EC                     _putch:
  8023                           	callstack 5
  8024   0047EC  0012               	return		;funcret
  8025   0047EE                     __end_of_putch:
  8026                           	callstack 0
  8027                           
  8028 ;; *************** function _abs *****************
  8029 ;; Defined at:
  8030 ;;		line 1 in file "C:\Program Files\Microchip\xc8\v2.41\pic\sources\c99\common\abs.c"
  8031 ;; Parameters:    Size  Location     Type
  8032 ;;  a               2    6[BANK0 ] int 
  8033 ;; Auto vars:     Size  Location     Type
  8034 ;;		None
  8035 ;; Return value:  Size  Location     Type
  8036 ;;                  2    6[BANK0 ] int 
  8037 ;; Registers used:
  8038 ;;		wreg, status,2, status,0
  8039 ;; Tracked objects:
  8040 ;;		On entry : 0/0
  8041 ;;		On exit  : 0/0
  8042 ;;		Unchanged: 0/0
  8043 ;; Data sizes:     COMRAM   BANK0   BANK1   BANK2   BANK3   BANK4   BANK5   BANK6   BANK7   BANK8   BANK9  BANK10  BANK1
      +1  BANK12  BANK13  BANK14  BANK15
  8044 ;;      Params:         0       2       0       0       0       0       0       0       0       0       0       0       
      +0       0       0       0       0
  8045 ;;      Locals:         0       0       0       0       0       0       0       0       0       0       0       0       
      +0       0       0       0       0
  8046 ;;      Temps:          0       2       0       0       0       0       0       0       0       0       0       0       
      +0       0       0       0       0
  8047 ;;      Totals:         0       4       0       0       0       0       0       0       0       0       0       0       
      +0       0       0       0       0
  8048 ;;Total ram usage:        4 bytes
  8049 ;; Hardware stack levels used: 1
  8050 ;; Hardware stack levels required when called: 12
  8051 ;; This function calls:
  8052 ;;		Nothing
  8053 ;; This function is called by:
  8054 ;;		_dtoa
  8055 ;; This function uses a non-reentrant model
  8056 ;;
  8057                           
  8058                           	psect	text42
  8059   0044F8                     __ptext42:
  8060                           	callstack 0
  8061   0044F8                     _abs:
  8062                           	callstack 5
  8063   0044F8  0100               	movlb	0	; () banked
  8064   0044FA  BF87               	btfsc	(abs@a+1)& (0+255),7,b
  8065   0044FC  EF8A  F022         	goto	i1u586_20
  8066   004500  5187               	movf	(abs@a+1)& (0+255),w,b
  8067   004502  E106               	bnz	i1u586_21
  8068   004504  0586               	decf	abs@a& (0+255),w,b
  8069   004506  B0D8               	btfsc	status,0,c
  8070   004508  EF88  F022         	goto	i1u586_21
  8071   00450C  EF8A  F022         	goto	i1u586_20
  8072   004510                     i1u586_21:
  8073   004510  EF98  F022         	goto	i1l2319
  8074   004514                     i1u586_20:
  8075   004514                     
  8076                           ; BSR set to: 0
  8077   004514  C086  F088         	movff	abs@a,??_abs
  8078   004518  C087  F089         	movff	abs@a+1,??_abs+1
  8079   00451C  1F88               	comf	??_abs& (0+255),f,b
  8080   00451E  1F89               	comf	(??_abs+1)& (0+255),f,b
  8081   004520  4B88               	infsnz	??_abs& (0+255),f,b
  8082   004522  2B89               	incf	(??_abs+1)& (0+255),f,b
  8083   004524  C088  F086         	movff	??_abs,?_abs
  8084   004528  C089  F087         	movff	??_abs+1,?_abs+1
  8085   00452C  EF9C  F022         	goto	i1l2322
  8086   004530                     i1l2319:
  8087                           
  8088                           ; BSR set to: 0
  8089   004530  C086  F086         	movff	abs@a,?_abs
  8090   004534  C087  F087         	movff	abs@a+1,?_abs+1
  8091   004538                     i1l2322:
  8092                           
  8093                           ; BSR set to: 0
  8094   004538  0012               	return		;funcret
  8095   00453A                     __end_of_abs:
  8096                           	callstack 0
  8097                           
  8098 ;; *************** function ___awmod *****************
  8099 ;; Defined at:
  8100 ;;		line 7 in file "C:\Program Files\Microchip\xc8\v2.41\pic\sources\c99\common\awmod.c"
  8101 ;; Parameters:    Size  Location     Type
  8102 ;;  dividend        2    0[BANK0 ] int 
  8103 ;;  divisor         2    2[BANK0 ] int 
  8104 ;; Auto vars:     Size  Location     Type
  8105 ;;  sign            1    5[BANK0 ] unsigned char 
  8106 ;;  counter         1    4[BANK0 ] unsigned char 
  8107 ;; Return value:  Size  Location     Type
  8108 ;;                  2    0[BANK0 ] int 
  8109 ;; Registers used:
  8110 ;;		wreg, status,2, status,0
  8111 ;; Tracked objects:
  8112 ;;		On entry : 0/0
  8113 ;;		On exit  : 0/0
  8114 ;;		Unchanged: 0/0
  8115 ;; Data sizes:     COMRAM   BANK0   BANK1   BANK2   BANK3   BANK4   BANK5   BANK6   BANK7   BANK8   BANK9  BANK10  BANK1
      +1  BANK12  BANK13  BANK14  BANK15
  8116 ;;      Params:         0       4       0       0       0       0       0       0       0       0       0       0       
      +0       0       0       0       0
  8117 ;;      Locals:         0       2       0       0       0       0       0       0       0       0       0       0       
      +0       0       0       0       0
  8118 ;;      Temps:          0       0       0       0       0       0       0       0       0       0       0       0       
      +0       0       0       0       0
  8119 ;;      Totals:         0       6       0       0       0       0       0       0       0       0       0       0       
      +0       0       0       0       0
  8120 ;;Total ram usage:        6 bytes
  8121 ;; Hardware stack levels used: 1
  8122 ;; Hardware stack levels required when called: 12
  8123 ;; This function calls:
  8124 ;;		Nothing
  8125 ;; This function is called by:
  8126 ;;		_dtoa
  8127 ;; This function uses a non-reentrant model
  8128 ;;
  8129                           
  8130                           	psect	text43
  8131   0037B2                     __ptext43:
  8132                           	callstack 0
  8133   0037B2                     ___awmod:
  8134                           	callstack 5
  8135   0037B2  0E00               	movlw	0
  8136   0037B4  0100               	movlb	0	; () banked
  8137   0037B6  6F85               	movwf	___awmod@sign& (0+255),b
  8138   0037B8                     
  8139                           ; BSR set to: 0
  8140   0037B8  BF81               	btfsc	(___awmod@dividend+1)& (0+255),7,b
  8141   0037BA  EFE3  F01B         	goto	i1u578_20
  8142   0037BE  EFE1  F01B         	goto	i1u578_21
  8143   0037C2                     i1u578_21:
  8144   0037C2  EFE9  F01B         	goto	i1l6537
  8145   0037C6                     i1u578_20:
  8146   0037C6                     
  8147                           ; BSR set to: 0
  8148   0037C6  6D80               	negf	___awmod@dividend& (0+255),b
  8149   0037C8  1F81               	comf	(___awmod@dividend+1)& (0+255),f,b
  8150   0037CA  B0D8               	btfsc	status,0,c
  8151   0037CC  2B81               	incf	(___awmod@dividend+1)& (0+255),f,b
  8152   0037CE                     
  8153                           ; BSR set to: 0
  8154   0037CE  0E01               	movlw	1
  8155   0037D0  6F85               	movwf	___awmod@sign& (0+255),b
  8156   0037D2                     i1l6537:
  8157                           
  8158                           ; BSR set to: 0
  8159   0037D2  BF83               	btfsc	(___awmod@divisor+1)& (0+255),7,b
  8160   0037D4  EFF0  F01B         	goto	i1u579_20
  8161   0037D8  EFEE  F01B         	goto	i1u579_21
  8162   0037DC                     i1u579_21:
  8163   0037DC  EFF4  F01B         	goto	i1l6541
  8164   0037E0                     i1u579_20:
  8165   0037E0                     
  8166                           ; BSR set to: 0
  8167   0037E0  6D82               	negf	___awmod@divisor& (0+255),b
  8168   0037E2  1F83               	comf	(___awmod@divisor+1)& (0+255),f,b
  8169   0037E4  B0D8               	btfsc	status,0,c
  8170   0037E6  2B83               	incf	(___awmod@divisor+1)& (0+255),f,b
  8171   0037E8                     i1l6541:
  8172                           
  8173                           ; BSR set to: 0
  8174   0037E8  5182               	movf	___awmod@divisor& (0+255),w,b
  8175   0037EA  1183               	iorwf	(___awmod@divisor+1)& (0+255),w,b
  8176   0037EC  B4D8               	btfsc	status,2,c
  8177   0037EE  EFFB  F01B         	goto	i1u580_21
  8178   0037F2  EFFD  F01B         	goto	i1u580_20
  8179   0037F6                     i1u580_21:
  8180   0037F6  EF21  F01C         	goto	i1l6557
  8181   0037FA                     i1u580_20:
  8182   0037FA                     
  8183                           ; BSR set to: 0
  8184   0037FA  0E01               	movlw	1
  8185   0037FC  6F84               	movwf	___awmod@counter& (0+255),b
  8186   0037FE  EF05  F01C         	goto	i1l6547
  8187   003802                     i1l6545:
  8188                           
  8189                           ; BSR set to: 0
  8190   003802  90D8               	bcf	status,0,c
  8191   003804  3782               	rlcf	___awmod@divisor& (0+255),f,b
  8192   003806  3783               	rlcf	(___awmod@divisor+1)& (0+255),f,b
  8193   003808  2B84               	incf	___awmod@counter& (0+255),f,b
  8194   00380A                     i1l6547:
  8195                           
  8196                           ; BSR set to: 0
  8197   00380A  AF83               	btfss	(___awmod@divisor+1)& (0+255),7,b
  8198   00380C  EF0A  F01C         	goto	i1u581_21
  8199   003810  EF0C  F01C         	goto	i1u581_20
  8200   003814                     i1u581_21:
  8201   003814  EF01  F01C         	goto	i1l6545
  8202   003818                     i1u581_20:
  8203   003818                     i1l6549:
  8204                           
  8205                           ; BSR set to: 0
  8206   003818  5182               	movf	___awmod@divisor& (0+255),w,b
  8207   00381A  5D80               	subwf	___awmod@dividend& (0+255),w,b
  8208   00381C  5183               	movf	(___awmod@divisor+1)& (0+255),w,b
  8209   00381E  5981               	subwfb	(___awmod@dividend+1)& (0+255),w,b
  8210   003820  A0D8               	btfss	status,0,c
  8211   003822  EF15  F01C         	goto	i1u582_21
  8212   003826  EF17  F01C         	goto	i1u582_20
  8213   00382A                     i1u582_21:
  8214   00382A  EF1B  F01C         	goto	i1l6553
  8215   00382E                     i1u582_20:
  8216   00382E                     
  8217                           ; BSR set to: 0
  8218   00382E  5182               	movf	___awmod@divisor& (0+255),w,b
  8219   003830  5F80               	subwf	___awmod@dividend& (0+255),f,b
  8220   003832  5183               	movf	(___awmod@divisor+1)& (0+255),w,b
  8221   003834  5B81               	subwfb	(___awmod@dividend+1)& (0+255),f,b
  8222   003836                     i1l6553:
  8223                           
  8224                           ; BSR set to: 0
  8225   003836  90D8               	bcf	status,0,c
  8226   003838  3383               	rrcf	(___awmod@divisor+1)& (0+255),f,b
  8227   00383A  3382               	rrcf	___awmod@divisor& (0+255),f,b
  8228   00383C                     
  8229                           ; BSR set to: 0
  8230   00383C  2F84               	decfsz	___awmod@counter& (0+255),f,b
  8231   00383E  EF0C  F01C         	goto	i1l6549
  8232   003842                     i1l6557:
  8233                           
  8234                           ; BSR set to: 0
  8235   003842  5185               	movf	___awmod@sign& (0+255),w,b
  8236   003844  B4D8               	btfsc	status,2,c
  8237   003846  EF27  F01C         	goto	i1u583_21
  8238   00384A  EF29  F01C         	goto	i1u583_20
  8239   00384E                     i1u583_21:
  8240   00384E  EF2D  F01C         	goto	i1l6561
  8241   003852                     i1u583_20:
  8242   003852                     
  8243                           ; BSR set to: 0
  8244   003852  6D80               	negf	___awmod@dividend& (0+255),b
  8245   003854  1F81               	comf	(___awmod@dividend+1)& (0+255),f,b
  8246   003856  B0D8               	btfsc	status,0,c
  8247   003858  2B81               	incf	(___awmod@dividend+1)& (0+255),f,b
  8248   00385A                     i1l6561:
  8249                           
  8250                           ; BSR set to: 0
  8251   00385A  C080  F080         	movff	___awmod@dividend,?___awmod
  8252   00385E  C081  F081         	movff	___awmod@dividend+1,?___awmod+1
  8253   003862                     
  8254                           ; BSR set to: 0
  8255   003862  0012               	return		;funcret
  8256   003864                     __end_of___awmod:
  8257                           	callstack 0
  8258                           
  8259 ;; *************** function ___awdiv *****************
  8260 ;; Defined at:
  8261 ;;		line 7 in file "C:\Program Files\Microchip\xc8\v2.41\pic\sources\c99\common\awdiv.c"
  8262 ;; Parameters:    Size  Location     Type
  8263 ;;  dividend        2    0[BANK0 ] int 
  8264 ;;  divisor         2    2[BANK0 ] int 
  8265 ;; Auto vars:     Size  Location     Type
  8266 ;;  quotient        2    6[BANK0 ] int 
  8267 ;;  sign            1    5[BANK0 ] unsigned char 
  8268 ;;  counter         1    4[BANK0 ] unsigned char 
  8269 ;; Return value:  Size  Location     Type
  8270 ;;                  2    0[BANK0 ] int 
  8271 ;; Registers used:
  8272 ;;		wreg, status,2, status,0
  8273 ;; Tracked objects:
  8274 ;;		On entry : 0/0
  8275 ;;		On exit  : 0/0
  8276 ;;		Unchanged: 0/0
  8277 ;; Data sizes:     COMRAM   BANK0   BANK1   BANK2   BANK3   BANK4   BANK5   BANK6   BANK7   BANK8   BANK9  BANK10  BANK1
      +1  BANK12  BANK13  BANK14  BANK15
  8278 ;;      Params:         0       4       0       0       0       0       0       0       0       0       0       0       
      +0       0       0       0       0
  8279 ;;      Locals:         0       4       0       0       0       0       0       0       0       0       0       0       
      +0       0       0       0       0
  8280 ;;      Temps:          0       0       0       0       0       0       0       0       0       0       0       0       
      +0       0       0       0       0
  8281 ;;      Totals:         0       8       0       0       0       0       0       0       0       0       0       0       
      +0       0       0       0       0
  8282 ;;Total ram usage:        8 bytes
  8283 ;; Hardware stack levels used: 1
  8284 ;; Hardware stack levels required when called: 12
  8285 ;; This function calls:
  8286 ;;		Nothing
  8287 ;; This function is called by:
  8288 ;;		_dtoa
  8289 ;; This function uses a non-reentrant model
  8290 ;;
  8291                           
  8292                           	psect	text44
  8293   003570                     __ptext44:
  8294                           	callstack 0
  8295   003570                     ___awdiv:
  8296                           	callstack 5
  8297   003570  0E00               	movlw	0
  8298   003572  0100               	movlb	0	; () banked
  8299   003574  6F85               	movwf	___awdiv@sign& (0+255),b
  8300   003576                     
  8301                           ; BSR set to: 0
  8302   003576  BF83               	btfsc	(___awdiv@divisor+1)& (0+255),7,b
  8303   003578  EFC2  F01A         	goto	i1u572_20
  8304   00357C  EFC0  F01A         	goto	i1u572_21
  8305   003580                     i1u572_21:
  8306   003580  EFC8  F01A         	goto	i1l6493
  8307   003584                     i1u572_20:
  8308   003584                     
  8309                           ; BSR set to: 0
  8310   003584  6D82               	negf	___awdiv@divisor& (0+255),b
  8311   003586  1F83               	comf	(___awdiv@divisor+1)& (0+255),f,b
  8312   003588  B0D8               	btfsc	status,0,c
  8313   00358A  2B83               	incf	(___awdiv@divisor+1)& (0+255),f,b
  8314   00358C                     
  8315                           ; BSR set to: 0
  8316   00358C  0E01               	movlw	1
  8317   00358E  6F85               	movwf	___awdiv@sign& (0+255),b
  8318   003590                     i1l6493:
  8319                           
  8320                           ; BSR set to: 0
  8321   003590  BF81               	btfsc	(___awdiv@dividend+1)& (0+255),7,b
  8322   003592  EFCF  F01A         	goto	i1u573_20
  8323   003596  EFCD  F01A         	goto	i1u573_21
  8324   00359A                     i1u573_21:
  8325   00359A  EFD5  F01A         	goto	i1l6499
  8326   00359E                     i1u573_20:
  8327   00359E                     
  8328                           ; BSR set to: 0
  8329   00359E  6D80               	negf	___awdiv@dividend& (0+255),b
  8330   0035A0  1F81               	comf	(___awdiv@dividend+1)& (0+255),f,b
  8331   0035A2  B0D8               	btfsc	status,0,c
  8332   0035A4  2B81               	incf	(___awdiv@dividend+1)& (0+255),f,b
  8333   0035A6                     
  8334                           ; BSR set to: 0
  8335   0035A6  0E01               	movlw	1
  8336   0035A8  1B85               	xorwf	___awdiv@sign& (0+255),f,b
  8337   0035AA                     i1l6499:
  8338                           
  8339                           ; BSR set to: 0
  8340   0035AA  0E00               	movlw	0
  8341   0035AC  6F87               	movwf	(___awdiv@quotient+1)& (0+255),b
  8342   0035AE  0E00               	movlw	0
  8343   0035B0  6F86               	movwf	___awdiv@quotient& (0+255),b
  8344   0035B2                     
  8345                           ; BSR set to: 0
  8346   0035B2  5182               	movf	___awdiv@divisor& (0+255),w,b
  8347   0035B4  1183               	iorwf	(___awdiv@divisor+1)& (0+255),w,b
  8348   0035B6  B4D8               	btfsc	status,2,c
  8349   0035B8  EFE0  F01A         	goto	i1u574_21
  8350   0035BC  EFE2  F01A         	goto	i1u574_20
  8351   0035C0                     i1u574_21:
  8352   0035C0  EF0A  F01B         	goto	i1l6521
  8353   0035C4                     i1u574_20:
  8354   0035C4                     
  8355                           ; BSR set to: 0
  8356   0035C4  0E01               	movlw	1
  8357   0035C6  6F84               	movwf	___awdiv@counter& (0+255),b
  8358   0035C8  EFEA  F01A         	goto	i1l6507
  8359   0035CC                     i1l6505:
  8360                           
  8361                           ; BSR set to: 0
  8362   0035CC  90D8               	bcf	status,0,c
  8363   0035CE  3782               	rlcf	___awdiv@divisor& (0+255),f,b
  8364   0035D0  3783               	rlcf	(___awdiv@divisor+1)& (0+255),f,b
  8365   0035D2  2B84               	incf	___awdiv@counter& (0+255),f,b
  8366   0035D4                     i1l6507:
  8367                           
  8368                           ; BSR set to: 0
  8369   0035D4  AF83               	btfss	(___awdiv@divisor+1)& (0+255),7,b
  8370   0035D6  EFEF  F01A         	goto	i1u575_21
  8371   0035DA  EFF1  F01A         	goto	i1u575_20
  8372   0035DE                     i1u575_21:
  8373   0035DE  EFE6  F01A         	goto	i1l6505
  8374   0035E2                     i1u575_20:
  8375   0035E2                     i1l6509:
  8376                           
  8377                           ; BSR set to: 0
  8378   0035E2  90D8               	bcf	status,0,c
  8379   0035E4  3786               	rlcf	___awdiv@quotient& (0+255),f,b
  8380   0035E6  3787               	rlcf	(___awdiv@quotient+1)& (0+255),f,b
  8381   0035E8                     
  8382                           ; BSR set to: 0
  8383   0035E8  5182               	movf	___awdiv@divisor& (0+255),w,b
  8384   0035EA  5D80               	subwf	___awdiv@dividend& (0+255),w,b
  8385   0035EC  5183               	movf	(___awdiv@divisor+1)& (0+255),w,b
  8386   0035EE  5981               	subwfb	(___awdiv@dividend+1)& (0+255),w,b
  8387   0035F0  A0D8               	btfss	status,0,c
  8388   0035F2  EFFD  F01A         	goto	i1u576_21
  8389   0035F6  EFFF  F01A         	goto	i1u576_20
  8390   0035FA                     i1u576_21:
  8391   0035FA  EF04  F01B         	goto	i1l6517
  8392   0035FE                     i1u576_20:
  8393   0035FE                     
  8394                           ; BSR set to: 0
  8395   0035FE  5182               	movf	___awdiv@divisor& (0+255),w,b
  8396   003600  5F80               	subwf	___awdiv@dividend& (0+255),f,b
  8397   003602  5183               	movf	(___awdiv@divisor+1)& (0+255),w,b
  8398   003604  5B81               	subwfb	(___awdiv@dividend+1)& (0+255),f,b
  8399   003606                     
  8400                           ; BSR set to: 0
  8401   003606  8186               	bsf	___awdiv@quotient& (0+255),0,b
  8402   003608                     i1l6517:
  8403                           
  8404                           ; BSR set to: 0
  8405   003608  90D8               	bcf	status,0,c
  8406   00360A  3383               	rrcf	(___awdiv@divisor+1)& (0+255),f,b
  8407   00360C  3382               	rrcf	___awdiv@divisor& (0+255),f,b
  8408   00360E                     
  8409                           ; BSR set to: 0
  8410   00360E  2F84               	decfsz	___awdiv@counter& (0+255),f,b
  8411   003610  EFF1  F01A         	goto	i1l6509
  8412   003614                     i1l6521:
  8413                           
  8414                           ; BSR set to: 0
  8415   003614  5185               	movf	___awdiv@sign& (0+255),w,b
  8416   003616  B4D8               	btfsc	status,2,c
  8417   003618  EF10  F01B         	goto	i1u577_21
  8418   00361C  EF12  F01B         	goto	i1u577_20
  8419   003620                     i1u577_21:
  8420   003620  EF16  F01B         	goto	i1l6525
  8421   003624                     i1u577_20:
  8422   003624                     
  8423                           ; BSR set to: 0
  8424   003624  6D86               	negf	___awdiv@quotient& (0+255),b
  8425   003626  1F87               	comf	(___awdiv@quotient+1)& (0+255),f,b
  8426   003628  B0D8               	btfsc	status,0,c
  8427   00362A  2B87               	incf	(___awdiv@quotient+1)& (0+255),f,b
  8428   00362C                     i1l6525:
  8429                           
  8430                           ; BSR set to: 0
  8431   00362C  C086  F080         	movff	___awdiv@quotient,?___awdiv
  8432   003630  C087  F081         	movff	___awdiv@quotient+1,?___awdiv+1
  8433   003634                     
  8434                           ; BSR set to: 0
  8435   003634  0012               	return		;funcret
  8436   003636                     __end_of___awdiv:
  8437                           	callstack 0
  8438                           
  8439 ;; *************** function _memset *****************
  8440 ;; Defined at:
  8441 ;;		line 4 in file "C:\Program Files\Microchip\xc8\v2.41\pic\sources\c99\common\memset.c"
  8442 ;; Parameters:    Size  Location     Type
  8443 ;;  dest            2    0[BANK0 ] PTR void 
  8444 ;;		 -> USART_TX_INT@counter_Str(4), 
  8445 ;;  c               2    2[BANK0 ] int 
  8446 ;;  n               2    4[BANK0 ] unsigned int 
  8447 ;; Auto vars:     Size  Location     Type
  8448 ;;  s               2   10[BANK0 ] PTR unsigned char 
  8449 ;;		 -> USART_TX_INT@counter_Str(4), 
  8450 ;;  k               2    8[BANK0 ] unsigned int 
  8451 ;; Return value:  Size  Location     Type
  8452 ;;                  2    0[BANK0 ] PTR void 
  8453 ;; Registers used:
  8454 ;;		wreg, fsr2l, fsr2h, status,2, status,0
  8455 ;; Tracked objects:
  8456 ;;		On entry : 0/0
  8457 ;;		On exit  : 0/0
  8458 ;;		Unchanged: 0/0
  8459 ;; Data sizes:     COMRAM   BANK0   BANK1   BANK2   BANK3   BANK4   BANK5   BANK6   BANK7   BANK8   BANK9  BANK10  BANK1
      +1  BANK12  BANK13  BANK14  BANK15
  8460 ;;      Params:         0       6       0       0       0       0       0       0       0       0       0       0       
      +0       0       0       0       0
  8461 ;;      Locals:         0       4       0       0       0       0       0       0       0       0       0       0       
      +0       0       0       0       0
  8462 ;;      Temps:          0       2       0       0       0       0       0       0       0       0       0       0       
      +0       0       0       0       0
  8463 ;;      Totals:         0      12       0       0       0       0       0       0       0       0       0       0       
      +0       0       0       0       0
  8464 ;;Total ram usage:       12 bytes
  8465 ;; Hardware stack levels used: 1
  8466 ;; Hardware stack levels required when called: 12
  8467 ;; This function calls:
  8468 ;;		Nothing
  8469 ;; This function is called by:
  8470 ;;		_convert_uint8_to_string
  8471 ;;		_convert_uint16_to_string
  8472 ;;		_convert_uint32_to_string
  8473 ;; This function uses a non-reentrant model
  8474 ;;
  8475                           
  8476                           	psect	text45
  8477   002534                     __ptext45:
  8478                           	callstack 0
  8479   002534                     _memset:
  8480                           	callstack 9
  8481   002534  C080  F08A         	movff	memset@dest,memset@s
  8482   002538  C081  F08B         	movff	memset@dest+1,memset@s+1
  8483   00253C  0100               	movlb	0	; () banked
  8484   00253E  5184               	movf	memset@n& (0+255),w,b
  8485   002540  1185               	iorwf	(memset@n+1)& (0+255),w,b
  8486   002542  A4D8               	btfss	status,2,c
  8487   002544  EFA6  F012         	goto	i1u738_21
  8488   002548  EFA8  F012         	goto	i1u738_20
  8489   00254C                     i1u738_21:
  8490   00254C  EFAA  F012         	goto	i1l7489
  8491   002550                     i1u738_20:
  8492   002550  EF55  F013         	goto	i1l2244
  8493   002554                     i1l7489:
  8494                           
  8495                           ; BSR set to: 0
  8496   002554  C08A  FFD9         	movff	memset@s,fsr2l
  8497   002558  C08B  FFDA         	movff	memset@s+1,fsr2h
  8498   00255C  C082  FFDF         	movff	memset@c,indf2
  8499   002560                     
  8500                           ; BSR set to: 0
  8501   002560  5184               	movf	memset@n& (0+255),w,b
  8502   002562  258A               	addwf	memset@s& (0+255),w,b
  8503   002564  6F86               	movwf	??_memset& (0+255),b
  8504   002566  5185               	movf	(memset@n+1)& (0+255),w,b
  8505   002568  218B               	addwfc	(memset@s+1)& (0+255),w,b
  8506   00256A  6F87               	movwf	(??_memset+1)& (0+255),b
  8507   00256C  0EFF               	movlw	255
  8508   00256E  2586               	addwf	??_memset& (0+255),w,b
  8509   002570  6ED9               	movwf	fsr2l,c
  8510   002572  0EFF               	movlw	255
  8511   002574  2187               	addwfc	(??_memset+1)& (0+255),w,b
  8512   002576  6EDA               	movwf	fsr2h,c
  8513   002578  C082  FFDF         	movff	memset@c,indf2
  8514   00257C  5185               	movf	(memset@n+1)& (0+255),w,b
  8515   00257E  E107               	bnz	i1u739_21
  8516   002580  0E03               	movlw	3
  8517   002582  5D84               	subwf	memset@n& (0+255),w,b
  8518   002584  B0D8               	btfsc	status,0,c
  8519   002586  EFC7  F012         	goto	i1u739_21
  8520   00258A  EFC9  F012         	goto	i1u739_20
  8521   00258E                     i1u739_21:
  8522   00258E  EFCB  F012         	goto	i1l7495
  8523   002592                     i1u739_20:
  8524   002592  EF55  F013         	goto	i1l2244
  8525   002596                     i1l7495:
  8526                           
  8527                           ; BSR set to: 0
  8528   002596  EE20 F001          	lfsr	2,1
  8529   00259A  518A               	movf	memset@s& (0+255),w,b
  8530   00259C  26D9               	addwf	fsr2l,f,c
  8531   00259E  518B               	movf	(memset@s+1)& (0+255),w,b
  8532   0025A0  22DA               	addwfc	fsr2h,f,c
  8533   0025A2  C082  FFDF         	movff	memset@c,indf2
  8534   0025A6  EE20 F002          	lfsr	2,2
  8535   0025AA  518A               	movf	memset@s& (0+255),w,b
  8536   0025AC  26D9               	addwf	fsr2l,f,c
  8537   0025AE  518B               	movf	(memset@s+1)& (0+255),w,b
  8538   0025B0  22DA               	addwfc	fsr2h,f,c
  8539   0025B2  C082  FFDF         	movff	memset@c,indf2
  8540   0025B6  5184               	movf	memset@n& (0+255),w,b
  8541   0025B8  258A               	addwf	memset@s& (0+255),w,b
  8542   0025BA  6F86               	movwf	??_memset& (0+255),b
  8543   0025BC  5185               	movf	(memset@n+1)& (0+255),w,b
  8544   0025BE  218B               	addwfc	(memset@s+1)& (0+255),w,b
  8545   0025C0  6F87               	movwf	(??_memset+1)& (0+255),b
  8546   0025C2  0EFE               	movlw	254
  8547   0025C4  2586               	addwf	??_memset& (0+255),w,b
  8548   0025C6  6ED9               	movwf	fsr2l,c
  8549   0025C8  0EFF               	movlw	255
  8550   0025CA  2187               	addwfc	(??_memset+1)& (0+255),w,b
  8551   0025CC  6EDA               	movwf	fsr2h,c
  8552   0025CE  C082  FFDF         	movff	memset@c,indf2
  8553   0025D2  5184               	movf	memset@n& (0+255),w,b
  8554   0025D4  258A               	addwf	memset@s& (0+255),w,b
  8555   0025D6  6F86               	movwf	??_memset& (0+255),b
  8556   0025D8  5185               	movf	(memset@n+1)& (0+255),w,b
  8557   0025DA  218B               	addwfc	(memset@s+1)& (0+255),w,b
  8558   0025DC  6F87               	movwf	(??_memset+1)& (0+255),b
  8559   0025DE  0EFD               	movlw	253
  8560   0025E0  2586               	addwf	??_memset& (0+255),w,b
  8561   0025E2  6ED9               	movwf	fsr2l,c
  8562   0025E4  0EFF               	movlw	255
  8563   0025E6  2187               	addwfc	(??_memset+1)& (0+255),w,b
  8564   0025E8  6EDA               	movwf	fsr2h,c
  8565   0025EA  C082  FFDF         	movff	memset@c,indf2
  8566   0025EE                     
  8567                           ; BSR set to: 0
  8568   0025EE  5185               	movf	(memset@n+1)& (0+255),w,b
  8569   0025F0  E107               	bnz	i1u740_21
  8570   0025F2  0E07               	movlw	7
  8571   0025F4  5D84               	subwf	memset@n& (0+255),w,b
  8572   0025F6  B0D8               	btfsc	status,0,c
  8573   0025F8  EF00  F013         	goto	i1u740_21
  8574   0025FC  EF02  F013         	goto	i1u740_20
  8575   002600                     i1u740_21:
  8576   002600  EF04  F013         	goto	i1l7501
  8577   002604                     i1u740_20:
  8578   002604  EF55  F013         	goto	i1l2244
  8579   002608                     i1l7501:
  8580                           
  8581                           ; BSR set to: 0
  8582   002608  EE20 F003          	lfsr	2,3
  8583   00260C  518A               	movf	memset@s& (0+255),w,b
  8584   00260E  26D9               	addwf	fsr2l,f,c
  8585   002610  518B               	movf	(memset@s+1)& (0+255),w,b
  8586   002612  22DA               	addwfc	fsr2h,f,c
  8587   002614  C082  FFDF         	movff	memset@c,indf2
  8588   002618  5184               	movf	memset@n& (0+255),w,b
  8589   00261A  258A               	addwf	memset@s& (0+255),w,b
  8590   00261C  6F86               	movwf	??_memset& (0+255),b
  8591   00261E  5185               	movf	(memset@n+1)& (0+255),w,b
  8592   002620  218B               	addwfc	(memset@s+1)& (0+255),w,b
  8593   002622  6F87               	movwf	(??_memset+1)& (0+255),b
  8594   002624  0EFC               	movlw	252
  8595   002626  2586               	addwf	??_memset& (0+255),w,b
  8596   002628  6ED9               	movwf	fsr2l,c
  8597   00262A  0EFF               	movlw	255
  8598   00262C  2187               	addwfc	(??_memset+1)& (0+255),w,b
  8599   00262E  6EDA               	movwf	fsr2h,c
  8600   002630  C082  FFDF         	movff	memset@c,indf2
  8601   002634                     
  8602                           ; BSR set to: 0
  8603   002634  5185               	movf	(memset@n+1)& (0+255),w,b
  8604   002636  E107               	bnz	i1u741_21
  8605   002638  0E09               	movlw	9
  8606   00263A  5D84               	subwf	memset@n& (0+255),w,b
  8607   00263C  B0D8               	btfsc	status,0,c
  8608   00263E  EF23  F013         	goto	i1u741_21
  8609   002642  EF25  F013         	goto	i1u741_20
  8610   002646                     i1u741_21:
  8611   002646  EF27  F013         	goto	i1l7507
  8612   00264A                     i1u741_20:
  8613   00264A  EF55  F013         	goto	i1l2244
  8614   00264E                     i1l7507:
  8615                           
  8616                           ; BSR set to: 0
  8617   00264E  C08A  F086         	movff	memset@s,??_memset
  8618   002652  C08B  F087         	movff	memset@s+1,??_memset+1
  8619   002656  1F86               	comf	??_memset& (0+255),f,b
  8620   002658  1F87               	comf	(??_memset+1)& (0+255),f,b
  8621   00265A  4B86               	infsnz	??_memset& (0+255),f,b
  8622   00265C  2B87               	incf	(??_memset+1)& (0+255),f,b
  8623   00265E  0E03               	movlw	3
  8624   002660  1586               	andwf	??_memset& (0+255),w,b
  8625   002662  6F88               	movwf	memset@k& (0+255),b
  8626   002664  6B89               	clrf	(memset@k+1)& (0+255),b
  8627   002666  5188               	movf	memset@k& (0+255),w,b
  8628   002668  278A               	addwf	memset@s& (0+255),f,b
  8629   00266A  5189               	movf	(memset@k+1)& (0+255),w,b
  8630   00266C  238B               	addwfc	(memset@s+1)& (0+255),f,b
  8631   00266E  5188               	movf	memset@k& (0+255),w,b
  8632   002670  5F84               	subwf	memset@n& (0+255),f,b
  8633   002672  5189               	movf	(memset@k+1)& (0+255),w,b
  8634   002674  5B85               	subwfb	(memset@n+1)& (0+255),f,b
  8635   002676  0EFC               	movlw	252
  8636   002678  1784               	andwf	memset@n& (0+255),f,b
  8637   00267A  0EFF               	movlw	255
  8638   00267C  1785               	andwf	(memset@n+1)& (0+255),f,b
  8639   00267E  EF4C  F013         	goto	i1l7515
  8640   002682                     i1l7509:
  8641                           
  8642                           ; BSR set to: 0
  8643   002682  C08A  FFD9         	movff	memset@s,fsr2l
  8644   002686  C08B  FFDA         	movff	memset@s+1,fsr2h
  8645   00268A  C082  FFDF         	movff	memset@c,indf2
  8646   00268E                     
  8647                           ; BSR set to: 0
  8648   00268E  0784               	decf	memset@n& (0+255),f,b
  8649   002690  A0D8               	btfss	status,0,c
  8650   002692  0785               	decf	(memset@n+1)& (0+255),f,b
  8651   002694                     
  8652                           ; BSR set to: 0
  8653   002694  4B8A               	infsnz	memset@s& (0+255),f,b
  8654   002696  2B8B               	incf	(memset@s+1)& (0+255),f,b
  8655   002698                     i1l7515:
  8656                           
  8657                           ; BSR set to: 0
  8658   002698  5184               	movf	memset@n& (0+255),w,b
  8659   00269A  1185               	iorwf	(memset@n+1)& (0+255),w,b
  8660   00269C  A4D8               	btfss	status,2,c
  8661   00269E  EF53  F013         	goto	i1u742_21
  8662   0026A2  EF55  F013         	goto	i1u742_20
  8663   0026A6                     i1u742_21:
  8664   0026A6  EF41  F013         	goto	i1l7509
  8665   0026AA                     i1u742_20:
  8666   0026AA                     i1l2244:
  8667                           
  8668                           ; BSR set to: 0
  8669   0026AA  0012               	return		;funcret
  8670   0026AC                     __end_of_memset:
  8671                           	callstack 0
  8672                           
  8673 ;; *************** function _EUSART_RX_ISR *****************
  8674 ;; Defined at:
  8675 ;;		line 301 in file "MCAL_Layer/USART/hal_usart.c"
  8676 ;; Parameters:    Size  Location     Type
  8677 ;;		None
  8678 ;; Auto vars:     Size  Location     Type
  8679 ;;		None
  8680 ;; Return value:  Size  Location     Type
  8681 ;;                  1    wreg      void 
  8682 ;; Registers used:
  8683 ;;		wreg, fsr2l, fsr2h, status,2, status,0, pcl, pclath, pclatu, tosl, prodl, prodh, cstack
  8684 ;; Tracked objects:
  8685 ;;		On entry : 0/0
  8686 ;;		On exit  : 0/0
  8687 ;;		Unchanged: 0/0
  8688 ;; Data sizes:     COMRAM   BANK0   BANK1   BANK2   BANK3   BANK4   BANK5   BANK6   BANK7   BANK8   BANK9  BANK10  BANK1
      +1  BANK12  BANK13  BANK14  BANK15
  8689 ;;      Params:         0       0       0       0       0       0       0       0       0       0       0       0       
      +0       0       0       0       0
  8690 ;;      Locals:         0       0       0       0       0       0       0       0       0       0       0       0       
      +0       0       0       0       0
  8691 ;;      Temps:          0       0       0       0       0       0       0       0       0       0       0       0       
      +0       0       0       0       0
  8692 ;;      Totals:         0       0       0       0       0       0       0       0       0       0       0       0       
      +0       0       0       0       0
  8693 ;;Total ram usage:        0 bytes
  8694 ;; Hardware stack levels used: 1
  8695 ;; Hardware stack levels required when called: 16
  8696 ;; This function calls:
  8697 ;;		NULL
  8698 ;;		_USART_RX_INT
  8699 ;; This function is called by:
  8700 ;;		_InterruptManagerLow
  8701 ;; This function uses a non-reentrant model
  8702 ;;
  8703                           
  8704                           	psect	text46
  8705   003C00                     __ptext46:
  8706                           	callstack 0
  8707   003C00                     _EUSART_RX_ISR:
  8708                           	callstack 8
  8709   003C00                     
  8710                           ;MCAL_Layer/USART/hal_usart.c: 304:     if(EUSART_RX_InterruptHandler){
  8711   003C00  0100               	movlb	0	; () banked
  8712   003C02  51F5               	movf	_EUSART_RX_InterruptHandler& (0+255),w,b
  8713   003C04  11F6               	iorwf	(_EUSART_RX_InterruptHandler+1)& (0+255),w,b
  8714   003C06  B4D8               	btfsc	status,2,c
  8715   003C08  EF08  F01E         	goto	i1u1407_21
  8716   003C0C  EF0A  F01E         	goto	i1u1407_20
  8717   003C10                     i1u1407_21:
  8718   003C10  EF16  F01E         	goto	i1l11829
  8719   003C14                     i1u1407_20:
  8720   003C14                     
  8721                           ; BSR set to: 0
  8722                           ;MCAL_Layer/USART/hal_usart.c: 305:         EUSART_RX_InterruptHandler();
  8723   003C14  D802               	call	i1u1408_28
  8724   003C16  EF16  F01E         	goto	i1u1408_29
  8725   003C1A                     i1u1408_28:
  8726   003C1A  0005               	push	
  8727   003C1C  6EFA               	movwf	pclath,c
  8728   003C1E  51F5               	movf	_EUSART_RX_InterruptHandler& (0+255),w,b
  8729   003C20  6EFD               	movwf	tosl,c
  8730   003C22  51F6               	movf	(_EUSART_RX_InterruptHandler+1)& (0+255),w,b
  8731   003C24  6EFE               	movwf	tosh,c
  8732   003C26  6AFF               	clrf	tosu,c
  8733   003C28  50FA               	movf	pclath,w,c
  8734   003C2A  0012               	return		;indir
  8735   003C2C                     i1u1408_29:
  8736   003C2C                     i1l11829:
  8737                           
  8738                           ;MCAL_Layer/USART/hal_usart.c: 308:     if(EUSART_FramingErrorHandler){
  8739   003C2C  0100               	movlb	0	; () banked
  8740   003C2E  51F3               	movf	_EUSART_FramingErrorHandler& (0+255),w,b
  8741   003C30  11F4               	iorwf	(_EUSART_FramingErrorHandler+1)& (0+255),w,b
  8742   003C32  B4D8               	btfsc	status,2,c
  8743   003C34  EF1E  F01E         	goto	i1u1409_21
  8744   003C38  EF20  F01E         	goto	i1u1409_20
  8745   003C3C                     i1u1409_21:
  8746   003C3C  EF2C  F01E         	goto	i1l11833
  8747   003C40                     i1u1409_20:
  8748   003C40                     
  8749                           ; BSR set to: 0
  8750                           ;MCAL_Layer/USART/hal_usart.c: 309:        EUSART_FramingErrorHandler();
  8751   003C40  D802               	call	i1u1410_28
  8752   003C42  EF2C  F01E         	goto	i1u1410_29
  8753   003C46                     i1u1410_28:
  8754   003C46  0005               	push	
  8755   003C48  6EFA               	movwf	pclath,c
  8756   003C4A  51F3               	movf	_EUSART_FramingErrorHandler& (0+255),w,b
  8757   003C4C  6EFD               	movwf	tosl,c
  8758   003C4E  51F4               	movf	(_EUSART_FramingErrorHandler+1)& (0+255),w,b
  8759   003C50  6EFE               	movwf	tosh,c
  8760   003C52  6AFF               	clrf	tosu,c
  8761   003C54  50FA               	movf	pclath,w,c
  8762   003C56  0012               	return		;indir
  8763   003C58                     i1u1410_29:
  8764   003C58                     i1l11833:
  8765                           
  8766                           ;MCAL_Layer/USART/hal_usart.c: 312:     if(EUSART_OverrunErrorHandler){
  8767   003C58  0100               	movlb	0	; () banked
  8768   003C5A  51F1               	movf	_EUSART_OverrunErrorHandler& (0+255),w,b
  8769   003C5C  11F2               	iorwf	(_EUSART_OverrunErrorHandler+1)& (0+255),w,b
  8770   003C5E  B4D8               	btfsc	status,2,c
  8771   003C60  EF34  F01E         	goto	i1u1411_21
  8772   003C64  EF36  F01E         	goto	i1u1411_20
  8773   003C68                     i1u1411_21:
  8774   003C68  EF42  F01E         	goto	i1l1566
  8775   003C6C                     i1u1411_20:
  8776   003C6C                     
  8777                           ; BSR set to: 0
  8778                           ;MCAL_Layer/USART/hal_usart.c: 313:         EUSART_OverrunErrorHandler();
  8779   003C6C  D802               	call	i1u1412_28
  8780   003C6E  EF42  F01E         	goto	i1u1412_29
  8781   003C72                     i1u1412_28:
  8782   003C72  0005               	push	
  8783   003C74  6EFA               	movwf	pclath,c
  8784   003C76  51F1               	movf	_EUSART_OverrunErrorHandler& (0+255),w,b
  8785   003C78  6EFD               	movwf	tosl,c
  8786   003C7A  51F2               	movf	(_EUSART_OverrunErrorHandler+1)& (0+255),w,b
  8787   003C7C  6EFE               	movwf	tosh,c
  8788   003C7E  6AFF               	clrf	tosu,c
  8789   003C80  50FA               	movf	pclath,w,c
  8790   003C82  0012               	return		;indir
  8791   003C84                     i1u1412_29:
  8792   003C84                     i1l1566:
  8793   003C84  0012               	return		;funcret
  8794   003C86                     __end_of_EUSART_RX_ISR:
  8795                           	callstack 0
  8796                           
  8797 ;; *************** function _USART_RX_INT *****************
  8798 ;; Defined at:
  8799 ;;		line 36 in file "application.c"
  8800 ;; Parameters:    Size  Location     Type
  8801 ;;		None
  8802 ;; Auto vars:     Size  Location     Type
  8803 ;;		None
  8804 ;; Return value:  Size  Location     Type
  8805 ;;                  1    wreg      void 
  8806 ;; Registers used:
  8807 ;;		wreg, fsr2l, fsr2h, status,2, status,0, prodl, prodh, cstack
  8808 ;; Tracked objects:
  8809 ;;		On entry : 0/0
  8810 ;;		On exit  : 0/0
  8811 ;;		Unchanged: 0/0
  8812 ;; Data sizes:     COMRAM   BANK0   BANK1   BANK2   BANK3   BANK4   BANK5   BANK6   BANK7   BANK8   BANK9  BANK10  BANK1
      +1  BANK12  BANK13  BANK14  BANK15
  8813 ;;      Params:         0       0       0       0       0       0       0       0       0       0       0       0       
      +0       0       0       0       0
  8814 ;;      Locals:         0       0       0       0       0       0       0       0       0       0       0       0       
      +0       0       0       0       0
  8815 ;;      Temps:          0       0       0       0       0       0       0       0       0       0       0       0       
      +0       0       0       0       0
  8816 ;;      Totals:         0       0       0       0       0       0       0       0       0       0       0       0       
      +0       0       0       0       0
  8817 ;;Total ram usage:        0 bytes
  8818 ;; Hardware stack levels used: 1
  8819 ;; Hardware stack levels required when called: 15
  8820 ;; This function calls:
  8821 ;;		_EUSART_ASYNC_ReadByteNonBlocking
  8822 ;;		_lcd_4bit_send_char_data
  8823 ;;		i1_lcd_4bit_send_command
  8824 ;; This function is called by:
  8825 ;;		_USART_ASYNC_9600_BAUDRATE_INIT
  8826 ;;		_EUSART_RX_ISR
  8827 ;;		i2_EUSART_RX_ISR
  8828 ;; This function uses a non-reentrant model
  8829 ;;
  8830                           
  8831                           	psect	text47
  8832   00457A                     __ptext47:
  8833                           	callstack 0
  8834   00457A                     _USART_RX_INT:
  8835                           	callstack 0
  8836                           
  8837                           ;Skip over the trampoline to the duplicate function for level 2
  8838   00457A  A27F               	btfss	int$flags,1,c
  8839   00457C  EFC2  F022         	goto	_USART_RX_INT$intlevel1
  8840   004580  EF5D  F023         	goto	i2_USART_RX_INT
  8841   004584                     _USART_RX_INT$intlevel1:
  8842                           	callstack 8
  8843   004584                     
  8844                           ;application.c: 38:   EUSART_ASYNC_ReadByteNonBlocking(&Recieved_char);
  8845   004584  0EFF               	movlw	low _Recieved_char
  8846   004586  0100               	movlb	0	; () banked
  8847   004588  6F80               	movwf	EUSART_ASYNC_ReadByteNonBlocking@data& (0+255),b
  8848   00458A  0E00               	movlw	high _Recieved_char
  8849   00458C  6F81               	movwf	(EUSART_ASYNC_ReadByteNonBlocking@data+1)& (0+255),b
  8850   00458E  ECFA  F022         	call	_EUSART_ASYNC_ReadByteNonBlocking	;wreg free
  8851   004592                     
  8852                           ;application.c: 39:   lcd_4bit_send_command(&lcd1,0X01);
  8853   004592  0ECE               	movlw	low _lcd1
  8854   004594  0100               	movlb	0	; () banked
  8855   004596  6F8E               	movwf	i1lcd_4bit_send_command@lcd& (0+255),b
  8856   004598  0E01               	movlw	high _lcd1
  8857   00459A  6F8F               	movwf	(i1lcd_4bit_send_command@lcd+1)& (0+255),b
  8858   00459C  0E01               	movlw	1
  8859   00459E  6F90               	movwf	i1lcd_4bit_send_command@command& (0+255),b
  8860   0045A0  EC80  F01F         	call	i1_lcd_4bit_send_command	;wreg free
  8861   0045A4                     
  8862                           ;application.c: 40:   lcd_4bit_send_char_data(&lcd1,Recieved_char);
  8863   0045A4  0ECE               	movlw	low _lcd1
  8864   0045A6  0100               	movlb	0	; () banked
  8865   0045A8  6F8E               	movwf	lcd_4bit_send_char_data@lcd& (0+255),b
  8866   0045AA  0E01               	movlw	high _lcd1
  8867   0045AC  6F8F               	movwf	(lcd_4bit_send_char_data@lcd+1)& (0+255),b
  8868   0045AE  C0FF  F090         	movff	_Recieved_char,lcd_4bit_send_char_data@data	;volatile
  8869   0045B2  EC04  F01F         	call	_lcd_4bit_send_char_data	;wreg free
  8870   0045B6  0012               	return		;funcret
  8871   0045B8                     __end_of_USART_RX_INT:
  8872                           	callstack 0
  8873                           
  8874 ;; *************** function i1_lcd_4bit_send_command *****************
  8875 ;; Defined at:
  8876 ;;		line 43 in file "ECU_Layer/Chr_LCD/ecu_chr_lcd.c"
  8877 ;; Parameters:    Size  Location     Type
  8878 ;;  lcd             2   14[BANK0 ] PTR const struct .
  8879 ;;		 -> lcd1(6), 
  8880 ;;  command         1   16[BANK0 ] unsigned char 
  8881 ;; Auto vars:     Size  Location     Type
  8882 ;;  ret             1   17[BANK0 ] unsigned char 
  8883 ;; Return value:  Size  Location     Type
  8884 ;;                  1    wreg      unsigned char 
  8885 ;; Registers used:
  8886 ;;		wreg, fsr2l, fsr2h, status,2, status,0, prodl, prodh, cstack
  8887 ;; Tracked objects:
  8888 ;;		On entry : 0/0
  8889 ;;		On exit  : 0/0
  8890 ;;		Unchanged: 0/0
  8891 ;; Data sizes:     COMRAM   BANK0   BANK1   BANK2   BANK3   BANK4   BANK5   BANK6   BANK7   BANK8   BANK9  BANK10  BANK1
      +1  BANK12  BANK13  BANK14  BANK15
  8892 ;;      Params:         0       3       0       0       0       0       0       0       0       0       0       0       
      +0       0       0       0       0
  8893 ;;      Locals:         0       1       0       0       0       0       0       0       0       0       0       0       
      +0       0       0       0       0
  8894 ;;      Temps:          0       0       0       0       0       0       0       0       0       0       0       0       
      +0       0       0       0       0
  8895 ;;      Totals:         0       4       0       0       0       0       0       0       0       0       0       0       
      +0       0       0       0       0
  8896 ;;Total ram usage:        4 bytes
  8897 ;; Hardware stack levels used: 1
  8898 ;; Hardware stack levels required when called: 14
  8899 ;; This function calls:
  8900 ;;		i1_gpio_pin_write_logic
  8901 ;;		i1_lcd_4bit_send_enable_signal
  8902 ;;		i1_lcd_send_4bits
  8903 ;; This function is called by:
  8904 ;;		_USART_TX_INT
  8905 ;;		_USART_RX_INT
  8906 ;; This function uses a non-reentrant model
  8907 ;;
  8908                           
  8909                           	psect	text48
  8910   003F00                     __ptext48:
  8911                           	callstack 0
  8912   003F00                     i1_lcd_4bit_send_command:
  8913                           	callstack 8
  8914   003F00                     
  8915                           ;ECU_Layer/Chr_LCD/ecu_chr_lcd.c: 45:     if(lcd==((void*)0)){
  8916   003F00  0100               	movlb	0	; () banked
  8917   003F02  518E               	movf	i1lcd_4bit_send_command@lcd& (0+255),w,b
  8918   003F04  118F               	iorwf	(i1lcd_4bit_send_command@lcd+1)& (0+255),w,b
  8919   003F06  A4D8               	btfss	status,2,c
  8920   003F08  EF88  F01F         	goto	i1u1398_21
  8921   003F0C  EF8A  F01F         	goto	i1u1398_20
  8922   003F10                     i1u1398_21:
  8923   003F10  EF8C  F01F         	goto	i1l11725
  8924   003F14                     i1u1398_20:
  8925   003F14                     
  8926                           ; BSR set to: 0
  8927                           ;ECU_Layer/Chr_LCD/ecu_chr_lcd.c: 47:     }
  8928   003F14  EFBB  F01F         	goto	i1l76
  8929   003F18                     i1l11725:
  8930                           
  8931                           ; BSR set to: 0
  8932                           ;ECU_Layer/Chr_LCD/ecu_chr_lcd.c: 49:         ret=gpio_pin_write_logic(&(lcd->lcd_rs),LO
      +                          W);
  8933   003F18  C08E  F080         	movff	i1lcd_4bit_send_command@lcd,i1gpio_pin_write_logic@pin_config
  8934   003F1C  C08F  F081         	movff	i1lcd_4bit_send_command@lcd+1,i1gpio_pin_write_logic@pin_config+1
  8935   003F20  0E00               	movlw	0
  8936   003F22  6F82               	movwf	i1gpio_pin_write_logic@logic& (0+255),b
  8937   003F24  EC6D  F015         	call	i1_gpio_pin_write_logic	;wreg free
  8938   003F28  0100               	movlb	0	; () banked
  8939   003F2A  6F91               	movwf	i1lcd_4bit_send_command@ret& (0+255),b
  8940                           
  8941                           ;ECU_Layer/Chr_LCD/ecu_chr_lcd.c: 50:         ret=lcd_send_4bits(lcd, command >> 4);
  8942   003F2C  C08E  F08A         	movff	i1lcd_4bit_send_command@lcd,i1lcd_send_4bits@lcd
  8943   003F30  C08F  F08B         	movff	i1lcd_4bit_send_command@lcd+1,i1lcd_send_4bits@lcd+1
  8944   003F34  3990               	swapf	i1lcd_4bit_send_command@command& (0+255),w,b
  8945   003F36  0B0F               	andlw	15
  8946   003F38  6F8C               	movwf	i1lcd_send_4bits@_data_command& (0+255),b
  8947   003F3A  EC2B  F01D         	call	i1_lcd_send_4bits	;wreg free
  8948   003F3E  0100               	movlb	0	; () banked
  8949   003F40  6F91               	movwf	i1lcd_4bit_send_command@ret& (0+255),b
  8950                           
  8951                           ;ECU_Layer/Chr_LCD/ecu_chr_lcd.c: 51:         ret=lcd_4bit_send_enable_signal(lcd);
  8952   003F42  C08E  F08A         	movff	i1lcd_4bit_send_command@lcd,i1lcd_4bit_send_enable_signal@lcd
  8953   003F46  C08F  F08B         	movff	i1lcd_4bit_send_command@lcd+1,i1lcd_4bit_send_enable_signal@lcd+1
  8954   003F4A  ECDA  F020         	call	i1_lcd_4bit_send_enable_signal	;wreg free
  8955   003F4E  0100               	movlb	0	; () banked
  8956   003F50  6F91               	movwf	i1lcd_4bit_send_command@ret& (0+255),b
  8957                           
  8958                           ;ECU_Layer/Chr_LCD/ecu_chr_lcd.c: 52:         ret=lcd_send_4bits(lcd, command);
  8959   003F52  C08E  F08A         	movff	i1lcd_4bit_send_command@lcd,i1lcd_send_4bits@lcd
  8960   003F56  C08F  F08B         	movff	i1lcd_4bit_send_command@lcd+1,i1lcd_send_4bits@lcd+1
  8961   003F5A  C090  F08C         	movff	i1lcd_4bit_send_command@command,i1lcd_send_4bits@_data_command
  8962   003F5E  EC2B  F01D         	call	i1_lcd_send_4bits	;wreg free
  8963   003F62  0100               	movlb	0	; () banked
  8964   003F64  6F91               	movwf	i1lcd_4bit_send_command@ret& (0+255),b
  8965                           
  8966                           ;ECU_Layer/Chr_LCD/ecu_chr_lcd.c: 53:         ret=lcd_4bit_send_enable_signal(lcd);
  8967   003F66  C08E  F08A         	movff	i1lcd_4bit_send_command@lcd,i1lcd_4bit_send_enable_signal@lcd
  8968   003F6A  C08F  F08B         	movff	i1lcd_4bit_send_command@lcd+1,i1lcd_4bit_send_enable_signal@lcd+1
  8969   003F6E  ECDA  F020         	call	i1_lcd_4bit_send_enable_signal	;wreg free
  8970   003F72  0100               	movlb	0	; () banked
  8971   003F74  6F91               	movwf	i1lcd_4bit_send_command@ret& (0+255),b
  8972   003F76                     i1l76:
  8973                           
  8974                           ; BSR set to: 0
  8975   003F76  0012               	return		;funcret
  8976   003F78                     __end_ofi1_lcd_4bit_send_command:
  8977                           	callstack 0
  8978                           
  8979 ;; *************** function _lcd_4bit_send_char_data *****************
  8980 ;; Defined at:
  8981 ;;		line 63 in file "ECU_Layer/Chr_LCD/ecu_chr_lcd.c"
  8982 ;; Parameters:    Size  Location     Type
  8983 ;;  lcd             2   14[BANK0 ] PTR const struct .
  8984 ;;		 -> lcd1(6), 
  8985 ;;  data            1   16[BANK0 ] unsigned char 
  8986 ;; Auto vars:     Size  Location     Type
  8987 ;;  ret             1   17[BANK0 ] unsigned char 
  8988 ;; Return value:  Size  Location     Type
  8989 ;;                  1    wreg      unsigned char 
  8990 ;; Registers used:
  8991 ;;		wreg, fsr2l, fsr2h, status,2, status,0, prodl, prodh, cstack
  8992 ;; Tracked objects:
  8993 ;;		On entry : 0/0
  8994 ;;		On exit  : 0/0
  8995 ;;		Unchanged: 0/0
  8996 ;; Data sizes:     COMRAM   BANK0   BANK1   BANK2   BANK3   BANK4   BANK5   BANK6   BANK7   BANK8   BANK9  BANK10  BANK1
      +1  BANK12  BANK13  BANK14  BANK15
  8997 ;;      Params:         0       3       0       0       0       0       0       0       0       0       0       0       
      +0       0       0       0       0
  8998 ;;      Locals:         0       1       0       0       0       0       0       0       0       0       0       0       
      +0       0       0       0       0
  8999 ;;      Temps:          0       0       0       0       0       0       0       0       0       0       0       0       
      +0       0       0       0       0
  9000 ;;      Totals:         0       4       0       0       0       0       0       0       0       0       0       0       
      +0       0       0       0       0
  9001 ;;Total ram usage:        4 bytes
  9002 ;; Hardware stack levels used: 1
  9003 ;; Hardware stack levels required when called: 14
  9004 ;; This function calls:
  9005 ;;		i1_gpio_pin_write_logic
  9006 ;;		i1_lcd_4bit_send_enable_signal
  9007 ;;		i1_lcd_send_4bits
  9008 ;; This function is called by:
  9009 ;;		_lcd_4bit_send_string
  9010 ;;		_USART_RX_INT
  9011 ;;		_lcd_4bit_send_char_data_pos
  9012 ;;		_lcd_4bit_send_string_pos
  9013 ;;		_lcd_4bit_send_custom_char
  9014 ;; This function uses a non-reentrant model
  9015 ;;
  9016                           
  9017                           	psect	text49
  9018   003E08                     __ptext49:
  9019                           	callstack 0
  9020   003E08                     _lcd_4bit_send_char_data:
  9021                           	callstack 7
  9022   003E08                     
  9023                           ;ECU_Layer/Chr_LCD/ecu_chr_lcd.c: 65:     if(lcd==((void*)0)){
  9024   003E08  0100               	movlb	0	; () banked
  9025   003E0A  518E               	movf	lcd_4bit_send_char_data@lcd& (0+255),w,b
  9026   003E0C  118F               	iorwf	(lcd_4bit_send_char_data@lcd+1)& (0+255),w,b
  9027   003E0E  A4D8               	btfss	status,2,c
  9028   003E10  EF0C  F01F         	goto	i1u1392_21
  9029   003E14  EF0E  F01F         	goto	i1u1392_20
  9030   003E18                     i1u1392_21:
  9031   003E18  EF12  F01F         	goto	i1l11681
  9032   003E1C                     i1u1392_20:
  9033   003E1C                     
  9034                           ; BSR set to: 0
  9035                           ;ECU_Layer/Chr_LCD/ecu_chr_lcd.c: 66:         ret=(Std_ReturnType)0x00;
  9036   003E1C  0E00               	movlw	0
  9037   003E1E  6F91               	movwf	lcd_4bit_send_char_data@ret& (0+255),b
  9038                           
  9039                           ;ECU_Layer/Chr_LCD/ecu_chr_lcd.c: 67:     }
  9040   003E20  EF41  F01F         	goto	i1l11683
  9041   003E24                     i1l11681:
  9042                           
  9043                           ; BSR set to: 0
  9044                           ;ECU_Layer/Chr_LCD/ecu_chr_lcd.c: 69:        ret=gpio_pin_write_logic(&(lcd->lcd_rs),HIG
      +                          H);
  9045   003E24  C08E  F080         	movff	lcd_4bit_send_char_data@lcd,i1gpio_pin_write_logic@pin_config
  9046   003E28  C08F  F081         	movff	lcd_4bit_send_char_data@lcd+1,i1gpio_pin_write_logic@pin_config+1
  9047   003E2C  0E01               	movlw	1
  9048   003E2E  6F82               	movwf	i1gpio_pin_write_logic@logic& (0+255),b
  9049   003E30  EC6D  F015         	call	i1_gpio_pin_write_logic	;wreg free
  9050   003E34  0100               	movlb	0	; () banked
  9051   003E36  6F91               	movwf	lcd_4bit_send_char_data@ret& (0+255),b
  9052                           
  9053                           ;ECU_Layer/Chr_LCD/ecu_chr_lcd.c: 70:         ret=lcd_send_4bits(lcd, data >> 4);
  9054   003E38  C08E  F08A         	movff	lcd_4bit_send_char_data@lcd,i1lcd_send_4bits@lcd
  9055   003E3C  C08F  F08B         	movff	lcd_4bit_send_char_data@lcd+1,i1lcd_send_4bits@lcd+1
  9056   003E40  3990               	swapf	lcd_4bit_send_char_data@data& (0+255),w,b
  9057   003E42  0B0F               	andlw	15
  9058   003E44  6F8C               	movwf	i1lcd_send_4bits@_data_command& (0+255),b
  9059   003E46  EC2B  F01D         	call	i1_lcd_send_4bits	;wreg free
  9060   003E4A  0100               	movlb	0	; () banked
  9061   003E4C  6F91               	movwf	lcd_4bit_send_char_data@ret& (0+255),b
  9062                           
  9063                           ;ECU_Layer/Chr_LCD/ecu_chr_lcd.c: 71:         ret=lcd_4bit_send_enable_signal(lcd);
  9064   003E4E  C08E  F08A         	movff	lcd_4bit_send_char_data@lcd,i1lcd_4bit_send_enable_signal@lcd
  9065   003E52  C08F  F08B         	movff	lcd_4bit_send_char_data@lcd+1,i1lcd_4bit_send_enable_signal@lcd+1
  9066   003E56  ECDA  F020         	call	i1_lcd_4bit_send_enable_signal	;wreg free
  9067   003E5A  0100               	movlb	0	; () banked
  9068   003E5C  6F91               	movwf	lcd_4bit_send_char_data@ret& (0+255),b
  9069                           
  9070                           ;ECU_Layer/Chr_LCD/ecu_chr_lcd.c: 72:         ret=lcd_send_4bits(lcd, data);
  9071   003E5E  C08E  F08A         	movff	lcd_4bit_send_char_data@lcd,i1lcd_send_4bits@lcd
  9072   003E62  C08F  F08B         	movff	lcd_4bit_send_char_data@lcd+1,i1lcd_send_4bits@lcd+1
  9073   003E66  C090  F08C         	movff	lcd_4bit_send_char_data@data,i1lcd_send_4bits@_data_command
  9074   003E6A  EC2B  F01D         	call	i1_lcd_send_4bits	;wreg free
  9075   003E6E  0100               	movlb	0	; () banked
  9076   003E70  6F91               	movwf	lcd_4bit_send_char_data@ret& (0+255),b
  9077                           
  9078                           ;ECU_Layer/Chr_LCD/ecu_chr_lcd.c: 73:         ret=lcd_4bit_send_enable_signal(lcd);
  9079   003E72  C08E  F08A         	movff	lcd_4bit_send_char_data@lcd,i1lcd_4bit_send_enable_signal@lcd
  9080   003E76  C08F  F08B         	movff	lcd_4bit_send_char_data@lcd+1,i1lcd_4bit_send_enable_signal@lcd+1
  9081   003E7A  ECDA  F020         	call	i1_lcd_4bit_send_enable_signal	;wreg free
  9082   003E7E  0100               	movlb	0	; () banked
  9083   003E80  6F91               	movwf	lcd_4bit_send_char_data@ret& (0+255),b
  9084   003E82                     i1l11683:
  9085                           
  9086                           ; BSR set to: 0
  9087                           ;ECU_Layer/Chr_LCD/ecu_chr_lcd.c: 75:     return ret;
  9088   003E82  5191               	movf	lcd_4bit_send_char_data@ret& (0+255),w,b
  9089   003E84                     
  9090                           ; BSR set to: 0
  9091   003E84  0012               	return		;funcret
  9092   003E86                     __end_of_lcd_4bit_send_char_data:
  9093                           	callstack 0
  9094                           
  9095 ;; *************** function i1_lcd_send_4bits *****************
  9096 ;; Defined at:
  9097 ;;		line 396 in file "ECU_Layer/Chr_LCD/ecu_chr_lcd.c"
  9098 ;; Parameters:    Size  Location     Type
  9099 ;;  lcd             2   10[BANK0 ] PTR const struct .
  9100 ;;		 -> lcd1(6), 
  9101 ;;  _data_comman    1   12[BANK0 ] unsigned char 
  9102 ;; Auto vars:     Size  Location     Type
  9103 ;;  ret             1   13[BANK0 ] unsigned char 
  9104 ;; Return value:  Size  Location     Type
  9105 ;;                  1    wreg      unsigned char 
  9106 ;; Registers used:
  9107 ;;		wreg, fsr2l, fsr2h, status,2, status,0, prodl, prodh, cstack
  9108 ;; Tracked objects:
  9109 ;;		On entry : 0/0
  9110 ;;		On exit  : 0/0
  9111 ;;		Unchanged: 0/0
  9112 ;; Data sizes:     COMRAM   BANK0   BANK1   BANK2   BANK3   BANK4   BANK5   BANK6   BANK7   BANK8   BANK9  BANK10  BANK1
      +1  BANK12  BANK13  BANK14  BANK15
  9113 ;;      Params:         0       3       0       0       0       0       0       0       0       0       0       0       
      +0       0       0       0       0
  9114 ;;      Locals:         0       1       0       0       0       0       0       0       0       0       0       0       
      +0       0       0       0       0
  9115 ;;      Temps:          0       0       0       0       0       0       0       0       0       0       0       0       
      +0       0       0       0       0
  9116 ;;      Totals:         0       4       0       0       0       0       0       0       0       0       0       0       
      +0       0       0       0       0
  9117 ;;Total ram usage:        4 bytes
  9118 ;; Hardware stack levels used: 1
  9119 ;; Hardware stack levels required when called: 13
  9120 ;; This function calls:
  9121 ;;		i1_gpio_pin_write_logic
  9122 ;; This function is called by:
  9123 ;;		_lcd_4bit_send_char_data
  9124 ;;		i1_lcd_4bit_send_command
  9125 ;; This function uses a non-reentrant model
  9126 ;;
  9127                           
  9128                           	psect	text50
  9129   003A56                     __ptext50:
  9130                           	callstack 0
  9131   003A56                     i1_lcd_send_4bits:
  9132                           	callstack 8
  9133   003A56                     
  9134                           ;ECU_Layer/Chr_LCD/ecu_chr_lcd.c: 398:     if(lcd==((void*)0)){
  9135   003A56  0100               	movlb	0	; () banked
  9136   003A58  518A               	movf	i1lcd_send_4bits@lcd& (0+255),w,b
  9137   003A5A  118B               	iorwf	(i1lcd_send_4bits@lcd+1)& (0+255),w,b
  9138   003A5C  A4D8               	btfss	status,2,c
  9139   003A5E  EF33  F01D         	goto	i1u1388_21
  9140   003A62  EF35  F01D         	goto	i1u1388_20
  9141   003A66                     i1u1388_21:
  9142   003A66  EF39  F01D         	goto	i1l11629
  9143   003A6A                     i1u1388_20:
  9144   003A6A                     
  9145                           ; BSR set to: 0
  9146                           ;ECU_Layer/Chr_LCD/ecu_chr_lcd.c: 399:         ret=(Std_ReturnType)0x00;
  9147   003A6A  0E00               	movlw	0
  9148   003A6C  6F8D               	movwf	i1lcd_send_4bits@ret& (0+255),b
  9149                           
  9150                           ;ECU_Layer/Chr_LCD/ecu_chr_lcd.c: 400:     }
  9151   003A6E  EF72  F01D         	goto	i1l11631
  9152   003A72                     i1l11629:
  9153                           
  9154                           ; BSR set to: 0
  9155                           ;ECU_Layer/Chr_LCD/ecu_chr_lcd.c: 402:         ret=gpio_pin_write_logic(&(lcd->lcd_data[
      +                          0]),( _data_command >> 0 ) & (uint8)0x01);
  9156   003A72  0E02               	movlw	2
  9157   003A74  258A               	addwf	i1lcd_send_4bits@lcd& (0+255),w,b
  9158   003A76  6F80               	movwf	i1gpio_pin_write_logic@pin_config& (0+255),b
  9159   003A78  0E00               	movlw	0
  9160   003A7A  218B               	addwfc	(i1lcd_send_4bits@lcd+1)& (0+255),w,b
  9161   003A7C  6F81               	movwf	(i1gpio_pin_write_logic@pin_config+1)& (0+255),b
  9162   003A7E  518C               	movf	i1lcd_send_4bits@_data_command& (0+255),w,b
  9163   003A80  0B01               	andlw	1
  9164   003A82  6F82               	movwf	i1gpio_pin_write_logic@logic& (0+255),b
  9165   003A84  EC6D  F015         	call	i1_gpio_pin_write_logic	;wreg free
  9166   003A88  0100               	movlb	0	; () banked
  9167   003A8A  6F8D               	movwf	i1lcd_send_4bits@ret& (0+255),b
  9168                           
  9169                           ;ECU_Layer/Chr_LCD/ecu_chr_lcd.c: 403:         ret=gpio_pin_write_logic(&(lcd->lcd_data[
      +                          1]),( _data_command >> 1 ) & (uint8)0x01);
  9170   003A8C  0E03               	movlw	3
  9171   003A8E  258A               	addwf	i1lcd_send_4bits@lcd& (0+255),w,b
  9172   003A90  6F80               	movwf	i1gpio_pin_write_logic@pin_config& (0+255),b
  9173   003A92  0E00               	movlw	0
  9174   003A94  218B               	addwfc	(i1lcd_send_4bits@lcd+1)& (0+255),w,b
  9175   003A96  6F81               	movwf	(i1gpio_pin_write_logic@pin_config+1)& (0+255),b
  9176   003A98  90D8               	bcf	status,0,c
  9177   003A9A  318C               	rrcf	i1lcd_send_4bits@_data_command& (0+255),w,b
  9178   003A9C  0B01               	andlw	1
  9179   003A9E  6F82               	movwf	i1gpio_pin_write_logic@logic& (0+255),b
  9180   003AA0  EC6D  F015         	call	i1_gpio_pin_write_logic	;wreg free
  9181   003AA4  0100               	movlb	0	; () banked
  9182   003AA6  6F8D               	movwf	i1lcd_send_4bits@ret& (0+255),b
  9183                           
  9184                           ;ECU_Layer/Chr_LCD/ecu_chr_lcd.c: 404:         ret=gpio_pin_write_logic(&(lcd->lcd_data[
      +                          2]),( _data_command >> 2 ) & (uint8)0x01);
  9185   003AA8  0E04               	movlw	4
  9186   003AAA  258A               	addwf	i1lcd_send_4bits@lcd& (0+255),w,b
  9187   003AAC  6F80               	movwf	i1gpio_pin_write_logic@pin_config& (0+255),b
  9188   003AAE  0E00               	movlw	0
  9189   003AB0  218B               	addwfc	(i1lcd_send_4bits@lcd+1)& (0+255),w,b
  9190   003AB2  6F81               	movwf	(i1gpio_pin_write_logic@pin_config+1)& (0+255),b
  9191   003AB4  418C               	rrncf	i1lcd_send_4bits@_data_command& (0+255),w,b
  9192   003AB6  42E8               	rrncf	wreg,f,c
  9193   003AB8  0B3F               	andlw	63
  9194   003ABA  0B01               	andlw	1
  9195   003ABC  6F82               	movwf	i1gpio_pin_write_logic@logic& (0+255),b
  9196   003ABE  EC6D  F015         	call	i1_gpio_pin_write_logic	;wreg free
  9197   003AC2  0100               	movlb	0	; () banked
  9198   003AC4  6F8D               	movwf	i1lcd_send_4bits@ret& (0+255),b
  9199                           
  9200                           ;ECU_Layer/Chr_LCD/ecu_chr_lcd.c: 405:         ret=gpio_pin_write_logic(&(lcd->lcd_data[
      +                          3]),( _data_command >> 3 ) & (uint8)0x01);
  9201   003AC6  0E05               	movlw	5
  9202   003AC8  258A               	addwf	i1lcd_send_4bits@lcd& (0+255),w,b
  9203   003ACA  6F80               	movwf	i1gpio_pin_write_logic@pin_config& (0+255),b
  9204   003ACC  0E00               	movlw	0
  9205   003ACE  218B               	addwfc	(i1lcd_send_4bits@lcd+1)& (0+255),w,b
  9206   003AD0  6F81               	movwf	(i1gpio_pin_write_logic@pin_config+1)& (0+255),b
  9207   003AD2  398C               	swapf	i1lcd_send_4bits@_data_command& (0+255),w,b
  9208   003AD4  46E8               	rlncf	wreg,f,c
  9209   003AD6  0B1F               	andlw	31
  9210   003AD8  0B01               	andlw	1
  9211   003ADA  6F82               	movwf	i1gpio_pin_write_logic@logic& (0+255),b
  9212   003ADC  EC6D  F015         	call	i1_gpio_pin_write_logic	;wreg free
  9213   003AE0  0100               	movlb	0	; () banked
  9214   003AE2  6F8D               	movwf	i1lcd_send_4bits@ret& (0+255),b
  9215   003AE4                     i1l11631:
  9216                           
  9217                           ; BSR set to: 0
  9218                           ;ECU_Layer/Chr_LCD/ecu_chr_lcd.c: 407:     return ret;
  9219   003AE4  518D               	movf	i1lcd_send_4bits@ret& (0+255),w,b
  9220   003AE6                     
  9221                           ; BSR set to: 0
  9222   003AE6  0012               	return		;funcret
  9223   003AE8                     __end_ofi1_lcd_send_4bits:
  9224                           	callstack 0
  9225                           
  9226 ;; *************** function i1_lcd_4bit_send_enable_signal *****************
  9227 ;; Defined at:
  9228 ;;		line 409 in file "ECU_Layer/Chr_LCD/ecu_chr_lcd.c"
  9229 ;; Parameters:    Size  Location     Type
  9230 ;;  lcd             2   10[BANK0 ] PTR const struct .
  9231 ;;		 -> lcd1(6), 
  9232 ;; Auto vars:     Size  Location     Type
  9233 ;;  ret             1   12[BANK0 ] unsigned char 
  9234 ;; Return value:  Size  Location     Type
  9235 ;;                  1    wreg      unsigned char 
  9236 ;; Registers used:
  9237 ;;		wreg, fsr2l, fsr2h, status,2, status,0, prodl, prodh, cstack
  9238 ;; Tracked objects:
  9239 ;;		On entry : 0/0
  9240 ;;		On exit  : 0/0
  9241 ;;		Unchanged: 0/0
  9242 ;; Data sizes:     COMRAM   BANK0   BANK1   BANK2   BANK3   BANK4   BANK5   BANK6   BANK7   BANK8   BANK9  BANK10  BANK1
      +1  BANK12  BANK13  BANK14  BANK15
  9243 ;;      Params:         0       2       0       0       0       0       0       0       0       0       0       0       
      +0       0       0       0       0
  9244 ;;      Locals:         0       1       0       0       0       0       0       0       0       0       0       0       
      +0       0       0       0       0
  9245 ;;      Temps:          0       0       0       0       0       0       0       0       0       0       0       0       
      +0       0       0       0       0
  9246 ;;      Totals:         0       3       0       0       0       0       0       0       0       0       0       0       
      +0       0       0       0       0
  9247 ;;Total ram usage:        3 bytes
  9248 ;; Hardware stack levels used: 1
  9249 ;; Hardware stack levels required when called: 13
  9250 ;; This function calls:
  9251 ;;		i1_gpio_pin_write_logic
  9252 ;; This function is called by:
  9253 ;;		_lcd_4bit_send_char_data
  9254 ;;		i1_lcd_4bit_send_command
  9255 ;; This function uses a non-reentrant model
  9256 ;;
  9257                           
  9258                           	psect	text51
  9259   0041B4                     __ptext51:
  9260                           	callstack 0
  9261   0041B4                     i1_lcd_4bit_send_enable_signal:
  9262                           	callstack 8
  9263   0041B4                     
  9264                           ;ECU_Layer/Chr_LCD/ecu_chr_lcd.c: 411:     if(lcd==((void*)0)){
  9265   0041B4  0100               	movlb	0	; () banked
  9266   0041B6  518A               	movf	i1lcd_4bit_send_enable_signal@lcd& (0+255),w,b
  9267   0041B8  118B               	iorwf	(i1lcd_4bit_send_enable_signal@lcd+1)& (0+255),w,b
  9268   0041BA  A4D8               	btfss	status,2,c
  9269   0041BC  EFE2  F020         	goto	i1u1390_21
  9270   0041C0  EFE4  F020         	goto	i1u1390_20
  9271   0041C4                     i1u1390_21:
  9272   0041C4  EFE8  F020         	goto	i1l11653
  9273   0041C8                     i1u1390_20:
  9274   0041C8                     
  9275                           ; BSR set to: 0
  9276                           ;ECU_Layer/Chr_LCD/ecu_chr_lcd.c: 412:         ret=(Std_ReturnType)0x00;
  9277   0041C8  0E00               	movlw	0
  9278   0041CA  6F8C               	movwf	i1lcd_4bit_send_enable_signal@ret& (0+255),b
  9279                           
  9280                           ;ECU_Layer/Chr_LCD/ecu_chr_lcd.c: 413:     }
  9281   0041CC  EF02  F021         	goto	i1l11657
  9282   0041D0                     i1l11653:
  9283                           
  9284                           ; BSR set to: 0
  9285   0041D0  0E01               	movlw	1
  9286   0041D2  258A               	addwf	i1lcd_4bit_send_enable_signal@lcd& (0+255),w,b
  9287   0041D4  6F80               	movwf	i1gpio_pin_write_logic@pin_config& (0+255),b
  9288   0041D6  0E00               	movlw	0
  9289   0041D8  218B               	addwfc	(i1lcd_4bit_send_enable_signal@lcd+1)& (0+255),w,b
  9290   0041DA  6F81               	movwf	(i1gpio_pin_write_logic@pin_config+1)& (0+255),b
  9291   0041DC  0E01               	movlw	1
  9292   0041DE  6F82               	movwf	i1gpio_pin_write_logic@logic& (0+255),b
  9293   0041E0  EC6D  F015         	call	i1_gpio_pin_write_logic	;wreg free
  9294   0041E4                     
  9295                           ;ECU_Layer/Chr_LCD/ecu_chr_lcd.c: 416:         _delay((unsigned long)((5)*(4000000UL/400
      +                          0000.0)));
  9296   0041E4  D000               	nop2		;2 cycle nop
  9297   0041E6  D000               	nop2		;2 cycle nop
  9298   0041E8  F000               	nop	
  9299                           
  9300                           ;ECU_Layer/Chr_LCD/ecu_chr_lcd.c: 417:         ret=gpio_pin_write_logic(&(lcd->lcd_en),L
      +                          OW);
  9301   0041EA  0E01               	movlw	1
  9302   0041EC  0100               	movlb	0	; () banked
  9303   0041EE  258A               	addwf	i1lcd_4bit_send_enable_signal@lcd& (0+255),w,b
  9304   0041F0  6F80               	movwf	i1gpio_pin_write_logic@pin_config& (0+255),b
  9305   0041F2  0E00               	movlw	0
  9306   0041F4  218B               	addwfc	(i1lcd_4bit_send_enable_signal@lcd+1)& (0+255),w,b
  9307   0041F6  6F81               	movwf	(i1gpio_pin_write_logic@pin_config+1)& (0+255),b
  9308   0041F8  0E00               	movlw	0
  9309   0041FA  6F82               	movwf	i1gpio_pin_write_logic@logic& (0+255),b
  9310   0041FC  EC6D  F015         	call	i1_gpio_pin_write_logic	;wreg free
  9311   004200  0100               	movlb	0	; () banked
  9312   004202  6F8C               	movwf	i1lcd_4bit_send_enable_signal@ret& (0+255),b
  9313   004204                     i1l11657:
  9314                           
  9315                           ; BSR set to: 0
  9316                           ;ECU_Layer/Chr_LCD/ecu_chr_lcd.c: 419:     return ret;
  9317   004204  518C               	movf	i1lcd_4bit_send_enable_signal@ret& (0+255),w,b
  9318   004206                     
  9319                           ; BSR set to: 0
  9320   004206  0012               	return		;funcret
  9321   004208                     __end_ofi1_lcd_4bit_send_enable_signal:
  9322                           	callstack 0
  9323                           
  9324 ;; *************** function i1_gpio_pin_write_logic *****************
  9325 ;; Defined at:
  9326 ;;		line 94 in file "MCAL_Layer/GPIO/hal_gpio.c"
  9327 ;; Parameters:    Size  Location     Type
  9328 ;;  pin_config      2    0[BANK0 ] PTR const struct .
  9329 ;;		 -> lcd1.lcd_data(4), lcd1(6), relay_turn_off@pin_obj(1), relay_turn_on@pin_obj(1), 
  9330 ;;		 -> relay_initialize@pin_obj(1), led_turn_off@pin_obj(1), led_turn_on@pin_obj(1), led_initialize@pin_obj(1), 
  9331 ;;  logic           1    2[BANK0 ] enum E3269
  9332 ;; Auto vars:     Size  Location     Type
  9333 ;;  ret             1    9[BANK0 ] unsigned char 
  9334 ;; Return value:  Size  Location     Type
  9335 ;;                  1    wreg      unsigned char 
  9336 ;; Registers used:
  9337 ;;		wreg, fsr2l, fsr2h, status,2, status,0, prodl, prodh
  9338 ;; Tracked objects:
  9339 ;;		On entry : 0/0
  9340 ;;		On exit  : 0/0
  9341 ;;		Unchanged: 0/0
  9342 ;; Data sizes:     COMRAM   BANK0   BANK1   BANK2   BANK3   BANK4   BANK5   BANK6   BANK7   BANK8   BANK9  BANK10  BANK1
      +1  BANK12  BANK13  BANK14  BANK15
  9343 ;;      Params:         0       3       0       0       0       0       0       0       0       0       0       0       
      +0       0       0       0       0
  9344 ;;      Locals:         0       1       0       0       0       0       0       0       0       0       0       0       
      +0       0       0       0       0
  9345 ;;      Temps:          0       6       0       0       0       0       0       0       0       0       0       0       
      +0       0       0       0       0
  9346 ;;      Totals:         0      10       0       0       0       0       0       0       0       0       0       0       
      +0       0       0       0       0
  9347 ;;Total ram usage:       10 bytes
  9348 ;; Hardware stack levels used: 1
  9349 ;; Hardware stack levels required when called: 12
  9350 ;; This function calls:
  9351 ;;		Nothing
  9352 ;; This function is called by:
  9353 ;;		_lcd_4bit_send_char_data
  9354 ;;		i1_lcd_4bit_send_command
  9355 ;;		i1_lcd_send_4bits
  9356 ;;		i1_lcd_4bit_send_enable_signal
  9357 ;; This function uses a non-reentrant model
  9358 ;;
  9359                           
  9360                           	psect	text52
  9361   002ADA                     __ptext52:
  9362                           	callstack 0
  9363   002ADA                     i1_gpio_pin_write_logic:
  9364                           	callstack 8
  9365   002ADA                     
  9366                           ;MCAL_Layer/GPIO/hal_gpio.c: 95:       Std_ReturnType ret=(Std_ReturnType)0x01;
  9367   002ADA  0E01               	movlw	1
  9368   002ADC  0100               	movlb	0	; () banked
  9369   002ADE  6F89               	movwf	i1gpio_pin_write_logic@ret& (0+255),b
  9370   002AE0                     
  9371                           ; BSR set to: 0
  9372                           ;MCAL_Layer/GPIO/hal_gpio.c: 96:     if((pin_config==((void*)0))||(pin_config->pin>8 -1)
      +                          ||(pin_config->port>5 -1)){
  9373   002AE0  5180               	movf	i1gpio_pin_write_logic@pin_config& (0+255),w,b
  9374   002AE2  1181               	iorwf	(i1gpio_pin_write_logic@pin_config+1)& (0+255),w,b
  9375   002AE4  B4D8               	btfsc	status,2,c
  9376   002AE6  EF77  F015         	goto	i1u1378_21
  9377   002AEA  EF79  F015         	goto	i1u1378_20
  9378   002AEE                     i1u1378_21:
  9379   002AEE  EF99  F015         	goto	i1l11579
  9380   002AF2                     i1u1378_20:
  9381   002AF2                     
  9382                           ; BSR set to: 0
  9383   002AF2  C080  FFD9         	movff	i1gpio_pin_write_logic@pin_config,fsr2l
  9384   002AF6  C081  FFDA         	movff	i1gpio_pin_write_logic@pin_config+1,fsr2h
  9385   002AFA  30DF               	rrcf	223,w,c
  9386   002AFC  32E8               	rrcf	wreg,f,c
  9387   002AFE  32E8               	rrcf	wreg,f,c
  9388   002B00  0B07               	andlw	7
  9389   002B02  6F83               	movwf	??i1_gpio_pin_write_logic& (0+255),b
  9390   002B04  0E08               	movlw	8
  9391   002B06  6183               	cpfslt	??i1_gpio_pin_write_logic& (0+255),b
  9392   002B08  EF88  F015         	goto	i1u1379_21
  9393   002B0C  EF8A  F015         	goto	i1u1379_20
  9394   002B10                     i1u1379_21:
  9395   002B10  EF99  F015         	goto	i1l11579
  9396   002B14                     i1u1379_20:
  9397   002B14                     
  9398                           ; BSR set to: 0
  9399   002B14  C080  FFD9         	movff	i1gpio_pin_write_logic@pin_config,fsr2l
  9400   002B18  C081  FFDA         	movff	i1gpio_pin_write_logic@pin_config+1,fsr2h
  9401   002B1C  50DF               	movf	223,w,c
  9402   002B1E  0B07               	andlw	7
  9403   002B20  6F83               	movwf	??i1_gpio_pin_write_logic& (0+255),b
  9404   002B22  0E04               	movlw	4
  9405   002B24  6583               	cpfsgt	??i1_gpio_pin_write_logic& (0+255),b
  9406   002B26  EF97  F015         	goto	i1u1380_21
  9407   002B2A  EF99  F015         	goto	i1u1380_20
  9408   002B2E                     i1u1380_21:
  9409   002B2E  EFFE  F015         	goto	i1l11587
  9410   002B32                     i1u1380_20:
  9411   002B32                     i1l11579:
  9412                           
  9413                           ; BSR set to: 0
  9414                           ;MCAL_Layer/GPIO/hal_gpio.c: 97:         ret=(Std_ReturnType)0x00;
  9415   002B32  0E00               	movlw	0
  9416   002B34  6F89               	movwf	i1gpio_pin_write_logic@ret& (0+255),b
  9417                           
  9418                           ;MCAL_Layer/GPIO/hal_gpio.c: 98:     }
  9419   002B36  EF13  F016         	goto	i1l11589
  9420   002B3A                     i1l11581:
  9421                           
  9422                           ; BSR set to: 0
  9423                           ;MCAL_Layer/GPIO/hal_gpio.c: 102:                 (*lat_registers[pin_config->port]|=((u
      +                          int8)0x01<<pin_config->pin));
  9424   002B3A  C080  FFD9         	movff	i1gpio_pin_write_logic@pin_config,fsr2l
  9425   002B3E  C081  FFDA         	movff	i1gpio_pin_write_logic@pin_config+1,fsr2h
  9426   002B42  30DF               	rrcf	223,w,c
  9427   002B44  32E8               	rrcf	wreg,f,c
  9428   002B46  32E8               	rrcf	wreg,f,c
  9429   002B48  0B07               	andlw	7
  9430   002B4A  6F83               	movwf	??i1_gpio_pin_write_logic& (0+255),b
  9431   002B4C  0E01               	movlw	1
  9432   002B4E  6F84               	movwf	(??i1_gpio_pin_write_logic+1)& (0+255),b
  9433   002B50  2B83               	incf	??i1_gpio_pin_write_logic& (0+255),f,b
  9434   002B52  EFAD  F015         	goto	i1u1381_24
  9435   002B56                     i1u1381_25:
  9436   002B56  90D8               	bcf	status,0,c
  9437   002B58  3784               	rlcf	(??i1_gpio_pin_write_logic+1)& (0+255),f,b
  9438   002B5A                     i1u1381_24:
  9439   002B5A  2F83               	decfsz	??i1_gpio_pin_write_logic& (0+255),f,b
  9440   002B5C  EFAB  F015         	goto	i1u1381_25
  9441   002B60  C080  FFD9         	movff	i1gpio_pin_write_logic@pin_config,fsr2l
  9442   002B64  C081  FFDA         	movff	i1gpio_pin_write_logic@pin_config+1,fsr2h
  9443   002B68  50DF               	movf	223,w,c
  9444   002B6A  0B07               	andlw	7
  9445   002B6C  0100               	movlb	0	; () banked
  9446   002B6E  6F85               	movwf	(??i1_gpio_pin_write_logic+2)& (0+255),b
  9447   002B70  5185               	movf	(??i1_gpio_pin_write_logic+2)& (0+255),w,b
  9448   002B72  0D02               	mullw	2
  9449   002B74  0EBA               	movlw	low _lat_registers
  9450   002B76  24F3               	addwf	243,w,c
  9451   002B78  6ED9               	movwf	fsr2l,c
  9452   002B7A  0E01               	movlw	high _lat_registers
  9453   002B7C  20F4               	addwfc	prodh,w,c
  9454   002B7E  6EDA               	movwf	fsr2h,c
  9455   002B80  CFDE F086          	movff	postinc2,??i1_gpio_pin_write_logic+3
  9456   002B84  CFDD F087          	movff	postdec2,??i1_gpio_pin_write_logic+4
  9457   002B88  C086  FFD9         	movff	??i1_gpio_pin_write_logic+3,fsr2l
  9458   002B8C  C087  FFDA         	movff	??i1_gpio_pin_write_logic+4,fsr2h
  9459   002B90  5184               	movf	(??i1_gpio_pin_write_logic+1)& (0+255),w,b
  9460   002B92  12DF               	iorwf	indf2,f,c
  9461                           
  9462                           ;MCAL_Layer/GPIO/hal_gpio.c: 103:                 break;
  9463   002B94  EF13  F016         	goto	i1l11589
  9464   002B98                     i1l11583:
  9465                           
  9466                           ; BSR set to: 0
  9467                           ;MCAL_Layer/GPIO/hal_gpio.c: 105:                 (*lat_registers[pin_config->port]&=~((
      +                          uint8)0x01<<pin_config->pin));
  9468   002B98  C080  FFD9         	movff	i1gpio_pin_write_logic@pin_config,fsr2l
  9469   002B9C  C081  FFDA         	movff	i1gpio_pin_write_logic@pin_config+1,fsr2h
  9470   002BA0  30DF               	rrcf	223,w,c
  9471   002BA2  32E8               	rrcf	wreg,f,c
  9472   002BA4  32E8               	rrcf	wreg,f,c
  9473   002BA6  0B07               	andlw	7
  9474   002BA8  6F83               	movwf	??i1_gpio_pin_write_logic& (0+255),b
  9475   002BAA  0E01               	movlw	1
  9476   002BAC  6F84               	movwf	(??i1_gpio_pin_write_logic+1)& (0+255),b
  9477   002BAE  2B83               	incf	??i1_gpio_pin_write_logic& (0+255),f,b
  9478   002BB0  EFDC  F015         	goto	i1u1382_24
  9479   002BB4                     i1u1382_25:
  9480   002BB4  90D8               	bcf	status,0,c
  9481   002BB6  3784               	rlcf	(??i1_gpio_pin_write_logic+1)& (0+255),f,b
  9482   002BB8                     i1u1382_24:
  9483   002BB8  2F83               	decfsz	??i1_gpio_pin_write_logic& (0+255),f,b
  9484   002BBA  EFDA  F015         	goto	i1u1382_25
  9485   002BBE  0100               	movlb	0	; () banked
  9486   002BC0  5184               	movf	(??i1_gpio_pin_write_logic+1)& (0+255),w,b
  9487   002BC2  0AFF               	xorlw	255
  9488   002BC4  6F85               	movwf	(??i1_gpio_pin_write_logic+2)& (0+255),b
  9489   002BC6  C080  FFD9         	movff	i1gpio_pin_write_logic@pin_config,fsr2l
  9490   002BCA  C081  FFDA         	movff	i1gpio_pin_write_logic@pin_config+1,fsr2h
  9491   002BCE  50DF               	movf	223,w,c
  9492   002BD0  0B07               	andlw	7
  9493   002BD2  6F86               	movwf	(??i1_gpio_pin_write_logic+3)& (0+255),b
  9494   002BD4  5186               	movf	(??i1_gpio_pin_write_logic+3)& (0+255),w,b
  9495   002BD6  0D02               	mullw	2
  9496   002BD8  0EBA               	movlw	low _lat_registers
  9497   002BDA  24F3               	addwf	243,w,c
  9498   002BDC  6ED9               	movwf	fsr2l,c
  9499   002BDE  0E01               	movlw	high _lat_registers
  9500   002BE0  20F4               	addwfc	prodh,w,c
  9501   002BE2  6EDA               	movwf	fsr2h,c
  9502   002BE4  CFDE F087          	movff	postinc2,??i1_gpio_pin_write_logic+4
  9503   002BE8  CFDD F088          	movff	postdec2,??i1_gpio_pin_write_logic+5
  9504   002BEC  C087  FFD9         	movff	??i1_gpio_pin_write_logic+4,fsr2l
  9505   002BF0  C088  FFDA         	movff	??i1_gpio_pin_write_logic+5,fsr2h
  9506   002BF4  5185               	movf	(??i1_gpio_pin_write_logic+2)& (0+255),w,b
  9507   002BF6  16DF               	andwf	indf2,f,c
  9508                           
  9509                           ;MCAL_Layer/GPIO/hal_gpio.c: 106:                 break;
  9510   002BF8  EF13  F016         	goto	i1l11589
  9511   002BFC                     i1l11587:
  9512                           
  9513                           ; BSR set to: 0
  9514   002BFC  5182               	movf	i1gpio_pin_write_logic@logic& (0+255),w,b
  9515   002BFE  6F83               	movwf	??i1_gpio_pin_write_logic& (0+255),b
  9516   002C00  6B84               	clrf	(??i1_gpio_pin_write_logic+1)& (0+255),b
  9517                           
  9518                           ; Switch on 2 bytes has been partitioned into a top level switch of size 1, and 1 sub-sw
      +                          itches
  9519                           ; Switch size 1, requested type "simple"
  9520                           ; Number of cases is 1, Range of values is 0 to 0
  9521                           ; switch strategies available:
  9522                           ; Name         Instructions Cycles
  9523                           ; simple_byte            4     3 (average)
  9524                           ;	Chosen strategy is simple_byte
  9525   002C02  5184               	movf	(??i1_gpio_pin_write_logic+1)& (0+255),w,b
  9526   002C04  0A00               	xorlw	0	; case 0
  9527   002C06  B4D8               	btfsc	status,2,c
  9528   002C08  EF08  F016         	goto	i1l12177
  9529   002C0C  EF99  F015         	goto	i1l11579
  9530   002C10                     i1l12177:
  9531                           
  9532                           ; BSR set to: 0
  9533                           ; Switch size 1, requested type "simple"
  9534                           ; Number of cases is 2, Range of values is 0 to 1
  9535                           ; switch strategies available:
  9536                           ; Name         Instructions Cycles
  9537                           ; simple_byte            7     4 (average)
  9538                           ;	Chosen strategy is simple_byte
  9539   002C10  5183               	movf	??i1_gpio_pin_write_logic& (0+255),w,b
  9540   002C12  0A00               	xorlw	0	; case 0
  9541   002C14  B4D8               	btfsc	status,2,c
  9542   002C16  EFCC  F015         	goto	i1l11583
  9543   002C1A  0A01               	xorlw	1	; case 1
  9544   002C1C  B4D8               	btfsc	status,2,c
  9545   002C1E  EF9D  F015         	goto	i1l11581
  9546   002C22  EF99  F015         	goto	i1l11579
  9547   002C26                     i1l11589:
  9548                           
  9549                           ; BSR set to: 0
  9550                           ;MCAL_Layer/GPIO/hal_gpio.c: 110:     return ret;
  9551   002C26  5189               	movf	i1gpio_pin_write_logic@ret& (0+255),w,b
  9552   002C28                     
  9553                           ; BSR set to: 0
  9554   002C28  0012               	return		;funcret
  9555   002C2A                     __end_ofi1_gpio_pin_write_logic:
  9556                           	callstack 0
  9557                           
  9558 ;; *************** function _EUSART_ASYNC_ReadByteNonBlocking *****************
  9559 ;; Defined at:
  9560 ;;		line 131 in file "MCAL_Layer/USART/hal_usart.c"
  9561 ;; Parameters:    Size  Location     Type
  9562 ;;  data            2    0[BANK0 ] PTR unsigned char 
  9563 ;;		 -> Recieved_char(1), 
  9564 ;; Auto vars:     Size  Location     Type
  9565 ;;  ret             1    0        unsigned char 
  9566 ;; Return value:  Size  Location     Type
  9567 ;;                  1    wreg      unsigned char 
  9568 ;; Registers used:
  9569 ;;		wreg, fsr2l, fsr2h, status,2, status,0
  9570 ;; Tracked objects:
  9571 ;;		On entry : 0/0
  9572 ;;		On exit  : 0/0
  9573 ;;		Unchanged: 0/0
  9574 ;; Data sizes:     COMRAM   BANK0   BANK1   BANK2   BANK3   BANK4   BANK5   BANK6   BANK7   BANK8   BANK9  BANK10  BANK1
      +1  BANK12  BANK13  BANK14  BANK15
  9575 ;;      Params:         0       2       0       0       0       0       0       0       0       0       0       0       
      +0       0       0       0       0
  9576 ;;      Locals:         0       0       0       0       0       0       0       0       0       0       0       0       
      +0       0       0       0       0
  9577 ;;      Temps:          0       0       0       0       0       0       0       0       0       0       0       0       
      +0       0       0       0       0
  9578 ;;      Totals:         0       2       0       0       0       0       0       0       0       0       0       0       
      +0       0       0       0       0
  9579 ;;Total ram usage:        2 bytes
  9580 ;; Hardware stack levels used: 1
  9581 ;; Hardware stack levels required when called: 12
  9582 ;; This function calls:
  9583 ;;		Nothing
  9584 ;; This function is called by:
  9585 ;;		_USART_RX_INT
  9586 ;; This function uses a non-reentrant model
  9587 ;;
  9588                           
  9589                           	psect	text53
  9590   0045F4                     __ptext53:
  9591                           	callstack 0
  9592   0045F4                     _EUSART_ASYNC_ReadByteNonBlocking:
  9593                           	callstack 10
  9594   0045F4                     
  9595                           ;MCAL_Layer/USART/hal_usart.c: 133:     if(((void*)0) == data)
  9596   0045F4  0100               	movlb	0	; () banked
  9597   0045F6  5180               	movf	EUSART_ASYNC_ReadByteNonBlocking@data& (0+255),w,b
  9598   0045F8  1181               	iorwf	(EUSART_ASYNC_ReadByteNonBlocking@data+1)& (0+255),w,b
  9599   0045FA  A4D8               	btfss	status,2,c
  9600   0045FC  EF02  F023         	goto	i1u1396_21
  9601   004600  EF04  F023         	goto	i1u1396_20
  9602   004604                     i1u1396_21:
  9603   004604  EF06  F023         	goto	i1l1508
  9604   004608                     i1u1396_20:
  9605   004608                     
  9606                           ; BSR set to: 0
  9607                           ;MCAL_Layer/USART/hal_usart.c: 136:     }
  9608   004608  EF13  F023         	goto	i1l1512
  9609   00460C                     i1l1508:
  9610                           
  9611                           ; BSR set to: 0
  9612                           ;MCAL_Layer/USART/hal_usart.c: 138:     {;MCAL_Layer/USART/hal_usart.c: 139:         if(
      +                          1U==(*((volatile PIR1_t *)(0xF9E))).RCIF ){
  9613   00460C  AA9E               	btfss	158,5,c	;volatile
  9614   00460E  EF0B  F023         	goto	i1u1397_21
  9615   004612  EF0D  F023         	goto	i1u1397_20
  9616   004616                     i1u1397_21:
  9617   004616  EF13  F023         	goto	i1l1512
  9618   00461A                     i1u1397_20:
  9619   00461A                     
  9620                           ; BSR set to: 0
  9621                           ;MCAL_Layer/USART/hal_usart.c: 140:         *data =(*( (volatile uint8 *)(0xFAE) ) );
  9622   00461A  C080  FFD9         	movff	EUSART_ASYNC_ReadByteNonBlocking@data,fsr2l
  9623   00461E  C081  FFDA         	movff	EUSART_ASYNC_ReadByteNonBlocking@data+1,fsr2h
  9624   004622  CFAE FFDF          	movff	4014,indf2	;volatile
  9625   004626                     i1l1512:
  9626                           
  9627                           ; BSR set to: 0
  9628   004626  0012               	return		;funcret
  9629   004628                     __end_of_EUSART_ASYNC_ReadByteNonBlocking:
  9630                           	callstack 0
  9631                           
  9632 ;; *************** function _CCP2_ISR *****************
  9633 ;; Defined at:
  9634 ;;		line 606 in file "MCAL_Layer/CCP/hal_ccp.c"
  9635 ;; Parameters:    Size  Location     Type
  9636 ;;		None
  9637 ;; Auto vars:     Size  Location     Type
  9638 ;;		None
  9639 ;; Return value:  Size  Location     Type
  9640 ;;                  1    wreg      void 
  9641 ;; Registers used:
  9642 ;;		None
  9643 ;; Tracked objects:
  9644 ;;		On entry : 0/0
  9645 ;;		On exit  : 0/0
  9646 ;;		Unchanged: 0/0
  9647 ;; Data sizes:     COMRAM   BANK0   BANK1   BANK2   BANK3   BANK4   BANK5   BANK6   BANK7   BANK8   BANK9  BANK10  BANK1
      +1  BANK12  BANK13  BANK14  BANK15
  9648 ;;      Params:         0       0       0       0       0       0       0       0       0       0       0       0       
      +0       0       0       0       0
  9649 ;;      Locals:         0       0       0       0       0       0       0       0       0       0       0       0       
      +0       0       0       0       0
  9650 ;;      Temps:          0       0       0       0       0       0       0       0       0       0       0       0       
      +0       0       0       0       0
  9651 ;;      Totals:         0       0       0       0       0       0       0       0       0       0       0       0       
      +0       0       0       0       0
  9652 ;;Total ram usage:        0 bytes
  9653 ;; Hardware stack levels used: 1
  9654 ;; Hardware stack levels required when called: 12
  9655 ;; This function calls:
  9656 ;;		Nothing
  9657 ;; This function is called by:
  9658 ;;		_InterruptManagerLow
  9659 ;; This function uses a non-reentrant model
  9660 ;;
  9661                           
  9662                           	psect	text54
  9663   0047B8                     __ptext54:
  9664                           	callstack 0
  9665   0047B8                     _CCP2_ISR:
  9666                           	callstack 12
  9667   0047B8                     
  9668                           ;MCAL_Layer/CCP/hal_ccp.c: 609:     ((*((volatile PIR2_t *)(0xFA1))).CCP2IF=0);
  9669   0047B8  90A1               	bcf	161,0,c	;volatile
  9670   0047BA  0012               	return		;funcret
  9671   0047BC                     __end_of_CCP2_ISR:
  9672                           	callstack 0
  9673                           
  9674 ;; *************** function _CCP1_ISR *****************
  9675 ;; Defined at:
  9676 ;;		line 596 in file "MCAL_Layer/CCP/hal_ccp.c"
  9677 ;; Parameters:    Size  Location     Type
  9678 ;;		None
  9679 ;; Auto vars:     Size  Location     Type
  9680 ;;		None
  9681 ;; Return value:  Size  Location     Type
  9682 ;;                  1    wreg      void 
  9683 ;; Registers used:
  9684 ;;		None
  9685 ;; Tracked objects:
  9686 ;;		On entry : 0/0
  9687 ;;		On exit  : 0/0
  9688 ;;		Unchanged: 0/0
  9689 ;; Data sizes:     COMRAM   BANK0   BANK1   BANK2   BANK3   BANK4   BANK5   BANK6   BANK7   BANK8   BANK9  BANK10  BANK1
      +1  BANK12  BANK13  BANK14  BANK15
  9690 ;;      Params:         0       0       0       0       0       0       0       0       0       0       0       0       
      +0       0       0       0       0
  9691 ;;      Locals:         0       0       0       0       0       0       0       0       0       0       0       0       
      +0       0       0       0       0
  9692 ;;      Temps:          0       0       0       0       0       0       0       0       0       0       0       0       
      +0       0       0       0       0
  9693 ;;      Totals:         0       0       0       0       0       0       0       0       0       0       0       0       
      +0       0       0       0       0
  9694 ;;Total ram usage:        0 bytes
  9695 ;; Hardware stack levels used: 1
  9696 ;; Hardware stack levels required when called: 12
  9697 ;; This function calls:
  9698 ;;		Nothing
  9699 ;; This function is called by:
  9700 ;;		_InterruptManagerLow
  9701 ;; This function uses a non-reentrant model
  9702 ;;
  9703                           
  9704                           	psect	text55
  9705   0047BC                     __ptext55:
  9706                           	callstack 0
  9707   0047BC                     _CCP1_ISR:
  9708                           	callstack 12
  9709   0047BC                     
  9710                           ;MCAL_Layer/CCP/hal_ccp.c: 599:     ((*((volatile PIR1_t *)(0xF9E))).CCP1IF=0);
  9711   0047BC  949E               	bcf	158,2,c	;volatile
  9712   0047BE  0012               	return		;funcret
  9713   0047C0                     __end_of_CCP1_ISR:
  9714                           	callstack 0
  9715                           
  9716 ;; *************** function _ADC_ISR *****************
  9717 ;; Defined at:
  9718 ;;		line 3 in file "MCAL_Layer/Interrupt/mcal_internal_interrupt.c"
  9719 ;; Parameters:    Size  Location     Type
  9720 ;;		None
  9721 ;; Auto vars:     Size  Location     Type
  9722 ;;		None
  9723 ;; Return value:  Size  Location     Type
  9724 ;;                  1    wreg      void 
  9725 ;; Registers used:
  9726 ;;		None
  9727 ;; Tracked objects:
  9728 ;;		On entry : 0/0
  9729 ;;		On exit  : 0/0
  9730 ;;		Unchanged: 0/0
  9731 ;; Data sizes:     COMRAM   BANK0   BANK1   BANK2   BANK3   BANK4   BANK5   BANK6   BANK7   BANK8   BANK9  BANK10  BANK1
      +1  BANK12  BANK13  BANK14  BANK15
  9732 ;;      Params:         0       0       0       0       0       0       0       0       0       0       0       0       
      +0       0       0       0       0
  9733 ;;      Locals:         0       0       0       0       0       0       0       0       0       0       0       0       
      +0       0       0       0       0
  9734 ;;      Temps:          0       0       0       0       0       0       0       0       0       0       0       0       
      +0       0       0       0       0
  9735 ;;      Totals:         0       0       0       0       0       0       0       0       0       0       0       0       
      +0       0       0       0       0
  9736 ;;Total ram usage:        0 bytes
  9737 ;; Hardware stack levels used: 1
  9738 ;; Hardware stack levels required when called: 12
  9739 ;; This function calls:
  9740 ;;		Nothing
  9741 ;; This function is called by:
  9742 ;;		_InterruptManagerLow
  9743 ;; This function uses a non-reentrant model
  9744 ;;
  9745                           
  9746                           	psect	text56
  9747   0047C0                     __ptext56:
  9748                           	callstack 0
  9749   0047C0                     _ADC_ISR:
  9750                           	callstack 12
  9751   0047C0                     
  9752                           ;MCAL_Layer/Interrupt/mcal_internal_interrupt.c: 5:        ((*((volatile PIR1_t *)(0xF9E
      +                          ))).ADIF=0);
  9753   0047C0  9C9E               	bcf	158,6,c	;volatile
  9754   0047C2  0012               	return		;funcret
  9755   0047C4                     __end_of_ADC_ISR:
  9756                           	callstack 0
  9757                           
  9758 ;; *************** function _InterruptManagerHigh *****************
  9759 ;; Defined at:
  9760 ;;		line 3 in file "MCAL_Layer/Interrupt/mcal_interrupt_manager.c"
  9761 ;; Parameters:    Size  Location     Type
  9762 ;;		None
  9763 ;; Auto vars:     Size  Location     Type
  9764 ;;		None
  9765 ;; Return value:  Size  Location     Type
  9766 ;;                  1    wreg      void 
  9767 ;; Registers used:
  9768 ;;		wreg, fsr1l, fsr1h, fsr2l, fsr2h, status,2, status,0, pcl, pclath, pclatu, tosl, tblptrl, tblptrh, tblptru, prodl, p
      +rodh, cstack
  9769 ;; Tracked objects:
  9770 ;;		On entry : 0/0
  9771 ;;		On exit  : 0/0
  9772 ;;		Unchanged: 0/0
  9773 ;; Data sizes:     COMRAM   BANK0   BANK1   BANK2   BANK3   BANK4   BANK5   BANK6   BANK7   BANK8   BANK9  BANK10  BANK1
      +1  BANK12  BANK13  BANK14  BANK15
  9774 ;;      Params:         0       0       0       0       0       0       0       0       0       0       0       0       
      +0       0       0       0       0
  9775 ;;      Locals:         0       0       0       0       0       0       0       0       0       0       0       0       
      +0       0       0       0       0
  9776 ;;      Temps:         12       0       0       0       0       0       0       0       0       0       0       0       
      +0       0       0       0       0
  9777 ;;      Totals:        12       0       0       0       0       0       0       0       0       0       0       0       
      +0       0       0       0       0
  9778 ;;Total ram usage:       12 bytes
  9779 ;; Hardware stack levels used: 1
  9780 ;; Hardware stack levels required when called: 11
  9781 ;; This function calls:
  9782 ;;		_INT0_ISR
  9783 ;;		i2_ADC_ISR
  9784 ;;		i2_CCP1_ISR
  9785 ;;		i2_CCP2_ISR
  9786 ;;		i2_EUSART_RX_ISR
  9787 ;;		i2_EUSART_TX_ISR
  9788 ;;		i2_INT1_ISR
  9789 ;;		i2_INT2_ISR
  9790 ;;		i2_RB4_ISR
  9791 ;;		i2_RB5_ISR
  9792 ;;		i2_RB6_ISR
  9793 ;;		i2_RB7_ISR
  9794 ;;		i2_TMR0_ISR
  9795 ;;		i2_TMR1_ISR
  9796 ;;		i2_TMR2_ISR
  9797 ;;		i2_TMR3_ISR
  9798 ;; This function is called by:
  9799 ;;		Interrupt level 2
  9800 ;; This function uses a non-reentrant model
  9801 ;;
  9802                           
  9803                           	psect	intcode
  9804   000008                     __pintcode:
  9805                           	callstack 0
  9806   000008                     _InterruptManagerHigh:
  9807                           	callstack 2
  9808                           
  9809                           ;incstack = 0
  9810   000008  827F               	bsf	int$flags,1,c	;set compiler interrupt flag (level 2)
  9811   00000A  EDBE  F00E         	call	int_func,f	;refresh shadow registers
  9812                           
  9813                           	psect	intcode_body
  9814   001D7C                     __pintcode_body:
  9815                           	callstack 2
  9816   001D7C                     int_func:
  9817                           	callstack 2
  9818   001D7C  0006               	pop		; remove dummy address from shadow register refresh
  9819   001D7E  CFFA F05F          	movff	pclath,??_InterruptManagerHigh
  9820   001D82  CFFB F060          	movff	pclatu,??_InterruptManagerHigh+1
  9821   001D86  CFE1 F061          	movff	fsr1l,??_InterruptManagerHigh+2
  9822   001D8A  CFE2 F062          	movff	fsr1h,??_InterruptManagerHigh+3
  9823   001D8E  CFD9 F063          	movff	fsr2l,??_InterruptManagerHigh+4
  9824   001D92  CFDA F064          	movff	fsr2h,??_InterruptManagerHigh+5
  9825   001D96  CFF3 F065          	movff	prodl,??_InterruptManagerHigh+6
  9826   001D9A  CFF4 F066          	movff	prodh,??_InterruptManagerHigh+7
  9827   001D9E  CFF6 F067          	movff	tblptrl,??_InterruptManagerHigh+8
  9828   001DA2  CFF7 F068          	movff	tblptrh,??_InterruptManagerHigh+9
  9829   001DA6  CFF8 F069          	movff	tblptru,??_InterruptManagerHigh+10
  9830   001DAA  CFF5 F06A          	movff	tablat,??_InterruptManagerHigh+11
  9831   001DAE                     
  9832                           ;MCAL_Layer/Interrupt/mcal_interrupt_manager.c: 4:     if((1 == (*((volatile INTCON_t *)
      +                          (0xFF2))).INT0IE)&&(1 == (*((volatile INTCON_t *)(0xFF2))).INT0IF)){
  9833   001DAE  A8F2               	btfss	242,4,c	;volatile
  9834   001DB0  EFDC  F00E         	goto	i2u1425_41
  9835   001DB4  EFDE  F00E         	goto	i2u1425_40
  9836   001DB8                     i2u1425_41:
  9837   001DB8  EFE7  F00E         	goto	i2l1132
  9838   001DBC                     i2u1425_40:
  9839   001DBC  A2F2               	btfss	242,1,c	;volatile
  9840   001DBE  EFE3  F00E         	goto	i2u1426_41
  9841   001DC2  EFE5  F00E         	goto	i2u1426_40
  9842   001DC6                     i2u1426_41:
  9843   001DC6  EFE7  F00E         	goto	i2l1132
  9844   001DCA                     i2u1426_40:
  9845   001DCA                     
  9846                           ;MCAL_Layer/Interrupt/mcal_interrupt_manager.c: 5:         INT0_ISR();
  9847   001DCA  ECF4  F023         	call	_INT0_ISR	;wreg free
  9848   001DCE                     i2l1132:
  9849                           
  9850                           ;MCAL_Layer/Interrupt/mcal_interrupt_manager.c: 8:      if((1 == (*((volatile INTCON3_t 
      +                          *)(0xFF0))).INT1IP)&&(1 == (*((volatile INTCON3_t *)(0xFF0))).INT1IF)){
  9851   001DCE  ACF0               	btfss	240,6,c	;volatile
  9852   001DD0  EFEC  F00E         	goto	i2u1427_41
  9853   001DD4  EFEE  F00E         	goto	i2u1427_40
  9854   001DD8                     i2u1427_41:
  9855   001DD8  EFF7  F00E         	goto	i2l1134
  9856   001DDC                     i2u1427_40:
  9857   001DDC  A0F0               	btfss	240,0,c	;volatile
  9858   001DDE  EFF3  F00E         	goto	i2u1428_41
  9859   001DE2  EFF5  F00E         	goto	i2u1428_40
  9860   001DE6                     i2u1428_41:
  9861   001DE6  EFF7  F00E         	goto	i2l1134
  9862   001DEA                     i2u1428_40:
  9863   001DEA                     
  9864                           ;MCAL_Layer/Interrupt/mcal_interrupt_manager.c: 9:         INT1_ISR();
  9865   001DEA  ECEC  F023         	call	i2_INT1_ISR	;wreg free
  9866   001DEE                     i2l1134:
  9867                           
  9868                           ;MCAL_Layer/Interrupt/mcal_interrupt_manager.c: 12:     if((1 == (*((volatile INTCON3_t 
      +                          *)(0xFF0))).INT2IP)&&(1 == (*((volatile INTCON3_t *)(0xFF0))).INT2IF)){
  9869   001DEE  AEF0               	btfss	240,7,c	;volatile
  9870   001DF0  EFFC  F00E         	goto	i2u1429_41
  9871   001DF4  EFFE  F00E         	goto	i2u1429_40
  9872   001DF8                     i2u1429_41:
  9873   001DF8  EF07  F00F         	goto	i2l1136
  9874   001DFC                     i2u1429_40:
  9875   001DFC  A2F0               	btfss	240,1,c	;volatile
  9876   001DFE  EF03  F00F         	goto	i2u1430_41
  9877   001E02  EF05  F00F         	goto	i2u1430_40
  9878   001E06                     i2u1430_41:
  9879   001E06  EF07  F00F         	goto	i2l1136
  9880   001E0A                     i2u1430_40:
  9881   001E0A                     
  9882                           ;MCAL_Layer/Interrupt/mcal_interrupt_manager.c: 13:         INT2_ISR();
  9883   001E0A  ECEA  F023         	call	i2_INT2_ISR	;wreg free
  9884   001E0E                     i2l1136:
  9885                           
  9886                           ;MCAL_Layer/Interrupt/mcal_interrupt_manager.c: 16:      if((1 == (*((volatile INTCON2_t
      +                           *)(0xFF1))).RBIP)&&(1 == (*((volatile INTCON_t *)(0xFF2))).RBIF) && (((((*((volatile ui
      +                          nt8*)(0xF81)))>>4)&((uint8)0x01)))!=RB4_pin_init_value)){
  9887   001E0E  A0F1               	btfss	241,0,c	;volatile
  9888   001E10  EF0C  F00F         	goto	i2u1431_41
  9889   001E14  EF0E  F00F         	goto	i2u1431_40
  9890   001E18                     i2u1431_41:
  9891   001E18  EF24  F00F         	goto	i2l1138
  9892   001E1C                     i2u1431_40:
  9893   001E1C  A0F2               	btfss	242,0,c	;volatile
  9894   001E1E  EF13  F00F         	goto	i2u1432_41
  9895   001E22  EF15  F00F         	goto	i2u1432_40
  9896   001E26                     i2u1432_41:
  9897   001E26  EF24  F00F         	goto	i2l1138
  9898   001E2A                     i2u1432_40:
  9899   001E2A  3881               	swapf	129,w,c	;volatile
  9900   001E2C  0B0F               	andlw	15
  9901   001E2E  0B01               	andlw	1
  9902   001E30  1876               	xorwf	_RB4_pin_init_value^0,w,c	;volatile
  9903   001E32  B4D8               	btfsc	status,2,c
  9904   001E34  EF1E  F00F         	goto	i2u1433_41
  9905   001E38  EF20  F00F         	goto	i2u1433_40
  9906   001E3C                     i2u1433_41:
  9907   001E3C  EF24  F00F         	goto	i2l1138
  9908   001E40                     i2u1433_40:
  9909   001E40                     
  9910                           ;MCAL_Layer/Interrupt/mcal_interrupt_manager.c: 17:         RB4_pin_init_value^=1;
  9911   001E40  0E01               	movlw	1
  9912   001E42  1A76               	xorwf	_RB4_pin_init_value^0,f,c	;volatile
  9913   001E44                     
  9914                           ;MCAL_Layer/Interrupt/mcal_interrupt_manager.c: 18:         RB4_ISR();
  9915   001E44  ECE8  F023         	call	i2_RB4_ISR	;wreg free
  9916   001E48                     i2l1138:
  9917                           
  9918                           ;MCAL_Layer/Interrupt/mcal_interrupt_manager.c: 21:        if((1 == (*((volatile INTCON2
      +                          _t *)(0xFF1))).RBIP)&&(1 == (*((volatile INTCON_t *)(0xFF2))).RBIF) && (((((*((volatile 
      +                          uint8*)(0xF81)))>>5)&((uint8)0x01)))!=RB5_pin_init_value)){
  9919   001E48  A0F1               	btfss	241,0,c	;volatile
  9920   001E4A  EF29  F00F         	goto	i2u1434_41
  9921   001E4E  EF2B  F00F         	goto	i2u1434_40
  9922   001E52                     i2u1434_41:
  9923   001E52  EF42  F00F         	goto	i2l1140
  9924   001E56                     i2u1434_40:
  9925   001E56  A0F2               	btfss	242,0,c	;volatile
  9926   001E58  EF30  F00F         	goto	i2u1435_41
  9927   001E5C  EF32  F00F         	goto	i2u1435_40
  9928   001E60                     i2u1435_41:
  9929   001E60  EF42  F00F         	goto	i2l1140
  9930   001E64                     i2u1435_40:
  9931   001E64  3881               	swapf	129,w,c	;volatile
  9932   001E66  42E8               	rrncf	wreg,f,c
  9933   001E68  0B07               	andlw	7
  9934   001E6A  0B01               	andlw	1
  9935   001E6C  1875               	xorwf	_RB5_pin_init_value^0,w,c	;volatile
  9936   001E6E  B4D8               	btfsc	status,2,c
  9937   001E70  EF3C  F00F         	goto	i2u1436_41
  9938   001E74  EF3E  F00F         	goto	i2u1436_40
  9939   001E78                     i2u1436_41:
  9940   001E78  EF42  F00F         	goto	i2l1140
  9941   001E7C                     i2u1436_40:
  9942   001E7C                     
  9943                           ;MCAL_Layer/Interrupt/mcal_interrupt_manager.c: 22:         RB5_pin_init_value^=1;
  9944   001E7C  0E01               	movlw	1
  9945   001E7E  1A75               	xorwf	_RB5_pin_init_value^0,f,c	;volatile
  9946   001E80                     
  9947                           ;MCAL_Layer/Interrupt/mcal_interrupt_manager.c: 23:         RB5_ISR();
  9948   001E80  ECE6  F023         	call	i2_RB5_ISR	;wreg free
  9949   001E84                     i2l1140:
  9950                           
  9951                           ;MCAL_Layer/Interrupt/mcal_interrupt_manager.c: 26:        if((1 == (*((volatile INTCON2
      +                          _t *)(0xFF1))).RBIP)&&(1 == (*((volatile INTCON_t *)(0xFF2))).RBIF) && (((((*((volatile 
      +                          uint8*)(0xF81)))>>6)&((uint8)0x01)))!=RB6_pin_init_value)){
  9952   001E84  A0F1               	btfss	241,0,c	;volatile
  9953   001E86  EF47  F00F         	goto	i2u1437_41
  9954   001E8A  EF49  F00F         	goto	i2u1437_40
  9955   001E8E                     i2u1437_41:
  9956   001E8E  EF60  F00F         	goto	i2l1142
  9957   001E92                     i2u1437_40:
  9958   001E92  A0F2               	btfss	242,0,c	;volatile
  9959   001E94  EF4E  F00F         	goto	i2u1438_41
  9960   001E98  EF50  F00F         	goto	i2u1438_40
  9961   001E9C                     i2u1438_41:
  9962   001E9C  EF60  F00F         	goto	i2l1142
  9963   001EA0                     i2u1438_40:
  9964   001EA0  4481               	rlncf	129,w,c	;volatile
  9965   001EA2  46E8               	rlncf	wreg,f,c
  9966   001EA4  0B03               	andlw	3
  9967   001EA6  0B01               	andlw	1
  9968   001EA8  1874               	xorwf	_RB6_pin_init_value^0,w,c	;volatile
  9969   001EAA  B4D8               	btfsc	status,2,c
  9970   001EAC  EF5A  F00F         	goto	i2u1439_41
  9971   001EB0  EF5C  F00F         	goto	i2u1439_40
  9972   001EB4                     i2u1439_41:
  9973   001EB4  EF60  F00F         	goto	i2l1142
  9974   001EB8                     i2u1439_40:
  9975   001EB8                     
  9976                           ;MCAL_Layer/Interrupt/mcal_interrupt_manager.c: 27:         RB6_pin_init_value^=1;
  9977   001EB8  0E01               	movlw	1
  9978   001EBA  1A74               	xorwf	_RB6_pin_init_value^0,f,c	;volatile
  9979   001EBC                     
  9980                           ;MCAL_Layer/Interrupt/mcal_interrupt_manager.c: 28:         RB6_ISR();
  9981   001EBC  ECE4  F023         	call	i2_RB6_ISR	;wreg free
  9982   001EC0                     i2l1142:
  9983                           
  9984                           ;MCAL_Layer/Interrupt/mcal_interrupt_manager.c: 31:        if((1 == (*((volatile INTCON2
      +                          _t *)(0xFF1))).RBIP)&&(1 == (*((volatile INTCON_t *)(0xFF2))).RBIF) && (((((*((volatile 
      +                          uint8*)(0xF81)))>>7)&((uint8)0x01)))!=RB7_pin_init_value)){
  9985   001EC0  A0F1               	btfss	241,0,c	;volatile
  9986   001EC2  EF65  F00F         	goto	i2u1440_41
  9987   001EC6  EF67  F00F         	goto	i2u1440_40
  9988   001ECA                     i2u1440_41:
  9989   001ECA  EF7C  F00F         	goto	i2l1144
  9990   001ECE                     i2u1440_40:
  9991   001ECE  A0F2               	btfss	242,0,c	;volatile
  9992   001ED0  EF6C  F00F         	goto	i2u1441_41
  9993   001ED4  EF6E  F00F         	goto	i2u1441_40
  9994   001ED8                     i2u1441_41:
  9995   001ED8  EF7C  F00F         	goto	i2l1144
  9996   001EDC                     i2u1441_40:
  9997   001EDC  4481               	rlncf	129,w,c	;volatile
  9998   001EDE  0B01               	andlw	1
  9999   001EE0  1873               	xorwf	_RB7_pin_init_value^0,w,c	;volatile
 10000   001EE2  B4D8               	btfsc	status,2,c
 10001   001EE4  EF76  F00F         	goto	i2u1442_41
 10002   001EE8  EF78  F00F         	goto	i2u1442_40
 10003   001EEC                     i2u1442_41:
 10004   001EEC  EF7C  F00F         	goto	i2l1144
 10005   001EF0                     i2u1442_40:
 10006   001EF0                     
 10007                           ;MCAL_Layer/Interrupt/mcal_interrupt_manager.c: 32:         RB7_pin_init_value^=1;
 10008   001EF0  0E01               	movlw	1
 10009   001EF2  1A73               	xorwf	_RB7_pin_init_value^0,f,c	;volatile
 10010   001EF4                     
 10011                           ;MCAL_Layer/Interrupt/mcal_interrupt_manager.c: 33:         RB7_ISR();
 10012   001EF4  ECE2  F023         	call	i2_RB7_ISR	;wreg free
 10013   001EF8                     i2l1144:
 10014                           
 10015                           ;MCAL_Layer/Interrupt/mcal_interrupt_manager.c: 36:     if((1 == (*((volatile IPR1_t *)(
      +                          0xF9F))).ADIP)&&(1 == (*((volatile PIR1_t *)(0xF9E))).ADIF)){
 10016   001EF8  AC9F               	btfss	159,6,c	;volatile
 10017   001EFA  EF81  F00F         	goto	i2u1443_41
 10018   001EFE  EF83  F00F         	goto	i2u1443_40
 10019   001F02                     i2u1443_41:
 10020   001F02  EF8C  F00F         	goto	i2l1146
 10021   001F06                     i2u1443_40:
 10022   001F06  AC9E               	btfss	158,6,c	;volatile
 10023   001F08  EF88  F00F         	goto	i2u1444_41
 10024   001F0C  EF8A  F00F         	goto	i2u1444_40
 10025   001F10                     i2u1444_41:
 10026   001F10  EF8C  F00F         	goto	i2l1146
 10027   001F14                     i2u1444_40:
 10028   001F14                     
 10029                           ;MCAL_Layer/Interrupt/mcal_interrupt_manager.c: 37:         ADC_ISR();
 10030   001F14  ECF2  F023         	call	i2_ADC_ISR	;wreg free
 10031   001F18                     i2l1146:
 10032                           
 10033                           ;MCAL_Layer/Interrupt/mcal_interrupt_manager.c: 40:     if((1 == (*((volatile INTCON2_t 
      +                          *)(0xFF1))).TMR0IP)&&(1 == (*((volatile INTCON_t *)(0xFF2))).TMR0IF)){
 10034   001F18  A4F1               	btfss	241,2,c	;volatile
 10035   001F1A  EF91  F00F         	goto	i2u1445_41
 10036   001F1E  EF93  F00F         	goto	i2u1445_40
 10037   001F22                     i2u1445_41:
 10038   001F22  EF9C  F00F         	goto	i2l1148
 10039   001F26                     i2u1445_40:
 10040   001F26  A4F2               	btfss	242,2,c	;volatile
 10041   001F28  EF98  F00F         	goto	i2u1446_41
 10042   001F2C  EF9A  F00F         	goto	i2u1446_40
 10043   001F30                     i2u1446_41:
 10044   001F30  EF9C  F00F         	goto	i2l1148
 10045   001F34                     i2u1446_40:
 10046   001F34                     
 10047                           ;MCAL_Layer/Interrupt/mcal_interrupt_manager.c: 41:         TMR0_ISR();
 10048   001F34  ECC1  F023         	call	i2_TMR0_ISR	;wreg free
 10049   001F38                     i2l1148:
 10050                           
 10051                           ;MCAL_Layer/Interrupt/mcal_interrupt_manager.c: 44:     if((1 == (*((volatile IPR1_t *)(
      +                          0xF9F))).TMR1IP)&&(1 == (*((volatile PIR1_t *)(0xF9E))).TMR1IF)){
 10052   001F38  A09F               	btfss	159,0,c	;volatile
 10053   001F3A  EFA1  F00F         	goto	i2u1447_41
 10054   001F3E  EFA3  F00F         	goto	i2u1447_40
 10055   001F42                     i2u1447_41:
 10056   001F42  EFAC  F00F         	goto	i2l1150
 10057   001F46                     i2u1447_40:
 10058   001F46  A09E               	btfss	158,0,c	;volatile
 10059   001F48  EFA8  F00F         	goto	i2u1448_41
 10060   001F4C  EFAA  F00F         	goto	i2u1448_40
 10061   001F50                     i2u1448_41:
 10062   001F50  EFAC  F00F         	goto	i2l1150
 10063   001F54                     i2u1448_40:
 10064   001F54                     
 10065                           ;MCAL_Layer/Interrupt/mcal_interrupt_manager.c: 45:         TMR1_ISR();
 10066   001F54  ECBB  F023         	call	i2_TMR1_ISR	;wreg free
 10067   001F58                     i2l1150:
 10068                           
 10069                           ;MCAL_Layer/Interrupt/mcal_interrupt_manager.c: 48:     if((1 == (*((volatile IPR1_t *)(
      +                          0xF9F))).TMR2IP)&&(1 == (*((volatile PIR1_t *)(0xF9E))).TMR2IF)){
 10070   001F58  A29F               	btfss	159,1,c	;volatile
 10071   001F5A  EFB1  F00F         	goto	i2u1449_41
 10072   001F5E  EFB3  F00F         	goto	i2u1449_40
 10073   001F62                     i2u1449_41:
 10074   001F62  EFBC  F00F         	goto	i2l1152
 10075   001F66                     i2u1449_40:
 10076   001F66  A29E               	btfss	158,1,c	;volatile
 10077   001F68  EFB8  F00F         	goto	i2u1450_41
 10078   001F6C  EFBA  F00F         	goto	i2u1450_40
 10079   001F70                     i2u1450_41:
 10080   001F70  EFBC  F00F         	goto	i2l1152
 10081   001F74                     i2u1450_40:
 10082   001F74                     
 10083                           ;MCAL_Layer/Interrupt/mcal_interrupt_manager.c: 49:         TMR2_ISR();
 10084   001F74  ECCD  F023         	call	i2_TMR2_ISR	;wreg free
 10085   001F78                     i2l1152:
 10086                           
 10087                           ;MCAL_Layer/Interrupt/mcal_interrupt_manager.c: 52:     if((1 == (*((volatile IPR2_t *)(
      +                          0xFA2))).TMR3IP)&&(1 == (*((volatile PIR2_t *)(0xFA1))).TMR3IF)){
 10088   001F78  A2A2               	btfss	162,1,c	;volatile
 10089   001F7A  EFC1  F00F         	goto	i2u1451_41
 10090   001F7E  EFC3  F00F         	goto	i2u1451_40
 10091   001F82                     i2u1451_41:
 10092   001F82  EFCC  F00F         	goto	i2l1154
 10093   001F86                     i2u1451_40:
 10094   001F86  A2A1               	btfss	161,1,c	;volatile
 10095   001F88  EFC8  F00F         	goto	i2u1452_41
 10096   001F8C  EFCA  F00F         	goto	i2u1452_40
 10097   001F90                     i2u1452_41:
 10098   001F90  EFCC  F00F         	goto	i2l1154
 10099   001F94                     i2u1452_40:
 10100   001F94                     
 10101                           ;MCAL_Layer/Interrupt/mcal_interrupt_manager.c: 53:         TMR3_ISR();
 10102   001F94  ECB5  F023         	call	i2_TMR3_ISR	;wreg free
 10103   001F98                     i2l1154:
 10104                           
 10105                           ;MCAL_Layer/Interrupt/mcal_interrupt_manager.c: 56:     if((1 == (*((volatile IPR1_t *)(
      +                          0xF9F))).CCP1IP)&&(1 == (*((volatile PIR1_t *)(0xF9E))).CCP1IF)){
 10106   001F98  A49F               	btfss	159,2,c	;volatile
 10107   001F9A  EFD1  F00F         	goto	i2u1453_41
 10108   001F9E  EFD3  F00F         	goto	i2u1453_40
 10109   001FA2                     i2u1453_41:
 10110   001FA2  EFDC  F00F         	goto	i2l1156
 10111   001FA6                     i2u1453_40:
 10112   001FA6  A49E               	btfss	158,2,c	;volatile
 10113   001FA8  EFD8  F00F         	goto	i2u1454_41
 10114   001FAC  EFDA  F00F         	goto	i2u1454_40
 10115   001FB0                     i2u1454_41:
 10116   001FB0  EFDC  F00F         	goto	i2l1156
 10117   001FB4                     i2u1454_40:
 10118   001FB4                     
 10119                           ;MCAL_Layer/Interrupt/mcal_interrupt_manager.c: 57:         CCP1_ISR();
 10120   001FB4  ECF0  F023         	call	i2_CCP1_ISR	;wreg free
 10121   001FB8                     i2l1156:
 10122                           
 10123                           ;MCAL_Layer/Interrupt/mcal_interrupt_manager.c: 60:       if((1 == (*((volatile IPR2_t *
      +                          )(0xFA2))).CCP2IP)&&(1 == (*((volatile PIR2_t *)(0xFA1))).CCP2IF)){
 10124   001FB8  A0A2               	btfss	162,0,c	;volatile
 10125   001FBA  EFE1  F00F         	goto	i2u1455_41
 10126   001FBE  EFE3  F00F         	goto	i2u1455_40
 10127   001FC2                     i2u1455_41:
 10128   001FC2  EFEC  F00F         	goto	i2l1158
 10129   001FC6                     i2u1455_40:
 10130   001FC6  A0A1               	btfss	161,0,c	;volatile
 10131   001FC8  EFE8  F00F         	goto	i2u1456_41
 10132   001FCC  EFEA  F00F         	goto	i2u1456_40
 10133   001FD0                     i2u1456_41:
 10134   001FD0  EFEC  F00F         	goto	i2l1158
 10135   001FD4                     i2u1456_40:
 10136   001FD4                     
 10137                           ;MCAL_Layer/Interrupt/mcal_interrupt_manager.c: 61:         CCP2_ISR();
 10138   001FD4  ECEE  F023         	call	i2_CCP2_ISR	;wreg free
 10139   001FD8                     i2l1158:
 10140                           
 10141                           ;MCAL_Layer/Interrupt/mcal_interrupt_manager.c: 64:     if((1 == (*((volatile IPR1_t *)(
      +                          0xF9F))).TXIP)&&(1 == (*((volatile PIR1_t *)(0xF9E))).TXIF)){
 10142   001FD8  A89F               	btfss	159,4,c	;volatile
 10143   001FDA  EFF1  F00F         	goto	i2u1457_41
 10144   001FDE  EFF3  F00F         	goto	i2u1457_40
 10145   001FE2                     i2u1457_41:
 10146   001FE2  EFFC  F00F         	goto	i2l1160
 10147   001FE6                     i2u1457_40:
 10148   001FE6  A89E               	btfss	158,4,c	;volatile
 10149   001FE8  EFF8  F00F         	goto	i2u1458_41
 10150   001FEC  EFFA  F00F         	goto	i2u1458_40
 10151   001FF0                     i2u1458_41:
 10152   001FF0  EFFC  F00F         	goto	i2l1160
 10153   001FF4                     i2u1458_40:
 10154   001FF4                     
 10155                           ;MCAL_Layer/Interrupt/mcal_interrupt_manager.c: 65:         EUSART_TX_ISR();
 10156   001FF4  EC45  F023         	call	i2_EUSART_TX_ISR	;wreg free
 10157   001FF8                     i2l1160:
 10158                           
 10159                           ;MCAL_Layer/Interrupt/mcal_interrupt_manager.c: 68:     if((1 == (*((volatile IPR1_t *)(
      +                          0xF9F))).RCIP)&&(1 == (*((volatile PIR1_t *)(0xF9E))).RCIF)){
 10160   001FF8  AA9F               	btfss	159,5,c	;volatile
 10161   001FFA  EF01  F010         	goto	i2u1459_41
 10162   001FFE  EF03  F010         	goto	i2u1459_40
 10163   002002                     i2u1459_41:
 10164   002002  EF0C  F010         	goto	i2l1163
 10165   002006                     i2u1459_40:
 10166   002006  AA9E               	btfss	158,5,c	;volatile
 10167   002008  EF08  F010         	goto	i2u1460_41
 10168   00200C  EF0A  F010         	goto	i2u1460_40
 10169   002010                     i2u1460_41:
 10170   002010  EF0C  F010         	goto	i2l1163
 10171   002014                     i2u1460_40:
 10172   002014                     
 10173                           ;MCAL_Layer/Interrupt/mcal_interrupt_manager.c: 69:         EUSART_RX_ISR();
 10174   002014  EC43  F01E         	call	i2_EUSART_RX_ISR	;wreg free
 10175   002018                     i2l1163:
 10176   002018  C06A  FFF5         	movff	??_InterruptManagerHigh+11,tablat
 10177   00201C  C069  FFF8         	movff	??_InterruptManagerHigh+10,tblptru
 10178   002020  C068  FFF7         	movff	??_InterruptManagerHigh+9,tblptrh
 10179   002024  C067  FFF6         	movff	??_InterruptManagerHigh+8,tblptrl
 10180   002028  C066  FFF4         	movff	??_InterruptManagerHigh+7,prodh
 10181   00202C  C065  FFF3         	movff	??_InterruptManagerHigh+6,prodl
 10182   002030  C064  FFDA         	movff	??_InterruptManagerHigh+5,fsr2h
 10183   002034  C063  FFD9         	movff	??_InterruptManagerHigh+4,fsr2l
 10184   002038  C062  FFE2         	movff	??_InterruptManagerHigh+3,fsr1h
 10185   00203C  C061  FFE1         	movff	??_InterruptManagerHigh+2,fsr1l
 10186   002040  C060  FFFB         	movff	??_InterruptManagerHigh+1,pclatu
 10187   002044  C05F  FFFA         	movff	??_InterruptManagerHigh,pclath
 10188   002048  927F               	bcf	int$flags,1,c	;clear compiler interrupt flag (level 2)
 10189   00204A  0011               	retfie		f
 10190   00204C                     __end_of_InterruptManagerHigh:
 10191                           	callstack 0
 10192                           
 10193 ;; *************** function i2_TMR3_ISR *****************
 10194 ;; Defined at:
 10195 ;;		line 139 in file "MCAL_Layer/Timer3/hal_timer3.c"
 10196 ;; Parameters:    Size  Location     Type
 10197 ;;		None
 10198 ;; Auto vars:     Size  Location     Type
 10199 ;;		None
 10200 ;; Return value:  Size  Location     Type
 10201 ;;                  1    wreg      void 
 10202 ;; Registers used:
 10203 ;;		wreg, status,2
 10204 ;; Tracked objects:
 10205 ;;		On entry : 0/0
 10206 ;;		On exit  : 0/0
 10207 ;;		Unchanged: 0/0
 10208 ;; Data sizes:     COMRAM   BANK0   BANK1   BANK2   BANK3   BANK4   BANK5   BANK6   BANK7   BANK8   BANK9  BANK10  BANK1
      +1  BANK12  BANK13  BANK14  BANK15
 10209 ;;      Params:         0       0       0       0       0       0       0       0       0       0       0       0       
      +0       0       0       0       0
 10210 ;;      Locals:         0       0       0       0       0       0       0       0       0       0       0       0       
      +0       0       0       0       0
 10211 ;;      Temps:          0       0       0       0       0       0       0       0       0       0       0       0       
      +0       0       0       0       0
 10212 ;;      Totals:         0       0       0       0       0       0       0       0       0       0       0       0       
      +0       0       0       0       0
 10213 ;;Total ram usage:        0 bytes
 10214 ;; Hardware stack levels used: 1
 10215 ;; This function calls:
 10216 ;;		Nothing
 10217 ;; This function is called by:
 10218 ;;		_InterruptManagerHigh
 10219 ;; This function uses a non-reentrant model
 10220 ;;
 10221                           
 10222                           	psect	text58
 10223   00476A                     __ptext58:
 10224                           	callstack 0
 10225   00476A                     i2_TMR3_ISR:
 10226                           	callstack 12
 10227   00476A                     
 10228                           ;MCAL_Layer/Timer3/hal_timer3.c: 141:     (*((volatile uint8 *)(0xFB3))) = (timer3_prelo
      +                          ad)>>8;
 10229   00476A  506C               	movf	(_timer3_preload+1)^0,w,c
 10230   00476C  6EB3               	movwf	179,c	;volatile
 10231   00476E                     
 10232                           ;MCAL_Layer/Timer3/hal_timer3.c: 142:     (*((volatile uint8 *)(0xFB2))) = (uint8)(timer
      +                          3_preload);
 10233   00476E  C06B  FFB2         	movff	_timer3_preload,4018	;volatile
 10234   004772                     
 10235                           ;MCAL_Layer/Timer3/hal_timer3.c: 143:     ((*((volatile PIR2_t *)(0xFA1))).TMR3IF=0);
 10236   004772  92A1               	bcf	161,1,c	;volatile
 10237   004774  0012               	return		;funcret
 10238   004776                     __end_ofi2_TMR3_ISR:
 10239                           	callstack 0
 10240                           
 10241 ;; *************** function i2_TMR2_ISR *****************
 10242 ;; Defined at:
 10243 ;;		line 111 in file "MCAL_Layer/Timer2/hal_timer2.c"
 10244 ;; Parameters:    Size  Location     Type
 10245 ;;		None
 10246 ;; Auto vars:     Size  Location     Type
 10247 ;;		None
 10248 ;; Return value:  Size  Location     Type
 10249 ;;                  1    wreg      void 
 10250 ;; Registers used:
 10251 ;;		None
 10252 ;; Tracked objects:
 10253 ;;		On entry : 0/0
 10254 ;;		On exit  : 0/0
 10255 ;;		Unchanged: 0/0
 10256 ;; Data sizes:     COMRAM   BANK0   BANK1   BANK2   BANK3   BANK4   BANK5   BANK6   BANK7   BANK8   BANK9  BANK10  BANK1
      +1  BANK12  BANK13  BANK14  BANK15
 10257 ;;      Params:         0       0       0       0       0       0       0       0       0       0       0       0       
      +0       0       0       0       0
 10258 ;;      Locals:         0       0       0       0       0       0       0       0       0       0       0       0       
      +0       0       0       0       0
 10259 ;;      Temps:          0       0       0       0       0       0       0       0       0       0       0       0       
      +0       0       0       0       0
 10260 ;;      Totals:         0       0       0       0       0       0       0       0       0       0       0       0       
      +0       0       0       0       0
 10261 ;;Total ram usage:        0 bytes
 10262 ;; Hardware stack levels used: 1
 10263 ;; This function calls:
 10264 ;;		Nothing
 10265 ;; This function is called by:
 10266 ;;		_InterruptManagerHigh
 10267 ;; This function uses a non-reentrant model
 10268 ;;
 10269                           
 10270                           	psect	text59
 10271   00479A                     __ptext59:
 10272                           	callstack 0
 10273   00479A                     i2_TMR2_ISR:
 10274                           	callstack 12
 10275   00479A                     
 10276                           ;MCAL_Layer/Timer2/hal_timer2.c: 112:     (*((volatile uint8 *)(0xFCC))) = timer2_preloa
      +                          d;
 10277   00479A  C072  FFCC         	movff	_timer2_preload,4044	;volatile
 10278   00479E  0012               	return		;funcret
 10279   0047A0                     __end_ofi2_TMR2_ISR:
 10280                           	callstack 0
 10281                           
 10282 ;; *************** function i2_TMR1_ISR *****************
 10283 ;; Defined at:
 10284 ;;		line 114 in file "MCAL_Layer/Timer1/hal_timer1.c"
 10285 ;; Parameters:    Size  Location     Type
 10286 ;;		None
 10287 ;; Auto vars:     Size  Location     Type
 10288 ;;		None
 10289 ;; Return value:  Size  Location     Type
 10290 ;;                  1    wreg      void 
 10291 ;; Registers used:
 10292 ;;		wreg, status,2
 10293 ;; Tracked objects:
 10294 ;;		On entry : 0/0
 10295 ;;		On exit  : 0/0
 10296 ;;		Unchanged: 0/0
 10297 ;; Data sizes:     COMRAM   BANK0   BANK1   BANK2   BANK3   BANK4   BANK5   BANK6   BANK7   BANK8   BANK9  BANK10  BANK1
      +1  BANK12  BANK13  BANK14  BANK15
 10298 ;;      Params:         0       0       0       0       0       0       0       0       0       0       0       0       
      +0       0       0       0       0
 10299 ;;      Locals:         0       0       0       0       0       0       0       0       0       0       0       0       
      +0       0       0       0       0
 10300 ;;      Temps:          0       0       0       0       0       0       0       0       0       0       0       0       
      +0       0       0       0       0
 10301 ;;      Totals:         0       0       0       0       0       0       0       0       0       0       0       0       
      +0       0       0       0       0
 10302 ;;Total ram usage:        0 bytes
 10303 ;; Hardware stack levels used: 1
 10304 ;; This function calls:
 10305 ;;		Nothing
 10306 ;; This function is called by:
 10307 ;;		_InterruptManagerHigh
 10308 ;; This function uses a non-reentrant model
 10309 ;;
 10310                           
 10311                           	psect	text60
 10312   004776                     __ptext60:
 10313                           	callstack 0
 10314   004776                     i2_TMR1_ISR:
 10315                           	callstack 12
 10316   004776                     
 10317                           ;MCAL_Layer/Timer1/hal_timer1.c: 115:     (*((volatile uint8 *)(0xFCF))) = (timer1_prelo
      +                          ad)>>8;
 10318   004776  506E               	movf	(_timer1_preload+1)^0,w,c
 10319   004778  6ECF               	movwf	207,c	;volatile
 10320   00477A                     
 10321                           ;MCAL_Layer/Timer1/hal_timer1.c: 116:     (*((volatile uint8 *)(0xFCE))) = (uint8)(timer
      +                          1_preload);
 10322   00477A  C06D  FFCE         	movff	_timer1_preload,4046	;volatile
 10323   00477E                     
 10324                           ;MCAL_Layer/Timer1/hal_timer1.c: 117:     ((*((volatile PIR1_t *)(0xF9E))).TMR1IF=0);
 10325   00477E  909E               	bcf	158,0,c	;volatile
 10326   004780  0012               	return		;funcret
 10327   004782                     __end_ofi2_TMR1_ISR:
 10328                           	callstack 0
 10329                           
 10330 ;; *************** function i2_TMR0_ISR *****************
 10331 ;; Defined at:
 10332 ;;		line 110 in file "MCAL_Layer/Timer0/hal_timer0.c"
 10333 ;; Parameters:    Size  Location     Type
 10334 ;;		None
 10335 ;; Auto vars:     Size  Location     Type
 10336 ;;		None
 10337 ;; Return value:  Size  Location     Type
 10338 ;;                  1    wreg      void 
 10339 ;; Registers used:
 10340 ;;		wreg, status,2
 10341 ;; Tracked objects:
 10342 ;;		On entry : 0/0
 10343 ;;		On exit  : 0/0
 10344 ;;		Unchanged: 0/0
 10345 ;; Data sizes:     COMRAM   BANK0   BANK1   BANK2   BANK3   BANK4   BANK5   BANK6   BANK7   BANK8   BANK9  BANK10  BANK1
      +1  BANK12  BANK13  BANK14  BANK15
 10346 ;;      Params:         0       0       0       0       0       0       0       0       0       0       0       0       
      +0       0       0       0       0
 10347 ;;      Locals:         0       0       0       0       0       0       0       0       0       0       0       0       
      +0       0       0       0       0
 10348 ;;      Temps:          0       0       0       0       0       0       0       0       0       0       0       0       
      +0       0       0       0       0
 10349 ;;      Totals:         0       0       0       0       0       0       0       0       0       0       0       0       
      +0       0       0       0       0
 10350 ;;Total ram usage:        0 bytes
 10351 ;; Hardware stack levels used: 1
 10352 ;; This function calls:
 10353 ;;		Nothing
 10354 ;; This function is called by:
 10355 ;;		_InterruptManagerHigh
 10356 ;; This function uses a non-reentrant model
 10357 ;;
 10358                           
 10359                           	psect	text61
 10360   004782                     __ptext61:
 10361                           	callstack 0
 10362   004782                     i2_TMR0_ISR:
 10363                           	callstack 12
 10364   004782                     
 10365                           ;MCAL_Layer/Timer0/hal_timer0.c: 112:     TMR0H = (timer0_preload)>>8;
 10366   004782  5070               	movf	(_timer0_preload+1)^0,w,c
 10367   004784  6ED7               	movwf	215,c	;volatile
 10368   004786                     
 10369                           ;MCAL_Layer/Timer0/hal_timer0.c: 113:     (*((volatile uint8 *)(0xFD6))) = (uint8)(timer
      +                          0_preload);
 10370   004786  C06F  FFD6         	movff	_timer0_preload,4054	;volatile
 10371   00478A                     
 10372                           ;MCAL_Layer/Timer0/hal_timer0.c: 114:     ((*((volatile INTCON_t *)(0xFF2))).TMR0IF=0);
 10373   00478A  94F2               	bcf	242,2,c	;volatile
 10374   00478C  0012               	return		;funcret
 10375   00478E                     __end_ofi2_TMR0_ISR:
 10376                           	callstack 0
 10377                           
 10378 ;; *************** function i2_RB7_ISR *****************
 10379 ;; Defined at:
 10380 ;;		line 180 in file "MCAL_Layer/Interrupt/mcal_external_interrupt.c"
 10381 ;; Parameters:    Size  Location     Type
 10382 ;;		None
 10383 ;; Auto vars:     Size  Location     Type
 10384 ;;		None
 10385 ;; Return value:  Size  Location     Type
 10386 ;;                  1    wreg      void 
 10387 ;; Registers used:
 10388 ;;		None
 10389 ;; Tracked objects:
 10390 ;;		On entry : 0/0
 10391 ;;		On exit  : 0/0
 10392 ;;		Unchanged: 0/0
 10393 ;; Data sizes:     COMRAM   BANK0   BANK1   BANK2   BANK3   BANK4   BANK5   BANK6   BANK7   BANK8   BANK9  BANK10  BANK1
      +1  BANK12  BANK13  BANK14  BANK15
 10394 ;;      Params:         0       0       0       0       0       0       0       0       0       0       0       0       
      +0       0       0       0       0
 10395 ;;      Locals:         0       0       0       0       0       0       0       0       0       0       0       0       
      +0       0       0       0       0
 10396 ;;      Temps:          0       0       0       0       0       0       0       0       0       0       0       0       
      +0       0       0       0       0
 10397 ;;      Totals:         0       0       0       0       0       0       0       0       0       0       0       0       
      +0       0       0       0       0
 10398 ;;Total ram usage:        0 bytes
 10399 ;; Hardware stack levels used: 1
 10400 ;; This function calls:
 10401 ;;		Nothing
 10402 ;; This function is called by:
 10403 ;;		_InterruptManagerHigh
 10404 ;; This function uses a non-reentrant model
 10405 ;;
 10406                           
 10407                           	psect	text62
 10408   0047C4                     __ptext62:
 10409                           	callstack 0
 10410   0047C4                     i2_RB7_ISR:
 10411                           	callstack 12
 10412   0047C4                     
 10413                           ;MCAL_Layer/Interrupt/mcal_external_interrupt.c: 182:     ((*((volatile INTCON_t *)(0xFF
      +                          2))).RBIF=0);
 10414   0047C4  90F2               	bcf	242,0,c	;volatile
 10415   0047C6  0012               	return		;funcret
 10416   0047C8                     __end_ofi2_RB7_ISR:
 10417                           	callstack 0
 10418                           
 10419 ;; *************** function i2_RB6_ISR *****************
 10420 ;; Defined at:
 10421 ;;		line 172 in file "MCAL_Layer/Interrupt/mcal_external_interrupt.c"
 10422 ;; Parameters:    Size  Location     Type
 10423 ;;		None
 10424 ;; Auto vars:     Size  Location     Type
 10425 ;;		None
 10426 ;; Return value:  Size  Location     Type
 10427 ;;                  1    wreg      void 
 10428 ;; Registers used:
 10429 ;;		None
 10430 ;; Tracked objects:
 10431 ;;		On entry : 0/0
 10432 ;;		On exit  : 0/0
 10433 ;;		Unchanged: 0/0
 10434 ;; Data sizes:     COMRAM   BANK0   BANK1   BANK2   BANK3   BANK4   BANK5   BANK6   BANK7   BANK8   BANK9  BANK10  BANK1
      +1  BANK12  BANK13  BANK14  BANK15
 10435 ;;      Params:         0       0       0       0       0       0       0       0       0       0       0       0       
      +0       0       0       0       0
 10436 ;;      Locals:         0       0       0       0       0       0       0       0       0       0       0       0       
      +0       0       0       0       0
 10437 ;;      Temps:          0       0       0       0       0       0       0       0       0       0       0       0       
      +0       0       0       0       0
 10438 ;;      Totals:         0       0       0       0       0       0       0       0       0       0       0       0       
      +0       0       0       0       0
 10439 ;;Total ram usage:        0 bytes
 10440 ;; Hardware stack levels used: 1
 10441 ;; This function calls:
 10442 ;;		Nothing
 10443 ;; This function is called by:
 10444 ;;		_InterruptManagerHigh
 10445 ;; This function uses a non-reentrant model
 10446 ;;
 10447                           
 10448                           	psect	text63
 10449   0047C8                     __ptext63:
 10450                           	callstack 0
 10451   0047C8                     i2_RB6_ISR:
 10452                           	callstack 12
 10453   0047C8                     
 10454                           ;MCAL_Layer/Interrupt/mcal_external_interrupt.c: 174:     ((*((volatile INTCON_t *)(0xFF
      +                          2))).RBIF=0);
 10455   0047C8  90F2               	bcf	242,0,c	;volatile
 10456   0047CA  0012               	return		;funcret
 10457   0047CC                     __end_ofi2_RB6_ISR:
 10458                           	callstack 0
 10459                           
 10460 ;; *************** function i2_RB5_ISR *****************
 10461 ;; Defined at:
 10462 ;;		line 164 in file "MCAL_Layer/Interrupt/mcal_external_interrupt.c"
 10463 ;; Parameters:    Size  Location     Type
 10464 ;;		None
 10465 ;; Auto vars:     Size  Location     Type
 10466 ;;		None
 10467 ;; Return value:  Size  Location     Type
 10468 ;;                  1    wreg      void 
 10469 ;; Registers used:
 10470 ;;		None
 10471 ;; Tracked objects:
 10472 ;;		On entry : 0/0
 10473 ;;		On exit  : 0/0
 10474 ;;		Unchanged: 0/0
 10475 ;; Data sizes:     COMRAM   BANK0   BANK1   BANK2   BANK3   BANK4   BANK5   BANK6   BANK7   BANK8   BANK9  BANK10  BANK1
      +1  BANK12  BANK13  BANK14  BANK15
 10476 ;;      Params:         0       0       0       0       0       0       0       0       0       0       0       0       
      +0       0       0       0       0
 10477 ;;      Locals:         0       0       0       0       0       0       0       0       0       0       0       0       
      +0       0       0       0       0
 10478 ;;      Temps:          0       0       0       0       0       0       0       0       0       0       0       0       
      +0       0       0       0       0
 10479 ;;      Totals:         0       0       0       0       0       0       0       0       0       0       0       0       
      +0       0       0       0       0
 10480 ;;Total ram usage:        0 bytes
 10481 ;; Hardware stack levels used: 1
 10482 ;; This function calls:
 10483 ;;		Nothing
 10484 ;; This function is called by:
 10485 ;;		_InterruptManagerHigh
 10486 ;; This function uses a non-reentrant model
 10487 ;;
 10488                           
 10489                           	psect	text64
 10490   0047CC                     __ptext64:
 10491                           	callstack 0
 10492   0047CC                     i2_RB5_ISR:
 10493                           	callstack 12
 10494   0047CC                     
 10495                           ;MCAL_Layer/Interrupt/mcal_external_interrupt.c: 166:     ((*((volatile INTCON_t *)(0xFF
      +                          2))).RBIF=0);
 10496   0047CC  90F2               	bcf	242,0,c	;volatile
 10497   0047CE  0012               	return		;funcret
 10498   0047D0                     __end_ofi2_RB5_ISR:
 10499                           	callstack 0
 10500                           
 10501 ;; *************** function i2_RB4_ISR *****************
 10502 ;; Defined at:
 10503 ;;		line 156 in file "MCAL_Layer/Interrupt/mcal_external_interrupt.c"
 10504 ;; Parameters:    Size  Location     Type
 10505 ;;		None
 10506 ;; Auto vars:     Size  Location     Type
 10507 ;;		None
 10508 ;; Return value:  Size  Location     Type
 10509 ;;                  1    wreg      void 
 10510 ;; Registers used:
 10511 ;;		None
 10512 ;; Tracked objects:
 10513 ;;		On entry : 0/0
 10514 ;;		On exit  : 0/0
 10515 ;;		Unchanged: 0/0
 10516 ;; Data sizes:     COMRAM   BANK0   BANK1   BANK2   BANK3   BANK4   BANK5   BANK6   BANK7   BANK8   BANK9  BANK10  BANK1
      +1  BANK12  BANK13  BANK14  BANK15
 10517 ;;      Params:         0       0       0       0       0       0       0       0       0       0       0       0       
      +0       0       0       0       0
 10518 ;;      Locals:         0       0       0       0       0       0       0       0       0       0       0       0       
      +0       0       0       0       0
 10519 ;;      Temps:          0       0       0       0       0       0       0       0       0       0       0       0       
      +0       0       0       0       0
 10520 ;;      Totals:         0       0       0       0       0       0       0       0       0       0       0       0       
      +0       0       0       0       0
 10521 ;;Total ram usage:        0 bytes
 10522 ;; Hardware stack levels used: 1
 10523 ;; This function calls:
 10524 ;;		Nothing
 10525 ;; This function is called by:
 10526 ;;		_InterruptManagerHigh
 10527 ;; This function uses a non-reentrant model
 10528 ;;
 10529                           
 10530                           	psect	text65
 10531   0047D0                     __ptext65:
 10532                           	callstack 0
 10533   0047D0                     i2_RB4_ISR:
 10534                           	callstack 12
 10535   0047D0                     
 10536                           ;MCAL_Layer/Interrupt/mcal_external_interrupt.c: 158:     ((*((volatile INTCON_t *)(0xFF
      +                          2))).RBIF=0);
 10537   0047D0  90F2               	bcf	242,0,c	;volatile
 10538   0047D2  0012               	return		;funcret
 10539   0047D4                     __end_ofi2_RB4_ISR:
 10540                           	callstack 0
 10541                           
 10542 ;; *************** function i2_INT2_ISR *****************
 10543 ;; Defined at:
 10544 ;;		line 148 in file "MCAL_Layer/Interrupt/mcal_external_interrupt.c"
 10545 ;; Parameters:    Size  Location     Type
 10546 ;;		None
 10547 ;; Auto vars:     Size  Location     Type
 10548 ;;		None
 10549 ;; Return value:  Size  Location     Type
 10550 ;;                  1    wreg      void 
 10551 ;; Registers used:
 10552 ;;		None
 10553 ;; Tracked objects:
 10554 ;;		On entry : 0/0
 10555 ;;		On exit  : 0/0
 10556 ;;		Unchanged: 0/0
 10557 ;; Data sizes:     COMRAM   BANK0   BANK1   BANK2   BANK3   BANK4   BANK5   BANK6   BANK7   BANK8   BANK9  BANK10  BANK1
      +1  BANK12  BANK13  BANK14  BANK15
 10558 ;;      Params:         0       0       0       0       0       0       0       0       0       0       0       0       
      +0       0       0       0       0
 10559 ;;      Locals:         0       0       0       0       0       0       0       0       0       0       0       0       
      +0       0       0       0       0
 10560 ;;      Temps:          0       0       0       0       0       0       0       0       0       0       0       0       
      +0       0       0       0       0
 10561 ;;      Totals:         0       0       0       0       0       0       0       0       0       0       0       0       
      +0       0       0       0       0
 10562 ;;Total ram usage:        0 bytes
 10563 ;; Hardware stack levels used: 1
 10564 ;; This function calls:
 10565 ;;		Nothing
 10566 ;; This function is called by:
 10567 ;;		_InterruptManagerHigh
 10568 ;; This function uses a non-reentrant model
 10569 ;;
 10570                           
 10571                           	psect	text66
 10572   0047D4                     __ptext66:
 10573                           	callstack 0
 10574   0047D4                     i2_INT2_ISR:
 10575                           	callstack 12
 10576   0047D4                     
 10577                           ;MCAL_Layer/Interrupt/mcal_external_interrupt.c: 150:     ((*((volatile INTCON3_t *)(0xF
      +                          F0))).INT2IF=0);
 10578   0047D4  92F0               	bcf	240,1,c	;volatile
 10579   0047D6  0012               	return		;funcret
 10580   0047D8                     __end_ofi2_INT2_ISR:
 10581                           	callstack 0
 10582                           
 10583 ;; *************** function i2_INT1_ISR *****************
 10584 ;; Defined at:
 10585 ;;		line 140 in file "MCAL_Layer/Interrupt/mcal_external_interrupt.c"
 10586 ;; Parameters:    Size  Location     Type
 10587 ;;		None
 10588 ;; Auto vars:     Size  Location     Type
 10589 ;;		None
 10590 ;; Return value:  Size  Location     Type
 10591 ;;                  1    wreg      void 
 10592 ;; Registers used:
 10593 ;;		None
 10594 ;; Tracked objects:
 10595 ;;		On entry : 0/0
 10596 ;;		On exit  : 0/0
 10597 ;;		Unchanged: 0/0
 10598 ;; Data sizes:     COMRAM   BANK0   BANK1   BANK2   BANK3   BANK4   BANK5   BANK6   BANK7   BANK8   BANK9  BANK10  BANK1
      +1  BANK12  BANK13  BANK14  BANK15
 10599 ;;      Params:         0       0       0       0       0       0       0       0       0       0       0       0       
      +0       0       0       0       0
 10600 ;;      Locals:         0       0       0       0       0       0       0       0       0       0       0       0       
      +0       0       0       0       0
 10601 ;;      Temps:          0       0       0       0       0       0       0       0       0       0       0       0       
      +0       0       0       0       0
 10602 ;;      Totals:         0       0       0       0       0       0       0       0       0       0       0       0       
      +0       0       0       0       0
 10603 ;;Total ram usage:        0 bytes
 10604 ;; Hardware stack levels used: 1
 10605 ;; This function calls:
 10606 ;;		Nothing
 10607 ;; This function is called by:
 10608 ;;		_InterruptManagerHigh
 10609 ;; This function uses a non-reentrant model
 10610 ;;
 10611                           
 10612                           	psect	text67
 10613   0047D8                     __ptext67:
 10614                           	callstack 0
 10615   0047D8                     i2_INT1_ISR:
 10616                           	callstack 12
 10617   0047D8                     
 10618                           ;MCAL_Layer/Interrupt/mcal_external_interrupt.c: 142:     ((*((volatile INTCON3_t *)(0xF
      +                          F0))).INT1IF=0);
 10619   0047D8  90F0               	bcf	240,0,c	;volatile
 10620   0047DA  0012               	return		;funcret
 10621   0047DC                     __end_ofi2_INT1_ISR:
 10622                           	callstack 0
 10623                           
 10624 ;; *************** function i2_EUSART_TX_ISR *****************
 10625 ;; Defined at:
 10626 ;;		line 290 in file "MCAL_Layer/USART/hal_usart.c"
 10627 ;; Parameters:    Size  Location     Type
 10628 ;;		None
 10629 ;; Auto vars:     Size  Location     Type
 10630 ;;		None
 10631 ;; Return value:  Size  Location     Type
 10632 ;;                  1    wreg      void 
 10633 ;; Registers used:
 10634 ;;		wreg, fsr1l, fsr1h, fsr2l, fsr2h, status,2, status,0, pcl, pclath, pclatu, tosl, tblptrl, tblptrh, tblptru, prodl, p
      +rodh, cstack
 10635 ;; Tracked objects:
 10636 ;;		On entry : 0/0
 10637 ;;		On exit  : 0/0
 10638 ;;		Unchanged: 0/0
 10639 ;; Data sizes:     COMRAM   BANK0   BANK1   BANK2   BANK3   BANK4   BANK5   BANK6   BANK7   BANK8   BANK9  BANK10  BANK1
      +1  BANK12  BANK13  BANK14  BANK15
 10640 ;;      Params:         0       0       0       0       0       0       0       0       0       0       0       0       
      +0       0       0       0       0
 10641 ;;      Locals:         0       0       0       0       0       0       0       0       0       0       0       0       
      +0       0       0       0       0
 10642 ;;      Temps:          0       0       0       0       0       0       0       0       0       0       0       0       
      +0       0       0       0       0
 10643 ;;      Totals:         0       0       0       0       0       0       0       0       0       0       0       0       
      +0       0       0       0       0
 10644 ;;Total ram usage:        0 bytes
 10645 ;; Hardware stack levels used: 1
 10646 ;; Hardware stack levels required when called: 10
 10647 ;; This function calls:
 10648 ;;		NULL
 10649 ;;		i2_USART_TX_INT
 10650 ;; This function is called by:
 10651 ;;		_InterruptManagerHigh
 10652 ;; This function uses a non-reentrant model
 10653 ;;
 10654                           
 10655                           	psect	text68
 10656   00468A                     __ptext68:
 10657                           	callstack 0
 10658   00468A                     i2_EUSART_TX_ISR:
 10659                           	callstack 2
 10660   00468A                     
 10661                           ;MCAL_Layer/USART/hal_usart.c: 292:     ((*((volatile PIE1_t *)(0xF9D))).TXIE=0);
 10662   00468A  989D               	bcf	157,4,c	;volatile
 10663   00468C                     
 10664                           ;MCAL_Layer/USART/hal_usart.c: 294:     if(EUSART_TX_InterruptHandler){
 10665   00468C  0100               	movlb	0	; () banked
 10666   00468E  51F7               	movf	_EUSART_TX_InterruptHandler& (0+255),w,b
 10667   004690  11F8               	iorwf	(_EUSART_TX_InterruptHandler+1)& (0+255),w,b
 10668   004692  B4D8               	btfsc	status,2,c
 10669   004694  EF4E  F023         	goto	i2u1413_41
 10670   004698  EF50  F023         	goto	i2u1413_40
 10671   00469C                     i2u1413_41:
 10672   00469C  EF5C  F023         	goto	i2l1557
 10673   0046A0                     i2u1413_40:
 10674   0046A0                     
 10675                           ; BSR set to: 0
 10676                           ;MCAL_Layer/USART/hal_usart.c: 295:         EUSART_TX_InterruptHandler();
 10677   0046A0  D802               	call	i2u1414_48
 10678   0046A2  EF5C  F023         	goto	i2u1414_49
 10679   0046A6                     i2u1414_48:
 10680   0046A6  0005               	push	
 10681   0046A8  6EFA               	movwf	pclath,c
 10682   0046AA  51F7               	movf	_EUSART_TX_InterruptHandler& (0+255),w,b
 10683   0046AC  6EFD               	movwf	tosl,c
 10684   0046AE  51F8               	movf	(_EUSART_TX_InterruptHandler+1)& (0+255),w,b
 10685   0046B0  6EFE               	movwf	tosh,c
 10686   0046B2  6AFF               	clrf	tosu,c
 10687   0046B4  50FA               	movf	pclath,w,c
 10688   0046B6  0012               	return		;indir
 10689   0046B8                     i2u1414_49:
 10690   0046B8                     i2l1557:
 10691   0046B8  0012               	return		;funcret
 10692   0046BA                     __end_ofi2_EUSART_TX_ISR:
 10693                           	callstack 0
 10694                           
 10695 ;; *************** function i2_USART_TX_INT *****************
 10696 ;; Defined at:
 10697 ;;		line 28 in file "application.c"
 10698 ;; Parameters:    Size  Location     Type
 10699 ;;		None
 10700 ;; Auto vars:     Size  Location     Type
 10701 ;;  counter_Str     4   90[COMRAM] unsigned char [4]
 10702 ;; Return value:  Size  Location     Type
 10703 ;;                  1    wreg      void 
 10704 ;; Registers used:
 10705 ;;		wreg, fsr1l, fsr1h, fsr2l, fsr2h, status,2, status,0, tblptrl, tblptrh, tblptru, prodl, prodh, cstack
 10706 ;; Tracked objects:
 10707 ;;		On entry : 0/0
 10708 ;;		On exit  : 0/0
 10709 ;;		Unchanged: 0/0
 10710 ;; Data sizes:     COMRAM   BANK0   BANK1   BANK2   BANK3   BANK4   BANK5   BANK6   BANK7   BANK8   BANK9  BANK10  BANK1
      +1  BANK12  BANK13  BANK14  BANK15
 10711 ;;      Params:         0       0       0       0       0       0       0       0       0       0       0       0       
      +0       0       0       0       0
 10712 ;;      Locals:         4       0       0       0       0       0       0       0       0       0       0       0       
      +0       0       0       0       0
 10713 ;;      Temps:          0       0       0       0       0       0       0       0       0       0       0       0       
      +0       0       0       0       0
 10714 ;;      Totals:         4       0       0       0       0       0       0       0       0       0       0       0       
      +0       0       0       0       0
 10715 ;;Total ram usage:        4 bytes
 10716 ;; Hardware stack levels used: 1
 10717 ;; Hardware stack levels required when called: 9
 10718 ;; This function calls:
 10719 ;;		i2_convert_uint8_to_string
 10720 ;;		i2_lcd_4bit_send_command
 10721 ;;		i2_lcd_4bit_send_string
 10722 ;; This function is called by:
 10723 ;;		_EUSART_TX_ISR
 10724 ;;		i2_EUSART_TX_ISR
 10725 ;; This function uses a non-reentrant model
 10726 ;;
 10727                           
 10728                           	psect	text69
 10729   004426                     __ptext69:
 10730                           	callstack 0
 10731   004426                     i2_USART_TX_INT:
 10732                           	callstack 2
 10733   004426                     
 10734                           ;application.c: 30:     uint8 counter_Str[4]={0};
 10735   004426  C111  F05B         	movff	USART_TX_INT@F3631,i2USART_TX_INT@counter_Str
 10736   00442A  C112  F05C         	movff	USART_TX_INT@F3631+1,i2USART_TX_INT@counter_Str+1
 10737   00442E  C113  F05D         	movff	USART_TX_INT@F3631+2,i2USART_TX_INT@counter_Str+2
 10738   004432  C114  F05E         	movff	USART_TX_INT@F3631+3,i2USART_TX_INT@counter_Str+3
 10739   004436                     
 10740                           ;application.c: 31:     counter++;
 10741   004436  0100               	movlb	0	; () banked
 10742   004438  2BFE               	incf	_counter& (0+255),f,b	;volatile
 10743   00443A                     
 10744                           ; BSR set to: 0
 10745                           ;application.c: 32:     convert_uint8_to_string(counter,counter_Str);
 10746   00443A  0E5B               	movlw	low i2USART_TX_INT@counter_Str
 10747   00443C  6E53               	movwf	i2convert_uint8_to_string@str^0,c
 10748   00443E  0E00               	movlw	high i2USART_TX_INT@counter_Str
 10749   004440  6E54               	movwf	(i2convert_uint8_to_string@str+1)^0,c
 10750   004442  51FE               	movf	_counter& (0+255),w,b	;volatile
 10751   004444  EC32  F01C         	call	i2_convert_uint8_to_string
 10752   004448                     
 10753                           ;application.c: 33:     lcd_4bit_send_command(&lcd1,0X01);
 10754   004448  0ECE               	movlw	low _lcd1
 10755   00444A  6E0F               	movwf	i2lcd_4bit_send_command@lcd^0,c
 10756   00444C  0E01               	movlw	high _lcd1
 10757   00444E  6E10               	movwf	(i2lcd_4bit_send_command@lcd+1)^0,c
 10758   004450  0E01               	movlw	1
 10759   004452  6E11               	movwf	i2lcd_4bit_send_command@command^0,c
 10760   004454  ECF5  F01F         	call	i2_lcd_4bit_send_command	;wreg free
 10761   004458                     
 10762                           ;application.c: 34:     lcd_4bit_send_string(&lcd1,counter_Str);
 10763   004458  0ECE               	movlw	low _lcd1
 10764   00445A  6E13               	movwf	i2lcd_4bit_send_string@lcd^0,c
 10765   00445C  0E01               	movlw	high _lcd1
 10766   00445E  6E14               	movwf	(i2lcd_4bit_send_string@lcd+1)^0,c
 10767   004460  0E5B               	movlw	low i2USART_TX_INT@counter_Str
 10768   004462  6E15               	movwf	i2lcd_4bit_send_string@str^0,c
 10769   004464  0E00               	movlw	high i2USART_TX_INT@counter_Str
 10770   004466  6E16               	movwf	(i2lcd_4bit_send_string@str+1)^0,c
 10771   004468  ECA3  F021         	call	i2_lcd_4bit_send_string	;wreg free
 10772   00446C  0012               	return		;funcret
 10773   00446E                     __end_ofi2_USART_TX_INT:
 10774                           	callstack 0
 10775                           
 10776 ;; *************** function i2_lcd_4bit_send_string *****************
 10777 ;; Defined at:
 10778 ;;		line 102 in file "ECU_Layer/Chr_LCD/ecu_chr_lcd.c"
 10779 ;; Parameters:    Size  Location     Type
 10780 ;;  lcd             2   18[COMRAM] PTR const struct .
 10781 ;;		 -> lcd1(6), 
 10782 ;;  str             2   20[COMRAM] PTR unsigned char 
 10783 ;;		 -> i2USART_TX_INT@counter_Str(4), USART_TX_INT@counter_Str(4), 
 10784 ;; Auto vars:     Size  Location     Type
 10785 ;;  ret             1    0        unsigned char 
 10786 ;; Return value:  Size  Location     Type
 10787 ;;                  1    wreg      unsigned char 
 10788 ;; Registers used:
 10789 ;;		wreg, fsr2l, fsr2h, status,2, status,0, prodl, prodh, cstack
 10790 ;; Tracked objects:
 10791 ;;		On entry : 0/0
 10792 ;;		On exit  : 0/0
 10793 ;;		Unchanged: 0/0
 10794 ;; Data sizes:     COMRAM   BANK0   BANK1   BANK2   BANK3   BANK4   BANK5   BANK6   BANK7   BANK8   BANK9  BANK10  BANK1
      +1  BANK12  BANK13  BANK14  BANK15
 10795 ;;      Params:         4       0       0       0       0       0       0       0       0       0       0       0       
      +0       0       0       0       0
 10796 ;;      Locals:         0       0       0       0       0       0       0       0       0       0       0       0       
      +0       0       0       0       0
 10797 ;;      Temps:          0       0       0       0       0       0       0       0       0       0       0       0       
      +0       0       0       0       0
 10798 ;;      Totals:         4       0       0       0       0       0       0       0       0       0       0       0       
      +0       0       0       0       0
 10799 ;;Total ram usage:        4 bytes
 10800 ;; Hardware stack levels used: 1
 10801 ;; Hardware stack levels required when called: 3
 10802 ;; This function calls:
 10803 ;;		i2_lcd_4bit_send_char_data
 10804 ;; This function is called by:
 10805 ;;		i2_USART_TX_INT
 10806 ;; This function uses a non-reentrant model
 10807 ;;
 10808                           
 10809                           	psect	text70
 10810   004346                     __ptext70:
 10811                           	callstack 0
 10812   004346                     i2_lcd_4bit_send_string:
 10813                           	callstack 7
 10814   004346                     
 10815                           ;ECU_Layer/Chr_LCD/ecu_chr_lcd.c: 104:     if(lcd==((void*)0)){
 10816   004346  5013               	movf	i2lcd_4bit_send_string@lcd^0,w,c
 10817   004348  1014               	iorwf	(i2lcd_4bit_send_string@lcd+1)^0,w,c
 10818   00434A  A4D8               	btfss	status,2,c
 10819   00434C  EFAA  F021         	goto	i2u1400_41
 10820   004350  EFAC  F021         	goto	i2u1400_40
 10821   004354                     i2u1400_41:
 10822   004354  EFBC  F021         	goto	i2l11749
 10823   004358                     i2u1400_40:
 10824   004358                     
 10825                           ;ECU_Layer/Chr_LCD/ecu_chr_lcd.c: 106:     }
 10826   004358  EFC8  F021         	goto	i2l94
 10827   00435C                     i2l11745:
 10828   00435C  C013  F00F         	movff	i2lcd_4bit_send_string@lcd,i2lcd_4bit_send_char_data@lcd
 10829   004360  C014  F010         	movff	i2lcd_4bit_send_string@lcd+1,i2lcd_4bit_send_char_data@lcd+1
 10830   004364  C015  FFD9         	movff	i2lcd_4bit_send_string@str,fsr2l
 10831   004368  C016  FFDA         	movff	i2lcd_4bit_send_string@str+1,fsr2h
 10832   00436C  50DF               	movf	indf2,w,c
 10833   00436E  6E11               	movwf	i2lcd_4bit_send_char_data@data^0,c
 10834   004370  ECBC  F01F         	call	i2_lcd_4bit_send_char_data	;wreg free
 10835   004374  4A15               	infsnz	i2lcd_4bit_send_string@str^0,f,c
 10836   004376  2A16               	incf	(i2lcd_4bit_send_string@str+1)^0,f,c
 10837   004378                     i2l11749:
 10838                           
 10839                           ;ECU_Layer/Chr_LCD/ecu_chr_lcd.c: 108:         while(*str){
 10840   004378  C015  FFD9         	movff	i2lcd_4bit_send_string@str,fsr2l
 10841   00437C  C016  FFDA         	movff	i2lcd_4bit_send_string@str+1,fsr2h
 10842   004380  50DF               	movf	indf2,w,c
 10843   004382  A4D8               	btfss	status,2,c
 10844   004384  EFC6  F021         	goto	i2u1401_41
 10845   004388  EFC8  F021         	goto	i2u1401_40
 10846   00438C                     i2u1401_41:
 10847   00438C  EFAE  F021         	goto	i2l11745
 10848   004390                     i2u1401_40:
 10849   004390                     i2l94:
 10850   004390  0012               	return		;funcret
 10851   004392                     __end_ofi2_lcd_4bit_send_string:
 10852                           	callstack 0
 10853                           
 10854 ;; *************** function i2_convert_uint8_to_string *****************
 10855 ;; Defined at:
 10856 ;;		line 326 in file "ECU_Layer/Chr_LCD/ecu_chr_lcd.c"
 10857 ;; Parameters:    Size  Location     Type
 10858 ;;  value           1    wreg     unsigned char 
 10859 ;;  str             2   82[COMRAM] PTR unsigned char 
 10860 ;;		 -> i2USART_TX_INT@counter_Str(4), USART_TX_INT@counter_Str(4), 
 10861 ;; Auto vars:     Size  Location     Type
 10862 ;;  value           1   88[COMRAM] unsigned char 
 10863 ;;  Temp_str        4   84[COMRAM] unsigned char [4]
 10864 ;;  cnt             1   89[COMRAM] unsigned char 
 10865 ;;  ret             1    0        unsigned char 
 10866 ;; Return value:  Size  Location     Type
 10867 ;;                  1    wreg      unsigned char 
 10868 ;; Registers used:
 10869 ;;		wreg, fsr1l, fsr1h, fsr2l, fsr2h, status,2, status,0, tblptrl, tblptrh, tblptru, cstack
 10870 ;; Tracked objects:
 10871 ;;		On entry : 0/0
 10872 ;;		On exit  : 0/0
 10873 ;;		Unchanged: 0/0
 10874 ;; Data sizes:     COMRAM   BANK0   BANK1   BANK2   BANK3   BANK4   BANK5   BANK6   BANK7   BANK8   BANK9  BANK10  BANK1
      +1  BANK12  BANK13  BANK14  BANK15
 10875 ;;      Params:         2       0       0       0       0       0       0       0       0       0       0       0       
      +0       0       0       0       0
 10876 ;;      Locals:         6       0       0       0       0       0       0       0       0       0       0       0       
      +0       0       0       0       0
 10877 ;;      Temps:          0       0       0       0       0       0       0       0       0       0       0       0       
      +0       0       0       0       0
 10878 ;;      Totals:         8       0       0       0       0       0       0       0       0       0       0       0       
      +0       0       0       0       0
 10879 ;;Total ram usage:        8 bytes
 10880 ;; Hardware stack levels used: 1
 10881 ;; Hardware stack levels required when called: 8
 10882 ;; This function calls:
 10883 ;;		i2_memset
 10884 ;;		i2_sprintf
 10885 ;; This function is called by:
 10886 ;;		i2_USART_TX_INT
 10887 ;; This function uses a non-reentrant model
 10888 ;;
 10889                           
 10890                           	psect	text71
 10891   003864                     __ptext71:
 10892                           	callstack 0
 10893   003864                     i2_convert_uint8_to_string:
 10894                           	callstack 2
 10895                           
 10896                           ;incstack = 0
 10897                           ;i2convert_uint8_to_string@value stored from wreg
 10898   003864  6E59               	movwf	i2convert_uint8_to_string@value^0,c
 10899   003866                     
 10900                           ;ECU_Layer/Chr_LCD/ecu_chr_lcd.c: 328:    uint8 Temp_str[4]={0};
 10901   003866  C115  F055         	movff	convert_uint8_to_string@F3495,i2convert_uint8_to_string@Temp_str
 10902   00386A  C116  F056         	movff	convert_uint8_to_string@F3495+1,i2convert_uint8_to_string@Temp_str+1
 10903   00386E  C117  F057         	movff	convert_uint8_to_string@F3495+2,i2convert_uint8_to_string@Temp_str+2
 10904   003872  C118  F058         	movff	convert_uint8_to_string@F3495+3,i2convert_uint8_to_string@Temp_str+3
 10905                           
 10906                           ;ECU_Layer/Chr_LCD/ecu_chr_lcd.c: 329:    uint8 cnt =0;
 10907   003876  0E00               	movlw	0
 10908   003878  6E5A               	movwf	i2convert_uint8_to_string@cnt^0,c
 10909   00387A                     
 10910                           ;ECU_Layer/Chr_LCD/ecu_chr_lcd.c: 330:     if(str==((void*)0)){
 10911   00387A  5053               	movf	i2convert_uint8_to_string@str^0,w,c
 10912   00387C  1054               	iorwf	(i2convert_uint8_to_string@str+1)^0,w,c
 10913   00387E  A4D8               	btfss	status,2,c
 10914   003880  EF44  F01C         	goto	i2u778_41
 10915   003884  EF46  F01C         	goto	i2u778_40
 10916   003888                     i2u778_41:
 10917   003888  EF48  F01C         	goto	i2l7809
 10918   00388C                     i2u778_40:
 10919   00388C                     
 10920                           ;ECU_Layer/Chr_LCD/ecu_chr_lcd.c: 332:     }
 10921   00388C  EF89  F01C         	goto	i2l168
 10922   003890                     i2l7809:
 10923                           
 10924                           ;ECU_Layer/Chr_LCD/ecu_chr_lcd.c: 334:         memset(str,'\0',4);
 10925   003890  C053  F001         	movff	i2convert_uint8_to_string@str,i2memset@dest
 10926   003894  C054  F002         	movff	i2convert_uint8_to_string@str+1,i2memset@dest+1
 10927   003898  0E00               	movlw	0
 10928   00389A  6E04               	movwf	(i2memset@c+1)^0,c
 10929   00389C  0E00               	movlw	0
 10930   00389E  6E03               	movwf	i2memset@c^0,c
 10931   0038A0  0E00               	movlw	0
 10932   0038A2  6E06               	movwf	(i2memset@n+1)^0,c
 10933   0038A4  0E04               	movlw	4
 10934   0038A6  6E05               	movwf	i2memset@n^0,c
 10935   0038A8  EC56  F013         	call	i2_memset	;wreg free
 10936   0038AC                     
 10937                           ;ECU_Layer/Chr_LCD/ecu_chr_lcd.c: 335:         sprintf(Temp_str,"%i",value);
 10938   0038AC  0E55               	movlw	low i2convert_uint8_to_string@Temp_str
 10939   0038AE  6E3F               	movwf	i2sprintf@s^0,c
 10940   0038B0  0E00               	movlw	high i2convert_uint8_to_string@Temp_str
 10941   0038B2  6E40               	movwf	(i2sprintf@s+1)^0,c
 10942   0038B4  0E11               	movlw	low STR_1
 10943   0038B6  6E41               	movwf	i2sprintf@fmt^0,c
 10944   0038B8  0E10               	movlw	high STR_1
 10945   0038BA  6E42               	movwf	(i2sprintf@fmt+1)^0,c
 10946   0038BC  C059  F043         	movff	i2convert_uint8_to_string@value,?i2_sprintf+4
 10947   0038C0  6A44               	clrf	(?i2_sprintf+5)^0,c
 10948   0038C2  ECC9  F021         	call	i2_sprintf	;wreg free
 10949                           
 10950                           ;ECU_Layer/Chr_LCD/ecu_chr_lcd.c: 336:         while (Temp_str[cnt] != '\0'){
 10951   0038C6  EF74  F01C         	goto	i2l7817
 10952   0038CA                     i2l7813:
 10953                           
 10954                           ;ECU_Layer/Chr_LCD/ecu_chr_lcd.c: 337:             str[cnt] = Temp_str [cnt];
 10955   0038CA  0E55               	movlw	low i2convert_uint8_to_string@Temp_str
 10956   0038CC  245A               	addwf	i2convert_uint8_to_string@cnt^0,w,c
 10957   0038CE  6ED9               	movwf	fsr2l,c
 10958   0038D0  6ADA               	clrf	fsr2h,c
 10959   0038D2  0E00               	movlw	high i2convert_uint8_to_string@Temp_str
 10960   0038D4  22DA               	addwfc	fsr2h,f,c
 10961   0038D6  505A               	movf	i2convert_uint8_to_string@cnt^0,w,c
 10962   0038D8  2453               	addwf	i2convert_uint8_to_string@str^0,w,c
 10963   0038DA  6EE1               	movwf	fsr1l,c
 10964   0038DC  0E00               	movlw	0
 10965   0038DE  2054               	addwfc	(i2convert_uint8_to_string@str+1)^0,w,c
 10966   0038E0  6EE2               	movwf	fsr1h,c
 10967   0038E2  CFDF FFE7          	movff	indf2,indf1
 10968   0038E6                     
 10969                           ;ECU_Layer/Chr_LCD/ecu_chr_lcd.c: 338:             cnt++;
 10970   0038E6  2A5A               	incf	i2convert_uint8_to_string@cnt^0,f,c
 10971   0038E8                     i2l7817:
 10972                           
 10973                           ;ECU_Layer/Chr_LCD/ecu_chr_lcd.c: 336:         while (Temp_str[cnt] != '\0'){
 10974   0038E8  0E55               	movlw	low i2convert_uint8_to_string@Temp_str
 10975   0038EA  245A               	addwf	i2convert_uint8_to_string@cnt^0,w,c
 10976   0038EC  6ED9               	movwf	fsr2l,c
 10977   0038EE  6ADA               	clrf	fsr2h,c
 10978   0038F0  0E00               	movlw	high i2convert_uint8_to_string@Temp_str
 10979   0038F2  22DA               	addwfc	fsr2h,f,c
 10980   0038F4  50DF               	movf	indf2,w,c
 10981   0038F6  A4D8               	btfss	status,2,c
 10982   0038F8  EF80  F01C         	goto	i2u779_41
 10983   0038FC  EF82  F01C         	goto	i2u779_40
 10984   003900                     i2u779_41:
 10985   003900  EF65  F01C         	goto	i2l7813
 10986   003904                     i2u779_40:
 10987   003904                     
 10988                           ;ECU_Layer/Chr_LCD/ecu_chr_lcd.c: 340:         str[3] = '\0';
 10989   003904  EE20 F003          	lfsr	2,3
 10990   003908  5053               	movf	i2convert_uint8_to_string@str^0,w,c
 10991   00390A  26D9               	addwf	fsr2l,f,c
 10992   00390C  5054               	movf	(i2convert_uint8_to_string@str+1)^0,w,c
 10993   00390E  22DA               	addwfc	fsr2h,f,c
 10994   003910  6ADF               	clrf	indf2,c
 10995   003912                     i2l168:
 10996   003912  0012               	return		;funcret
 10997   003914                     __end_ofi2_convert_uint8_to_string:
 10998                           	callstack 0
 10999                           
 11000 ;; *************** function i2_sprintf *****************
 11001 ;; Defined at:
 11002 ;;		line 9 in file "C:\Program Files\Microchip\xc8\v2.41\pic\sources\c99\common\nf_sprintf.c"
 11003 ;; Parameters:    Size  Location     Type
 11004 ;;  s               2   62[COMRAM] PTR unsigned char 
 11005 ;;		 -> i2convert_uint8_to_string@Temp_str(4), convert_uint32_to_string@Temp_str(11), convert_uint16_to_string@Temp_str(
      +6), convert_uint8_to_string@Temp_str(4), 
 11006 ;;  fmt             2   64[COMRAM] PTR const unsigned char 
 11007 ;;		 -> STR_3(3), STR_2(3), STR_1(3), 
 11008 ;; Auto vars:     Size  Location     Type
 11009 ;;  f              12   70[COMRAM] struct _IO_FILE
 11010 ;;  ap              2   68[COMRAM] PTR void [1]
 11011 ;;		 -> ?i2_sprintf(2), ?_sprintf(2), 
 11012 ;;  ret             2    0        int 
 11013 ;; Return value:  Size  Location     Type
 11014 ;;                  2   62[COMRAM] int 
 11015 ;; Registers used:
 11016 ;;		wreg, fsr1l, fsr1h, fsr2l, fsr2h, status,2, status,0, tblptrl, tblptrh, tblptru, cstack
 11017 ;; Tracked objects:
 11018 ;;		On entry : 0/0
 11019 ;;		On exit  : 0/0
 11020 ;;		Unchanged: 0/0
 11021 ;; Data sizes:     COMRAM   BANK0   BANK1   BANK2   BANK3   BANK4   BANK5   BANK6   BANK7   BANK8   BANK9  BANK10  BANK1
      +1  BANK12  BANK13  BANK14  BANK15
 11022 ;;      Params:         6       0       0       0       0       0       0       0       0       0       0       0       
      +0       0       0       0       0
 11023 ;;      Locals:        14       0       0       0       0       0       0       0       0       0       0       0       
      +0       0       0       0       0
 11024 ;;      Temps:          0       0       0       0       0       0       0       0       0       0       0       0       
      +0       0       0       0       0
 11025 ;;      Totals:        20       0       0       0       0       0       0       0       0       0       0       0       
      +0       0       0       0       0
 11026 ;;Total ram usage:       20 bytes
 11027 ;; Hardware stack levels used: 1
 11028 ;; Hardware stack levels required when called: 7
 11029 ;; This function calls:
 11030 ;;		i2_vfprintf
 11031 ;; This function is called by:
 11032 ;;		i2_convert_uint8_to_string
 11033 ;; This function uses a non-reentrant model
 11034 ;;
 11035                           
 11036                           	psect	text72
 11037   004392                     __ptext72:
 11038                           	callstack 0
 11039   004392                     i2_sprintf:
 11040                           	callstack 2
 11041   004392  0E43               	movlw	low (?i2_sprintf+4)
 11042   004394  6E45               	movwf	i2sprintf@ap^0,c
 11043   004396  0E00               	movlw	high (?i2_sprintf+4)
 11044   004398  6E46               	movwf	(i2sprintf@ap+1)^0,c
 11045   00439A  C03F  F047         	movff	i2sprintf@s,i2sprintf@f
 11046   00439E  C040  F048         	movff	i2sprintf@s+1,i2sprintf@f+1
 11047   0043A2  0E00               	movlw	0
 11048   0043A4  6E4B               	movwf	(i2sprintf@f+4)^0,c
 11049   0043A6  0E00               	movlw	0
 11050   0043A8  6E4A               	movwf	(i2sprintf@f+3)^0,c
 11051   0043AA  0E00               	movlw	0
 11052   0043AC  6E52               	movwf	(i2sprintf@f+11)^0,c
 11053   0043AE  0E00               	movlw	0
 11054   0043B0  6E51               	movwf	(i2sprintf@f+10)^0,c
 11055   0043B2  0E47               	movlw	low i2sprintf@f
 11056   0043B4  6E37               	movwf	i2vfprintf@fp^0,c
 11057   0043B6  0E00               	movlw	high i2sprintf@f
 11058   0043B8  6E38               	movwf	(i2vfprintf@fp+1)^0,c
 11059   0043BA  C041  F039         	movff	i2sprintf@fmt,i2vfprintf@fmt
 11060   0043BE  C042  F03A         	movff	i2sprintf@fmt+1,i2vfprintf@fmt+1
 11061   0043C2  0E45               	movlw	low i2sprintf@ap
 11062   0043C4  6E3B               	movwf	i2vfprintf@ap^0,c
 11063   0043C6  0E00               	movlw	high i2sprintf@ap
 11064   0043C8  6E3C               	movwf	(i2vfprintf@ap+1)^0,c
 11065   0043CA  EC54  F021         	call	i2_vfprintf	;wreg free
 11066   0043CE  504A               	movf	(i2sprintf@f+3)^0,w,c
 11067   0043D0  243F               	addwf	i2sprintf@s^0,w,c
 11068   0043D2  6ED9               	movwf	fsr2l,c
 11069   0043D4  504B               	movf	(i2sprintf@f+4)^0,w,c
 11070   0043D6  2040               	addwfc	(i2sprintf@s+1)^0,w,c
 11071   0043D8  6EDA               	movwf	fsr2h,c
 11072   0043DA  6ADF               	clrf	indf2,c
 11073   0043DC  0012               	return		;funcret
 11074   0043DE                     __end_ofi2_sprintf:
 11075                           	callstack 0
 11076                           
 11077 ;; *************** function i2_vfprintf *****************
 11078 ;; Defined at:
 11079 ;;		line 1546 in file "C:\Program Files\Microchip\xc8\v2.41\pic\sources\c99\common\doprnt.c"
 11080 ;; Parameters:    Size  Location     Type
 11081 ;;  fp              2   54[COMRAM] PTR struct _IO_FILE
 11082 ;;		 -> i2sprintf@f(12), sprintf@f(12), 
 11083 ;;  fmt             2   56[COMRAM] PTR const unsigned char 
 11084 ;;		 -> STR_3(3), STR_2(3), STR_1(3), 
 11085 ;;  ap              2   58[COMRAM] PTR PTR void 
 11086 ;;		 -> i2sprintf@ap(2), sprintf@ap(2), 
 11087 ;; Auto vars:     Size  Location     Type
 11088 ;;  cfmt            2   60[COMRAM] PTR unsigned char 
 11089 ;;		 -> STR_3(3), STR_2(3), STR_1(3), 
 11090 ;; Return value:  Size  Location     Type
 11091 ;;                  2   54[COMRAM] int 
 11092 ;; Registers used:
 11093 ;;		wreg, fsr1l, fsr1h, fsr2l, fsr2h, status,2, status,0, tblptrl, tblptrh, tblptru, cstack
 11094 ;; Tracked objects:
 11095 ;;		On entry : 0/0
 11096 ;;		On exit  : 0/0
 11097 ;;		Unchanged: 0/0
 11098 ;; Data sizes:     COMRAM   BANK0   BANK1   BANK2   BANK3   BANK4   BANK5   BANK6   BANK7   BANK8   BANK9  BANK10  BANK1
      +1  BANK12  BANK13  BANK14  BANK15
 11099 ;;      Params:         6       0       0       0       0       0       0       0       0       0       0       0       
      +0       0       0       0       0
 11100 ;;      Locals:         2       0       0       0       0       0       0       0       0       0       0       0       
      +0       0       0       0       0
 11101 ;;      Temps:          0       0       0       0       0       0       0       0       0       0       0       0       
      +0       0       0       0       0
 11102 ;;      Totals:         8       0       0       0       0       0       0       0       0       0       0       0       
      +0       0       0       0       0
 11103 ;;Total ram usage:        8 bytes
 11104 ;; Hardware stack levels used: 1
 11105 ;; Hardware stack levels required when called: 6
 11106 ;; This function calls:
 11107 ;;		i2_vfpfcnvrt
 11108 ;; This function is called by:
 11109 ;;		i2_sprintf
 11110 ;; This function uses a non-reentrant model
 11111 ;;
 11112                           
 11113                           	psect	text73
 11114   0042A8                     __ptext73:
 11115                           	callstack 0
 11116   0042A8                     i2_vfprintf:
 11117                           	callstack 2
 11118   0042A8                     
 11119                           ;C:\Program Files\Microchip\xc8\v2.41\pic\sources\c99\common\doprnt.c: 1546: int vfprint
      +                          f(FILE *fp, const char *fmt, va_list ap);C:\Program Files\Microchip\xc8\v2.41\pic\source
      +                          s\c99\common\doprnt.c: 1547: {;C:\Program Files\Microchip\xc8\v2.41\pic\sources\c99\comm
      +                          on\doprnt.c: 1549:     char *cfmt;;C:\Program Files\Microchip\xc8\v2.41\pic\sources\c99\
      +                          common\doprnt.c: 1551:     cfmt = (char *)fmt;
 11120   0042A8  C039  F03D         	movff	i2vfprintf@fmt,i2vfprintf@cfmt
 11121   0042AC  C03A  F03E         	movff	i2vfprintf@fmt+1,i2vfprintf@cfmt+1
 11122                           
 11123                           ;C:\Program Files\Microchip\xc8\v2.41\pic\sources\c99\common\doprnt.c: 1555:     while (
      +                          *cfmt) {
 11124   0042B0  EF68  F021         	goto	i2l7415
 11125   0042B4                     i2l7413:
 11126                           
 11127                           ;C:\Program Files\Microchip\xc8\v2.41\pic\sources\c99\common\doprnt.c: 1559:    vfpfcnvr
      +                          t(fp, &cfmt, ap);
 11128   0042B4  C037  F029         	movff	i2vfprintf@fp,i2vfpfcnvrt@fp
 11129   0042B8  C038  F02A         	movff	i2vfprintf@fp+1,i2vfpfcnvrt@fp+1
 11130   0042BC  0E3D               	movlw	low i2vfprintf@cfmt
 11131   0042BE  6E2B               	movwf	i2vfpfcnvrt@fmt^0,c
 11132   0042C0  0E00               	movlw	high i2vfprintf@cfmt
 11133   0042C2  6E2C               	movwf	(i2vfpfcnvrt@fmt+1)^0,c
 11134   0042C4  C03B  F02D         	movff	i2vfprintf@ap,i2vfpfcnvrt@ap
 11135   0042C8  C03C  F02E         	movff	i2vfprintf@ap+1,i2vfpfcnvrt@ap+1
 11136   0042CC  EC52  F017         	call	i2_vfpfcnvrt	;wreg free
 11137   0042D0                     i2l7415:
 11138                           
 11139                           ;C:\Program Files\Microchip\xc8\v2.41\pic\sources\c99\common\doprnt.c: 1555:     while (
      +                          *cfmt) {
 11140   0042D0  C03D  FFF6         	movff	i2vfprintf@cfmt,tblptrl
 11141   0042D4  C03E  FFF7         	movff	i2vfprintf@cfmt+1,tblptrh
 11142   0042D8                     	if	1	;Program memory is < 0x10000, tblptru is always zero
 11143   0042D8  6AF8               	clrf	tblptru,c
 11144   0042DA                     	endif
 11145   0042DA                     	if	0	;tblptru may be non-zero
 11146   0042DA                     	endif
 11147   0042DA  0008               	tblrd		*
 11148   0042DC  50F5               	movf	tablat,w,c
 11149   0042DE  0900               	iorlw	0
 11150   0042E0  A4D8               	btfss	status,2,c
 11151   0042E2  EF75  F021         	goto	i2u727_41
 11152   0042E6  EF77  F021         	goto	i2u727_40
 11153   0042EA                     i2u727_41:
 11154   0042EA  EF5A  F021         	goto	i2l7413
 11155   0042EE                     i2u727_40:
 11156   0042EE                     
 11157                           ;C:\Program Files\Microchip\xc8\v2.41\pic\sources\c99\common\doprnt.c: 1564:  return 0;
 11158   0042EE  0E00               	movlw	0
 11159   0042F0  6E38               	movwf	(?i2_vfprintf+1)^0,c
 11160   0042F2  0E00               	movlw	0
 11161   0042F4  6E37               	movwf	?i2_vfprintf^0,c
 11162   0042F6  0012               	return		;funcret
 11163   0042F8                     __end_ofi2_vfprintf:
 11164                           	callstack 0
 11165                           
 11166 ;; *************** function i2_vfpfcnvrt *****************
 11167 ;; Defined at:
 11168 ;;		line 1048 in file "C:\Program Files\Microchip\xc8\v2.41\pic\sources\c99\common\doprnt.c"
 11169 ;; Parameters:    Size  Location     Type
 11170 ;;  fp              2   40[COMRAM] PTR struct _IO_FILE
 11171 ;;		 -> i2sprintf@f(12), sprintf@f(12), 
 11172 ;;  fmt             2   42[COMRAM] PTR PTR unsigned char 
 11173 ;;		 -> i2vfprintf@cfmt(2), vfprintf@cfmt(2), 
 11174 ;;  ap              2   44[COMRAM] PTR PTR void 
 11175 ;;		 -> i2sprintf@ap(2), sprintf@ap(2), 
 11176 ;; Auto vars:     Size  Location     Type
 11177 ;;  convarg         4   48[COMRAM] struct .
 11178 ;;  cp              2   52[COMRAM] PTR unsigned char 
 11179 ;;		 -> STR_3(3), STR_2(3), STR_1(3), 
 11180 ;;  i               2    0        int 
 11181 ;;  done            2    0        int 
 11182 ;;  c               1    0        unsigned char 
 11183 ;; Return value:  Size  Location     Type
 11184 ;;                  1    wreg      void 
 11185 ;; Registers used:
 11186 ;;		wreg, fsr1l, fsr1h, fsr2l, fsr2h, status,2, status,0, tblptrl, tblptrh, tblptru, cstack
 11187 ;; Tracked objects:
 11188 ;;		On entry : 0/0
 11189 ;;		On exit  : 0/0
 11190 ;;		Unchanged: 0/0
 11191 ;; Data sizes:     COMRAM   BANK0   BANK1   BANK2   BANK3   BANK4   BANK5   BANK6   BANK7   BANK8   BANK9  BANK10  BANK1
      +1  BANK12  BANK13  BANK14  BANK15
 11192 ;;      Params:         6       0       0       0       0       0       0       0       0       0       0       0       
      +0       0       0       0       0
 11193 ;;      Locals:         6       0       0       0       0       0       0       0       0       0       0       0       
      +0       0       0       0       0
 11194 ;;      Temps:          2       0       0       0       0       0       0       0       0       0       0       0       
      +0       0       0       0       0
 11195 ;;      Totals:        14       0       0       0       0       0       0       0       0       0       0       0       
      +0       0       0       0       0
 11196 ;;Total ram usage:       14 bytes
 11197 ;; Hardware stack levels used: 1
 11198 ;; Hardware stack levels required when called: 5
 11199 ;; This function calls:
 11200 ;;		i2_dtoa
 11201 ;;		i2_fputc
 11202 ;; This function is called by:
 11203 ;;		i2_vfprintf
 11204 ;; This function uses a non-reentrant model
 11205 ;;
 11206                           
 11207                           	psect	text74
 11208   002EA4                     __ptext74:
 11209                           	callstack 0
 11210   002EA4                     i2_vfpfcnvrt:
 11211                           	callstack 2
 11212   002EA4                     
 11213                           ;C:\Program Files\Microchip\xc8\v2.41\pic\sources\c99\common\doprnt.c: 1048: vfpfcnvrt(F
      +                          ILE *fp, char *fmt[], va_list ap);C:\Program Files\Microchip\xc8\v2.41\pic\sources\c99\c
      +                          ommon\doprnt.c: 1049: {;C:\Program Files\Microchip\xc8\v2.41\pic\sources\c99\common\dopr
      +                          nt.c: 1050:     char c, *cp;;C:\Program Files\Microchip\xc8\v2.41\pic\sources\c99\common
      +                          \doprnt.c: 1051:     int done, i;;C:\Program Files\Microchip\xc8\v2.41\pic\sources\c99\c
      +                          ommon\doprnt.c: 1059:  } convarg;;C:\Program Files\Microchip\xc8\v2.41\pic\sources\c99\c
      +                          ommon\doprnt.c: 1062:     if ((*fmt)[0] == '%') {
 11214   002EA4  C02B  FFD9         	movff	i2vfpfcnvrt@fmt,fsr2l
 11215   002EA8  C02C  FFDA         	movff	i2vfpfcnvrt@fmt+1,fsr2h
 11216   002EAC  CFDE FFF6          	movff	postinc2,tblptrl
 11217   002EB0  CFDD FFF7          	movff	postdec2,tblptrh
 11218   002EB4                     	if	1	;Program memory is < 0x10000, tblptru is always zero
 11219   002EB4  6AF8               	clrf	tblptru,c
 11220   002EB6                     	endif
 11221   002EB6                     	if	0	;tblptru may be non-zero
 11222   002EB6                     	endif
 11223   002EB6  0008               	tblrd		*
 11224   002EB8  50F5               	movf	tablat,w,c
 11225   002EBA  0A25               	xorlw	37
 11226   002EBC  A4D8               	btfss	status,2,c
 11227   002EBE  EF63  F017         	goto	i2u635_41
 11228   002EC2  EF65  F017         	goto	i2u635_40
 11229   002EC6                     i2u635_41:
 11230   002EC6  EFD3  F017         	goto	i2l6887
 11231   002ECA                     i2u635_40:
 11232   002ECA                     
 11233                           ;C:\Program Files\Microchip\xc8\v2.41\pic\sources\c99\common\doprnt.c: 1063:         ++*
      +                          fmt;
 11234   002ECA  C02B  FFD9         	movff	i2vfpfcnvrt@fmt,fsr2l
 11235   002ECE  C02C  FFDA         	movff	i2vfpfcnvrt@fmt+1,fsr2h
 11236   002ED2  2ADE               	incf	postinc2,f,c
 11237   002ED4  0E00               	movlw	0
 11238   002ED6  22DD               	addwfc	postdec2,f,c
 11239   002ED8                     
 11240                           ;C:\Program Files\Microchip\xc8\v2.41\pic\sources\c99\common\doprnt.c: 1065:         fla
      +                          gs = width = 0;
 11241   002ED8  0E00               	movlw	0
 11242   002EDA  0101               	movlb	1	; () banked
 11243   002EDC  6F1A               	movwf	(_width+1)& (0+255),b
 11244   002EDE  0E00               	movlw	0
 11245   002EE0  6F19               	movwf	_width& (0+255),b
 11246   002EE2  C119  F0FD         	movff	_width,_flags
 11247   002EE6                     
 11248                           ; BSR set to: 1
 11249                           ;C:\Program Files\Microchip\xc8\v2.41\pic\sources\c99\common\doprnt.c: 1066:         pre
      +                          c = -1;
 11250   002EE6  0100               	movlb	0	; () banked
 11251   002EE8  69EF               	setf	_prec& (0+255),b
 11252   002EEA  69F0               	setf	(_prec+1)& (0+255),b
 11253   002EEC                     
 11254                           ; BSR set to: 0
 11255                           ;C:\Program Files\Microchip\xc8\v2.41\pic\sources\c99\common\doprnt.c: 1143:   cp = *fmt
      +                          ;
 11256   002EEC  C02B  FFD9         	movff	i2vfpfcnvrt@fmt,fsr2l
 11257   002EF0  C02C  FFDA         	movff	i2vfpfcnvrt@fmt+1,fsr2h
 11258   002EF4  CFDE F035          	movff	postinc2,i2vfpfcnvrt@cp
 11259   002EF8  CFDD F036          	movff	postdec2,i2vfpfcnvrt@cp+1
 11260   002EFC                     
 11261                           ; BSR set to: 0
 11262                           ;C:\Program Files\Microchip\xc8\v2.41\pic\sources\c99\common\doprnt.c: 1213:   if (*cp =
      +                          = 'd' || *cp == 'i') {
 11263   002EFC  C035  FFF6         	movff	i2vfpfcnvrt@cp,tblptrl
 11264   002F00  C036  FFF7         	movff	i2vfpfcnvrt@cp+1,tblptrh
 11265   002F04                     	if	1	;Program memory is < 0x10000, tblptru is always zero
 11266   002F04  6AF8               	clrf	tblptru,c
 11267   002F06                     	endif
 11268   002F06                     	if	0	;tblptru may be non-zero
 11269   002F06                     	endif
 11270   002F06  0008               	tblrd		*
 11271   002F08  50F5               	movf	tablat,w,c
 11272   002F0A  0A64               	xorlw	100
 11273   002F0C  B4D8               	btfsc	status,2,c
 11274   002F0E  EF8B  F017         	goto	i2u636_41
 11275   002F12  EF8D  F017         	goto	i2u636_40
 11276   002F16                     i2u636_41:
 11277   002F16  EF9C  F017         	goto	i2l6877
 11278   002F1A                     i2u636_40:
 11279   002F1A                     
 11280                           ; BSR set to: 0
 11281   002F1A  C035  FFF6         	movff	i2vfpfcnvrt@cp,tblptrl
 11282   002F1E  C036  FFF7         	movff	i2vfpfcnvrt@cp+1,tblptrh
 11283   002F22                     	if	1	;Program memory is < 0x10000, tblptru is always zero
 11284   002F22  6AF8               	clrf	tblptru,c
 11285   002F24                     	endif
 11286   002F24                     	if	0	;tblptru may be non-zero
 11287   002F24                     	endif
 11288   002F24  0008               	tblrd		*
 11289   002F26  50F5               	movf	tablat,w,c
 11290   002F28  0A69               	xorlw	105
 11291   002F2A  A4D8               	btfss	status,2,c
 11292   002F2C  EF9A  F017         	goto	i2u637_41
 11293   002F30  EF9C  F017         	goto	i2u637_40
 11294   002F34                     i2u637_41:
 11295   002F34  EFCA  F017         	goto	i2l6883
 11296   002F38                     i2u637_40:
 11297   002F38                     i2l6877:
 11298                           
 11299                           ; BSR set to: 0
 11300                           ;C:\Program Files\Microchip\xc8\v2.41\pic\sources\c99\common\doprnt.c: 1256:    convarg.
      +                          sint = (vfpf_sint_t)(int)(*(int *)__va_arg(*(int **)ap, (int)0));
 11301   002F38  C02D  FFD9         	movff	i2vfpfcnvrt@ap,fsr2l
 11302   002F3C  C02E  FFDA         	movff	i2vfpfcnvrt@ap+1,fsr2h
 11303   002F40  CFDF F02F          	movff	indf2,??i2_vfpfcnvrt
 11304   002F44  0E02               	movlw	2
 11305   002F46  26DE               	addwf	postinc2,f,c
 11306   002F48  CFDF F030          	movff	indf2,??i2_vfpfcnvrt+1
 11307   002F4C  0E00               	movlw	0
 11308   002F4E  22DD               	addwfc	postdec2,f,c
 11309   002F50  C02F  FFD9         	movff	??i2_vfpfcnvrt,fsr2l
 11310   002F54  C030  FFDA         	movff	??i2_vfpfcnvrt+1,fsr2h
 11311   002F58  CFDE F031          	movff	postinc2,i2vfpfcnvrt@convarg
 11312   002F5C  CFDD F032          	movff	postdec2,i2vfpfcnvrt@convarg+1
 11313                           
 11314                           ;C:\Program Files\Microchip\xc8\v2.41\pic\sources\c99\common\doprnt.c: 1258:    *fmt = c
      +                          p+1;
 11315   002F60  0E01               	movlw	1
 11316   002F62  2435               	addwf	i2vfpfcnvrt@cp^0,w,c
 11317   002F64  6E2F               	movwf	??i2_vfpfcnvrt^0,c
 11318   002F66  0E00               	movlw	0
 11319   002F68  2036               	addwfc	(i2vfpfcnvrt@cp+1)^0,w,c
 11320   002F6A  6E30               	movwf	(??i2_vfpfcnvrt+1)^0,c
 11321   002F6C  C02B  FFD9         	movff	i2vfpfcnvrt@fmt,fsr2l
 11322   002F70  C02C  FFDA         	movff	i2vfpfcnvrt@fmt+1,fsr2h
 11323   002F74  C02F  FFDE         	movff	??i2_vfpfcnvrt,postinc2
 11324   002F78  C030  FFDD         	movff	??i2_vfpfcnvrt+1,postdec2
 11325   002F7C                     
 11326                           ; BSR set to: 0
 11327                           ;C:\Program Files\Microchip\xc8\v2.41\pic\sources\c99\common\doprnt.c: 1259:    return (
      +                          void) dtoa(fp, convarg.sint);;	Return value of i2_vfpfcnvrt is never used
 11328   002F7C  C029  F01C         	movff	i2vfpfcnvrt@fp,i2dtoa@fp
 11329   002F80  C02A  F01D         	movff	i2vfpfcnvrt@fp+1,i2dtoa@fp+1
 11330   002F84  C031  F01E         	movff	i2vfpfcnvrt@convarg,i2dtoa@d
 11331   002F88  C032  F01F         	movff	i2vfpfcnvrt@convarg+1,i2dtoa@d+1
 11332   002F8C  ECCF  F011         	call	i2_dtoa	;wreg free
 11333   002F90  EFE8  F017         	goto	i2l2309
 11334   002F94                     i2l6883:
 11335                           
 11336                           ;C:\Program Files\Microchip\xc8\v2.41\pic\sources\c99\common\doprnt.c: 1535:         ++*
      +                          fmt;
 11337   002F94  C02B  FFD9         	movff	i2vfpfcnvrt@fmt,fsr2l
 11338   002F98  C02C  FFDA         	movff	i2vfpfcnvrt@fmt+1,fsr2h
 11339   002F9C  2ADE               	incf	postinc2,f,c
 11340   002F9E  0E00               	movlw	0
 11341   002FA0  22DD               	addwfc	postdec2,f,c
 11342   002FA2  EFE8  F017         	goto	i2l2309
 11343   002FA6                     i2l6887:
 11344                           
 11345                           ;C:\Program Files\Microchip\xc8\v2.41\pic\sources\c99\common\doprnt.c: 1540:     fputc((
      +                          int)(*fmt)[0], fp);
 11346   002FA6  C02B  FFD9         	movff	i2vfpfcnvrt@fmt,fsr2l
 11347   002FAA  C02C  FFDA         	movff	i2vfpfcnvrt@fmt+1,fsr2h
 11348   002FAE  CFDE FFF6          	movff	postinc2,tblptrl
 11349   002FB2  CFDD FFF7          	movff	postdec2,tblptrh
 11350   002FB6                     	if	1	;Program memory is < 0x10000, tblptru is always zero
 11351   002FB6  6AF8               	clrf	tblptru,c
 11352   002FB8                     	endif
 11353   002FB8                     	if	0	;tblptru may be non-zero
 11354   002FB8                     	endif
 11355   002FB8  0008               	tblrd		*
 11356   002FBA  50F5               	movf	tablat,w,c
 11357   002FBC  6E01               	movwf	i2fputc@c^0,c
 11358   002FBE  6A02               	clrf	(i2fputc@c+1)^0,c
 11359   002FC0  C029  F003         	movff	i2vfpfcnvrt@fp,i2fputc@fp
 11360   002FC4  C02A  F004         	movff	i2vfpfcnvrt@fp+1,i2fputc@fp+1
 11361   002FC8  EC53  F01A         	call	i2_fputc	;wreg free
 11362   002FCC  EFCA  F017         	goto	i2l6883
 11363   002FD0                     i2l2309:
 11364   002FD0  0012               	return		;funcret
 11365   002FD2                     __end_ofi2_vfpfcnvrt:
 11366                           	callstack 0
 11367                           
 11368 ;; *************** function i2_dtoa *****************
 11369 ;; Defined at:
 11370 ;;		line 470 in file "C:\Program Files\Microchip\xc8\v2.41\pic\sources\c99\common\doprnt.c"
 11371 ;; Parameters:    Size  Location     Type
 11372 ;;  fp              2   27[COMRAM] PTR struct _IO_FILE
 11373 ;;		 -> i2sprintf@f(12), sprintf@f(12), 
 11374 ;;  d               2   29[COMRAM] int 
 11375 ;; Auto vars:     Size  Location     Type
 11376 ;;  i               2   37[COMRAM] int 
 11377 ;;  w               2   35[COMRAM] int 
 11378 ;;  p               2   33[COMRAM] int 
 11379 ;;  s               1   39[COMRAM] unsigned char 
 11380 ;; Return value:  Size  Location     Type
 11381 ;;                  1    wreg      void 
 11382 ;; Registers used:
 11383 ;;		wreg, fsr1l, fsr1h, fsr2l, fsr2h, status,2, status,0, cstack
 11384 ;; Tracked objects:
 11385 ;;		On entry : 0/0
 11386 ;;		On exit  : 0/0
 11387 ;;		Unchanged: 0/0
 11388 ;; Data sizes:     COMRAM   BANK0   BANK1   BANK2   BANK3   BANK4   BANK5   BANK6   BANK7   BANK8   BANK9  BANK10  BANK1
      +1  BANK12  BANK13  BANK14  BANK15
 11389 ;;      Params:         4       0       0       0       0       0       0       0       0       0       0       0       
      +0       0       0       0       0
 11390 ;;      Locals:         9       0       0       0       0       0       0       0       0       0       0       0       
      +0       0       0       0       0
 11391 ;;      Temps:          0       0       0       0       0       0       0       0       0       0       0       0       
      +0       0       0       0       0
 11392 ;;      Totals:        13       0       0       0       0       0       0       0       0       0       0       0       
      +0       0       0       0       0
 11393 ;;Total ram usage:       13 bytes
 11394 ;; Hardware stack levels used: 1
 11395 ;; Hardware stack levels required when called: 4
 11396 ;; This function calls:
 11397 ;;		i2___awdiv
 11398 ;;		i2___awmod
 11399 ;;		i2_abs
 11400 ;;		i2_pad
 11401 ;; This function is called by:
 11402 ;;		i2_vfpfcnvrt
 11403 ;; This function uses a non-reentrant model
 11404 ;;
 11405                           
 11406                           	psect	text75
 11407   00239E                     __ptext75:
 11408                           	callstack 0
 11409   00239E                     i2_dtoa:
 11410                           	callstack 2
 11411   00239E                     
 11412                           ;C:\Program Files\Microchip\xc8\v2.41\pic\sources\c99\common\doprnt.c: 470: static void 
      +                          dtoa(FILE *fp, vfpf_sint_t d);C:\Program Files\Microchip\xc8\v2.41\pic\sources\c99\commo
      +                          n\doprnt.c: 471: {;C:\Program Files\Microchip\xc8\v2.41\pic\sources\c99\common\doprnt.c:
      +                           472:  char s;;C:\Program Files\Microchip\xc8\v2.41\pic\sources\c99\common\doprnt.c: 473
      +                          :     int i, p, w;;C:\Program Files\Microchip\xc8\v2.41\pic\sources\c99\common\doprnt.c:
      +                           476:     s = d < 0 ? 1 : 0;
 11413   00239E  BE1F               	btfsc	(i2dtoa@d+1)^0,7,c
 11414   0023A0  EFD4  F011         	goto	i2u612_41
 11415   0023A4  EFD7  F011         	goto	i2u612_40
 11416   0023A8                     i2u612_41:
 11417   0023A8  0E01               	movlw	1
 11418   0023AA  EFD8  F011         	goto	i2u613_40
 11419   0023AE                     i2u612_40:
 11420   0023AE  0E00               	movlw	0
 11421   0023B0                     i2u613_40:
 11422   0023B0  6E28               	movwf	i2dtoa@s^0,c
 11423   0023B2                     
 11424                           ;C:\Program Files\Microchip\xc8\v2.41\pic\sources\c99\common\doprnt.c: 477:     if (s) {
 11425   0023B2  5028               	movf	i2dtoa@s^0,w,c
 11426   0023B4  B4D8               	btfsc	status,2,c
 11427   0023B6  EFDF  F011         	goto	i2u614_41
 11428   0023BA  EFE1  F011         	goto	i2u614_40
 11429   0023BE                     i2u614_41:
 11430   0023BE  EFE5  F011         	goto	i2l6737
 11431   0023C2                     i2u614_40:
 11432   0023C2                     
 11433                           ;C:\Program Files\Microchip\xc8\v2.41\pic\sources\c99\common\doprnt.c: 478:         d = 
      +                          -d;
 11434   0023C2  6C1E               	negf	i2dtoa@d^0,c
 11435   0023C4  1E1F               	comf	(i2dtoa@d+1)^0,f,c
 11436   0023C6  B0D8               	btfsc	status,0,c
 11437   0023C8  2A1F               	incf	(i2dtoa@d+1)^0,f,c
 11438   0023CA                     i2l6737:
 11439                           
 11440                           ;C:\Program Files\Microchip\xc8\v2.41\pic\sources\c99\common\doprnt.c: 487:     p = (0 <
      +                          = prec) ? prec : 1;
 11441   0023CA  0100               	movlb	0	; () banked
 11442   0023CC  BFF0               	btfsc	(_prec+1)& (0+255),7,b
 11443   0023CE  EFED  F011         	goto	i2u615_40
 11444   0023D2  EFEB  F011         	goto	i2u615_41
 11445   0023D6                     i2u615_41:
 11446   0023D6  EFF3  F011         	goto	i2l2288
 11447   0023DA                     i2u615_40:
 11448   0023DA                     
 11449                           ; BSR set to: 0
 11450   0023DA  0E00               	movlw	0
 11451   0023DC  6E23               	movwf	(i2dtoa@p+1)^0,c
 11452   0023DE  0E01               	movlw	1
 11453   0023E0  6E22               	movwf	i2dtoa@p^0,c
 11454   0023E2  EFF7  F011         	goto	i2l2290
 11455   0023E6                     i2l2288:
 11456                           
 11457                           ; BSR set to: 0
 11458   0023E6  C0EF  F022         	movff	_prec,i2dtoa@p
 11459   0023EA  C0F0  F023         	movff	_prec+1,i2dtoa@p+1
 11460   0023EE                     i2l2290:
 11461                           
 11462                           ; BSR set to: 0
 11463                           ;C:\Program Files\Microchip\xc8\v2.41\pic\sources\c99\common\doprnt.c: 488:     w = widt
      +                          h;
 11464   0023EE  C119  F024         	movff	_width,i2dtoa@w
 11465   0023F2  C11A  F025         	movff	_width+1,i2dtoa@w+1
 11466   0023F6                     
 11467                           ; BSR set to: 0
 11468                           ;C:\Program Files\Microchip\xc8\v2.41\pic\sources\c99\common\doprnt.c: 489:     if (s
 11469   0023F6  5028               	movf	i2dtoa@s^0,w,c
 11470   0023F8  B4D8               	btfsc	status,2,c
 11471   0023FA  EF01  F012         	goto	i2u616_41
 11472   0023FE  EF03  F012         	goto	i2u616_40
 11473   002402                     i2u616_41:
 11474   002402  EF1A  F012         	goto	i2l2291
 11475   002406                     i2u616_40:
 11476   002406                     
 11477                           ; BSR set to: 0
 11478                           ;C:\Program Files\Microchip\xc8\v2.41\pic\sources\c99\common\doprnt.c: 493:     ) {;C:\P
      +                          rogram Files\Microchip\xc8\v2.41\pic\sources\c99\common\doprnt.c: 494:         --w;
 11479   002406  0624               	decf	i2dtoa@w^0,f,c
 11480   002408  A0D8               	btfss	status,0,c
 11481   00240A  0625               	decf	(i2dtoa@w+1)^0,f,c
 11482   00240C                     
 11483                           ; BSR set to: 0
 11484                           ;C:\Program Files\Microchip\xc8\v2.41\pic\sources\c99\common\doprnt.c: 495:   s = s ? '-
      +                          ' : '+';
 11485   00240C  5028               	movf	i2dtoa@s^0,w,c
 11486   00240E  A4D8               	btfss	status,2,c
 11487   002410  EF0C  F012         	goto	i2u617_41
 11488   002414  EF0E  F012         	goto	i2u617_40
 11489   002418                     i2u617_41:
 11490   002418  EF14  F012         	goto	i2l6749
 11491   00241C                     i2u617_40:
 11492   00241C                     
 11493                           ; BSR set to: 0
 11494   00241C  0E00               	movlw	0
 11495   00241E  6E21               	movwf	(i2_dtoa$3417+1)^0,c
 11496   002420  0E2B               	movlw	43
 11497   002422  6E20               	movwf	i2_dtoa$3417^0,c
 11498   002424  EF18  F012         	goto	i2l6751
 11499   002428                     i2l6749:
 11500                           
 11501                           ; BSR set to: 0
 11502   002428  0E00               	movlw	0
 11503   00242A  6E21               	movwf	(i2_dtoa$3417+1)^0,c
 11504   00242C  0E2D               	movlw	45
 11505   00242E  6E20               	movwf	i2_dtoa$3417^0,c
 11506   002430                     i2l6751:
 11507                           
 11508                           ; BSR set to: 0
 11509   002430  C020  F028         	movff	i2_dtoa$3417,i2dtoa@s
 11510   002434                     i2l2291:
 11511                           
 11512                           ; BSR set to: 0
 11513                           ;C:\Program Files\Microchip\xc8\v2.41\pic\sources\c99\common\doprnt.c: 505:     i = size
      +                          of(dbuf) - 1;
 11514   002434  0E00               	movlw	0
 11515   002436  6E27               	movwf	(i2dtoa@i+1)^0,c
 11516   002438  0E1F               	movlw	31
 11517   00243A  6E26               	movwf	i2dtoa@i^0,c
 11518   00243C                     
 11519                           ; BSR set to: 0
 11520                           ;C:\Program Files\Microchip\xc8\v2.41\pic\sources\c99\common\doprnt.c: 506:     dbuf[i] 
      +                          = '\0';
 11521   00243C  0E00               	movlw	0
 11522   00243E  0101               	movlb	1	; () banked
 11523   002440  6F56               	movwf	(_dbuf+31)& (0+255),b
 11524                           
 11525                           ;C:\Program Files\Microchip\xc8\v2.41\pic\sources\c99\common\doprnt.c: 507:     while (!
      +                          (i < 1) && (d || (0 < p)
 11526   002442  EF53  F012         	goto	i2l6765
 11527   002446                     i2l6755:
 11528                           
 11529                           ;C:\Program Files\Microchip\xc8\v2.41\pic\sources\c99\common\doprnt.c: 511:     )) {;C:\
      +                          Program Files\Microchip\xc8\v2.41\pic\sources\c99\common\doprnt.c: 512:         --i;
 11530   002446  0626               	decf	i2dtoa@i^0,f,c
 11531   002448  A0D8               	btfss	status,0,c
 11532   00244A  0627               	decf	(i2dtoa@i+1)^0,f,c
 11533   00244C                     
 11534                           ;C:\Program Files\Microchip\xc8\v2.41\pic\sources\c99\common\doprnt.c: 513:         dbuf
      +                          [i] = (char)((int)'0' + abs(d % 10));
 11535   00244C  0E37               	movlw	low _dbuf
 11536   00244E  2426               	addwf	i2dtoa@i^0,w,c
 11537   002450  6ED9               	movwf	fsr2l,c
 11538   002452  0E01               	movlw	high _dbuf
 11539   002454  2027               	addwfc	(i2dtoa@i+1)^0,w,c
 11540   002456  6EDA               	movwf	fsr2h,c
 11541   002458  C01E  F001         	movff	i2dtoa@d,i2___awmod@dividend
 11542   00245C  C01F  F002         	movff	i2dtoa@d+1,i2___awmod@dividend+1
 11543   002460  0E00               	movlw	0
 11544   002462  6E04               	movwf	(i2___awmod@divisor+1)^0,c
 11545   002464  0E0A               	movlw	10
 11546   002466  6E03               	movwf	i2___awmod@divisor^0,c
 11547   002468  EC8A  F01C         	call	i2___awmod	;wreg free
 11548   00246C  C001  F007         	movff	?i2___awmod,i2abs@a
 11549   002470  C002  F008         	movff	?i2___awmod+1,i2abs@a+1
 11550   002474  EC9D  F022         	call	i2_abs	;wreg free
 11551   002478  5007               	movf	?i2_abs^0,w,c
 11552   00247A  0F30               	addlw	48
 11553   00247C  6EDF               	movwf	indf2,c
 11554   00247E                     
 11555                           ;C:\Program Files\Microchip\xc8\v2.41\pic\sources\c99\common\doprnt.c: 514:         --p;
 11556   00247E  0622               	decf	i2dtoa@p^0,f,c
 11557   002480  A0D8               	btfss	status,0,c
 11558   002482  0623               	decf	(i2dtoa@p+1)^0,f,c
 11559   002484                     
 11560                           ;C:\Program Files\Microchip\xc8\v2.41\pic\sources\c99\common\doprnt.c: 515:         --w;
 11561   002484  0624               	decf	i2dtoa@w^0,f,c
 11562   002486  A0D8               	btfss	status,0,c
 11563   002488  0625               	decf	(i2dtoa@w+1)^0,f,c
 11564   00248A                     
 11565                           ;C:\Program Files\Microchip\xc8\v2.41\pic\sources\c99\common\doprnt.c: 516:         d = 
      +                          d / 10;
 11566   00248A  C01E  F001         	movff	i2dtoa@d,i2___awdiv@dividend
 11567   00248E  C01F  F002         	movff	i2dtoa@d+1,i2___awdiv@dividend+1
 11568   002492  0E00               	movlw	0
 11569   002494  6E04               	movwf	(i2___awdiv@divisor+1)^0,c
 11570   002496  0E0A               	movlw	10
 11571   002498  6E03               	movwf	i2___awdiv@divisor^0,c
 11572   00249A  EC1B  F01B         	call	i2___awdiv	;wreg free
 11573   00249E  C001  F01E         	movff	?i2___awdiv,i2dtoa@d
 11574   0024A2  C002  F01F         	movff	?i2___awdiv+1,i2dtoa@d+1
 11575   0024A6                     i2l6765:
 11576                           
 11577                           ;C:\Program Files\Microchip\xc8\v2.41\pic\sources\c99\common\doprnt.c: 507:     while (!
      +                          (i < 1) && (d || (0 < p)
 11578   0024A6  BE27               	btfsc	(i2dtoa@i+1)^0,7,c
 11579   0024A8  EF5E  F012         	goto	i2u618_41
 11580   0024AC  5027               	movf	(i2dtoa@i+1)^0,w,c
 11581   0024AE  E108               	bnz	i2u618_40
 11582   0024B0  0426               	decf	i2dtoa@i^0,w,c
 11583   0024B2  A0D8               	btfss	status,0,c
 11584   0024B4  EF5E  F012         	goto	i2u618_41
 11585   0024B8  EF60  F012         	goto	i2u618_40
 11586   0024BC                     i2u618_41:
 11587   0024BC  EF76  F012         	goto	i2l6771
 11588   0024C0                     i2u618_40:
 11589   0024C0  501E               	movf	i2dtoa@d^0,w,c
 11590   0024C2  101F               	iorwf	(i2dtoa@d+1)^0,w,c
 11591   0024C4  A4D8               	btfss	status,2,c
 11592   0024C6  EF67  F012         	goto	i2u619_41
 11593   0024CA  EF69  F012         	goto	i2u619_40
 11594   0024CE                     i2u619_41:
 11595   0024CE  EF23  F012         	goto	i2l6755
 11596   0024D2                     i2u619_40:
 11597   0024D2  BE23               	btfsc	(i2dtoa@p+1)^0,7,c
 11598   0024D4  EF76  F012         	goto	i2u620_40
 11599   0024D8  5023               	movf	(i2dtoa@p+1)^0,w,c
 11600   0024DA  E106               	bnz	i2u620_41
 11601   0024DC  0422               	decf	i2dtoa@p^0,w,c
 11602   0024DE  B0D8               	btfsc	status,0,c
 11603   0024E0  EF74  F012         	goto	i2u620_41
 11604   0024E4  EF76  F012         	goto	i2u620_40
 11605   0024E8                     i2u620_41:
 11606   0024E8  EF23  F012         	goto	i2l6755
 11607   0024EC                     i2u620_40:
 11608   0024EC                     i2l6771:
 11609                           
 11610                           ;C:\Program Files\Microchip\xc8\v2.41\pic\sources\c99\common\doprnt.c: 520:     if (s !=
      +                           0) {
 11611   0024EC  5028               	movf	i2dtoa@s^0,w,c
 11612   0024EE  B4D8               	btfsc	status,2,c
 11613   0024F0  EF7C  F012         	goto	i2u621_41
 11614   0024F4  EF7E  F012         	goto	i2u621_40
 11615   0024F8                     i2u621_41:
 11616   0024F8  EF89  F012         	goto	i2l6777
 11617   0024FC                     i2u621_40:
 11618   0024FC                     
 11619                           ;C:\Program Files\Microchip\xc8\v2.41\pic\sources\c99\common\doprnt.c: 521:         --i;
 11620   0024FC  0626               	decf	i2dtoa@i^0,f,c
 11621   0024FE  A0D8               	btfss	status,0,c
 11622   002500  0627               	decf	(i2dtoa@i+1)^0,f,c
 11623   002502                     
 11624                           ;C:\Program Files\Microchip\xc8\v2.41\pic\sources\c99\common\doprnt.c: 522:         dbuf
      +                          [i] = s;
 11625   002502  0E37               	movlw	low _dbuf
 11626   002504  2426               	addwf	i2dtoa@i^0,w,c
 11627   002506  6ED9               	movwf	fsr2l,c
 11628   002508  0E01               	movlw	high _dbuf
 11629   00250A  2027               	addwfc	(i2dtoa@i+1)^0,w,c
 11630   00250C  6EDA               	movwf	fsr2h,c
 11631   00250E  C028  FFDF         	movff	i2dtoa@s,indf2
 11632   002512                     i2l6777:
 11633                           
 11634                           ;C:\Program Files\Microchip\xc8\v2.41\pic\sources\c99\common\doprnt.c: 526:     return (
      +                          void) pad(fp, &dbuf[i], w);
 11635   002512  C01C  F011         	movff	i2dtoa@fp,i2pad@fp
 11636   002516  C01D  F012         	movff	i2dtoa@fp+1,i2pad@fp+1
 11637   00251A  0E37               	movlw	low _dbuf
 11638   00251C  2426               	addwf	i2dtoa@i^0,w,c
 11639   00251E  6E13               	movwf	i2pad@buf^0,c
 11640   002520  0E01               	movlw	high _dbuf
 11641   002522  2027               	addwfc	(i2dtoa@i+1)^0,w,c
 11642   002524  6E14               	movwf	(i2pad@buf+1)^0,c
 11643   002526  C024  F015         	movff	i2dtoa@w,i2pad@p
 11644   00252A  C025  F016         	movff	i2dtoa@w+1,i2pad@p+1
 11645   00252E  EC43  F01F         	call	i2_pad	;wreg free
 11646   002532  0012               	return		;funcret
 11647   002534                     __end_ofi2_dtoa:
 11648                           	callstack 0
 11649                           
 11650 ;; *************** function i2_pad *****************
 11651 ;; Defined at:
 11652 ;;		line 152 in file "C:\Program Files\Microchip\xc8\v2.41\pic\sources\c99\common\doprnt.c"
 11653 ;; Parameters:    Size  Location     Type
 11654 ;;  fp              2   16[COMRAM] PTR struct _IO_FILE
 11655 ;;		 -> i2sprintf@f(12), sprintf@f(12), 
 11656 ;;  buf             2   18[COMRAM] PTR unsigned char 
 11657 ;;		 -> dbuf(32), 
 11658 ;;  p               2   20[COMRAM] int 
 11659 ;; Auto vars:     Size  Location     Type
 11660 ;;  w               2   25[COMRAM] int 
 11661 ;;  i               2   23[COMRAM] int 
 11662 ;; Return value:  Size  Location     Type
 11663 ;;                  1    wreg      void 
 11664 ;; Registers used:
 11665 ;;		wreg, fsr1l, fsr1h, fsr2l, fsr2h, status,2, status,0, cstack
 11666 ;; Tracked objects:
 11667 ;;		On entry : 0/0
 11668 ;;		On exit  : 0/0
 11669 ;;		Unchanged: 0/0
 11670 ;; Data sizes:     COMRAM   BANK0   BANK1   BANK2   BANK3   BANK4   BANK5   BANK6   BANK7   BANK8   BANK9  BANK10  BANK1
      +1  BANK12  BANK13  BANK14  BANK15
 11671 ;;      Params:         6       0       0       0       0       0       0       0       0       0       0       0       
      +0       0       0       0       0
 11672 ;;      Locals:         4       0       0       0       0       0       0       0       0       0       0       0       
      +0       0       0       0       0
 11673 ;;      Temps:          1       0       0       0       0       0       0       0       0       0       0       0       
      +0       0       0       0       0
 11674 ;;      Totals:        11       0       0       0       0       0       0       0       0       0       0       0       
      +0       0       0       0       0
 11675 ;;Total ram usage:       11 bytes
 11676 ;; Hardware stack levels used: 1
 11677 ;; Hardware stack levels required when called: 3
 11678 ;; This function calls:
 11679 ;;		i2_fputc
 11680 ;;		i2_fputs
 11681 ;; This function is called by:
 11682 ;;		i2_dtoa
 11683 ;; This function uses a non-reentrant model
 11684 ;;
 11685                           
 11686                           	psect	text76
 11687   003E86                     __ptext76:
 11688                           	callstack 0
 11689   003E86                     i2_pad:
 11690                           	callstack 2
 11691   003E86                     
 11692                           ;C:\Program Files\Microchip\xc8\v2.41\pic\sources\c99\common\doprnt.c: 152: static void 
      +                          pad(FILE *fp, char *buf, int p);C:\Program Files\Microchip\xc8\v2.41\pic\sources\c99\com
      +                          mon\doprnt.c: 153: {;C:\Program Files\Microchip\xc8\v2.41\pic\sources\c99\common\doprnt.
      +                          c: 154:     int i, w;;C:\Program Files\Microchip\xc8\v2.41\pic\sources\c99\common\doprnt
      +                          .c: 164:     w = (p < 0) ? 0 : p;
 11693   003E86  BE16               	btfsc	(i2pad@p+1)^0,7,c
 11694   003E88  EF48  F01F         	goto	i2u599_41
 11695   003E8C  EF4A  F01F         	goto	i2u599_40
 11696   003E90                     i2u599_41:
 11697   003E90  EF50  F01F         	goto	i2l6667
 11698   003E94                     i2u599_40:
 11699   003E94  C015  F01A         	movff	i2pad@p,i2pad@w
 11700   003E98  C016  F01B         	movff	i2pad@p+1,i2pad@w+1
 11701   003E9C  EF54  F01F         	goto	i2l2279
 11702   003EA0                     i2l6667:
 11703   003EA0  0E00               	movlw	0
 11704   003EA2  6E1B               	movwf	(i2pad@w+1)^0,c
 11705   003EA4  0E00               	movlw	0
 11706   003EA6  6E1A               	movwf	i2pad@w^0,c
 11707   003EA8                     i2l2279:
 11708                           
 11709                           ;C:\Program Files\Microchip\xc8\v2.41\pic\sources\c99\common\doprnt.c: 165:     i = 0;
 11710   003EA8  0E00               	movlw	0
 11711   003EAA  6E19               	movwf	(i2pad@i+1)^0,c
 11712   003EAC  0E00               	movlw	0
 11713   003EAE  6E18               	movwf	i2pad@i^0,c
 11714                           
 11715                           ;C:\Program Files\Microchip\xc8\v2.41\pic\sources\c99\common\doprnt.c: 166:     while (i
      +                           < w) {
 11716   003EB0  EF66  F01F         	goto	i2l6673
 11717   003EB4                     i2l6669:
 11718                           
 11719                           ;C:\Program Files\Microchip\xc8\v2.41\pic\sources\c99\common\doprnt.c: 167:         fput
      +                          c(' ', fp);
 11720   003EB4  0E00               	movlw	0
 11721   003EB6  6E02               	movwf	(i2fputc@c+1)^0,c
 11722   003EB8  0E20               	movlw	32
 11723   003EBA  6E01               	movwf	i2fputc@c^0,c
 11724   003EBC  C011  F003         	movff	i2pad@fp,i2fputc@fp
 11725   003EC0  C012  F004         	movff	i2pad@fp+1,i2fputc@fp+1
 11726   003EC4  EC53  F01A         	call	i2_fputc	;wreg free
 11727   003EC8                     
 11728                           ;C:\Program Files\Microchip\xc8\v2.41\pic\sources\c99\common\doprnt.c: 168:         ++i;
 11729   003EC8  4A18               	infsnz	i2pad@i^0,f,c
 11730   003ECA  2A19               	incf	(i2pad@i+1)^0,f,c
 11731   003ECC                     i2l6673:
 11732                           
 11733                           ;C:\Program Files\Microchip\xc8\v2.41\pic\sources\c99\common\doprnt.c: 166:     while (i
      +                           < w) {
 11734   003ECC  501A               	movf	i2pad@w^0,w,c
 11735   003ECE  5C18               	subwf	i2pad@i^0,w,c
 11736   003ED0  5019               	movf	(i2pad@i+1)^0,w,c
 11737   003ED2  0A80               	xorlw	128
 11738   003ED4  6E17               	movwf	??i2_pad^0,c
 11739   003ED6  501B               	movf	(i2pad@w+1)^0,w,c
 11740   003ED8  0A80               	xorlw	128
 11741   003EDA  5817               	subwfb	??i2_pad^0,w,c
 11742   003EDC  A0D8               	btfss	status,0,c
 11743   003EDE  EF73  F01F         	goto	i2u600_41
 11744   003EE2  EF75  F01F         	goto	i2u600_40
 11745   003EE6                     i2u600_41:
 11746   003EE6  EF5A  F01F         	goto	i2l6669
 11747   003EEA                     i2u600_40:
 11748   003EEA                     
 11749                           ;C:\Program Files\Microchip\xc8\v2.41\pic\sources\c99\common\doprnt.c: 175:         fput
      +                          s((const char *)buf, fp);
 11750   003EEA  C013  F00A         	movff	i2pad@buf,i2fputs@s
 11751   003EEE  C014  F00B         	movff	i2pad@buf+1,i2fputs@s+1
 11752   003EF2  C011  F00C         	movff	i2pad@fp,i2fputs@fp
 11753   003EF6  C012  F00D         	movff	i2pad@fp+1,i2fputs@fp+1
 11754   003EFA  EC5A  F022         	call	i2_fputs	;wreg free
 11755   003EFE  0012               	return		;funcret
 11756   003F00                     __end_ofi2_pad:
 11757                           	callstack 0
 11758                           
 11759 ;; *************** function i2_fputs *****************
 11760 ;; Defined at:
 11761 ;;		line 8 in file "C:\Program Files\Microchip\xc8\v2.41\pic\sources\c99\common\nf_fputs.c"
 11762 ;; Parameters:    Size  Location     Type
 11763 ;;  s               2    9[COMRAM] PTR const unsigned char 
 11764 ;;		 -> dbuf(32), 
 11765 ;;  fp              2   11[COMRAM] PTR struct _IO_FILE
 11766 ;;		 -> i2sprintf@f(12), sprintf@f(12), 
 11767 ;; Auto vars:     Size  Location     Type
 11768 ;;  i               2   14[COMRAM] int 
 11769 ;;  c               1   13[COMRAM] unsigned char 
 11770 ;; Return value:  Size  Location     Type
 11771 ;;                  2    9[COMRAM] int 
 11772 ;; Registers used:
 11773 ;;		wreg, fsr1l, fsr1h, fsr2l, fsr2h, status,2, status,0, cstack
 11774 ;; Tracked objects:
 11775 ;;		On entry : 0/0
 11776 ;;		On exit  : 0/0
 11777 ;;		Unchanged: 0/0
 11778 ;; Data sizes:     COMRAM   BANK0   BANK1   BANK2   BANK3   BANK4   BANK5   BANK6   BANK7   BANK8   BANK9  BANK10  BANK1
      +1  BANK12  BANK13  BANK14  BANK15
 11779 ;;      Params:         4       0       0       0       0       0       0       0       0       0       0       0       
      +0       0       0       0       0
 11780 ;;      Locals:         3       0       0       0       0       0       0       0       0       0       0       0       
      +0       0       0       0       0
 11781 ;;      Temps:          0       0       0       0       0       0       0       0       0       0       0       0       
      +0       0       0       0       0
 11782 ;;      Totals:         7       0       0       0       0       0       0       0       0       0       0       0       
      +0       0       0       0       0
 11783 ;;Total ram usage:        7 bytes
 11784 ;; Hardware stack levels used: 1
 11785 ;; Hardware stack levels required when called: 2
 11786 ;; This function calls:
 11787 ;;		i2_fputc
 11788 ;; This function is called by:
 11789 ;;		i2_pad
 11790 ;; This function uses a non-reentrant model
 11791 ;;
 11792                           
 11793                           	psect	text77
 11794   0044B4                     __ptext77:
 11795                           	callstack 0
 11796   0044B4                     i2_fputs:
 11797                           	callstack 2
 11798   0044B4  0E00               	movlw	0
 11799   0044B6  6E10               	movwf	(i2fputs@i+1)^0,c
 11800   0044B8  0E00               	movlw	0
 11801   0044BA  6E0F               	movwf	i2fputs@i^0,c
 11802   0044BC  EF6B  F022         	goto	i2l6483
 11803   0044C0                     i2l6479:
 11804   0044C0  C00E  F001         	movff	i2fputs@c,i2fputc@c
 11805   0044C4  6A02               	clrf	(i2fputc@c+1)^0,c
 11806   0044C6  C00C  F003         	movff	i2fputs@fp,i2fputc@fp
 11807   0044CA  C00D  F004         	movff	i2fputs@fp+1,i2fputc@fp+1
 11808   0044CE  EC53  F01A         	call	i2_fputc	;wreg free
 11809   0044D2  4A0F               	infsnz	i2fputs@i^0,f,c
 11810   0044D4  2A10               	incf	(i2fputs@i+1)^0,f,c
 11811   0044D6                     i2l6483:
 11812   0044D6  500F               	movf	i2fputs@i^0,w,c
 11813   0044D8  240A               	addwf	i2fputs@s^0,w,c
 11814   0044DA  6ED9               	movwf	fsr2l,c
 11815   0044DC  5010               	movf	(i2fputs@i+1)^0,w,c
 11816   0044DE  200B               	addwfc	(i2fputs@s+1)^0,w,c
 11817   0044E0  6EDA               	movwf	fsr2h,c
 11818   0044E2  50DF               	movf	indf2,w,c
 11819   0044E4  6E0E               	movwf	i2fputs@c^0,c
 11820   0044E6  500E               	movf	i2fputs@c^0,w,c
 11821   0044E8  A4D8               	btfss	status,2,c
 11822   0044EA  EF79  F022         	goto	i2u571_41
 11823   0044EE  EF7B  F022         	goto	i2u571_40
 11824   0044F2                     i2u571_41:
 11825   0044F2  EF60  F022         	goto	i2l6479
 11826   0044F6                     i2u571_40:
 11827   0044F6  0012               	return		;funcret
 11828   0044F8                     __end_ofi2_fputs:
 11829                           	callstack 0
 11830                           
 11831 ;; *************** function i2_fputc *****************
 11832 ;; Defined at:
 11833 ;;		line 8 in file "C:\Program Files\Microchip\xc8\v2.41\pic\sources\c99\common\nf_fputc.c"
 11834 ;; Parameters:    Size  Location     Type
 11835 ;;  c               2    0[COMRAM] int 
 11836 ;;  fp              2    2[COMRAM] PTR struct _IO_FILE
 11837 ;;		 -> i2sprintf@f(12), sprintf@f(12), 
 11838 ;; Auto vars:     Size  Location     Type
 11839 ;;		None
 11840 ;; Return value:  Size  Location     Type
 11841 ;;                  2    0[COMRAM] int 
 11842 ;; Registers used:
 11843 ;;		wreg, fsr1l, fsr1h, fsr2l, fsr2h, status,2, status,0, cstack
 11844 ;; Tracked objects:
 11845 ;;		On entry : 0/0
 11846 ;;		On exit  : 0/0
 11847 ;;		Unchanged: 0/0
 11848 ;; Data sizes:     COMRAM   BANK0   BANK1   BANK2   BANK3   BANK4   BANK5   BANK6   BANK7   BANK8   BANK9  BANK10  BANK1
      +1  BANK12  BANK13  BANK14  BANK15
 11849 ;;      Params:         4       0       0       0       0       0       0       0       0       0       0       0       
      +0       0       0       0       0
 11850 ;;      Locals:         0       0       0       0       0       0       0       0       0       0       0       0       
      +0       0       0       0       0
 11851 ;;      Temps:          5       0       0       0       0       0       0       0       0       0       0       0       
      +0       0       0       0       0
 11852 ;;      Totals:         9       0       0       0       0       0       0       0       0       0       0       0       
      +0       0       0       0       0
 11853 ;;Total ram usage:        9 bytes
 11854 ;; Hardware stack levels used: 1
 11855 ;; Hardware stack levels required when called: 1
 11856 ;; This function calls:
 11857 ;;		i2_putch
 11858 ;; This function is called by:
 11859 ;;		i2_pad
 11860 ;;		i2_vfpfcnvrt
 11861 ;;		i2_fputs
 11862 ;; This function uses a non-reentrant model
 11863 ;;
 11864                           
 11865                           	psect	text78
 11866   0034A6                     __ptext78:
 11867                           	callstack 0
 11868   0034A6                     i2_fputc:
 11869                           	callstack 5
 11870   0034A6  5003               	movf	i2fputc@fp^0,w,c
 11871   0034A8  1004               	iorwf	(i2fputc@fp+1)^0,w,c
 11872   0034AA  B4D8               	btfsc	status,2,c
 11873   0034AC  EF5A  F01A         	goto	i2u566_41
 11874   0034B0  EF5C  F01A         	goto	i2u566_40
 11875   0034B4                     i2u566_41:
 11876   0034B4  EF65  F01A         	goto	i2l6459
 11877   0034B8                     i2u566_40:
 11878   0034B8  5003               	movf	i2fputc@fp^0,w,c
 11879   0034BA  1004               	iorwf	(i2fputc@fp+1)^0,w,c
 11880   0034BC  A4D8               	btfss	status,2,c
 11881   0034BE  EF63  F01A         	goto	i2u567_41
 11882   0034C2  EF65  F01A         	goto	i2u567_40
 11883   0034C6                     i2u567_41:
 11884   0034C6  EF6A  F01A         	goto	i2l6461
 11885   0034CA                     i2u567_40:
 11886   0034CA                     i2l6459:
 11887   0034CA  5001               	movf	i2fputc@c^0,w,c
 11888   0034CC  ECF7  F023         	call	i2_putch
 11889   0034D0  EFB7  F01A         	goto	i2l2334
 11890   0034D4                     i2l6461:
 11891   0034D4  EE20 F00A          	lfsr	2,10
 11892   0034D8  5003               	movf	i2fputc@fp^0,w,c
 11893   0034DA  26D9               	addwf	fsr2l,f,c
 11894   0034DC  5004               	movf	(i2fputc@fp+1)^0,w,c
 11895   0034DE  22DA               	addwfc	fsr2h,f,c
 11896   0034E0  50DE               	movf	postinc2,w,c
 11897   0034E2  10DE               	iorwf	postinc2,w,c
 11898   0034E4  B4D8               	btfsc	status,2,c
 11899   0034E6  EF77  F01A         	goto	i2u568_41
 11900   0034EA  EF79  F01A         	goto	i2u568_40
 11901   0034EE                     i2u568_41:
 11902   0034EE  EF94  F01A         	goto	i2l6465
 11903   0034F2                     i2u568_40:
 11904   0034F2  EE20 F00A          	lfsr	2,10
 11905   0034F6  5003               	movf	i2fputc@fp^0,w,c
 11906   0034F8  26D9               	addwf	fsr2l,f,c
 11907   0034FA  5004               	movf	(i2fputc@fp+1)^0,w,c
 11908   0034FC  22DA               	addwfc	fsr2h,f,c
 11909   0034FE  EE10 F003          	lfsr	1,3
 11910   003502  5003               	movf	i2fputc@fp^0,w,c
 11911   003504  26E1               	addwf	fsr1l,f,c
 11912   003506  5004               	movf	(i2fputc@fp+1)^0,w,c
 11913   003508  22E2               	addwfc	fsr1h,f,c
 11914   00350A  50DE               	movf	postinc2,w,c
 11915   00350C  5CE6               	subwf	postinc1,w,c
 11916   00350E  50E6               	movf	postinc1,w,c
 11917   003510  0A80               	xorlw	128
 11918   003512  6E09               	movwf	(??i2_fputc+4)^0,c
 11919   003514  50DE               	movf	postinc2,w,c
 11920   003516  0A80               	xorlw	128
 11921   003518  5809               	subwfb	(??i2_fputc+4)^0,w,c
 11922   00351A  B0D8               	btfsc	status,0,c
 11923   00351C  EF92  F01A         	goto	i2u569_41
 11924   003520  EF94  F01A         	goto	i2u569_40
 11925   003524                     i2u569_41:
 11926   003524  EFB7  F01A         	goto	i2l2334
 11927   003528                     i2u569_40:
 11928   003528                     i2l6465:
 11929   003528  EE20 F003          	lfsr	2,3
 11930   00352C  5003               	movf	i2fputc@fp^0,w,c
 11931   00352E  26D9               	addwf	fsr2l,f,c
 11932   003530  5004               	movf	(i2fputc@fp+1)^0,w,c
 11933   003532  22DA               	addwfc	fsr2h,f,c
 11934   003534  CFDE F005          	movff	postinc2,??i2_fputc
 11935   003538  CFDD F006          	movff	postdec2,??i2_fputc+1
 11936   00353C  C003  FFD9         	movff	i2fputc@fp,fsr2l
 11937   003540  C004  FFDA         	movff	i2fputc@fp+1,fsr2h
 11938   003544  CFDE F007          	movff	postinc2,??i2_fputc+2
 11939   003548  CFDD F008          	movff	postdec2,??i2_fputc+3
 11940   00354C  5005               	movf	??i2_fputc^0,w,c
 11941   00354E  2407               	addwf	(??i2_fputc+2)^0,w,c
 11942   003550  6ED9               	movwf	fsr2l,c
 11943   003552  5006               	movf	(??i2_fputc+1)^0,w,c
 11944   003554  2008               	addwfc	(??i2_fputc+3)^0,w,c
 11945   003556  6EDA               	movwf	fsr2h,c
 11946   003558  C001  FFDF         	movff	i2fputc@c,indf2
 11947   00355C  EE20 F003          	lfsr	2,3
 11948   003560  5003               	movf	i2fputc@fp^0,w,c
 11949   003562  26D9               	addwf	fsr2l,f,c
 11950   003564  5004               	movf	(i2fputc@fp+1)^0,w,c
 11951   003566  22DA               	addwfc	fsr2h,f,c
 11952   003568  2ADE               	incf	postinc2,f,c
 11953   00356A  0E00               	movlw	0
 11954   00356C  22DD               	addwfc	postdec2,f,c
 11955   00356E                     i2l2334:
 11956   00356E  0012               	return		;funcret
 11957   003570                     __end_ofi2_fputc:
 11958                           	callstack 0
 11959                           
 11960 ;; *************** function i2_putch *****************
 11961 ;; Defined at:
 11962 ;;		line 7 in file "C:\Program Files\Microchip\xc8\v2.41\pic\sources\c99\common\putch.c"
 11963 ;; Parameters:    Size  Location     Type
 11964 ;;  c               1    wreg     unsigned char 
 11965 ;; Auto vars:     Size  Location     Type
 11966 ;;  c               1  (no storage) unsigned char 
 11967 ;; Return value:  Size  Location     Type
 11968 ;;                  1    wreg      void 
 11969 ;; Registers used:
 11970 ;;		wreg
 11971 ;; Tracked objects:
 11972 ;;		On entry : 0/0
 11973 ;;		On exit  : 0/0
 11974 ;;		Unchanged: 0/0
 11975 ;; Data sizes:     COMRAM   BANK0   BANK1   BANK2   BANK3   BANK4   BANK5   BANK6   BANK7   BANK8   BANK9  BANK10  BANK1
      +1  BANK12  BANK13  BANK14  BANK15
 11976 ;;      Params:         0       0       0       0       0       0       0       0       0       0       0       0       
      +0       0       0       0       0
 11977 ;;      Locals:         0       0       0       0       0       0       0       0       0       0       0       0       
      +0       0       0       0       0
 11978 ;;      Temps:          0       0       0       0       0       0       0       0       0       0       0       0       
      +0       0       0       0       0
 11979 ;;      Totals:         0       0       0       0       0       0       0       0       0       0       0       0       
      +0       0       0       0       0
 11980 ;;Total ram usage:        0 bytes
 11981 ;; Hardware stack levels used: 1
 11982 ;; This function calls:
 11983 ;;		Nothing
 11984 ;; This function is called by:
 11985 ;;		i2_fputc
 11986 ;; This function uses a non-reentrant model
 11987 ;;
 11988                           
 11989                           	psect	text79
 11990   0047EE                     __ptext79:
 11991                           	callstack 0
 11992   0047EE                     i2_putch:
 11993                           	callstack 5
 11994   0047EE  0012               	return		;funcret
 11995   0047F0                     __end_ofi2_putch:
 11996                           	callstack 0
 11997                           
 11998 ;; *************** function i2_abs *****************
 11999 ;; Defined at:
 12000 ;;		line 1 in file "C:\Program Files\Microchip\xc8\v2.41\pic\sources\c99\common\abs.c"
 12001 ;; Parameters:    Size  Location     Type
 12002 ;;  a               2    6[COMRAM] int 
 12003 ;; Auto vars:     Size  Location     Type
 12004 ;;		None
 12005 ;; Return value:  Size  Location     Type
 12006 ;;                  2    6[COMRAM] int 
 12007 ;; Registers used:
 12008 ;;		wreg, status,2, status,0
 12009 ;; Tracked objects:
 12010 ;;		On entry : 0/0
 12011 ;;		On exit  : 0/0
 12012 ;;		Unchanged: 0/0
 12013 ;; Data sizes:     COMRAM   BANK0   BANK1   BANK2   BANK3   BANK4   BANK5   BANK6   BANK7   BANK8   BANK9  BANK10  BANK1
      +1  BANK12  BANK13  BANK14  BANK15
 12014 ;;      Params:         2       0       0       0       0       0       0       0       0       0       0       0       
      +0       0       0       0       0
 12015 ;;      Locals:         0       0       0       0       0       0       0       0       0       0       0       0       
      +0       0       0       0       0
 12016 ;;      Temps:          2       0       0       0       0       0       0       0       0       0       0       0       
      +0       0       0       0       0
 12017 ;;      Totals:         4       0       0       0       0       0       0       0       0       0       0       0       
      +0       0       0       0       0
 12018 ;;Total ram usage:        4 bytes
 12019 ;; Hardware stack levels used: 1
 12020 ;; This function calls:
 12021 ;;		Nothing
 12022 ;; This function is called by:
 12023 ;;		i2_dtoa
 12024 ;; This function uses a non-reentrant model
 12025 ;;
 12026                           
 12027                           	psect	text80
 12028   00453A                     __ptext80:
 12029                           	callstack 0
 12030   00453A                     i2_abs:
 12031                           	callstack 5
 12032   00453A  BE08               	btfsc	(i2abs@a+1)^0,7,c
 12033   00453C  EFAA  F022         	goto	i2u601_40
 12034   004540  5008               	movf	(i2abs@a+1)^0,w,c
 12035   004542  E106               	bnz	i2u601_41
 12036   004544  0407               	decf	i2abs@a^0,w,c
 12037   004546  B0D8               	btfsc	status,0,c
 12038   004548  EFA8  F022         	goto	i2u601_41
 12039   00454C  EFAA  F022         	goto	i2u601_40
 12040   004550                     i2u601_41:
 12041   004550  EFB8  F022         	goto	i2l2319
 12042   004554                     i2u601_40:
 12043   004554  C007  F009         	movff	i2abs@a,??i2_abs
 12044   004558  C008  F00A         	movff	i2abs@a+1,??i2_abs+1
 12045   00455C  1E09               	comf	??i2_abs^0,f,c
 12046   00455E  1E0A               	comf	(??i2_abs+1)^0,f,c
 12047   004560  4A09               	infsnz	??i2_abs^0,f,c
 12048   004562  2A0A               	incf	(??i2_abs+1)^0,f,c
 12049   004564  C009  F007         	movff	??i2_abs,?i2_abs
 12050   004568  C00A  F008         	movff	??i2_abs+1,?i2_abs+1
 12051   00456C  EFBC  F022         	goto	i2l2322
 12052   004570                     i2l2319:
 12053   004570  C007  F007         	movff	i2abs@a,?i2_abs
 12054   004574  C008  F008         	movff	i2abs@a+1,?i2_abs+1
 12055   004578                     i2l2322:
 12056   004578  0012               	return		;funcret
 12057   00457A                     __end_ofi2_abs:
 12058                           	callstack 0
 12059                           
 12060 ;; *************** function i2___awmod *****************
 12061 ;; Defined at:
 12062 ;;		line 7 in file "C:\Program Files\Microchip\xc8\v2.41\pic\sources\c99\common\awmod.c"
 12063 ;; Parameters:    Size  Location     Type
 12064 ;;  dividend        2    0[COMRAM] int 
 12065 ;;  divisor         2    2[COMRAM] int 
 12066 ;; Auto vars:     Size  Location     Type
 12067 ;;  sign            1    5[COMRAM] unsigned char 
 12068 ;;  counter         1    4[COMRAM] unsigned char 
 12069 ;; Return value:  Size  Location     Type
 12070 ;;                  2    0[COMRAM] int 
 12071 ;; Registers used:
 12072 ;;		wreg, status,2, status,0
 12073 ;; Tracked objects:
 12074 ;;		On entry : 0/0
 12075 ;;		On exit  : 0/0
 12076 ;;		Unchanged: 0/0
 12077 ;; Data sizes:     COMRAM   BANK0   BANK1   BANK2   BANK3   BANK4   BANK5   BANK6   BANK7   BANK8   BANK9  BANK10  BANK1
      +1  BANK12  BANK13  BANK14  BANK15
 12078 ;;      Params:         4       0       0       0       0       0       0       0       0       0       0       0       
      +0       0       0       0       0
 12079 ;;      Locals:         2       0       0       0       0       0       0       0       0       0       0       0       
      +0       0       0       0       0
 12080 ;;      Temps:          0       0       0       0       0       0       0       0       0       0       0       0       
      +0       0       0       0       0
 12081 ;;      Totals:         6       0       0       0       0       0       0       0       0       0       0       0       
      +0       0       0       0       0
 12082 ;;Total ram usage:        6 bytes
 12083 ;; Hardware stack levels used: 1
 12084 ;; This function calls:
 12085 ;;		Nothing
 12086 ;; This function is called by:
 12087 ;;		i2_dtoa
 12088 ;; This function uses a non-reentrant model
 12089 ;;
 12090                           
 12091                           	psect	text81
 12092   003914                     __ptext81:
 12093                           	callstack 0
 12094   003914                     i2___awmod:
 12095                           	callstack 5
 12096   003914  0E00               	movlw	0
 12097   003916  6E06               	movwf	i2___awmod@sign^0,c
 12098   003918  BE02               	btfsc	(i2___awmod@dividend+1)^0,7,c
 12099   00391A  EF93  F01C         	goto	i2u593_40
 12100   00391E  EF91  F01C         	goto	i2u593_41
 12101   003922                     i2u593_41:
 12102   003922  EF99  F01C         	goto	i2l6635
 12103   003926                     i2u593_40:
 12104   003926  6C01               	negf	i2___awmod@dividend^0,c
 12105   003928  1E02               	comf	(i2___awmod@dividend+1)^0,f,c
 12106   00392A  B0D8               	btfsc	status,0,c
 12107   00392C  2A02               	incf	(i2___awmod@dividend+1)^0,f,c
 12108   00392E  0E01               	movlw	1
 12109   003930  6E06               	movwf	i2___awmod@sign^0,c
 12110   003932                     i2l6635:
 12111   003932  BE04               	btfsc	(i2___awmod@divisor+1)^0,7,c
 12112   003934  EFA0  F01C         	goto	i2u594_40
 12113   003938  EF9E  F01C         	goto	i2u594_41
 12114   00393C                     i2u594_41:
 12115   00393C  EFA4  F01C         	goto	i2l6639
 12116   003940                     i2u594_40:
 12117   003940  6C03               	negf	i2___awmod@divisor^0,c
 12118   003942  1E04               	comf	(i2___awmod@divisor+1)^0,f,c
 12119   003944  B0D8               	btfsc	status,0,c
 12120   003946  2A04               	incf	(i2___awmod@divisor+1)^0,f,c
 12121   003948                     i2l6639:
 12122   003948  5003               	movf	i2___awmod@divisor^0,w,c
 12123   00394A  1004               	iorwf	(i2___awmod@divisor+1)^0,w,c
 12124   00394C  B4D8               	btfsc	status,2,c
 12125   00394E  EFAB  F01C         	goto	i2u595_41
 12126   003952  EFAD  F01C         	goto	i2u595_40
 12127   003956                     i2u595_41:
 12128   003956  EFD1  F01C         	goto	i2l6655
 12129   00395A                     i2u595_40:
 12130   00395A  0E01               	movlw	1
 12131   00395C  6E05               	movwf	i2___awmod@counter^0,c
 12132   00395E  EFB5  F01C         	goto	i2l6645
 12133   003962                     i2l6643:
 12134   003962  90D8               	bcf	status,0,c
 12135   003964  3603               	rlcf	i2___awmod@divisor^0,f,c
 12136   003966  3604               	rlcf	(i2___awmod@divisor+1)^0,f,c
 12137   003968  2A05               	incf	i2___awmod@counter^0,f,c
 12138   00396A                     i2l6645:
 12139   00396A  AE04               	btfss	(i2___awmod@divisor+1)^0,7,c
 12140   00396C  EFBA  F01C         	goto	i2u596_41
 12141   003970  EFBC  F01C         	goto	i2u596_40
 12142   003974                     i2u596_41:
 12143   003974  EFB1  F01C         	goto	i2l6643
 12144   003978                     i2u596_40:
 12145   003978                     i2l6647:
 12146   003978  5003               	movf	i2___awmod@divisor^0,w,c
 12147   00397A  5C01               	subwf	i2___awmod@dividend^0,w,c
 12148   00397C  5004               	movf	(i2___awmod@divisor+1)^0,w,c
 12149   00397E  5802               	subwfb	(i2___awmod@dividend+1)^0,w,c
 12150   003980  A0D8               	btfss	status,0,c
 12151   003982  EFC5  F01C         	goto	i2u597_41
 12152   003986  EFC7  F01C         	goto	i2u597_40
 12153   00398A                     i2u597_41:
 12154   00398A  EFCB  F01C         	goto	i2l6651
 12155   00398E                     i2u597_40:
 12156   00398E  5003               	movf	i2___awmod@divisor^0,w,c
 12157   003990  5E01               	subwf	i2___awmod@dividend^0,f,c
 12158   003992  5004               	movf	(i2___awmod@divisor+1)^0,w,c
 12159   003994  5A02               	subwfb	(i2___awmod@dividend+1)^0,f,c
 12160   003996                     i2l6651:
 12161   003996  90D8               	bcf	status,0,c
 12162   003998  3204               	rrcf	(i2___awmod@divisor+1)^0,f,c
 12163   00399A  3203               	rrcf	i2___awmod@divisor^0,f,c
 12164   00399C  2E05               	decfsz	i2___awmod@counter^0,f,c
 12165   00399E  EFBC  F01C         	goto	i2l6647
 12166   0039A2                     i2l6655:
 12167   0039A2  5006               	movf	i2___awmod@sign^0,w,c
 12168   0039A4  B4D8               	btfsc	status,2,c
 12169   0039A6  EFD7  F01C         	goto	i2u598_41
 12170   0039AA  EFD9  F01C         	goto	i2u598_40
 12171   0039AE                     i2u598_41:
 12172   0039AE  EFDD  F01C         	goto	i2l6659
 12173   0039B2                     i2u598_40:
 12174   0039B2  6C01               	negf	i2___awmod@dividend^0,c
 12175   0039B4  1E02               	comf	(i2___awmod@dividend+1)^0,f,c
 12176   0039B6  B0D8               	btfsc	status,0,c
 12177   0039B8  2A02               	incf	(i2___awmod@dividend+1)^0,f,c
 12178   0039BA                     i2l6659:
 12179   0039BA  C001  F001         	movff	i2___awmod@dividend,?i2___awmod
 12180   0039BE  C002  F002         	movff	i2___awmod@dividend+1,?i2___awmod+1
 12181   0039C2  0012               	return		;funcret
 12182   0039C4                     __end_ofi2___awmod:
 12183                           	callstack 0
 12184                           
 12185 ;; *************** function i2___awdiv *****************
 12186 ;; Defined at:
 12187 ;;		line 7 in file "C:\Program Files\Microchip\xc8\v2.41\pic\sources\c99\common\awdiv.c"
 12188 ;; Parameters:    Size  Location     Type
 12189 ;;  dividend        2    0[COMRAM] int 
 12190 ;;  divisor         2    2[COMRAM] int 
 12191 ;; Auto vars:     Size  Location     Type
 12192 ;;  quotient        2    6[COMRAM] int 
 12193 ;;  sign            1    5[COMRAM] unsigned char 
 12194 ;;  counter         1    4[COMRAM] unsigned char 
 12195 ;; Return value:  Size  Location     Type
 12196 ;;                  2    0[COMRAM] int 
 12197 ;; Registers used:
 12198 ;;		wreg, status,2, status,0
 12199 ;; Tracked objects:
 12200 ;;		On entry : 0/0
 12201 ;;		On exit  : 0/0
 12202 ;;		Unchanged: 0/0
 12203 ;; Data sizes:     COMRAM   BANK0   BANK1   BANK2   BANK3   BANK4   BANK5   BANK6   BANK7   BANK8   BANK9  BANK10  BANK1
      +1  BANK12  BANK13  BANK14  BANK15
 12204 ;;      Params:         4       0       0       0       0       0       0       0       0       0       0       0       
      +0       0       0       0       0
 12205 ;;      Locals:         4       0       0       0       0       0       0       0       0       0       0       0       
      +0       0       0       0       0
 12206 ;;      Temps:          0       0       0       0       0       0       0       0       0       0       0       0       
      +0       0       0       0       0
 12207 ;;      Totals:         8       0       0       0       0       0       0       0       0       0       0       0       
      +0       0       0       0       0
 12208 ;;Total ram usage:        8 bytes
 12209 ;; Hardware stack levels used: 1
 12210 ;; This function calls:
 12211 ;;		Nothing
 12212 ;; This function is called by:
 12213 ;;		i2_dtoa
 12214 ;; This function uses a non-reentrant model
 12215 ;;
 12216                           
 12217                           	psect	text82
 12218   003636                     __ptext82:
 12219                           	callstack 0
 12220   003636                     i2___awdiv:
 12221                           	callstack 5
 12222   003636  0E00               	movlw	0
 12223   003638  6E06               	movwf	i2___awdiv@sign^0,c
 12224   00363A  BE04               	btfsc	(i2___awdiv@divisor+1)^0,7,c
 12225   00363C  EF24  F01B         	goto	i2u587_40
 12226   003640  EF22  F01B         	goto	i2u587_41
 12227   003644                     i2u587_41:
 12228   003644  EF2A  F01B         	goto	i2l6591
 12229   003648                     i2u587_40:
 12230   003648  6C03               	negf	i2___awdiv@divisor^0,c
 12231   00364A  1E04               	comf	(i2___awdiv@divisor+1)^0,f,c
 12232   00364C  B0D8               	btfsc	status,0,c
 12233   00364E  2A04               	incf	(i2___awdiv@divisor+1)^0,f,c
 12234   003650  0E01               	movlw	1
 12235   003652  6E06               	movwf	i2___awdiv@sign^0,c
 12236   003654                     i2l6591:
 12237   003654  BE02               	btfsc	(i2___awdiv@dividend+1)^0,7,c
 12238   003656  EF31  F01B         	goto	i2u588_40
 12239   00365A  EF2F  F01B         	goto	i2u588_41
 12240   00365E                     i2u588_41:
 12241   00365E  EF37  F01B         	goto	i2l6597
 12242   003662                     i2u588_40:
 12243   003662  6C01               	negf	i2___awdiv@dividend^0,c
 12244   003664  1E02               	comf	(i2___awdiv@dividend+1)^0,f,c
 12245   003666  B0D8               	btfsc	status,0,c
 12246   003668  2A02               	incf	(i2___awdiv@dividend+1)^0,f,c
 12247   00366A  0E01               	movlw	1
 12248   00366C  1A06               	xorwf	i2___awdiv@sign^0,f,c
 12249   00366E                     i2l6597:
 12250   00366E  0E00               	movlw	0
 12251   003670  6E08               	movwf	(i2___awdiv@quotient+1)^0,c
 12252   003672  0E00               	movlw	0
 12253   003674  6E07               	movwf	i2___awdiv@quotient^0,c
 12254   003676  5003               	movf	i2___awdiv@divisor^0,w,c
 12255   003678  1004               	iorwf	(i2___awdiv@divisor+1)^0,w,c
 12256   00367A  B4D8               	btfsc	status,2,c
 12257   00367C  EF42  F01B         	goto	i2u589_41
 12258   003680  EF44  F01B         	goto	i2u589_40
 12259   003684                     i2u589_41:
 12260   003684  EF6C  F01B         	goto	i2l6619
 12261   003688                     i2u589_40:
 12262   003688  0E01               	movlw	1
 12263   00368A  6E05               	movwf	i2___awdiv@counter^0,c
 12264   00368C  EF4C  F01B         	goto	i2l6605
 12265   003690                     i2l6603:
 12266   003690  90D8               	bcf	status,0,c
 12267   003692  3603               	rlcf	i2___awdiv@divisor^0,f,c
 12268   003694  3604               	rlcf	(i2___awdiv@divisor+1)^0,f,c
 12269   003696  2A05               	incf	i2___awdiv@counter^0,f,c
 12270   003698                     i2l6605:
 12271   003698  AE04               	btfss	(i2___awdiv@divisor+1)^0,7,c
 12272   00369A  EF51  F01B         	goto	i2u590_41
 12273   00369E  EF53  F01B         	goto	i2u590_40
 12274   0036A2                     i2u590_41:
 12275   0036A2  EF48  F01B         	goto	i2l6603
 12276   0036A6                     i2u590_40:
 12277   0036A6                     i2l6607:
 12278   0036A6  90D8               	bcf	status,0,c
 12279   0036A8  3607               	rlcf	i2___awdiv@quotient^0,f,c
 12280   0036AA  3608               	rlcf	(i2___awdiv@quotient+1)^0,f,c
 12281   0036AC  5003               	movf	i2___awdiv@divisor^0,w,c
 12282   0036AE  5C01               	subwf	i2___awdiv@dividend^0,w,c
 12283   0036B0  5004               	movf	(i2___awdiv@divisor+1)^0,w,c
 12284   0036B2  5802               	subwfb	(i2___awdiv@dividend+1)^0,w,c
 12285   0036B4  A0D8               	btfss	status,0,c
 12286   0036B6  EF5F  F01B         	goto	i2u591_41
 12287   0036BA  EF61  F01B         	goto	i2u591_40
 12288   0036BE                     i2u591_41:
 12289   0036BE  EF66  F01B         	goto	i2l6615
 12290   0036C2                     i2u591_40:
 12291   0036C2  5003               	movf	i2___awdiv@divisor^0,w,c
 12292   0036C4  5E01               	subwf	i2___awdiv@dividend^0,f,c
 12293   0036C6  5004               	movf	(i2___awdiv@divisor+1)^0,w,c
 12294   0036C8  5A02               	subwfb	(i2___awdiv@dividend+1)^0,f,c
 12295   0036CA  8007               	bsf	i2___awdiv@quotient^0,0,c
 12296   0036CC                     i2l6615:
 12297   0036CC  90D8               	bcf	status,0,c
 12298   0036CE  3204               	rrcf	(i2___awdiv@divisor+1)^0,f,c
 12299   0036D0  3203               	rrcf	i2___awdiv@divisor^0,f,c
 12300   0036D2  2E05               	decfsz	i2___awdiv@counter^0,f,c
 12301   0036D4  EF53  F01B         	goto	i2l6607
 12302   0036D8                     i2l6619:
 12303   0036D8  5006               	movf	i2___awdiv@sign^0,w,c
 12304   0036DA  B4D8               	btfsc	status,2,c
 12305   0036DC  EF72  F01B         	goto	i2u592_41
 12306   0036E0  EF74  F01B         	goto	i2u592_40
 12307   0036E4                     i2u592_41:
 12308   0036E4  EF78  F01B         	goto	i2l6623
 12309   0036E8                     i2u592_40:
 12310   0036E8  6C07               	negf	i2___awdiv@quotient^0,c
 12311   0036EA  1E08               	comf	(i2___awdiv@quotient+1)^0,f,c
 12312   0036EC  B0D8               	btfsc	status,0,c
 12313   0036EE  2A08               	incf	(i2___awdiv@quotient+1)^0,f,c
 12314   0036F0                     i2l6623:
 12315   0036F0  C007  F001         	movff	i2___awdiv@quotient,?i2___awdiv
 12316   0036F4  C008  F002         	movff	i2___awdiv@quotient+1,?i2___awdiv+1
 12317   0036F8  0012               	return		;funcret
 12318   0036FA                     __end_ofi2___awdiv:
 12319                           	callstack 0
 12320                           
 12321 ;; *************** function i2_memset *****************
 12322 ;; Defined at:
 12323 ;;		line 4 in file "C:\Program Files\Microchip\xc8\v2.41\pic\sources\c99\common\memset.c"
 12324 ;; Parameters:    Size  Location     Type
 12325 ;;  dest            2    0[COMRAM] PTR void 
 12326 ;;		 -> i2USART_TX_INT@counter_Str(4), USART_TX_INT@counter_Str(4), 
 12327 ;;  c               2    2[COMRAM] int 
 12328 ;;  n               2    4[COMRAM] unsigned int 
 12329 ;; Auto vars:     Size  Location     Type
 12330 ;;  s               2   10[COMRAM] PTR unsigned char 
 12331 ;;		 -> i2USART_TX_INT@counter_Str(4), USART_TX_INT@counter_Str(4), 
 12332 ;;  k               2    8[COMRAM] unsigned int 
 12333 ;; Return value:  Size  Location     Type
 12334 ;;                  2    0[COMRAM] PTR void 
 12335 ;; Registers used:
 12336 ;;		wreg, fsr2l, fsr2h, status,2, status,0
 12337 ;; Tracked objects:
 12338 ;;		On entry : 0/0
 12339 ;;		On exit  : 0/0
 12340 ;;		Unchanged: 0/0
 12341 ;; Data sizes:     COMRAM   BANK0   BANK1   BANK2   BANK3   BANK4   BANK5   BANK6   BANK7   BANK8   BANK9  BANK10  BANK1
      +1  BANK12  BANK13  BANK14  BANK15
 12342 ;;      Params:         6       0       0       0       0       0       0       0       0       0       0       0       
      +0       0       0       0       0
 12343 ;;      Locals:         4       0       0       0       0       0       0       0       0       0       0       0       
      +0       0       0       0       0
 12344 ;;      Temps:          2       0       0       0       0       0       0       0       0       0       0       0       
      +0       0       0       0       0
 12345 ;;      Totals:        12       0       0       0       0       0       0       0       0       0       0       0       
      +0       0       0       0       0
 12346 ;;Total ram usage:       12 bytes
 12347 ;; Hardware stack levels used: 1
 12348 ;; This function calls:
 12349 ;;		Nothing
 12350 ;; This function is called by:
 12351 ;;		i2_convert_uint8_to_string
 12352 ;; This function uses a non-reentrant model
 12353 ;;
 12354                           
 12355                           	psect	text83
 12356   0026AC                     __ptext83:
 12357                           	callstack 0
 12358   0026AC                     i2_memset:
 12359                           	callstack 9
 12360   0026AC  C001  F00B         	movff	i2memset@dest,i2memset@s
 12361   0026B0  C002  F00C         	movff	i2memset@dest+1,i2memset@s+1
 12362   0026B4  5005               	movf	i2memset@n^0,w,c
 12363   0026B6  1006               	iorwf	(i2memset@n+1)^0,w,c
 12364   0026B8  A4D8               	btfss	status,2,c
 12365   0026BA  EF61  F013         	goto	i2u758_41
 12366   0026BE  EF63  F013         	goto	i2u758_40
 12367   0026C2                     i2u758_41:
 12368   0026C2  EF65  F013         	goto	i2l7641
 12369   0026C6                     i2u758_40:
 12370   0026C6  EF10  F014         	goto	i2l2244
 12371   0026CA                     i2l7641:
 12372   0026CA  C00B  FFD9         	movff	i2memset@s,fsr2l
 12373   0026CE  C00C  FFDA         	movff	i2memset@s+1,fsr2h
 12374   0026D2  C003  FFDF         	movff	i2memset@c,indf2
 12375   0026D6  5005               	movf	i2memset@n^0,w,c
 12376   0026D8  240B               	addwf	i2memset@s^0,w,c
 12377   0026DA  6E07               	movwf	??i2_memset^0,c
 12378   0026DC  5006               	movf	(i2memset@n+1)^0,w,c
 12379   0026DE  200C               	addwfc	(i2memset@s+1)^0,w,c
 12380   0026E0  6E08               	movwf	(??i2_memset+1)^0,c
 12381   0026E2  0EFF               	movlw	255
 12382   0026E4  2407               	addwf	??i2_memset^0,w,c
 12383   0026E6  6ED9               	movwf	fsr2l,c
 12384   0026E8  0EFF               	movlw	255
 12385   0026EA  2008               	addwfc	(??i2_memset+1)^0,w,c
 12386   0026EC  6EDA               	movwf	fsr2h,c
 12387   0026EE  C003  FFDF         	movff	i2memset@c,indf2
 12388   0026F2  5006               	movf	(i2memset@n+1)^0,w,c
 12389   0026F4  E107               	bnz	i2u759_41
 12390   0026F6  0E03               	movlw	3
 12391   0026F8  5C05               	subwf	i2memset@n^0,w,c
 12392   0026FA  B0D8               	btfsc	status,0,c
 12393   0026FC  EF82  F013         	goto	i2u759_41
 12394   002700  EF84  F013         	goto	i2u759_40
 12395   002704                     i2u759_41:
 12396   002704  EF86  F013         	goto	i2l7647
 12397   002708                     i2u759_40:
 12398   002708  EF10  F014         	goto	i2l2244
 12399   00270C                     i2l7647:
 12400   00270C  EE20 F001          	lfsr	2,1
 12401   002710  500B               	movf	i2memset@s^0,w,c
 12402   002712  26D9               	addwf	fsr2l,f,c
 12403   002714  500C               	movf	(i2memset@s+1)^0,w,c
 12404   002716  22DA               	addwfc	fsr2h,f,c
 12405   002718  C003  FFDF         	movff	i2memset@c,indf2
 12406   00271C  EE20 F002          	lfsr	2,2
 12407   002720  500B               	movf	i2memset@s^0,w,c
 12408   002722  26D9               	addwf	fsr2l,f,c
 12409   002724  500C               	movf	(i2memset@s+1)^0,w,c
 12410   002726  22DA               	addwfc	fsr2h,f,c
 12411   002728  C003  FFDF         	movff	i2memset@c,indf2
 12412   00272C  5005               	movf	i2memset@n^0,w,c
 12413   00272E  240B               	addwf	i2memset@s^0,w,c
 12414   002730  6E07               	movwf	??i2_memset^0,c
 12415   002732  5006               	movf	(i2memset@n+1)^0,w,c
 12416   002734  200C               	addwfc	(i2memset@s+1)^0,w,c
 12417   002736  6E08               	movwf	(??i2_memset+1)^0,c
 12418   002738  0EFE               	movlw	254
 12419   00273A  2407               	addwf	??i2_memset^0,w,c
 12420   00273C  6ED9               	movwf	fsr2l,c
 12421   00273E  0EFF               	movlw	255
 12422   002740  2008               	addwfc	(??i2_memset+1)^0,w,c
 12423   002742  6EDA               	movwf	fsr2h,c
 12424   002744  C003  FFDF         	movff	i2memset@c,indf2
 12425   002748  5005               	movf	i2memset@n^0,w,c
 12426   00274A  240B               	addwf	i2memset@s^0,w,c
 12427   00274C  6E07               	movwf	??i2_memset^0,c
 12428   00274E  5006               	movf	(i2memset@n+1)^0,w,c
 12429   002750  200C               	addwfc	(i2memset@s+1)^0,w,c
 12430   002752  6E08               	movwf	(??i2_memset+1)^0,c
 12431   002754  0EFD               	movlw	253
 12432   002756  2407               	addwf	??i2_memset^0,w,c
 12433   002758  6ED9               	movwf	fsr2l,c
 12434   00275A  0EFF               	movlw	255
 12435   00275C  2008               	addwfc	(??i2_memset+1)^0,w,c
 12436   00275E  6EDA               	movwf	fsr2h,c
 12437   002760  C003  FFDF         	movff	i2memset@c,indf2
 12438   002764  5006               	movf	(i2memset@n+1)^0,w,c
 12439   002766  E107               	bnz	i2u760_41
 12440   002768  0E07               	movlw	7
 12441   00276A  5C05               	subwf	i2memset@n^0,w,c
 12442   00276C  B0D8               	btfsc	status,0,c
 12443   00276E  EFBB  F013         	goto	i2u760_41
 12444   002772  EFBD  F013         	goto	i2u760_40
 12445   002776                     i2u760_41:
 12446   002776  EFBF  F013         	goto	i2l7653
 12447   00277A                     i2u760_40:
 12448   00277A  EF10  F014         	goto	i2l2244
 12449   00277E                     i2l7653:
 12450   00277E  EE20 F003          	lfsr	2,3
 12451   002782  500B               	movf	i2memset@s^0,w,c
 12452   002784  26D9               	addwf	fsr2l,f,c
 12453   002786  500C               	movf	(i2memset@s+1)^0,w,c
 12454   002788  22DA               	addwfc	fsr2h,f,c
 12455   00278A  C003  FFDF         	movff	i2memset@c,indf2
 12456   00278E  5005               	movf	i2memset@n^0,w,c
 12457   002790  240B               	addwf	i2memset@s^0,w,c
 12458   002792  6E07               	movwf	??i2_memset^0,c
 12459   002794  5006               	movf	(i2memset@n+1)^0,w,c
 12460   002796  200C               	addwfc	(i2memset@s+1)^0,w,c
 12461   002798  6E08               	movwf	(??i2_memset+1)^0,c
 12462   00279A  0EFC               	movlw	252
 12463   00279C  2407               	addwf	??i2_memset^0,w,c
 12464   00279E  6ED9               	movwf	fsr2l,c
 12465   0027A0  0EFF               	movlw	255
 12466   0027A2  2008               	addwfc	(??i2_memset+1)^0,w,c
 12467   0027A4  6EDA               	movwf	fsr2h,c
 12468   0027A6  C003  FFDF         	movff	i2memset@c,indf2
 12469   0027AA  5006               	movf	(i2memset@n+1)^0,w,c
 12470   0027AC  E107               	bnz	i2u761_41
 12471   0027AE  0E09               	movlw	9
 12472   0027B0  5C05               	subwf	i2memset@n^0,w,c
 12473   0027B2  B0D8               	btfsc	status,0,c
 12474   0027B4  EFDE  F013         	goto	i2u761_41
 12475   0027B8  EFE0  F013         	goto	i2u761_40
 12476   0027BC                     i2u761_41:
 12477   0027BC  EFE2  F013         	goto	i2l7659
 12478   0027C0                     i2u761_40:
 12479   0027C0  EF10  F014         	goto	i2l2244
 12480   0027C4                     i2l7659:
 12481   0027C4  C00B  F007         	movff	i2memset@s,??i2_memset
 12482   0027C8  C00C  F008         	movff	i2memset@s+1,??i2_memset+1
 12483   0027CC  1E07               	comf	??i2_memset^0,f,c
 12484   0027CE  1E08               	comf	(??i2_memset+1)^0,f,c
 12485   0027D0  4A07               	infsnz	??i2_memset^0,f,c
 12486   0027D2  2A08               	incf	(??i2_memset+1)^0,f,c
 12487   0027D4  0E03               	movlw	3
 12488   0027D6  1407               	andwf	??i2_memset^0,w,c
 12489   0027D8  6E09               	movwf	i2memset@k^0,c
 12490   0027DA  6A0A               	clrf	(i2memset@k+1)^0,c
 12491   0027DC  5009               	movf	i2memset@k^0,w,c
 12492   0027DE  260B               	addwf	i2memset@s^0,f,c
 12493   0027E0  500A               	movf	(i2memset@k+1)^0,w,c
 12494   0027E2  220C               	addwfc	(i2memset@s+1)^0,f,c
 12495   0027E4  5009               	movf	i2memset@k^0,w,c
 12496   0027E6  5E05               	subwf	i2memset@n^0,f,c
 12497   0027E8  500A               	movf	(i2memset@k+1)^0,w,c
 12498   0027EA  5A06               	subwfb	(i2memset@n+1)^0,f,c
 12499   0027EC  0EFC               	movlw	252
 12500   0027EE  1605               	andwf	i2memset@n^0,f,c
 12501   0027F0  0EFF               	movlw	255
 12502   0027F2  1606               	andwf	(i2memset@n+1)^0,f,c
 12503   0027F4  EF07  F014         	goto	i2l7667
 12504   0027F8                     i2l7661:
 12505   0027F8  C00B  FFD9         	movff	i2memset@s,fsr2l
 12506   0027FC  C00C  FFDA         	movff	i2memset@s+1,fsr2h
 12507   002800  C003  FFDF         	movff	i2memset@c,indf2
 12508   002804  0605               	decf	i2memset@n^0,f,c
 12509   002806  A0D8               	btfss	status,0,c
 12510   002808  0606               	decf	(i2memset@n+1)^0,f,c
 12511   00280A  4A0B               	infsnz	i2memset@s^0,f,c
 12512   00280C  2A0C               	incf	(i2memset@s+1)^0,f,c
 12513   00280E                     i2l7667:
 12514   00280E  5005               	movf	i2memset@n^0,w,c
 12515   002810  1006               	iorwf	(i2memset@n+1)^0,w,c
 12516   002812  A4D8               	btfss	status,2,c
 12517   002814  EF0E  F014         	goto	i2u762_41
 12518   002818  EF10  F014         	goto	i2u762_40
 12519   00281C                     i2u762_41:
 12520   00281C  EFFC  F013         	goto	i2l7661
 12521   002820                     i2u762_40:
 12522   002820                     i2l2244:
 12523   002820  0012               	return		;funcret
 12524   002822                     __end_ofi2_memset:
 12525                           	callstack 0
 12526                           
 12527 ;; *************** function i2_EUSART_RX_ISR *****************
 12528 ;; Defined at:
 12529 ;;		line 301 in file "MCAL_Layer/USART/hal_usart.c"
 12530 ;; Parameters:    Size  Location     Type
 12531 ;;		None
 12532 ;; Auto vars:     Size  Location     Type
 12533 ;;		None
 12534 ;; Return value:  Size  Location     Type
 12535 ;;                  1    wreg      void 
 12536 ;; Registers used:
 12537 ;;		wreg, fsr2l, fsr2h, status,2, status,0, pcl, pclath, pclatu, tosl, prodl, prodh, cstack
 12538 ;; Tracked objects:
 12539 ;;		On entry : 0/0
 12540 ;;		On exit  : 0/0
 12541 ;;		Unchanged: 0/0
 12542 ;; Data sizes:     COMRAM   BANK0   BANK1   BANK2   BANK3   BANK4   BANK5   BANK6   BANK7   BANK8   BANK9  BANK10  BANK1
      +1  BANK12  BANK13  BANK14  BANK15
 12543 ;;      Params:         0       0       0       0       0       0       0       0       0       0       0       0       
      +0       0       0       0       0
 12544 ;;      Locals:         0       0       0       0       0       0       0       0       0       0       0       0       
      +0       0       0       0       0
 12545 ;;      Temps:          0       0       0       0       0       0       0       0       0       0       0       0       
      +0       0       0       0       0
 12546 ;;      Totals:         0       0       0       0       0       0       0       0       0       0       0       0       
      +0       0       0       0       0
 12547 ;;Total ram usage:        0 bytes
 12548 ;; Hardware stack levels used: 1
 12549 ;; Hardware stack levels required when called: 4
 12550 ;; This function calls:
 12551 ;;		NULL
 12552 ;;		i2_USART_RX_INT
 12553 ;; This function is called by:
 12554 ;;		_InterruptManagerHigh
 12555 ;; This function uses a non-reentrant model
 12556 ;;
 12557                           
 12558                           	psect	text84
 12559   003C86                     __ptext84:
 12560                           	callstack 0
 12561   003C86                     i2_EUSART_RX_ISR:
 12562                           	callstack 8
 12563   003C86                     
 12564                           ;MCAL_Layer/USART/hal_usart.c: 304:     if(EUSART_RX_InterruptHandler){
 12565   003C86  0100               	movlb	0	; () banked
 12566   003C88  51F5               	movf	_EUSART_RX_InterruptHandler& (0+255),w,b
 12567   003C8A  11F6               	iorwf	(_EUSART_RX_InterruptHandler+1)& (0+255),w,b
 12568   003C8C  B4D8               	btfsc	status,2,c
 12569   003C8E  EF4B  F01E         	goto	i2u1415_41
 12570   003C92  EF4D  F01E         	goto	i2u1415_40
 12571   003C96                     i2u1415_41:
 12572   003C96  EF59  F01E         	goto	i2l11849
 12573   003C9A                     i2u1415_40:
 12574   003C9A                     
 12575                           ; BSR set to: 0
 12576                           ;MCAL_Layer/USART/hal_usart.c: 305:         EUSART_RX_InterruptHandler();
 12577   003C9A  D802               	call	i2u1416_48
 12578   003C9C  EF59  F01E         	goto	i2u1416_49
 12579   003CA0                     i2u1416_48:
 12580   003CA0  0005               	push	
 12581   003CA2  6EFA               	movwf	pclath,c
 12582   003CA4  51F5               	movf	_EUSART_RX_InterruptHandler& (0+255),w,b
 12583   003CA6  6EFD               	movwf	tosl,c
 12584   003CA8  51F6               	movf	(_EUSART_RX_InterruptHandler+1)& (0+255),w,b
 12585   003CAA  6EFE               	movwf	tosh,c
 12586   003CAC  6AFF               	clrf	tosu,c
 12587   003CAE  50FA               	movf	pclath,w,c
 12588   003CB0  0012               	return		;indir
 12589   003CB2                     i2u1416_49:
 12590   003CB2                     i2l11849:
 12591                           
 12592                           ;MCAL_Layer/USART/hal_usart.c: 308:     if(EUSART_FramingErrorHandler){
 12593   003CB2  0100               	movlb	0	; () banked
 12594   003CB4  51F3               	movf	_EUSART_FramingErrorHandler& (0+255),w,b
 12595   003CB6  11F4               	iorwf	(_EUSART_FramingErrorHandler+1)& (0+255),w,b
 12596   003CB8  B4D8               	btfsc	status,2,c
 12597   003CBA  EF61  F01E         	goto	i2u1417_41
 12598   003CBE  EF63  F01E         	goto	i2u1417_40
 12599   003CC2                     i2u1417_41:
 12600   003CC2  EF6F  F01E         	goto	i2l11853
 12601   003CC6                     i2u1417_40:
 12602   003CC6                     
 12603                           ; BSR set to: 0
 12604                           ;MCAL_Layer/USART/hal_usart.c: 309:        EUSART_FramingErrorHandler();
 12605   003CC6  D802               	call	i2u1418_48
 12606   003CC8  EF6F  F01E         	goto	i2u1418_49
 12607   003CCC                     i2u1418_48:
 12608   003CCC  0005               	push	
 12609   003CCE  6EFA               	movwf	pclath,c
 12610   003CD0  51F3               	movf	_EUSART_FramingErrorHandler& (0+255),w,b
 12611   003CD2  6EFD               	movwf	tosl,c
 12612   003CD4  51F4               	movf	(_EUSART_FramingErrorHandler+1)& (0+255),w,b
 12613   003CD6  6EFE               	movwf	tosh,c
 12614   003CD8  6AFF               	clrf	tosu,c
 12615   003CDA  50FA               	movf	pclath,w,c
 12616   003CDC  0012               	return		;indir
 12617   003CDE                     i2u1418_49:
 12618   003CDE                     i2l11853:
 12619                           
 12620                           ;MCAL_Layer/USART/hal_usart.c: 312:     if(EUSART_OverrunErrorHandler){
 12621   003CDE  0100               	movlb	0	; () banked
 12622   003CE0  51F1               	movf	_EUSART_OverrunErrorHandler& (0+255),w,b
 12623   003CE2  11F2               	iorwf	(_EUSART_OverrunErrorHandler+1)& (0+255),w,b
 12624   003CE4  B4D8               	btfsc	status,2,c
 12625   003CE6  EF77  F01E         	goto	i2u1419_41
 12626   003CEA  EF79  F01E         	goto	i2u1419_40
 12627   003CEE                     i2u1419_41:
 12628   003CEE  EF85  F01E         	goto	i2l1566
 12629   003CF2                     i2u1419_40:
 12630   003CF2                     
 12631                           ; BSR set to: 0
 12632                           ;MCAL_Layer/USART/hal_usart.c: 313:         EUSART_OverrunErrorHandler();
 12633   003CF2  D802               	call	i2u1420_48
 12634   003CF4  EF85  F01E         	goto	i2u1420_49
 12635   003CF8                     i2u1420_48:
 12636   003CF8  0005               	push	
 12637   003CFA  6EFA               	movwf	pclath,c
 12638   003CFC  51F1               	movf	_EUSART_OverrunErrorHandler& (0+255),w,b
 12639   003CFE  6EFD               	movwf	tosl,c
 12640   003D00  51F2               	movf	(_EUSART_OverrunErrorHandler+1)& (0+255),w,b
 12641   003D02  6EFE               	movwf	tosh,c
 12642   003D04  6AFF               	clrf	tosu,c
 12643   003D06  50FA               	movf	pclath,w,c
 12644   003D08  0012               	return		;indir
 12645   003D0A                     i2u1420_49:
 12646   003D0A                     i2l1566:
 12647   003D0A  0012               	return		;funcret
 12648   003D0C                     __end_ofi2_EUSART_RX_ISR:
 12649                           	callstack 0
 12650                           
 12651 ;; *************** function i2_USART_RX_INT *****************
 12652 ;; Defined at:
 12653 ;;		line 36 in file "application.c"
 12654 ;; Parameters:    Size  Location     Type
 12655 ;;		None
 12656 ;; Auto vars:     Size  Location     Type
 12657 ;;		None
 12658 ;; Return value:  Size  Location     Type
 12659 ;;                  1    wreg      void 
 12660 ;; Registers used:
 12661 ;;		wreg, fsr2l, fsr2h, status,2, status,0, prodl, prodh, cstack
 12662 ;; Tracked objects:
 12663 ;;		On entry : 0/0
 12664 ;;		On exit  : 0/0
 12665 ;;		Unchanged: 0/0
 12666 ;; Data sizes:     COMRAM   BANK0   BANK1   BANK2   BANK3   BANK4   BANK5   BANK6   BANK7   BANK8   BANK9  BANK10  BANK1
      +1  BANK12  BANK13  BANK14  BANK15
 12667 ;;      Params:         0       0       0       0       0       0       0       0       0       0       0       0       
      +0       0       0       0       0
 12668 ;;      Locals:         0       0       0       0       0       0       0       0       0       0       0       0       
      +0       0       0       0       0
 12669 ;;      Temps:          0       0       0       0       0       0       0       0       0       0       0       0       
      +0       0       0       0       0
 12670 ;;      Totals:         0       0       0       0       0       0       0       0       0       0       0       0       
      +0       0       0       0       0
 12671 ;;Total ram usage:        0 bytes
 12672 ;; Hardware stack levels used: 1
 12673 ;; Hardware stack levels required when called: 3
 12674 ;; This function calls:
 12675 ;;		i2_EUSART_ASYNC_ReadByteNonBlocking
 12676 ;;		i2_lcd_4bit_send_char_data
 12677 ;;		i2_lcd_4bit_send_command
 12678 ;; This function is called by:
 12679 ;;		_EUSART_RX_ISR
 12680 ;;		i2_EUSART_RX_ISR
 12681 ;; This function uses a non-reentrant model
 12682 ;;
 12683                           
 12684                           	psect	text85
 12685   0046BA                     __ptext85:
 12686                           	callstack 0
 12687   0046BA                     i2_USART_RX_INT:
 12688                           	callstack 8
 12689   0046BA                     
 12690                           ;application.c: 38:   EUSART_ASYNC_ReadByteNonBlocking(&Recieved_char);
 12691   0046BA  0EFF               	movlw	low _Recieved_char
 12692   0046BC  6E01               	movwf	i2EUSART_ASYNC_ReadByteNonBlocking@data^0,c
 12693   0046BE  0E00               	movlw	high _Recieved_char
 12694   0046C0  6E02               	movwf	(i2EUSART_ASYNC_ReadByteNonBlocking@data+1)^0,c
 12695   0046C2  EC14  F023         	call	i2_EUSART_ASYNC_ReadByteNonBlocking	;wreg free
 12696   0046C6                     
 12697                           ;application.c: 39:   lcd_4bit_send_command(&lcd1,0X01);
 12698   0046C6  0ECE               	movlw	low _lcd1
 12699   0046C8  6E0F               	movwf	i2lcd_4bit_send_command@lcd^0,c
 12700   0046CA  0E01               	movlw	high _lcd1
 12701   0046CC  6E10               	movwf	(i2lcd_4bit_send_command@lcd+1)^0,c
 12702   0046CE  0E01               	movlw	1
 12703   0046D0  6E11               	movwf	i2lcd_4bit_send_command@command^0,c
 12704   0046D2  ECF5  F01F         	call	i2_lcd_4bit_send_command	;wreg free
 12705   0046D6                     
 12706                           ;application.c: 40:   lcd_4bit_send_char_data(&lcd1,Recieved_char);
 12707   0046D6  0ECE               	movlw	low _lcd1
 12708   0046D8  6E0F               	movwf	i2lcd_4bit_send_char_data@lcd^0,c
 12709   0046DA  0E01               	movlw	high _lcd1
 12710   0046DC  6E10               	movwf	(i2lcd_4bit_send_char_data@lcd+1)^0,c
 12711   0046DE  C0FF  F011         	movff	_Recieved_char,i2lcd_4bit_send_char_data@data	;volatile
 12712   0046E2  ECBC  F01F         	call	i2_lcd_4bit_send_char_data	;wreg free
 12713   0046E6  0012               	return		;funcret
 12714   0046E8                     __end_ofi2_USART_RX_INT:
 12715                           	callstack 0
 12716                           
 12717 ;; *************** function i2_lcd_4bit_send_command *****************
 12718 ;; Defined at:
 12719 ;;		line 43 in file "ECU_Layer/Chr_LCD/ecu_chr_lcd.c"
 12720 ;; Parameters:    Size  Location     Type
 12721 ;;  lcd             2   14[COMRAM] PTR const struct .
 12722 ;;		 -> lcd1(6), 
 12723 ;;  command         1   16[COMRAM] unsigned char 
 12724 ;; Auto vars:     Size  Location     Type
 12725 ;;  ret             1   17[COMRAM] unsigned char 
 12726 ;; Return value:  Size  Location     Type
 12727 ;;                  1    wreg      unsigned char 
 12728 ;; Registers used:
 12729 ;;		wreg, fsr2l, fsr2h, status,2, status,0, prodl, prodh, cstack
 12730 ;; Tracked objects:
 12731 ;;		On entry : 0/0
 12732 ;;		On exit  : 0/0
 12733 ;;		Unchanged: 0/0
 12734 ;; Data sizes:     COMRAM   BANK0   BANK1   BANK2   BANK3   BANK4   BANK5   BANK6   BANK7   BANK8   BANK9  BANK10  BANK1
      +1  BANK12  BANK13  BANK14  BANK15
 12735 ;;      Params:         3       0       0       0       0       0       0       0       0       0       0       0       
      +0       0       0       0       0
 12736 ;;      Locals:         1       0       0       0       0       0       0       0       0       0       0       0       
      +0       0       0       0       0
 12737 ;;      Temps:          0       0       0       0       0       0       0       0       0       0       0       0       
      +0       0       0       0       0
 12738 ;;      Totals:         4       0       0       0       0       0       0       0       0       0       0       0       
      +0       0       0       0       0
 12739 ;;Total ram usage:        4 bytes
 12740 ;; Hardware stack levels used: 1
 12741 ;; Hardware stack levels required when called: 2
 12742 ;; This function calls:
 12743 ;;		i2_gpio_pin_write_logic
 12744 ;;		i2_lcd_4bit_send_enable_signal
 12745 ;;		i2_lcd_send_4bits
 12746 ;; This function is called by:
 12747 ;;		i2_USART_TX_INT
 12748 ;;		i2_USART_RX_INT
 12749 ;; This function uses a non-reentrant model
 12750 ;;
 12751                           
 12752                           	psect	text86
 12753   003FEA                     __ptext86:
 12754                           	callstack 0
 12755   003FEA                     i2_lcd_4bit_send_command:
 12756                           	callstack 8
 12757   003FEA                     
 12758                           ;ECU_Layer/Chr_LCD/ecu_chr_lcd.c: 45:     if(lcd==((void*)0)){
 12759   003FEA  500F               	movf	i2lcd_4bit_send_command@lcd^0,w,c
 12760   003FEC  1010               	iorwf	(i2lcd_4bit_send_command@lcd+1)^0,w,c
 12761   003FEE  A4D8               	btfss	status,2,c
 12762   003FF0  EFFC  F01F         	goto	i2u1399_41
 12763   003FF4  EFFE  F01F         	goto	i2u1399_40
 12764   003FF8                     i2u1399_41:
 12765   003FF8  EF00  F020         	goto	i2l11735
 12766   003FFC                     i2u1399_40:
 12767   003FFC                     
 12768                           ;ECU_Layer/Chr_LCD/ecu_chr_lcd.c: 47:     }
 12769   003FFC  EF2A  F020         	goto	i2l76
 12770   004000                     i2l11735:
 12771                           
 12772                           ;ECU_Layer/Chr_LCD/ecu_chr_lcd.c: 49:         ret=gpio_pin_write_logic(&(lcd->lcd_rs),LO
      +                          W);
 12773   004000  C00F  F001         	movff	i2lcd_4bit_send_command@lcd,i2gpio_pin_write_logic@pin_config
 12774   004004  C010  F002         	movff	i2lcd_4bit_send_command@lcd+1,i2gpio_pin_write_logic@pin_config+1
 12775   004008  0E00               	movlw	0
 12776   00400A  6E03               	movwf	i2gpio_pin_write_logic@logic^0,c
 12777   00400C  EC15  F016         	call	i2_gpio_pin_write_logic	;wreg free
 12778   004010  6E12               	movwf	i2lcd_4bit_send_command@ret^0,c
 12779                           
 12780                           ;ECU_Layer/Chr_LCD/ecu_chr_lcd.c: 50:         ret=lcd_send_4bits(lcd, command >> 4);
 12781   004012  C00F  F00B         	movff	i2lcd_4bit_send_command@lcd,i2lcd_send_4bits@lcd
 12782   004016  C010  F00C         	movff	i2lcd_4bit_send_command@lcd+1,i2lcd_send_4bits@lcd+1
 12783   00401A  3811               	swapf	i2lcd_4bit_send_command@command^0,w,c
 12784   00401C  0B0F               	andlw	15
 12785   00401E  6E0D               	movwf	i2lcd_send_4bits@_data_command^0,c
 12786   004020  ECBC  F01D         	call	i2_lcd_send_4bits	;wreg free
 12787   004024  6E12               	movwf	i2lcd_4bit_send_command@ret^0,c
 12788                           
 12789                           ;ECU_Layer/Chr_LCD/ecu_chr_lcd.c: 51:         ret=lcd_4bit_send_enable_signal(lcd);
 12790   004026  C00F  F00B         	movff	i2lcd_4bit_send_command@lcd,i2lcd_4bit_send_enable_signal@lcd
 12791   00402A  C010  F00C         	movff	i2lcd_4bit_send_command@lcd+1,i2lcd_4bit_send_enable_signal@lcd+1
 12792   00402E  EC7C  F021         	call	i2_lcd_4bit_send_enable_signal	;wreg free
 12793   004032  6E12               	movwf	i2lcd_4bit_send_command@ret^0,c
 12794                           
 12795                           ;ECU_Layer/Chr_LCD/ecu_chr_lcd.c: 52:         ret=lcd_send_4bits(lcd, command);
 12796   004034  C00F  F00B         	movff	i2lcd_4bit_send_command@lcd,i2lcd_send_4bits@lcd
 12797   004038  C010  F00C         	movff	i2lcd_4bit_send_command@lcd+1,i2lcd_send_4bits@lcd+1
 12798   00403C  C011  F00D         	movff	i2lcd_4bit_send_command@command,i2lcd_send_4bits@_data_command
 12799   004040  ECBC  F01D         	call	i2_lcd_send_4bits	;wreg free
 12800   004044  6E12               	movwf	i2lcd_4bit_send_command@ret^0,c
 12801                           
 12802                           ;ECU_Layer/Chr_LCD/ecu_chr_lcd.c: 53:         ret=lcd_4bit_send_enable_signal(lcd);
 12803   004046  C00F  F00B         	movff	i2lcd_4bit_send_command@lcd,i2lcd_4bit_send_enable_signal@lcd
 12804   00404A  C010  F00C         	movff	i2lcd_4bit_send_command@lcd+1,i2lcd_4bit_send_enable_signal@lcd+1
 12805   00404E  EC7C  F021         	call	i2_lcd_4bit_send_enable_signal	;wreg free
 12806   004052  6E12               	movwf	i2lcd_4bit_send_command@ret^0,c
 12807   004054                     i2l76:
 12808   004054  0012               	return		;funcret
 12809   004056                     __end_ofi2_lcd_4bit_send_command:
 12810                           	callstack 0
 12811                           
 12812 ;; *************** function i2_lcd_4bit_send_char_data *****************
 12813 ;; Defined at:
 12814 ;;		line 63 in file "ECU_Layer/Chr_LCD/ecu_chr_lcd.c"
 12815 ;; Parameters:    Size  Location     Type
 12816 ;;  lcd             2   14[COMRAM] PTR const struct .
 12817 ;;		 -> lcd1(6), 
 12818 ;;  data            1   16[COMRAM] unsigned char 
 12819 ;; Auto vars:     Size  Location     Type
 12820 ;;  ret             1   17[COMRAM] unsigned char 
 12821 ;; Return value:  Size  Location     Type
 12822 ;;                  1    wreg      unsigned char 
 12823 ;; Registers used:
 12824 ;;		wreg, fsr2l, fsr2h, status,2, status,0, prodl, prodh, cstack
 12825 ;; Tracked objects:
 12826 ;;		On entry : 0/0
 12827 ;;		On exit  : 0/0
 12828 ;;		Unchanged: 0/0
 12829 ;; Data sizes:     COMRAM   BANK0   BANK1   BANK2   BANK3   BANK4   BANK5   BANK6   BANK7   BANK8   BANK9  BANK10  BANK1
      +1  BANK12  BANK13  BANK14  BANK15
 12830 ;;      Params:         3       0       0       0       0       0       0       0       0       0       0       0       
      +0       0       0       0       0
 12831 ;;      Locals:         1       0       0       0       0       0       0       0       0       0       0       0       
      +0       0       0       0       0
 12832 ;;      Temps:          0       0       0       0       0       0       0       0       0       0       0       0       
      +0       0       0       0       0
 12833 ;;      Totals:         4       0       0       0       0       0       0       0       0       0       0       0       
      +0       0       0       0       0
 12834 ;;Total ram usage:        4 bytes
 12835 ;; Hardware stack levels used: 1
 12836 ;; Hardware stack levels required when called: 2
 12837 ;; This function calls:
 12838 ;;		i2_gpio_pin_write_logic
 12839 ;;		i2_lcd_4bit_send_enable_signal
 12840 ;;		i2_lcd_send_4bits
 12841 ;; This function is called by:
 12842 ;;		i2_lcd_4bit_send_string
 12843 ;;		i2_USART_RX_INT
 12844 ;; This function uses a non-reentrant model
 12845 ;;
 12846                           
 12847                           	psect	text87
 12848   003F78                     __ptext87:
 12849                           	callstack 0
 12850   003F78                     i2_lcd_4bit_send_char_data:
 12851                           	callstack 7
 12852   003F78                     
 12853                           ;ECU_Layer/Chr_LCD/ecu_chr_lcd.c: 65:     if(lcd==((void*)0)){
 12854   003F78  500F               	movf	i2lcd_4bit_send_char_data@lcd^0,w,c
 12855   003F7A  1010               	iorwf	(i2lcd_4bit_send_char_data@lcd+1)^0,w,c
 12856   003F7C  A4D8               	btfss	status,2,c
 12857   003F7E  EFC3  F01F         	goto	i2u1393_41
 12858   003F82  EFC5  F01F         	goto	i2u1393_40
 12859   003F86                     i2u1393_41:
 12860   003F86  EFC9  F01F         	goto	i2l11693
 12861   003F8A                     i2u1393_40:
 12862   003F8A                     
 12863                           ;ECU_Layer/Chr_LCD/ecu_chr_lcd.c: 66:         ret=(Std_ReturnType)0x00;
 12864   003F8A  0E00               	movlw	0
 12865   003F8C  6E12               	movwf	i2lcd_4bit_send_char_data@ret^0,c
 12866                           
 12867                           ;ECU_Layer/Chr_LCD/ecu_chr_lcd.c: 67:     }
 12868   003F8E  EFF3  F01F         	goto	i2l11695
 12869   003F92                     i2l11693:
 12870                           
 12871                           ;ECU_Layer/Chr_LCD/ecu_chr_lcd.c: 69:        ret=gpio_pin_write_logic(&(lcd->lcd_rs),HIG
      +                          H);
 12872   003F92  C00F  F001         	movff	i2lcd_4bit_send_char_data@lcd,i2gpio_pin_write_logic@pin_config
 12873   003F96  C010  F002         	movff	i2lcd_4bit_send_char_data@lcd+1,i2gpio_pin_write_logic@pin_config+1
 12874   003F9A  0E01               	movlw	1
 12875   003F9C  6E03               	movwf	i2gpio_pin_write_logic@logic^0,c
 12876   003F9E  EC15  F016         	call	i2_gpio_pin_write_logic	;wreg free
 12877   003FA2  6E12               	movwf	i2lcd_4bit_send_char_data@ret^0,c
 12878                           
 12879                           ;ECU_Layer/Chr_LCD/ecu_chr_lcd.c: 70:         ret=lcd_send_4bits(lcd, data >> 4);
 12880   003FA4  C00F  F00B         	movff	i2lcd_4bit_send_char_data@lcd,i2lcd_send_4bits@lcd
 12881   003FA8  C010  F00C         	movff	i2lcd_4bit_send_char_data@lcd+1,i2lcd_send_4bits@lcd+1
 12882   003FAC  3811               	swapf	i2lcd_4bit_send_char_data@data^0,w,c
 12883   003FAE  0B0F               	andlw	15
 12884   003FB0  6E0D               	movwf	i2lcd_send_4bits@_data_command^0,c
 12885   003FB2  ECBC  F01D         	call	i2_lcd_send_4bits	;wreg free
 12886   003FB6  6E12               	movwf	i2lcd_4bit_send_char_data@ret^0,c
 12887                           
 12888                           ;ECU_Layer/Chr_LCD/ecu_chr_lcd.c: 71:         ret=lcd_4bit_send_enable_signal(lcd);
 12889   003FB8  C00F  F00B         	movff	i2lcd_4bit_send_char_data@lcd,i2lcd_4bit_send_enable_signal@lcd
 12890   003FBC  C010  F00C         	movff	i2lcd_4bit_send_char_data@lcd+1,i2lcd_4bit_send_enable_signal@lcd+1
 12891   003FC0  EC7C  F021         	call	i2_lcd_4bit_send_enable_signal	;wreg free
 12892   003FC4  6E12               	movwf	i2lcd_4bit_send_char_data@ret^0,c
 12893                           
 12894                           ;ECU_Layer/Chr_LCD/ecu_chr_lcd.c: 72:         ret=lcd_send_4bits(lcd, data);
 12895   003FC6  C00F  F00B         	movff	i2lcd_4bit_send_char_data@lcd,i2lcd_send_4bits@lcd
 12896   003FCA  C010  F00C         	movff	i2lcd_4bit_send_char_data@lcd+1,i2lcd_send_4bits@lcd+1
 12897   003FCE  C011  F00D         	movff	i2lcd_4bit_send_char_data@data,i2lcd_send_4bits@_data_command
 12898   003FD2  ECBC  F01D         	call	i2_lcd_send_4bits	;wreg free
 12899   003FD6  6E12               	movwf	i2lcd_4bit_send_char_data@ret^0,c
 12900                           
 12901                           ;ECU_Layer/Chr_LCD/ecu_chr_lcd.c: 73:         ret=lcd_4bit_send_enable_signal(lcd);
 12902   003FD8  C00F  F00B         	movff	i2lcd_4bit_send_char_data@lcd,i2lcd_4bit_send_enable_signal@lcd
 12903   003FDC  C010  F00C         	movff	i2lcd_4bit_send_char_data@lcd+1,i2lcd_4bit_send_enable_signal@lcd+1
 12904   003FE0  EC7C  F021         	call	i2_lcd_4bit_send_enable_signal	;wreg free
 12905   003FE4  6E12               	movwf	i2lcd_4bit_send_char_data@ret^0,c
 12906   003FE6                     i2l11695:
 12907                           
 12908                           ;ECU_Layer/Chr_LCD/ecu_chr_lcd.c: 75:     return ret;
 12909   003FE6  5012               	movf	i2lcd_4bit_send_char_data@ret^0,w,c
 12910   003FE8  0012               	return		;funcret
 12911   003FEA                     __end_ofi2_lcd_4bit_send_char_data:
 12912                           	callstack 0
 12913                           
 12914 ;; *************** function i2_lcd_send_4bits *****************
 12915 ;; Defined at:
 12916 ;;		line 396 in file "ECU_Layer/Chr_LCD/ecu_chr_lcd.c"
 12917 ;; Parameters:    Size  Location     Type
 12918 ;;  lcd             2   10[COMRAM] PTR const struct .
 12919 ;;		 -> lcd1(6), 
 12920 ;;  _data_comman    1   12[COMRAM] unsigned char 
 12921 ;; Auto vars:     Size  Location     Type
 12922 ;;  ret             1   13[COMRAM] unsigned char 
 12923 ;; Return value:  Size  Location     Type
 12924 ;;                  1    wreg      unsigned char 
 12925 ;; Registers used:
 12926 ;;		wreg, fsr2l, fsr2h, status,2, status,0, prodl, prodh, cstack
 12927 ;; Tracked objects:
 12928 ;;		On entry : 0/0
 12929 ;;		On exit  : 0/0
 12930 ;;		Unchanged: 0/0
 12931 ;; Data sizes:     COMRAM   BANK0   BANK1   BANK2   BANK3   BANK4   BANK5   BANK6   BANK7   BANK8   BANK9  BANK10  BANK1
      +1  BANK12  BANK13  BANK14  BANK15
 12932 ;;      Params:         3       0       0       0       0       0       0       0       0       0       0       0       
      +0       0       0       0       0
 12933 ;;      Locals:         1       0       0       0       0       0       0       0       0       0       0       0       
      +0       0       0       0       0
 12934 ;;      Temps:          0       0       0       0       0       0       0       0       0       0       0       0       
      +0       0       0       0       0
 12935 ;;      Totals:         4       0       0       0       0       0       0       0       0       0       0       0       
      +0       0       0       0       0
 12936 ;;Total ram usage:        4 bytes
 12937 ;; Hardware stack levels used: 1
 12938 ;; Hardware stack levels required when called: 1
 12939 ;; This function calls:
 12940 ;;		i2_gpio_pin_write_logic
 12941 ;; This function is called by:
 12942 ;;		i2_lcd_4bit_send_command
 12943 ;;		i2_lcd_4bit_send_char_data
 12944 ;; This function uses a non-reentrant model
 12945 ;;
 12946                           
 12947                           	psect	text88
 12948   003B78                     __ptext88:
 12949                           	callstack 0
 12950   003B78                     i2_lcd_send_4bits:
 12951                           	callstack 7
 12952   003B78                     
 12953                           ;ECU_Layer/Chr_LCD/ecu_chr_lcd.c: 398:     if(lcd==((void*)0)){
 12954   003B78  500B               	movf	i2lcd_send_4bits@lcd^0,w,c
 12955   003B7A  100C               	iorwf	(i2lcd_send_4bits@lcd+1)^0,w,c
 12956   003B7C  A4D8               	btfss	status,2,c
 12957   003B7E  EFC3  F01D         	goto	i2u1389_41
 12958   003B82  EFC5  F01D         	goto	i2u1389_40
 12959   003B86                     i2u1389_41:
 12960   003B86  EFC9  F01D         	goto	i2l11641
 12961   003B8A                     i2u1389_40:
 12962   003B8A                     
 12963                           ;ECU_Layer/Chr_LCD/ecu_chr_lcd.c: 399:         ret=(Std_ReturnType)0x00;
 12964   003B8A  0E00               	movlw	0
 12965   003B8C  6E0E               	movwf	i2lcd_send_4bits@ret^0,c
 12966                           
 12967                           ;ECU_Layer/Chr_LCD/ecu_chr_lcd.c: 400:     }
 12968   003B8E  EFFE  F01D         	goto	i2l11643
 12969   003B92                     i2l11641:
 12970                           
 12971                           ;ECU_Layer/Chr_LCD/ecu_chr_lcd.c: 402:         ret=gpio_pin_write_logic(&(lcd->lcd_data[
      +                          0]),( _data_command >> 0 ) & (uint8)0x01);
 12972   003B92  0E02               	movlw	2
 12973   003B94  240B               	addwf	i2lcd_send_4bits@lcd^0,w,c
 12974   003B96  6E01               	movwf	i2gpio_pin_write_logic@pin_config^0,c
 12975   003B98  0E00               	movlw	0
 12976   003B9A  200C               	addwfc	(i2lcd_send_4bits@lcd+1)^0,w,c
 12977   003B9C  6E02               	movwf	(i2gpio_pin_write_logic@pin_config+1)^0,c
 12978   003B9E  500D               	movf	i2lcd_send_4bits@_data_command^0,w,c
 12979   003BA0  0B01               	andlw	1
 12980   003BA2  6E03               	movwf	i2gpio_pin_write_logic@logic^0,c
 12981   003BA4  EC15  F016         	call	i2_gpio_pin_write_logic	;wreg free
 12982   003BA8  6E0E               	movwf	i2lcd_send_4bits@ret^0,c
 12983                           
 12984                           ;ECU_Layer/Chr_LCD/ecu_chr_lcd.c: 403:         ret=gpio_pin_write_logic(&(lcd->lcd_data[
      +                          1]),( _data_command >> 1 ) & (uint8)0x01);
 12985   003BAA  0E03               	movlw	3
 12986   003BAC  240B               	addwf	i2lcd_send_4bits@lcd^0,w,c
 12987   003BAE  6E01               	movwf	i2gpio_pin_write_logic@pin_config^0,c
 12988   003BB0  0E00               	movlw	0
 12989   003BB2  200C               	addwfc	(i2lcd_send_4bits@lcd+1)^0,w,c
 12990   003BB4  6E02               	movwf	(i2gpio_pin_write_logic@pin_config+1)^0,c
 12991   003BB6  90D8               	bcf	status,0,c
 12992   003BB8  300D               	rrcf	i2lcd_send_4bits@_data_command^0,w,c
 12993   003BBA  0B01               	andlw	1
 12994   003BBC  6E03               	movwf	i2gpio_pin_write_logic@logic^0,c
 12995   003BBE  EC15  F016         	call	i2_gpio_pin_write_logic	;wreg free
 12996   003BC2  6E0E               	movwf	i2lcd_send_4bits@ret^0,c
 12997                           
 12998                           ;ECU_Layer/Chr_LCD/ecu_chr_lcd.c: 404:         ret=gpio_pin_write_logic(&(lcd->lcd_data[
      +                          2]),( _data_command >> 2 ) & (uint8)0x01);
 12999   003BC4  0E04               	movlw	4
 13000   003BC6  240B               	addwf	i2lcd_send_4bits@lcd^0,w,c
 13001   003BC8  6E01               	movwf	i2gpio_pin_write_logic@pin_config^0,c
 13002   003BCA  0E00               	movlw	0
 13003   003BCC  200C               	addwfc	(i2lcd_send_4bits@lcd+1)^0,w,c
 13004   003BCE  6E02               	movwf	(i2gpio_pin_write_logic@pin_config+1)^0,c
 13005   003BD0  400D               	rrncf	i2lcd_send_4bits@_data_command^0,w,c
 13006   003BD2  42E8               	rrncf	wreg,f,c
 13007   003BD4  0B3F               	andlw	63
 13008   003BD6  0B01               	andlw	1
 13009   003BD8  6E03               	movwf	i2gpio_pin_write_logic@logic^0,c
 13010   003BDA  EC15  F016         	call	i2_gpio_pin_write_logic	;wreg free
 13011   003BDE  6E0E               	movwf	i2lcd_send_4bits@ret^0,c
 13012                           
 13013                           ;ECU_Layer/Chr_LCD/ecu_chr_lcd.c: 405:         ret=gpio_pin_write_logic(&(lcd->lcd_data[
      +                          3]),( _data_command >> 3 ) & (uint8)0x01);
 13014   003BE0  0E05               	movlw	5
 13015   003BE2  240B               	addwf	i2lcd_send_4bits@lcd^0,w,c
 13016   003BE4  6E01               	movwf	i2gpio_pin_write_logic@pin_config^0,c
 13017   003BE6  0E00               	movlw	0
 13018   003BE8  200C               	addwfc	(i2lcd_send_4bits@lcd+1)^0,w,c
 13019   003BEA  6E02               	movwf	(i2gpio_pin_write_logic@pin_config+1)^0,c
 13020   003BEC  380D               	swapf	i2lcd_send_4bits@_data_command^0,w,c
 13021   003BEE  46E8               	rlncf	wreg,f,c
 13022   003BF0  0B1F               	andlw	31
 13023   003BF2  0B01               	andlw	1
 13024   003BF4  6E03               	movwf	i2gpio_pin_write_logic@logic^0,c
 13025   003BF6  EC15  F016         	call	i2_gpio_pin_write_logic	;wreg free
 13026   003BFA  6E0E               	movwf	i2lcd_send_4bits@ret^0,c
 13027   003BFC                     i2l11643:
 13028                           
 13029                           ;ECU_Layer/Chr_LCD/ecu_chr_lcd.c: 407:     return ret;
 13030   003BFC  500E               	movf	i2lcd_send_4bits@ret^0,w,c
 13031   003BFE  0012               	return		;funcret
 13032   003C00                     __end_ofi2_lcd_send_4bits:
 13033                           	callstack 0
 13034                           
 13035 ;; *************** function i2_lcd_4bit_send_enable_signal *****************
 13036 ;; Defined at:
 13037 ;;		line 409 in file "ECU_Layer/Chr_LCD/ecu_chr_lcd.c"
 13038 ;; Parameters:    Size  Location     Type
 13039 ;;  lcd             2   10[COMRAM] PTR const struct .
 13040 ;;		 -> lcd1(6), 
 13041 ;; Auto vars:     Size  Location     Type
 13042 ;;  ret             1   12[COMRAM] unsigned char 
 13043 ;; Return value:  Size  Location     Type
 13044 ;;                  1    wreg      unsigned char 
 13045 ;; Registers used:
 13046 ;;		wreg, fsr2l, fsr2h, status,2, status,0, prodl, prodh, cstack
 13047 ;; Tracked objects:
 13048 ;;		On entry : 0/0
 13049 ;;		On exit  : 0/0
 13050 ;;		Unchanged: 0/0
 13051 ;; Data sizes:     COMRAM   BANK0   BANK1   BANK2   BANK3   BANK4   BANK5   BANK6   BANK7   BANK8   BANK9  BANK10  BANK1
      +1  BANK12  BANK13  BANK14  BANK15
 13052 ;;      Params:         2       0       0       0       0       0       0       0       0       0       0       0       
      +0       0       0       0       0
 13053 ;;      Locals:         1       0       0       0       0       0       0       0       0       0       0       0       
      +0       0       0       0       0
 13054 ;;      Temps:          0       0       0       0       0       0       0       0       0       0       0       0       
      +0       0       0       0       0
 13055 ;;      Totals:         3       0       0       0       0       0       0       0       0       0       0       0       
      +0       0       0       0       0
 13056 ;;Total ram usage:        3 bytes
 13057 ;; Hardware stack levels used: 1
 13058 ;; Hardware stack levels required when called: 1
 13059 ;; This function calls:
 13060 ;;		i2_gpio_pin_write_logic
 13061 ;; This function is called by:
 13062 ;;		i2_lcd_4bit_send_command
 13063 ;;		i2_lcd_4bit_send_char_data
 13064 ;; This function uses a non-reentrant model
 13065 ;;
 13066                           
 13067                           	psect	text89
 13068   0042F8                     __ptext89:
 13069                           	callstack 0
 13070   0042F8                     i2_lcd_4bit_send_enable_signal:
 13071                           	callstack 7
 13072   0042F8                     
 13073                           ;ECU_Layer/Chr_LCD/ecu_chr_lcd.c: 411:     if(lcd==((void*)0)){
 13074   0042F8  500B               	movf	i2lcd_4bit_send_enable_signal@lcd^0,w,c
 13075   0042FA  100C               	iorwf	(i2lcd_4bit_send_enable_signal@lcd+1)^0,w,c
 13076   0042FC  A4D8               	btfss	status,2,c
 13077   0042FE  EF83  F021         	goto	i2u1391_41
 13078   004302  EF85  F021         	goto	i2u1391_40
 13079   004306                     i2u1391_41:
 13080   004306  EF89  F021         	goto	i2l11667
 13081   00430A                     i2u1391_40:
 13082   00430A                     
 13083                           ;ECU_Layer/Chr_LCD/ecu_chr_lcd.c: 412:         ret=(Std_ReturnType)0x00;
 13084   00430A  0E00               	movlw	0
 13085   00430C  6E0D               	movwf	i2lcd_4bit_send_enable_signal@ret^0,c
 13086                           
 13087                           ;ECU_Layer/Chr_LCD/ecu_chr_lcd.c: 413:     }
 13088   00430E  EFA1  F021         	goto	i2l11671
 13089   004312                     i2l11667:
 13090   004312  0E01               	movlw	1
 13091   004314  240B               	addwf	i2lcd_4bit_send_enable_signal@lcd^0,w,c
 13092   004316  6E01               	movwf	i2gpio_pin_write_logic@pin_config^0,c
 13093   004318  0E00               	movlw	0
 13094   00431A  200C               	addwfc	(i2lcd_4bit_send_enable_signal@lcd+1)^0,w,c
 13095   00431C  6E02               	movwf	(i2gpio_pin_write_logic@pin_config+1)^0,c
 13096   00431E  0E01               	movlw	1
 13097   004320  6E03               	movwf	i2gpio_pin_write_logic@logic^0,c
 13098   004322  EC15  F016         	call	i2_gpio_pin_write_logic	;wreg free
 13099   004326                     
 13100                           ;ECU_Layer/Chr_LCD/ecu_chr_lcd.c: 416:         _delay((unsigned long)((5)*(4000000UL/400
      +                          0000.0)));
 13101   004326  D000               	nop2		;2 cycle nop
 13102   004328  D000               	nop2		;2 cycle nop
 13103   00432A  F000               	nop	
 13104                           
 13105                           ;ECU_Layer/Chr_LCD/ecu_chr_lcd.c: 417:         ret=gpio_pin_write_logic(&(lcd->lcd_en),L
      +                          OW);
 13106   00432C  0E01               	movlw	1
 13107   00432E  240B               	addwf	i2lcd_4bit_send_enable_signal@lcd^0,w,c
 13108   004330  6E01               	movwf	i2gpio_pin_write_logic@pin_config^0,c
 13109   004332  0E00               	movlw	0
 13110   004334  200C               	addwfc	(i2lcd_4bit_send_enable_signal@lcd+1)^0,w,c
 13111   004336  6E02               	movwf	(i2gpio_pin_write_logic@pin_config+1)^0,c
 13112   004338  0E00               	movlw	0
 13113   00433A  6E03               	movwf	i2gpio_pin_write_logic@logic^0,c
 13114   00433C  EC15  F016         	call	i2_gpio_pin_write_logic	;wreg free
 13115   004340  6E0D               	movwf	i2lcd_4bit_send_enable_signal@ret^0,c
 13116   004342                     i2l11671:
 13117                           
 13118                           ;ECU_Layer/Chr_LCD/ecu_chr_lcd.c: 419:     return ret;
 13119   004342  500D               	movf	i2lcd_4bit_send_enable_signal@ret^0,w,c
 13120   004344  0012               	return		;funcret
 13121   004346                     __end_ofi2_lcd_4bit_send_enable_signal:
 13122                           	callstack 0
 13123                           
 13124 ;; *************** function i2_gpio_pin_write_logic *****************
 13125 ;; Defined at:
 13126 ;;		line 94 in file "MCAL_Layer/GPIO/hal_gpio.c"
 13127 ;; Parameters:    Size  Location     Type
 13128 ;;  pin_config      2    0[COMRAM] PTR const struct .
 13129 ;;		 -> lcd1.lcd_data(4), lcd1(6), relay_turn_off@pin_obj(1), relay_turn_on@pin_obj(1), 
 13130 ;;		 -> relay_initialize@pin_obj(1), led_turn_off@pin_obj(1), led_turn_on@pin_obj(1), led_initialize@pin_obj(1), 
 13131 ;;  logic           1    2[COMRAM] enum E3269
 13132 ;; Auto vars:     Size  Location     Type
 13133 ;;  ret             1    9[COMRAM] unsigned char 
 13134 ;; Return value:  Size  Location     Type
 13135 ;;                  1    wreg      unsigned char 
 13136 ;; Registers used:
 13137 ;;		wreg, fsr2l, fsr2h, status,2, status,0, prodl, prodh
 13138 ;; Tracked objects:
 13139 ;;		On entry : 0/0
 13140 ;;		On exit  : 0/0
 13141 ;;		Unchanged: 0/0
 13142 ;; Data sizes:     COMRAM   BANK0   BANK1   BANK2   BANK3   BANK4   BANK5   BANK6   BANK7   BANK8   BANK9  BANK10  BANK1
      +1  BANK12  BANK13  BANK14  BANK15
 13143 ;;      Params:         3       0       0       0       0       0       0       0       0       0       0       0       
      +0       0       0       0       0
 13144 ;;      Locals:         1       0       0       0       0       0       0       0       0       0       0       0       
      +0       0       0       0       0
 13145 ;;      Temps:          6       0       0       0       0       0       0       0       0       0       0       0       
      +0       0       0       0       0
 13146 ;;      Totals:        10       0       0       0       0       0       0       0       0       0       0       0       
      +0       0       0       0       0
 13147 ;;Total ram usage:       10 bytes
 13148 ;; Hardware stack levels used: 1
 13149 ;; This function calls:
 13150 ;;		Nothing
 13151 ;; This function is called by:
 13152 ;;		i2_lcd_4bit_send_command
 13153 ;;		i2_lcd_4bit_send_char_data
 13154 ;;		i2_lcd_send_4bits
 13155 ;;		i2_lcd_4bit_send_enable_signal
 13156 ;; This function uses a non-reentrant model
 13157 ;;
 13158                           
 13159                           	psect	text90
 13160   002C2A                     __ptext90:
 13161                           	callstack 0
 13162   002C2A                     i2_gpio_pin_write_logic:
 13163                           	callstack 7
 13164   002C2A                     
 13165                           ;MCAL_Layer/GPIO/hal_gpio.c: 95:       Std_ReturnType ret=(Std_ReturnType)0x01;
 13166   002C2A  0E01               	movlw	1
 13167   002C2C  6E0A               	movwf	i2gpio_pin_write_logic@ret^0,c
 13168   002C2E                     
 13169                           ;MCAL_Layer/GPIO/hal_gpio.c: 96:     if((pin_config==((void*)0))||(pin_config->pin>8 -1)
      +                          ||(pin_config->port>5 -1)){
 13170   002C2E  5001               	movf	i2gpio_pin_write_logic@pin_config^0,w,c
 13171   002C30  1002               	iorwf	(i2gpio_pin_write_logic@pin_config+1)^0,w,c
 13172   002C32  B4D8               	btfsc	status,2,c
 13173   002C34  EF1E  F016         	goto	i2u1383_41
 13174   002C38  EF20  F016         	goto	i2u1383_40
 13175   002C3C                     i2u1383_41:
 13176   002C3C  EF40  F016         	goto	i2l11605
 13177   002C40                     i2u1383_40:
 13178   002C40  C001  FFD9         	movff	i2gpio_pin_write_logic@pin_config,fsr2l
 13179   002C44  C002  FFDA         	movff	i2gpio_pin_write_logic@pin_config+1,fsr2h
 13180   002C48  30DF               	rrcf	223,w,c
 13181   002C4A  32E8               	rrcf	wreg,f,c
 13182   002C4C  32E8               	rrcf	wreg,f,c
 13183   002C4E  0B07               	andlw	7
 13184   002C50  6E04               	movwf	??i2_gpio_pin_write_logic^0,c
 13185   002C52  0E08               	movlw	8
 13186   002C54  6004               	cpfslt	??i2_gpio_pin_write_logic^0,c
 13187   002C56  EF2F  F016         	goto	i2u1384_41
 13188   002C5A  EF31  F016         	goto	i2u1384_40
 13189   002C5E                     i2u1384_41:
 13190   002C5E  EF40  F016         	goto	i2l11605
 13191   002C62                     i2u1384_40:
 13192   002C62  C001  FFD9         	movff	i2gpio_pin_write_logic@pin_config,fsr2l
 13193   002C66  C002  FFDA         	movff	i2gpio_pin_write_logic@pin_config+1,fsr2h
 13194   002C6A  50DF               	movf	223,w,c
 13195   002C6C  0B07               	andlw	7
 13196   002C6E  6E04               	movwf	??i2_gpio_pin_write_logic^0,c
 13197   002C70  0E04               	movlw	4
 13198   002C72  6404               	cpfsgt	??i2_gpio_pin_write_logic^0,c
 13199   002C74  EF3E  F016         	goto	i2u1385_41
 13200   002C78  EF40  F016         	goto	i2u1385_40
 13201   002C7C                     i2u1385_41:
 13202   002C7C  EFA3  F016         	goto	i2l11613
 13203   002C80                     i2u1385_40:
 13204   002C80                     i2l11605:
 13205                           
 13206                           ;MCAL_Layer/GPIO/hal_gpio.c: 97:         ret=(Std_ReturnType)0x00;
 13207   002C80  0E00               	movlw	0
 13208   002C82  6E0A               	movwf	i2gpio_pin_write_logic@ret^0,c
 13209                           
 13210                           ;MCAL_Layer/GPIO/hal_gpio.c: 98:     }
 13211   002C84  EFB8  F016         	goto	i2l11615
 13212   002C88                     i2l11607:
 13213                           
 13214                           ;MCAL_Layer/GPIO/hal_gpio.c: 102:                 (*lat_registers[pin_config->port]|=((u
      +                          int8)0x01<<pin_config->pin));
 13215   002C88  C001  FFD9         	movff	i2gpio_pin_write_logic@pin_config,fsr2l
 13216   002C8C  C002  FFDA         	movff	i2gpio_pin_write_logic@pin_config+1,fsr2h
 13217   002C90  30DF               	rrcf	223,w,c
 13218   002C92  32E8               	rrcf	wreg,f,c
 13219   002C94  32E8               	rrcf	wreg,f,c
 13220   002C96  0B07               	andlw	7
 13221   002C98  6E04               	movwf	??i2_gpio_pin_write_logic^0,c
 13222   002C9A  0E01               	movlw	1
 13223   002C9C  6E05               	movwf	(??i2_gpio_pin_write_logic+1)^0,c
 13224   002C9E  2A04               	incf	??i2_gpio_pin_write_logic^0,f,c
 13225   002CA0  EF54  F016         	goto	i2u1386_44
 13226   002CA4                     i2u1386_45:
 13227   002CA4  90D8               	bcf	status,0,c
 13228   002CA6  3605               	rlcf	(??i2_gpio_pin_write_logic+1)^0,f,c
 13229   002CA8                     i2u1386_44:
 13230   002CA8  2E04               	decfsz	??i2_gpio_pin_write_logic^0,f,c
 13231   002CAA  EF52  F016         	goto	i2u1386_45
 13232   002CAE  C001  FFD9         	movff	i2gpio_pin_write_logic@pin_config,fsr2l
 13233   002CB2  C002  FFDA         	movff	i2gpio_pin_write_logic@pin_config+1,fsr2h
 13234   002CB6  50DF               	movf	223,w,c
 13235   002CB8  0B07               	andlw	7
 13236   002CBA  6E06               	movwf	(??i2_gpio_pin_write_logic+2)^0,c
 13237   002CBC  5006               	movf	(??i2_gpio_pin_write_logic+2)^0,w,c
 13238   002CBE  0D02               	mullw	2
 13239   002CC0  0EBA               	movlw	low _lat_registers
 13240   002CC2  24F3               	addwf	243,w,c
 13241   002CC4  6ED9               	movwf	fsr2l,c
 13242   002CC6  0E01               	movlw	high _lat_registers
 13243   002CC8  20F4               	addwfc	prodh,w,c
 13244   002CCA  6EDA               	movwf	fsr2h,c
 13245   002CCC  CFDE F007          	movff	postinc2,??i2_gpio_pin_write_logic+3
 13246   002CD0  CFDD F008          	movff	postdec2,??i2_gpio_pin_write_logic+4
 13247   002CD4  C007  FFD9         	movff	??i2_gpio_pin_write_logic+3,fsr2l
 13248   002CD8  C008  FFDA         	movff	??i2_gpio_pin_write_logic+4,fsr2h
 13249   002CDC  5005               	movf	(??i2_gpio_pin_write_logic+1)^0,w,c
 13250   002CDE  12DF               	iorwf	indf2,f,c
 13251                           
 13252                           ;MCAL_Layer/GPIO/hal_gpio.c: 103:                 break;
 13253   002CE0  EFB8  F016         	goto	i2l11615
 13254   002CE4                     i2l11609:
 13255                           
 13256                           ;MCAL_Layer/GPIO/hal_gpio.c: 105:                 (*lat_registers[pin_config->port]&=~((
      +                          uint8)0x01<<pin_config->pin));
 13257   002CE4  C001  FFD9         	movff	i2gpio_pin_write_logic@pin_config,fsr2l
 13258   002CE8  C002  FFDA         	movff	i2gpio_pin_write_logic@pin_config+1,fsr2h
 13259   002CEC  30DF               	rrcf	223,w,c
 13260   002CEE  32E8               	rrcf	wreg,f,c
 13261   002CF0  32E8               	rrcf	wreg,f,c
 13262   002CF2  0B07               	andlw	7
 13263   002CF4  6E04               	movwf	??i2_gpio_pin_write_logic^0,c
 13264   002CF6  0E01               	movlw	1
 13265   002CF8  6E05               	movwf	(??i2_gpio_pin_write_logic+1)^0,c
 13266   002CFA  2A04               	incf	??i2_gpio_pin_write_logic^0,f,c
 13267   002CFC  EF82  F016         	goto	i2u1387_44
 13268   002D00                     i2u1387_45:
 13269   002D00  90D8               	bcf	status,0,c
 13270   002D02  3605               	rlcf	(??i2_gpio_pin_write_logic+1)^0,f,c
 13271   002D04                     i2u1387_44:
 13272   002D04  2E04               	decfsz	??i2_gpio_pin_write_logic^0,f,c
 13273   002D06  EF80  F016         	goto	i2u1387_45
 13274   002D0A  5005               	movf	(??i2_gpio_pin_write_logic+1)^0,w,c
 13275   002D0C  0AFF               	xorlw	255
 13276   002D0E  6E06               	movwf	(??i2_gpio_pin_write_logic+2)^0,c
 13277   002D10  C001  FFD9         	movff	i2gpio_pin_write_logic@pin_config,fsr2l
 13278   002D14  C002  FFDA         	movff	i2gpio_pin_write_logic@pin_config+1,fsr2h
 13279   002D18  50DF               	movf	223,w,c
 13280   002D1A  0B07               	andlw	7
 13281   002D1C  6E07               	movwf	(??i2_gpio_pin_write_logic+3)^0,c
 13282   002D1E  5007               	movf	(??i2_gpio_pin_write_logic+3)^0,w,c
 13283   002D20  0D02               	mullw	2
 13284   002D22  0EBA               	movlw	low _lat_registers
 13285   002D24  24F3               	addwf	243,w,c
 13286   002D26  6ED9               	movwf	fsr2l,c
 13287   002D28  0E01               	movlw	high _lat_registers
 13288   002D2A  20F4               	addwfc	prodh,w,c
 13289   002D2C  6EDA               	movwf	fsr2h,c
 13290   002D2E  CFDE F008          	movff	postinc2,??i2_gpio_pin_write_logic+4
 13291   002D32  CFDD F009          	movff	postdec2,??i2_gpio_pin_write_logic+5
 13292   002D36  C008  FFD9         	movff	??i2_gpio_pin_write_logic+4,fsr2l
 13293   002D3A  C009  FFDA         	movff	??i2_gpio_pin_write_logic+5,fsr2h
 13294   002D3E  5006               	movf	(??i2_gpio_pin_write_logic+2)^0,w,c
 13295   002D40  16DF               	andwf	indf2,f,c
 13296                           
 13297                           ;MCAL_Layer/GPIO/hal_gpio.c: 106:                 break;
 13298   002D42  EFB8  F016         	goto	i2l11615
 13299   002D46                     i2l11613:
 13300   002D46  5003               	movf	i2gpio_pin_write_logic@logic^0,w,c
 13301   002D48  6E04               	movwf	??i2_gpio_pin_write_logic^0,c
 13302   002D4A  6A05               	clrf	(??i2_gpio_pin_write_logic+1)^0,c
 13303                           
 13304                           ; Switch on 2 bytes has been partitioned into a top level switch of size 1, and 1 sub-sw
      +                          itches
 13305                           ; Switch size 1, requested type "simple"
 13306                           ; Number of cases is 1, Range of values is 0 to 0
 13307                           ; switch strategies available:
 13308                           ; Name         Instructions Cycles
 13309                           ; simple_byte            4     3 (average)
 13310                           ;	Chosen strategy is simple_byte
 13311   002D4C  5005               	movf	(??i2_gpio_pin_write_logic+1)^0,w,c
 13312   002D4E  0A00               	xorlw	0	; case 0
 13313   002D50  B4D8               	btfsc	status,2,c
 13314   002D52  EFAD  F016         	goto	i2l12179
 13315   002D56  EF40  F016         	goto	i2l11605
 13316   002D5A                     i2l12179:
 13317                           
 13318                           ; Switch size 1, requested type "simple"
 13319                           ; Number of cases is 2, Range of values is 0 to 1
 13320                           ; switch strategies available:
 13321                           ; Name         Instructions Cycles
 13322                           ; simple_byte            7     4 (average)
 13323                           ;	Chosen strategy is simple_byte
 13324   002D5A  5004               	movf	??i2_gpio_pin_write_logic^0,w,c
 13325   002D5C  0A00               	xorlw	0	; case 0
 13326   002D5E  B4D8               	btfsc	status,2,c
 13327   002D60  EF72  F016         	goto	i2l11609
 13328   002D64  0A01               	xorlw	1	; case 1
 13329   002D66  B4D8               	btfsc	status,2,c
 13330   002D68  EF44  F016         	goto	i2l11607
 13331   002D6C  EF40  F016         	goto	i2l11605
 13332   002D70                     i2l11615:
 13333                           
 13334                           ;MCAL_Layer/GPIO/hal_gpio.c: 110:     return ret;
 13335   002D70  500A               	movf	i2gpio_pin_write_logic@ret^0,w,c
 13336   002D72  0012               	return		;funcret
 13337   002D74                     __end_ofi2_gpio_pin_write_logic:
 13338                           	callstack 0
 13339                           
 13340 ;; *************** function i2_EUSART_ASYNC_ReadByteNonBlocking *****************
 13341 ;; Defined at:
 13342 ;;		line 131 in file "MCAL_Layer/USART/hal_usart.c"
 13343 ;; Parameters:    Size  Location     Type
 13344 ;;  data            2    0[COMRAM] PTR unsigned char 
 13345 ;;		 -> Recieved_char(1), 
 13346 ;; Auto vars:     Size  Location     Type
 13347 ;;  ret             1    0        unsigned char 
 13348 ;; Return value:  Size  Location     Type
 13349 ;;                  1    wreg      unsigned char 
 13350 ;; Registers used:
 13351 ;;		wreg, fsr2l, fsr2h, status,2, status,0
 13352 ;; Tracked objects:
 13353 ;;		On entry : 0/0
 13354 ;;		On exit  : 0/0
 13355 ;;		Unchanged: 0/0
 13356 ;; Data sizes:     COMRAM   BANK0   BANK1   BANK2   BANK3   BANK4   BANK5   BANK6   BANK7   BANK8   BANK9  BANK10  BANK1
      +1  BANK12  BANK13  BANK14  BANK15
 13357 ;;      Params:         2       0       0       0       0       0       0       0       0       0       0       0       
      +0       0       0       0       0
 13358 ;;      Locals:         0       0       0       0       0       0       0       0       0       0       0       0       
      +0       0       0       0       0
 13359 ;;      Temps:          0       0       0       0       0       0       0       0       0       0       0       0       
      +0       0       0       0       0
 13360 ;;      Totals:         2       0       0       0       0       0       0       0       0       0       0       0       
      +0       0       0       0       0
 13361 ;;Total ram usage:        2 bytes
 13362 ;; Hardware stack levels used: 1
 13363 ;; This function calls:
 13364 ;;		Nothing
 13365 ;; This function is called by:
 13366 ;;		i2_USART_RX_INT
 13367 ;; This function uses a non-reentrant model
 13368 ;;
 13369                           
 13370                           	psect	text91
 13371   004628                     __ptext91:
 13372                           	callstack 0
 13373   004628                     i2_EUSART_ASYNC_ReadByteNonBlocking:
 13374                           	callstack 10
 13375   004628                     
 13376                           ;MCAL_Layer/USART/hal_usart.c: 133:     if(((void*)0) == data)
 13377   004628  5001               	movf	i2EUSART_ASYNC_ReadByteNonBlocking@data^0,w,c
 13378   00462A  1002               	iorwf	(i2EUSART_ASYNC_ReadByteNonBlocking@data+1)^0,w,c
 13379   00462C  A4D8               	btfss	status,2,c
 13380   00462E  EF1B  F023         	goto	i2u1402_41
 13381   004632  EF1D  F023         	goto	i2u1402_40
 13382   004636                     i2u1402_41:
 13383   004636  EF1F  F023         	goto	i2l1508
 13384   00463A                     i2u1402_40:
 13385   00463A                     
 13386                           ;MCAL_Layer/USART/hal_usart.c: 136:     }
 13387   00463A  EF2C  F023         	goto	i2l1512
 13388   00463E                     i2l1508:
 13389                           
 13390                           ;MCAL_Layer/USART/hal_usart.c: 138:     {;MCAL_Layer/USART/hal_usart.c: 139:         if(
      +                          1U==(*((volatile PIR1_t *)(0xF9E))).RCIF ){
 13391   00463E  AA9E               	btfss	158,5,c	;volatile
 13392   004640  EF24  F023         	goto	i2u1403_41
 13393   004644  EF26  F023         	goto	i2u1403_40
 13394   004648                     i2u1403_41:
 13395   004648  EF2C  F023         	goto	i2l1512
 13396   00464C                     i2u1403_40:
 13397   00464C                     
 13398                           ;MCAL_Layer/USART/hal_usart.c: 140:         *data =(*( (volatile uint8 *)(0xFAE) ) );
 13399   00464C  C001  FFD9         	movff	i2EUSART_ASYNC_ReadByteNonBlocking@data,fsr2l
 13400   004650  C002  FFDA         	movff	i2EUSART_ASYNC_ReadByteNonBlocking@data+1,fsr2h
 13401   004654  CFAE FFDF          	movff	4014,indf2	;volatile
 13402   004658                     i2l1512:
 13403   004658  0012               	return		;funcret
 13404   00465A                     __end_ofi2_EUSART_ASYNC_ReadByteNonBlocking:
 13405                           	callstack 0
 13406                           
 13407 ;; *************** function i2_CCP2_ISR *****************
 13408 ;; Defined at:
 13409 ;;		line 606 in file "MCAL_Layer/CCP/hal_ccp.c"
 13410 ;; Parameters:    Size  Location     Type
 13411 ;;		None
 13412 ;; Auto vars:     Size  Location     Type
 13413 ;;		None
 13414 ;; Return value:  Size  Location     Type
 13415 ;;                  1    wreg      void 
 13416 ;; Registers used:
 13417 ;;		None
 13418 ;; Tracked objects:
 13419 ;;		On entry : 0/0
 13420 ;;		On exit  : 0/0
 13421 ;;		Unchanged: 0/0
 13422 ;; Data sizes:     COMRAM   BANK0   BANK1   BANK2   BANK3   BANK4   BANK5   BANK6   BANK7   BANK8   BANK9  BANK10  BANK1
      +1  BANK12  BANK13  BANK14  BANK15
 13423 ;;      Params:         0       0       0       0       0       0       0       0       0       0       0       0       
      +0       0       0       0       0
 13424 ;;      Locals:         0       0       0       0       0       0       0       0       0       0       0       0       
      +0       0       0       0       0
 13425 ;;      Temps:          0       0       0       0       0       0       0       0       0       0       0       0       
      +0       0       0       0       0
 13426 ;;      Totals:         0       0       0       0       0       0       0       0       0       0       0       0       
      +0       0       0       0       0
 13427 ;;Total ram usage:        0 bytes
 13428 ;; Hardware stack levels used: 1
 13429 ;; This function calls:
 13430 ;;		Nothing
 13431 ;; This function is called by:
 13432 ;;		_InterruptManagerHigh
 13433 ;; This function uses a non-reentrant model
 13434 ;;
 13435                           
 13436                           	psect	text92
 13437   0047DC                     __ptext92:
 13438                           	callstack 0
 13439   0047DC                     i2_CCP2_ISR:
 13440                           	callstack 12
 13441   0047DC                     
 13442                           ;MCAL_Layer/CCP/hal_ccp.c: 609:     ((*((volatile PIR2_t *)(0xFA1))).CCP2IF=0);
 13443   0047DC  90A1               	bcf	161,0,c	;volatile
 13444   0047DE  0012               	return		;funcret
 13445   0047E0                     __end_ofi2_CCP2_ISR:
 13446                           	callstack 0
 13447                           
 13448 ;; *************** function i2_CCP1_ISR *****************
 13449 ;; Defined at:
 13450 ;;		line 596 in file "MCAL_Layer/CCP/hal_ccp.c"
 13451 ;; Parameters:    Size  Location     Type
 13452 ;;		None
 13453 ;; Auto vars:     Size  Location     Type
 13454 ;;		None
 13455 ;; Return value:  Size  Location     Type
 13456 ;;                  1    wreg      void 
 13457 ;; Registers used:
 13458 ;;		None
 13459 ;; Tracked objects:
 13460 ;;		On entry : 0/0
 13461 ;;		On exit  : 0/0
 13462 ;;		Unchanged: 0/0
 13463 ;; Data sizes:     COMRAM   BANK0   BANK1   BANK2   BANK3   BANK4   BANK5   BANK6   BANK7   BANK8   BANK9  BANK10  BANK1
      +1  BANK12  BANK13  BANK14  BANK15
 13464 ;;      Params:         0       0       0       0       0       0       0       0       0       0       0       0       
      +0       0       0       0       0
 13465 ;;      Locals:         0       0       0       0       0       0       0       0       0       0       0       0       
      +0       0       0       0       0
 13466 ;;      Temps:          0       0       0       0       0       0       0       0       0       0       0       0       
      +0       0       0       0       0
 13467 ;;      Totals:         0       0       0       0       0       0       0       0       0       0       0       0       
      +0       0       0       0       0
 13468 ;;Total ram usage:        0 bytes
 13469 ;; Hardware stack levels used: 1
 13470 ;; This function calls:
 13471 ;;		Nothing
 13472 ;; This function is called by:
 13473 ;;		_InterruptManagerHigh
 13474 ;; This function uses a non-reentrant model
 13475 ;;
 13476                           
 13477                           	psect	text93
 13478   0047E0                     __ptext93:
 13479                           	callstack 0
 13480   0047E0                     i2_CCP1_ISR:
 13481                           	callstack 12
 13482   0047E0                     
 13483                           ;MCAL_Layer/CCP/hal_ccp.c: 599:     ((*((volatile PIR1_t *)(0xF9E))).CCP1IF=0);
 13484   0047E0  949E               	bcf	158,2,c	;volatile
 13485   0047E2  0012               	return		;funcret
 13486   0047E4                     __end_ofi2_CCP1_ISR:
 13487                           	callstack 0
 13488                           
 13489 ;; *************** function i2_ADC_ISR *****************
 13490 ;; Defined at:
 13491 ;;		line 3 in file "MCAL_Layer/Interrupt/mcal_internal_interrupt.c"
 13492 ;; Parameters:    Size  Location     Type
 13493 ;;		None
 13494 ;; Auto vars:     Size  Location     Type
 13495 ;;		None
 13496 ;; Return value:  Size  Location     Type
 13497 ;;                  1    wreg      void 
 13498 ;; Registers used:
 13499 ;;		None
 13500 ;; Tracked objects:
 13501 ;;		On entry : 0/0
 13502 ;;		On exit  : 0/0
 13503 ;;		Unchanged: 0/0
 13504 ;; Data sizes:     COMRAM   BANK0   BANK1   BANK2   BANK3   BANK4   BANK5   BANK6   BANK7   BANK8   BANK9  BANK10  BANK1
      +1  BANK12  BANK13  BANK14  BANK15
 13505 ;;      Params:         0       0       0       0       0       0       0       0       0       0       0       0       
      +0       0       0       0       0
 13506 ;;      Locals:         0       0       0       0       0       0       0       0       0       0       0       0       
      +0       0       0       0       0
 13507 ;;      Temps:          0       0       0       0       0       0       0       0       0       0       0       0       
      +0       0       0       0       0
 13508 ;;      Totals:         0       0       0       0       0       0       0       0       0       0       0       0       
      +0       0       0       0       0
 13509 ;;Total ram usage:        0 bytes
 13510 ;; Hardware stack levels used: 1
 13511 ;; This function calls:
 13512 ;;		Nothing
 13513 ;; This function is called by:
 13514 ;;		_InterruptManagerHigh
 13515 ;; This function uses a non-reentrant model
 13516 ;;
 13517                           
 13518                           	psect	text94
 13519   0047E4                     __ptext94:
 13520                           	callstack 0
 13521   0047E4                     i2_ADC_ISR:
 13522                           	callstack 12
 13523   0047E4                     
 13524                           ;MCAL_Layer/Interrupt/mcal_internal_interrupt.c: 5:        ((*((volatile PIR1_t *)(0xF9E
      +                          ))).ADIF=0);
 13525   0047E4  9C9E               	bcf	158,6,c	;volatile
 13526   0047E6  0012               	return		;funcret
 13527   0047E8                     __end_ofi2_ADC_ISR:
 13528                           	callstack 0
 13529                           
 13530 ;; *************** function _INT0_ISR *****************
 13531 ;; Defined at:
 13532 ;;		line 132 in file "MCAL_Layer/Interrupt/mcal_external_interrupt.c"
 13533 ;; Parameters:    Size  Location     Type
 13534 ;;		None
 13535 ;; Auto vars:     Size  Location     Type
 13536 ;;		None
 13537 ;; Return value:  Size  Location     Type
 13538 ;;                  1    wreg      void 
 13539 ;; Registers used:
 13540 ;;		None
 13541 ;; Tracked objects:
 13542 ;;		On entry : 0/0
 13543 ;;		On exit  : 0/0
 13544 ;;		Unchanged: 0/0
 13545 ;; Data sizes:     COMRAM   BANK0   BANK1   BANK2   BANK3   BANK4   BANK5   BANK6   BANK7   BANK8   BANK9  BANK10  BANK1
      +1  BANK12  BANK13  BANK14  BANK15
 13546 ;;      Params:         0       0       0       0       0       0       0       0       0       0       0       0       
      +0       0       0       0       0
 13547 ;;      Locals:         0       0       0       0       0       0       0       0       0       0       0       0       
      +0       0       0       0       0
 13548 ;;      Temps:          0       0       0       0       0       0       0       0       0       0       0       0       
      +0       0       0       0       0
 13549 ;;      Totals:         0       0       0       0       0       0       0       0       0       0       0       0       
      +0       0       0       0       0
 13550 ;;Total ram usage:        0 bytes
 13551 ;; Hardware stack levels used: 1
 13552 ;; This function calls:
 13553 ;;		Nothing
 13554 ;; This function is called by:
 13555 ;;		_InterruptManagerHigh
 13556 ;; This function uses a non-reentrant model
 13557 ;;
 13558                           
 13559                           	psect	text95
 13560   0047E8                     __ptext95:
 13561                           	callstack 0
 13562   0047E8                     _INT0_ISR:
 13563                           	callstack 12
 13564   0047E8                     
 13565                           ;MCAL_Layer/Interrupt/mcal_external_interrupt.c: 134:     ((*((volatile INTCON_t *)(0xFF
      +                          2))).INT0IF=0);
 13566   0047E8  92F2               	bcf	242,1,c	;volatile
 13567   0047EA  0012               	return		;funcret
 13568   0047EC                     __end_of_INT0_ISR:
 13569                           	callstack 0
 13570                           
 13571                           	psect	text96
 13572   000000                     __ptext96:
 13573                           	callstack 0
 13574   000000                     
 13575                           	psect	rparam
 13576   000000                     
 13577                           	psect	temp
 13578   00007F                     btemp:
 13579                           	callstack 0
 13580   00007F                     	ds	1
 13581   000000                     int$flags	set	btemp
 13582   000000                     wtemp8	set	btemp+1
 13583   000000                     ttemp5	set	btemp+1
 13584   000000                     ttemp6	set	btemp+4
 13585   000000                     ttemp7	set	btemp+8
 13586                           
 13587                           	psect	config
 13588                           
 13589                           ; Padding undefined space
 13590   300000                     	org	3145728
 13591   300000  FF                 	db	255
 13592                           
 13593                           ;Config register CONFIG1H @ 0x300001
 13594                           ;	Oscillator Selection bits
 13595                           ;	OSC = HS, HS oscillator
 13596                           ;	Fail-Safe Clock Monitor Enable bit
 13597                           ;	FCMEN = OFF, Fail-Safe Clock Monitor disabled
 13598                           ;	Internal/External Oscillator Switchover bit
 13599                           ;	IESO = OFF, Oscillator Switchover mode disabled
 13600   300001                     	org	3145729
 13601   300001  02                 	db	2
 13602                           
 13603                           ;Config register CONFIG2L @ 0x300002
 13604                           ;	Power-up Timer Enable bit
 13605                           ;	PWRT = OFF, PWRT disabled
 13606                           ;	Brown-out Reset Enable bits
 13607                           ;	BOREN = OFF, Brown-out Reset disabled in hardware and software
 13608                           ;	Brown Out Reset Voltage bits
 13609                           ;	BORV = 1, 
 13610   300002                     	org	3145730
 13611   300002  09                 	db	9
 13612                           
 13613                           ;Config register CONFIG2H @ 0x300003
 13614                           ;	Watchdog Timer Enable bit
 13615                           ;	WDT = OFF, WDT disabled (control is placed on the SWDTEN bit)
 13616                           ;	Watchdog Timer Postscale Select bits
 13617                           ;	WDTPS = 32768, 1:32768
 13618   300003                     	org	3145731
 13619   300003  1E                 	db	30
 13620                           
 13621                           ; Padding undefined space
 13622   300004                     	org	3145732
 13623   300004  FF                 	db	255
 13624                           
 13625                           ;Config register CONFIG3H @ 0x300005
 13626                           ;	CCP2 MUX bit
 13627                           ;	CCP2MX = PORTC, CCP2 input/output is multiplexed with RC1
 13628                           ;	PORTB A/D Enable bit
 13629                           ;	PBADEN = OFF, PORTB<4:0> pins are configured as digital I/O on Reset
 13630                           ;	Low-Power Timer1 Oscillator Enable bit
 13631                           ;	LPT1OSC = OFF, Timer1 configured for higher power operation
 13632                           ;	MCLR Pin Enable bit
 13633                           ;	MCLRE = ON, MCLR pin enabled; RE3 input pin disabled
 13634   300005                     	org	3145733
 13635   300005  81                 	db	129
 13636                           
 13637                           ;Config register CONFIG4L @ 0x300006
 13638                           ;	Stack Full/Underflow Reset Enable bit
 13639                           ;	STVREN = ON, Stack full/underflow will cause Reset
 13640                           ;	Single-Supply ICSP Enable bit
 13641                           ;	LVP = OFF, Single-Supply ICSP disabled
 13642                           ;	Extended Instruction Set Enable bit
 13643                           ;	XINST = OFF, Instruction set extension and Indexed Addressing mode disabled (Legacy mo
      +                          de)
 13644                           ;	Background Debugger Enable bit
 13645                           ;	DEBUG = 0x1, unprogrammed default
 13646   300006                     	org	3145734
 13647   300006  81                 	db	129
 13648                           
 13649                           ; Padding undefined space
 13650   300007                     	org	3145735
 13651   300007  FF                 	db	255
 13652                           
 13653                           ;Config register CONFIG5L @ 0x300008
 13654                           ;	Code Protection bit
 13655                           ;	CP0 = OFF, Block 0 (000800-003FFFh) not code-protected
 13656                           ;	Code Protection bit
 13657                           ;	CP1 = OFF, Block 1 (004000-007FFFh) not code-protected
 13658                           ;	Code Protection bit
 13659                           ;	CP2 = OFF, Block 2 (008000-00BFFFh) not code-protected
 13660                           ;	Code Protection bit
 13661                           ;	CP3 = OFF, Block 3 (00C000-00FFFFh) not code-protected
 13662   300008                     	org	3145736
 13663   300008  0F                 	db	15
 13664                           
 13665                           ;Config register CONFIG5H @ 0x300009
 13666                           ;	Boot Block Code Protection bit
 13667                           ;	CPB = OFF, Boot block (000000-0007FFh) not code-protected
 13668                           ;	Data EEPROM Code Protection bit
 13669                           ;	CPD = OFF, Data EEPROM not code-protected
 13670   300009                     	org	3145737
 13671   300009  C0                 	db	192
 13672                           
 13673                           ;Config register CONFIG6L @ 0x30000A
 13674                           ;	Write Protection bit
 13675                           ;	WRT0 = OFF, Block 0 (000800-003FFFh) not write-protected
 13676                           ;	Write Protection bit
 13677                           ;	WRT1 = OFF, Block 1 (004000-007FFFh) not write-protected
 13678                           ;	Write Protection bit
 13679                           ;	WRT2 = OFF, Block 2 (008000-00BFFFh) not write-protected
 13680                           ;	Write Protection bit
 13681                           ;	WRT3 = OFF, Block 3 (00C000-00FFFFh) not write-protected
 13682   30000A                     	org	3145738
 13683   30000A  0F                 	db	15
 13684                           
 13685                           ;Config register CONFIG6H @ 0x30000B
 13686                           ;	Configuration Register Write Protection bit
 13687                           ;	WRTC = OFF, Configuration registers (300000-3000FFh) not write-protected
 13688                           ;	Boot Block Write Protection bit
 13689                           ;	WRTB = OFF, Boot Block (000000-0007FFh) not write-protected
 13690                           ;	Data EEPROM Write Protection bit
 13691                           ;	WRTD = OFF, Data EEPROM not write-protected
 13692   30000B                     	org	3145739
 13693   30000B  E0                 	db	224
 13694                           
 13695                           ;Config register CONFIG7L @ 0x30000C
 13696                           ;	Table Read Protection bit
 13697                           ;	EBTR0 = OFF, Block 0 (000800-003FFFh) not protected from table reads executed in other
      +                           blocks
 13698                           ;	Table Read Protection bit
 13699                           ;	EBTR1 = OFF, Block 1 (004000-007FFFh) not protected from table reads executed in other
      +                           blocks
 13700                           ;	Table Read Protection bit
 13701                           ;	EBTR2 = OFF, Block 2 (008000-00BFFFh) not protected from table reads executed in other
      +                           blocks
 13702                           ;	Table Read Protection bit
 13703                           ;	EBTR3 = OFF, Block 3 (00C000-00FFFFh) not protected from table reads executed in other
      +                           blocks
 13704   30000C                     	org	3145740
 13705   30000C  0F                 	db	15
 13706                           
 13707                           ;Config register CONFIG7H @ 0x30000D
 13708                           ;	Boot Block Table Read Protection bit
 13709                           ;	EBTRB = OFF, Boot Block (000000-0007FFh) not protected from table reads executed in ot
      +                          her blocks
 13710   30000D                     	org	3145741
 13711   30000D  40                 	db	64
 13712                           tosu	equ	0xFFF
 13713                           tosh	equ	0xFFE
 13714                           tosl	equ	0xFFD
 13715                           stkptr	equ	0xFFC
 13716                           pclatu	equ	0xFFB
 13717                           pclath	equ	0xFFA
 13718                           pcl	equ	0xFF9
 13719                           tblptru	equ	0xFF8
 13720                           tblptrh	equ	0xFF7
 13721                           tblptrl	equ	0xFF6
 13722                           tablat	equ	0xFF5
 13723                           prodh	equ	0xFF4
 13724                           prodl	equ	0xFF3
 13725                           indf0	equ	0xFEF
 13726                           postinc0	equ	0xFEE
 13727                           postdec0	equ	0xFED
 13728                           preinc0	equ	0xFEC
 13729                           plusw0	equ	0xFEB
 13730                           fsr0h	equ	0xFEA
 13731                           fsr0l	equ	0xFE9
 13732                           wreg	equ	0xFE8
 13733                           indf1	equ	0xFE7
 13734                           postinc1	equ	0xFE6
 13735                           postdec1	equ	0xFE5
 13736                           preinc1	equ	0xFE4
 13737                           plusw1	equ	0xFE3
 13738                           fsr1h	equ	0xFE2
 13739                           fsr1l	equ	0xFE1
 13740                           bsr	equ	0xFE0
 13741                           indf2	equ	0xFDF
 13742                           postinc2	equ	0xFDE
 13743                           postdec2	equ	0xFDD
 13744                           preinc2	equ	0xFDC
 13745                           plusw2	equ	0xFDB
 13746                           fsr2h	equ	0xFDA
 13747                           fsr2l	equ	0xFD9
 13748                           status	equ	0xFD8

Data Sizes:
    Strings     3
    Constant    16
    Data        37
    BSS         141
    Persistent  0
    Stack       0

Auto Spaces:
    Space          Size  Autos    Used
    COMRAM          126    106     126
    BANK0           128    111     128
    BANK1           256     71     212
    BANK2           256      0       0
    BANK3           256      0       0
    BANK4           256      0       0
    BANK5           256      0       0
    BANK6           256      0       0
    BANK7           256      0       0
    BANK8           256      0       0
    BANK9           256      0       0
    BANK10          256      0       0
    BANK11          256      0       0
    BANK12          256      0       0
    BANK13          256      0       0
    BANK14          256      0       0
    BANK15          128      0       0

Pointer List with Targets:

    i2sprintf@f...source	PTR const unsigned char  size(2) Largest target is 0

    i2sprintf@f...buffer	PTR unsigned char  size(2) Largest target is 0

    fputs@s	PTR const unsigned char  size(2) Largest target is 32
		 -> dbuf(BANK1[32]), 

    fputs@fp	PTR struct _IO_FILE size(2) Largest target is 12
		 -> sprintf@f(BANK0[12]), 

    fputc@fp...source	PTR const unsigned char  size(2) Largest target is 0

    fputc@fp...buffer	PTR unsigned char  size(2) Largest target is 0

    fputc@fp	PTR struct _IO_FILE size(2) Largest target is 12
		 -> sprintf@f(BANK0[12]), 

    vfprintf@ap	PTR PTR void  size(2) Largest target is 2
		 -> sprintf@ap(BANK0[2]), 

    vfprintf@fp	PTR struct _IO_FILE size(2) Largest target is 12
		 -> sprintf@f(BANK0[12]), 

    vfprintf@fmt	PTR const unsigned char  size(2) Largest target is 3
		 -> STR_3(CODE[3]), STR_2(CODE[3]), STR_1(CODE[3]), 

    vfprintf@cfmt	PTR unsigned char  size(2) Largest target is 3
		 -> STR_3(CODE[3]), STR_2(CODE[3]), STR_1(CODE[3]), 

    vfpfcnvrt@fp	PTR struct _IO_FILE size(2) Largest target is 12
		 -> sprintf@f(BANK0[12]), 

    vfpfcnvrt@ap	PTR PTR void  size(2) Largest target is 2
		 -> sprintf@ap(BANK0[2]), 

    vfpfcnvrt@cp	PTR unsigned char  size(2) Largest target is 3
		 -> STR_3(CODE[3]), STR_2(CODE[3]), STR_1(CODE[3]), 

    vfpfcnvrt@fmt	PTR PTR unsigned char  size(2) Largest target is 2
		 -> vfprintf@cfmt(BANK0[2]), 

    S3390$vp	PTR void  size(2) Largest target is 0

    convarg.vp	PTR void  size(2) Largest target is 0

    dtoa@fp	PTR struct _IO_FILE size(2) Largest target is 12
		 -> sprintf@f(BANK0[12]), 

    pad@buf	PTR unsigned char  size(2) Largest target is 32
		 -> dbuf(BANK1[32]), 

    pad@fp	PTR struct _IO_FILE size(2) Largest target is 12
		 -> sprintf@f(BANK0[12]), 

    sprintf@fmt	PTR const unsigned char  size(2) Largest target is 3
		 -> STR_3(CODE[3]), STR_2(CODE[3]), STR_1(CODE[3]), 

    sprintf@s	PTR unsigned char  size(2) Largest target is 11
		 -> convert_uint32_to_string@Temp_str(COMRAM[11]), convert_uint16_to_string@Temp_str(COMRAM[6]), convert_uint8_to_string@Temp_str(BANK0[4]), 

    sprintf@ap	PTR void [1] size(2) Largest target is 2
		 -> ?_sprintf(BANK0[2]), 

    S3337$source	PTR const unsigned char  size(2) Largest target is 0

    f...source	PTR const unsigned char  size(2) Largest target is 0

    S3337$buffer	PTR unsigned char  size(2) Largest target is 0

    f...buffer	PTR unsigned char  size(2) Largest target is 0

    memset@dest	PTR void  size(2) Largest target is 4
		 -> USART_TX_INT@counter_Str(BANK0[4]), 

    memset@s	PTR unsigned char  size(2) Largest target is 4
		 -> USART_TX_INT@counter_Str(BANK0[4]), 

    EUSART_OverrunErrorHandler	PTR FTN()void  size(2) Largest target is 1
		 -> usart_obj.EUSART_OverrunErrorHandler(BANK1[2]), NULL(), 

    EUSART_FramingErrorHandler	PTR FTN()void  size(2) Largest target is 1
		 -> usart_obj.EUSART_FramingErrorHandler(BANK1[2]), NULL(), 

    EUSART_RX_InterruptHandler	PTR FTN()void  size(2) Largest target is 1
		 -> i2_USART_RX_INT(), USART_RX_INT(), NULL(), 

    EUSART_ASYNC_RX_Init@_eusart.EUSART_OverrunErrorHandler	PTR FTN()void  size(2) Largest target is 0

    EUSART_ASYNC_RX_Init@_eusart.EUSART_FramingErrorHandler	PTR FTN()void  size(2) Largest target is 0

    EUSART_ASYNC_RX_Init@_eusart.EUSART_RxDefaultInterruptHandler	PTR FTN()void  size(2) Largest target is 1
		 -> USART_RX_INT(), 

    EUSART_ASYNC_RX_Init@_eusart.EUSART_TxDefaultInterruptHandler	PTR FTN()void  size(2) Largest target is 1
		 -> USART_TX_INT(), 

    EUSART_ASYNC_RX_Init@_eusart	PTR const struct . size(2) Largest target is 18
		 -> usart_obj(BANK1[18]), 

    EUSART_TX_InterruptHandler	PTR FTN()void  size(2) Largest target is 1
		 -> i2_USART_TX_INT(), USART_TX_INT(), NULL(), 

    EUSART_ASYNC_TX_Init@_eusart.EUSART_OverrunErrorHandler	PTR FTN()void  size(2) Largest target is 0

    EUSART_ASYNC_TX_Init@_eusart.EUSART_FramingErrorHandler	PTR FTN()void  size(2) Largest target is 0

    EUSART_ASYNC_TX_Init@_eusart.EUSART_RxDefaultInterruptHandler	PTR FTN()void  size(2) Largest target is 1
		 -> USART_RX_INT(), 

    EUSART_ASYNC_TX_Init@_eusart.EUSART_TxDefaultInterruptHandler	PTR FTN()void  size(2) Largest target is 1
		 -> USART_TX_INT(), 

    EUSART_ASYNC_TX_Init@_eusart	PTR const struct . size(2) Largest target is 18
		 -> usart_obj(BANK1[18]), 

    EUSART_Baud_Rate_Calcualtion@_eusart.EUSART_OverrunErrorHandler	PTR FTN()void  size(2) Largest target is 0

    EUSART_Baud_Rate_Calcualtion@_eusart.EUSART_FramingErrorHandler	PTR FTN()void  size(2) Largest target is 0

    EUSART_Baud_Rate_Calcualtion@_eusart.EUSART_RxDefaultInterruptHandler	PTR FTN()void  size(2) Largest target is 1
		 -> USART_RX_INT(), 

    EUSART_Baud_Rate_Calcualtion@_eusart.EUSART_TxDefaultInterruptHandler	PTR FTN()void  size(2) Largest target is 1
		 -> USART_TX_INT(), 

    EUSART_Baud_Rate_Calcualtion@_eusart	PTR const struct . size(2) Largest target is 18
		 -> usart_obj(BANK1[18]), 

    EUSART_ASYNC_ReadByteNonBlocking@data	PTR unsigned char  size(2) Largest target is 1
		 -> Recieved_char(BANK0[1]), 

    EUSART_ASYNC_Init@_eusart	PTR const struct . size(2) Largest target is 18
		 -> usart_obj(BANK1[18]), 

    S2579$EUSART_OverrunErrorHandler	PTR FTN()void  size(2) Largest target is 0

    usart_obj.EUSART_OverrunErrorHandler	PTR FTN()void  size(2) Largest target is 0

    S2579$EUSART_FramingErrorHandler	PTR FTN()void  size(2) Largest target is 0

    usart_obj.EUSART_FramingErrorHandler	PTR FTN()void  size(2) Largest target is 0

    S2579$EUSART_RxDefaultInterruptHandler	PTR FTN()void  size(2) Largest target is 1
		 -> USART_RX_INT(), 

    usart_obj.EUSART_RxDefaultInterruptHandler	PTR FTN()void  size(2) Largest target is 1
		 -> i2_USART_RX_INT(), USART_RX_INT(), 

    S2579$EUSART_TxDefaultInterruptHandler	PTR FTN()void  size(2) Largest target is 1
		 -> USART_TX_INT(), 

    usart_obj.EUSART_TxDefaultInterruptHandler	PTR FTN()void  size(2) Largest target is 1
		 -> i2_USART_TX_INT(), USART_TX_INT(), 

    Timer3_Mode_Select@_timer.TMR3_InterruptHandler	PTR FTN()void  size(2) Largest target is 0

    TMR3_InterruptHandler	PTR FTN()void  size(2) Largest target is 1
		 -> NULL(), 

    S2383$TMR3_InterruptHandler	PTR FTN()void  size(2) Largest target is 0

    Timer3_Init@_timer.TMR3_InterruptHandler	PTR FTN()void  size(2) Largest target is 0

    Timer1_Mode_Select@_timer.TMR1_InterruptHandler	PTR FTN()void  size(2) Largest target is 0

    TMR1_InterruptHandler	PTR FTN()void  size(2) Largest target is 1
		 -> NULL(), 

    S2209$TMR1_InterruptHandler	PTR FTN()void  size(2) Largest target is 0

    Timer1_Init@_timer.TMR1_InterruptHandler	PTR FTN()void  size(2) Largest target is 0

    Timer0_Register_Size_Config@_timer.TMR0_InterruptHandler	PTR FTN()void  size(2) Largest target is 0

    Timer0_Mode_Select@_timer.TMR0_InterruptHandler	PTR FTN()void  size(2) Largest target is 0

    Timer0_Prescaler_Config@_timer.TMR0_InterruptHandler	PTR FTN()void  size(2) Largest target is 0

    S2059$TMR0_InterruptHandler	PTR FTN()void  size(2) Largest target is 0

    Timer0_Init@_timer.TMR0_InterruptHandler	PTR FTN()void  size(2) Largest target is 0

    TMR0_InterruptHandler	PTR FTN()void  size(2) Largest target is 1
		 -> NULL(), 

    Interrupt_RBx_set_pin_init_value@int_obj.EXT_InterruptHandler	PTR FTN()void  size(2) Largest target is 0

    Interrupt_RBx_SetInterruptHandler@int_obj.EXT_InterruptHandler	PTR FTN()void  size(2) Largest target is 0

    Interrupt_RBx_Pin_Init@int_obj.EXT_InterruptHandler	PTR FTN()void  size(2) Largest target is 0

    Interrupt_RBx_Priority_Init@int_obj.EXT_InterruptHandler	PTR FTN()void  size(2) Largest target is 0

    S1573$EXT_InterruptHandler	PTR FTN()void  size(2) Largest target is 0

    Interrupt_RBx_Enable@int_obj.EXT_InterruptHandler	PTR FTN()void  size(2) Largest target is 0

    Interrupt_INTx_SetInterruptHandler@int_obj.EXT_InterruptHandler	PTR FTN()void  size(2) Largest target is 0

    Interrupt_INTx_Clear_Flag@int_obj.EXT_InterruptHandler	PTR FTN()void  size(2) Largest target is 0

    Interrupt_INTx_Pin_Init@int_obj.EXT_InterruptHandler	PTR FTN()void  size(2) Largest target is 0

    Interrupt_INTx_Edge_Init@int_obj.EXT_InterruptHandler	PTR FTN()void  size(2) Largest target is 0

    Interrupt_INTx_Priority_Init@int_obj.EXT_InterruptHandler	PTR FTN()void  size(2) Largest target is 0

    Interrupt_INTx_Disable@int_obj.EXT_InterruptHandler	PTR FTN()void  size(2) Largest target is 0

    S1531$EXT_InterruptHandler	PTR FTN()void  size(2) Largest target is 0

    Interrupt_INTx_Enable@int_obj.EXT_InterruptHandler	PTR FTN()void  size(2) Largest target is 0

    RB7_InterruptHandler	PTR FTN()void  size(2) Largest target is 1
		 -> NULL(), 

    RB6_InterruptHandler	PTR FTN()void  size(2) Largest target is 1
		 -> NULL(), 

    RB5_InterruptHandler	PTR FTN()void  size(2) Largest target is 1
		 -> NULL(), 

    RB4_InterruptHandler	PTR FTN()void  size(2) Largest target is 1
		 -> NULL(), 

    INT2_InterruptHandler	PTR FTN()void  size(2) Largest target is 1
		 -> NULL(), 

    INT1_InterruptHandler	PTR FTN()void  size(2) Largest target is 1
		 -> NULL(), 

    INT0_InterruptHandler	PTR FTN()void  size(2) Largest target is 1
		 -> NULL(), 

    gpio_pin_write_logic@pin_config	PTR const struct . size(2) Largest target is 6
		 -> lcd1.lcd_data(BANK1[4]), lcd1(BANK1[6]), relay_turn_off@pin_obj(COMRAM[1]), relay_turn_on@pin_obj(COMRAM[1]), 
		 -> relay_initialize@pin_obj(COMRAM[1]), led_turn_off@pin_obj(COMRAM[1]), led_turn_on@pin_obj(COMRAM[1]), led_initialize@pin_obj(COMRAM[1]), 

    gpio_pin_direction_initialize@pin_config	PTR const struct . size(2) Largest target is 6
		 -> lcd1.lcd_data(BANK1[4]), lcd1(BANK1[6]), relay_initialize@pin_obj(COMRAM[1]), led_initialize@pin_obj(COMRAM[1]), 

    gpio_pin_initialize@pin_config	PTR const struct . size(2) Largest target is 6
		 -> lcd1.lcd_data(BANK1[4]), lcd1(BANK1[6]), relay_initialize@pin_obj(COMRAM[1]), led_initialize@pin_obj(COMRAM[1]), 

    port_registers	PTR volatile unsigned char [5] size(2) Largest target is 3967
		 -> RAM(DATA[3967]), 

    lat_registers	PTR volatile unsigned char [5] size(2) Largest target is 3967
		 -> RAM(DATA[3967]), 

    tris_registers	PTR volatile unsigned char [5] size(2) Largest target is 3967
		 -> RAM(DATA[3967]), 

    CCP_Interrupt_Init@_ccp_obj.CCP_Interrupt_Handler	PTR FTN()void  size(2) Largest target is 0

    CCP2_Interrupt_Init@_ccp_obj.CCP_Interrupt_Handler	PTR FTN()void  size(2) Largest target is 0

    CCP2_InterruptHandler	PTR FTN()void  size(2) Largest target is 1
		 -> NULL(), 

    CCP1_Interrupt_Init@_ccp_obj.CCP_Interrupt_Handler	PTR FTN()void  size(2) Largest target is 0

    CCP1_InterruptHandler	PTR FTN()void  size(2) Largest target is 1
		 -> NULL(), 

    CCP_Capture_Compare_Timer_Config@_ccp_obj.CCP_Interrupt_Handler	PTR FTN()void  size(2) Largest target is 0

    CCP_Compare_Mode_Init@_ccp_obj.CCP_Interrupt_Handler	PTR FTN()void  size(2) Largest target is 0

    CCP_Capture_Mode_Init@_ccp_obj.CCP_Interrupt_Handler	PTR FTN()void  size(2) Largest target is 0

    CCP_Compare_Mode_Set_Value@_ccp_obj.CCP_Interrupt_Handler	PTR FTN()void  size(2) Largest target is 0

    CCP_IsCompareComplete@_ccp_obj.CCP_Interrupt_Handler	PTR FTN()void  size(2) Largest target is 0

    CCP_Capture_Mode_Read_Value@_ccp_obj.CCP_Interrupt_Handler	PTR FTN()void  size(2) Largest target is 0

    CCP_IsCapturedDataReady@_ccp_obj.CCP_Interrupt_Handler	PTR FTN()void  size(2) Largest target is 0

    CCP_DeInit@_ccp_obj.CCP_Interrupt_Handler	PTR FTN()void  size(2) Largest target is 0

    S952$CCP_Interrupt_Handler	PTR FTN()void  size(2) Largest target is 0

    CCP_Init@_ccp_obj.CCP_Interrupt_Handler	PTR FTN()void  size(2) Largest target is 0

    configure_voltage_reference@_adc.ADC_InterruptHandler	PTR FTN()void  size(2) Largest target is 0

    select_result_format@_adc.ADC_InterruptHandler	PTR FTN()void  size(2) Largest target is 0

    ADC_GetConversionResult@_adc.ADC_InterruptHandler	PTR FTN()void  size(2) Largest target is 0

    ADC_InterruptHandler	PTR FTN()void  size(2) Largest target is 1
		 -> NULL(), 

    S718$ADC_InterruptHandler	PTR FTN()void  size(2) Largest target is 0

    ADC_Init@_adc.ADC_InterruptHandler	PTR FTN()void  size(2) Largest target is 0

    lcd_4bit_send_enable_signal@lcd	PTR const struct . size(2) Largest target is 6
		 -> lcd1(BANK1[6]), 

    lcd_send_4bits@lcd	PTR const struct . size(2) Largest target is 6
		 -> lcd1(BANK1[6]), 

    sp__memset	PTR void  size(2) Largest target is 4
		 -> i2USART_TX_INT@counter_Str(COMRAM[4]), USART_TX_INT@counter_Str(BANK0[4]), 

    convert_uint8_to_string@str	PTR unsigned char  size(2) Largest target is 4
		 -> USART_TX_INT@counter_Str(BANK0[4]), 

    lcd_4bit_send_string@str	PTR unsigned char  size(2) Largest target is 4
		 -> USART_TX_INT@counter_Str(BANK0[4]), 

    lcd_4bit_send_string@lcd	PTR const struct . size(2) Largest target is 6
		 -> lcd1(BANK1[6]), 

    lcd_4bit_send_char_data@lcd	PTR const struct . size(2) Largest target is 6
		 -> lcd1(BANK1[6]), 

    lcd_4bit_send_command@lcd	PTR const struct . size(2) Largest target is 6
		 -> lcd1(BANK1[6]), 

    lcd_4bit_initialize@lcd	PTR const struct . size(2) Largest target is 6
		 -> lcd1(BANK1[6]), 


Critical Paths under _main in COMRAM

    None.

Critical Paths under _InterruptManagerLow in COMRAM

    None.

Critical Paths under _InterruptManagerHigh in COMRAM

    i2_EUSART_TX_ISR->i2_USART_TX_INT
    i2_USART_TX_INT->i2_convert_uint8_to_string
    i2_lcd_4bit_send_string->i2_lcd_4bit_send_char_data
    i2_convert_uint8_to_string->i2_sprintf
    i2_sprintf->i2_vfprintf
    i2_vfprintf->i2_vfpfcnvrt
    i2_vfpfcnvrt->i2_dtoa
    i2_dtoa->i2_pad
    i2_pad->i2_fputs
    i2_fputs->i2_fputc
    i2_abs->i2___awmod
    i2_USART_RX_INT->i2_lcd_4bit_send_char_data
    i2_USART_RX_INT->i2_lcd_4bit_send_command
    i2_lcd_4bit_send_command->i2_lcd_send_4bits
    i2_lcd_4bit_send_char_data->i2_lcd_send_4bits
    i2_lcd_send_4bits->i2_gpio_pin_write_logic
    i2_lcd_4bit_send_enable_signal->i2_gpio_pin_write_logic

Critical Paths under _main in BANK0

    None.

Critical Paths under _InterruptManagerLow in BANK0

    _EUSART_TX_ISR->_USART_TX_INT
    _USART_TX_INT->_convert_uint8_to_string
    _lcd_4bit_send_string->_lcd_4bit_send_char_data
    _convert_uint8_to_string->_sprintf
    _sprintf->_vfprintf
    _vfprintf->_vfpfcnvrt
    _vfpfcnvrt->_dtoa
    _dtoa->_pad
    _pad->_fputs
    _fputs->_fputc
    _abs->___awmod
    _USART_RX_INT->_lcd_4bit_send_char_data
    _USART_RX_INT->i1_lcd_4bit_send_command
    i1_lcd_4bit_send_command->i1_lcd_send_4bits
    _lcd_4bit_send_char_data->i1_lcd_send_4bits
    i1_lcd_send_4bits->i1_gpio_pin_write_logic
    i1_lcd_4bit_send_enable_signal->i1_gpio_pin_write_logic

Critical Paths under _InterruptManagerHigh in BANK0

    None.

Critical Paths under _main in BANK1

    _USART_ASYNC_9600_BAUDRATE_INIT->_EUSART_ASYNC_Init
    _EUSART_ASYNC_Init->_EUSART_Baud_Rate_Calcualtion
    _EUSART_Baud_Rate_Calcualtion->___fladd
    ___fldiv->___xxtofl
    ___fladd->___fldiv
    _ecu_layer_initialize->_lcd_4bit_initialize
    _lcd_4bit_initialize->_lcd_4bit_send_command
    _lcd_4bit_send_command->_lcd_send_4bits
    _lcd_send_4bits->_gpio_pin_write_logic
    _lcd_4bit_send_enable_signal->_gpio_pin_write_logic
    _gpio_pin_initialize->_gpio_pin_write_logic

Critical Paths under _InterruptManagerLow in BANK1

    None.

Critical Paths under _InterruptManagerHigh in BANK1

    None.

Critical Paths under _main in BANK2

    None.

Critical Paths under _InterruptManagerLow in BANK2

    None.

Critical Paths under _InterruptManagerHigh in BANK2

    None.

Critical Paths under _main in BANK3

    None.

Critical Paths under _InterruptManagerLow in BANK3

    None.

Critical Paths under _InterruptManagerHigh in BANK3

    None.

Critical Paths under _main in BANK4

    None.

Critical Paths under _InterruptManagerLow in BANK4

    None.

Critical Paths under _InterruptManagerHigh in BANK4

    None.

Critical Paths under _main in BANK5

    None.

Critical Paths under _InterruptManagerLow in BANK5

    None.

Critical Paths under _InterruptManagerHigh in BANK5

    None.

Critical Paths under _main in BANK6

    None.

Critical Paths under _InterruptManagerLow in BANK6

    None.

Critical Paths under _InterruptManagerHigh in BANK6

    None.

Critical Paths under _main in BANK7

    None.

Critical Paths under _InterruptManagerLow in BANK7

    None.

Critical Paths under _InterruptManagerHigh in BANK7

    None.

Critical Paths under _main in BANK8

    None.

Critical Paths under _InterruptManagerLow in BANK8

    None.

Critical Paths under _InterruptManagerHigh in BANK8

    None.

Critical Paths under _main in BANK9

    None.

Critical Paths under _InterruptManagerLow in BANK9

    None.

Critical Paths under _InterruptManagerHigh in BANK9

    None.

Critical Paths under _main in BANK10

    None.

Critical Paths under _InterruptManagerLow in BANK10

    None.

Critical Paths under _InterruptManagerHigh in BANK10

    None.

Critical Paths under _main in BANK11

    None.

Critical Paths under _InterruptManagerLow in BANK11

    None.

Critical Paths under _InterruptManagerHigh in BANK11

    None.

Critical Paths under _main in BANK12

    None.

Critical Paths under _InterruptManagerLow in BANK12

    None.

Critical Paths under _InterruptManagerHigh in BANK12

    None.

Critical Paths under _main in BANK13

    None.

Critical Paths under _InterruptManagerLow in BANK13

    None.

Critical Paths under _InterruptManagerHigh in BANK13

    None.

Critical Paths under _main in BANK14

    None.

Critical Paths under _InterruptManagerLow in BANK14

    None.

Critical Paths under _InterruptManagerHigh in BANK14

    None.

Critical Paths under _main in BANK15

    None.

Critical Paths under _InterruptManagerLow in BANK15

    None.

Critical Paths under _InterruptManagerHigh in BANK15

    None.

Call Graph Tables:

 ---------------------------------------------------------------------------------
 (Depth) Function   	        Calls       Base Space   Used Autos Params    Refs
 ---------------------------------------------------------------------------------
 (0) _main                                                 2     2      0   32333
                                             69 BANK1      2     2      0
               _ecu_layer_initialize
              _mcal_layer_initialize
 ---------------------------------------------------------------------------------
 (1) _mcal_layer_initialize                                0     0      0    7383
     _USART_ASYNC_9600_BAUDRATE_INIT
 ---------------------------------------------------------------------------------
 (2) _USART_ASYNC_9600_BAUDRATE_INIT                       0     0      0    7383
                  _EUSART_ASYNC_Init
 ---------------------------------------------------------------------------------
 (3) _EUSART_ASYNC_Init                                    3     1      2    7383
                                             67 BANK1      2     0      2
               _EUSART_ASYNC_RX_Init
               _EUSART_ASYNC_TX_Init
       _EUSART_Baud_Rate_Calcualtion
 ---------------------------------------------------------------------------------
 (4) _EUSART_Baud_Rate_Calcualtion                        12    10      2    6663
                                             55 BANK1     12    10      2
                            ___fladd
                            ___fldiv
                            ___fltol
                           ___xxtofl
 ---------------------------------------------------------------------------------
 (5) ___xxtofl                                            14    10      4     616
                                              0 BANK1     14    10      4
 ---------------------------------------------------------------------------------
 (5) ___fltol                                             10     6      4     381
                                              0 BANK1     10     6      4
 ---------------------------------------------------------------------------------
 (5) ___fldiv                                             25    17      8    2423
                                             14 BANK1     25    17      8
                           ___xxtofl (ARG)
 ---------------------------------------------------------------------------------
 (5) ___fladd                                             16     8      8    2824
                                             39 BANK1     16     8      8
                            ___fldiv (ARG)
 ---------------------------------------------------------------------------------
 (4) _EUSART_ASYNC_TX_Init                                 3     1      2     252
                                              0 BANK1      3     1      2
 ---------------------------------------------------------------------------------
 (4) _EUSART_ASYNC_RX_Init                                 3     1      2     296
                                              0 BANK1      3     1      2
 ---------------------------------------------------------------------------------
 (1) _ecu_layer_initialize                                 1     1      0   24950
                _lcd_4bit_initialize
 ---------------------------------------------------------------------------------
 (2) _lcd_4bit_initialize                                  6     4      2   24948
                                             18 BANK1      6     4      2
                _gpio_pin_initialize
              _lcd_4bit_send_command
 ---------------------------------------------------------------------------------
 (3) _lcd_4bit_send_command                                4     1      3   17734
                                             14 BANK1      4     1      3
               _gpio_pin_write_logic
        _lcd_4bit_send_enable_signal
                     _lcd_send_4bits
 ---------------------------------------------------------------------------------
 (4) _lcd_send_4bits                                       4     1      3    5591
                                             10 BANK1      4     1      3
               _gpio_pin_write_logic
 ---------------------------------------------------------------------------------
 (4) _lcd_4bit_send_enable_signal                          3     1      2    5205
                                             10 BANK1      3     1      2
               _gpio_pin_write_logic
 ---------------------------------------------------------------------------------
 (3) _gpio_pin_initialize                                  4     2      2    6816
                                             10 BANK1      4     2      2
      _gpio_pin_direction_initialize
               _gpio_pin_write_logic
 ---------------------------------------------------------------------------------
 (5) _gpio_pin_write_logic                                10     7      3    4861
                                              0 BANK1     10     7      3
 ---------------------------------------------------------------------------------
 (4) _gpio_pin_direction_initialize                        9     7      2     581
                                              0 BANK1      9     7      2
 ---------------------------------------------------------------------------------
 Estimated maximum stack depth 5
 ---------------------------------------------------------------------------------
 (Depth) Function   	        Calls       Base Space   Used Autos Params    Refs
 ---------------------------------------------------------------------------------
 (6) _InterruptManagerLow                                 15    15      0   45848
                                             96 BANK0     15    15      0
                            _ADC_ISR
                           _CCP1_ISR
                           _CCP2_ISR
                      _EUSART_RX_ISR
                      _EUSART_TX_ISR
                           _INT1_ISR
                           _INT2_ISR
                            _RB4_ISR
                            _RB5_ISR
                            _RB6_ISR
                            _RB7_ISR
                           _TMR0_ISR
                           _TMR1_ISR
                           _TMR2_ISR
                           _TMR3_ISR
 ---------------------------------------------------------------------------------
 (7) _TMR3_ISR                                             0     0      0       0
 ---------------------------------------------------------------------------------
 (7) _TMR2_ISR                                             0     0      0       0
 ---------------------------------------------------------------------------------
 (7) _TMR1_ISR                                             0     0      0       0
 ---------------------------------------------------------------------------------
 (7) _TMR0_ISR                                             0     0      0       0
 ---------------------------------------------------------------------------------
 (7) _RB7_ISR                                              0     0      0       0
 ---------------------------------------------------------------------------------
 (7) _RB6_ISR                                              0     0      0       0
 ---------------------------------------------------------------------------------
 (7) _RB5_ISR                                              0     0      0       0
 ---------------------------------------------------------------------------------
 (7) _RB4_ISR                                              0     0      0       0
 ---------------------------------------------------------------------------------
 (7) _INT2_ISR                                             0     0      0       0
 ---------------------------------------------------------------------------------
 (7) _INT1_ISR                                             0     0      0       0
 ---------------------------------------------------------------------------------
 (7) _EUSART_TX_ISR                                        0     0      0   27198
                                NULL *
                       _USART_TX_INT *
 ---------------------------------------------------------------------------------
 (8) _USART_TX_INT                                         4     4      0   27198
                                             92 BANK0      4     4      0
            _convert_uint8_to_string
               _lcd_4bit_send_string
            i1_lcd_4bit_send_command
 ---------------------------------------------------------------------------------
 (9) _lcd_4bit_send_string                                 5     1      4   10408
                                             18 BANK0      4     0      4
            _lcd_4bit_send_char_data
 ---------------------------------------------------------------------------------
 (9) _convert_uint8_to_string                              9     7      2    7613
                                             84 BANK0      8     6      2
                             _memset
                            _sprintf
 ---------------------------------------------------------------------------------
 (10) _sprintf                                            24    16      8    5871
                                             62 BANK0     22    14      8
                           _vfprintf
 ---------------------------------------------------------------------------------
 (11) _vfprintf                                            8     2      6    5207
                                             54 BANK0      8     2      6
                          _vfpfcnvrt
 ---------------------------------------------------------------------------------
 (12) _vfpfcnvrt                                          19    13      6    4846
                                             40 BANK0     14     8      6
                               _dtoa
                              _fputc
 ---------------------------------------------------------------------------------
 (13) _dtoa                                               13     9      4    3626
                                             27 BANK0     13     9      4
                            ___awdiv
                            ___awmod
                                _abs
                                _pad
 ---------------------------------------------------------------------------------
 (14) _pad                                                11     5      6    1999
                                             16 BANK0     11     5      6
                              _fputc
                              _fputs
 ---------------------------------------------------------------------------------
 (15) _fputs                                               7     3      4     931
                                              9 BANK0      7     3      4
                              _fputc
 ---------------------------------------------------------------------------------
 (13) _fputc                                               9     5      4     682
                                              0 BANK0      9     5      4
                              _putch
 ---------------------------------------------------------------------------------
 (14) _putch                                               1     1      0       0
 ---------------------------------------------------------------------------------
 (14) _abs                                                 4     2      2     142
                                              6 BANK0      4     2      2
                            ___awmod (ARG)
 ---------------------------------------------------------------------------------
 (14) ___awmod                                             6     2      4     448
                                              0 BANK0      6     2      4
 ---------------------------------------------------------------------------------
 (14) ___awdiv                                             8     4      4     452
                                              0 BANK0      8     4      4
 ---------------------------------------------------------------------------------
 (10) _memset                                             12     6      6    1403
                                              0 BANK0     12     6      6
 ---------------------------------------------------------------------------------
 (7) _EUSART_RX_ISR                                        0     0      0   18650
                                NULL *
                       _USART_RX_INT *
 ---------------------------------------------------------------------------------
 (8) _USART_RX_INT                                         0     0      0   18650
   _EUSART_ASYNC_ReadByteNonBlocking
            _lcd_4bit_send_char_data
            i1_lcd_4bit_send_command
 ---------------------------------------------------------------------------------
 (9) i1_lcd_4bit_send_command                              4     1      3    8566
                                             14 BANK0      4     1      3
             i1_gpio_pin_write_logic
      i1_lcd_4bit_send_enable_signal
                   i1_lcd_send_4bits
 ---------------------------------------------------------------------------------
 (10) _lcd_4bit_send_char_data                             4     1      3    9770
                                             14 BANK0      4     1      3
             i1_gpio_pin_write_logic
      i1_lcd_4bit_send_enable_signal
                   i1_lcd_send_4bits
 ---------------------------------------------------------------------------------
 (10) i1_lcd_send_4bits                                    4     1      3    3241
                                             10 BANK0      4     1      3
             i1_gpio_pin_write_logic
 ---------------------------------------------------------------------------------
 (10) i1_lcd_4bit_send_enable_signal                       3     1      2    2495
                                             10 BANK0      3     1      2
             i1_gpio_pin_write_logic
 ---------------------------------------------------------------------------------
 (11) i1_gpio_pin_write_logic                             10     7      3    1859
                                              0 BANK0     10     7      3
 ---------------------------------------------------------------------------------
 (9) _EUSART_ASYNC_ReadByteNonBlocking                     3     1      2     314
                                              0 BANK0      2     0      2
 ---------------------------------------------------------------------------------
 (20) NULL(Fake)                                           0     0      0       0
 ---------------------------------------------------------------------------------
 (7) _CCP2_ISR                                             0     0      0       0
 ---------------------------------------------------------------------------------
 (7) _CCP1_ISR                                             0     0      0       0
 ---------------------------------------------------------------------------------
 (7) _ADC_ISR                                              0     0      0       0
 ---------------------------------------------------------------------------------
 Estimated maximum stack depth 20
 ---------------------------------------------------------------------------------
 (Depth) Function   	        Calls       Base Space   Used Autos Params    Refs
 ---------------------------------------------------------------------------------
 (18) _InterruptManagerHigh                               12    12      0   40236
                                             94 COMRAM    12    12      0
                           _INT0_ISR
                          i2_ADC_ISR
                         i2_CCP1_ISR
                         i2_CCP2_ISR
                    i2_EUSART_RX_ISR
                    i2_EUSART_TX_ISR
                         i2_INT1_ISR
                         i2_INT2_ISR
                          i2_RB4_ISR
                          i2_RB5_ISR
                          i2_RB6_ISR
                          i2_RB7_ISR
                         i2_TMR0_ISR
                         i2_TMR1_ISR
                         i2_TMR2_ISR
                         i2_TMR3_ISR
 ---------------------------------------------------------------------------------
 (19) i2_TMR3_ISR                                          0     0      0       0
 ---------------------------------------------------------------------------------
 (19) i2_TMR2_ISR                                          0     0      0       0
 ---------------------------------------------------------------------------------
 (19) i2_TMR1_ISR                                          0     0      0       0
 ---------------------------------------------------------------------------------
 (19) i2_TMR0_ISR                                          0     0      0       0
 ---------------------------------------------------------------------------------
 (19) i2_RB7_ISR                                           0     0      0       0
 ---------------------------------------------------------------------------------
 (19) i2_RB6_ISR                                           0     0      0       0
 ---------------------------------------------------------------------------------
 (19) i2_RB5_ISR                                           0     0      0       0
 ---------------------------------------------------------------------------------
 (19) i2_RB4_ISR                                           0     0      0       0
 ---------------------------------------------------------------------------------
 (19) i2_INT2_ISR                                          0     0      0       0
 ---------------------------------------------------------------------------------
 (19) i2_INT1_ISR                                          0     0      0       0
 ---------------------------------------------------------------------------------
 (19) i2_EUSART_TX_ISR                                     0     0      0   22800
                                NULL *
                     i2_USART_TX_INT *
 ---------------------------------------------------------------------------------
 (20) i2_USART_TX_INT                                      4     4      0   22800
                                             90 COMRAM     4     4      0
          i2_convert_uint8_to_string
            i2_lcd_4bit_send_command
             i2_lcd_4bit_send_string
 ---------------------------------------------------------------------------------
 (21) i2_lcd_4bit_send_string                              5     1      4    9124
                                             18 COMRAM     4     0      4
          i2_lcd_4bit_send_char_data
 ---------------------------------------------------------------------------------
 (21) i2_convert_uint8_to_string                           9     7      2    4727
                                             82 COMRAM     8     6      2
                           i2_memset
                          i2_sprintf
 ---------------------------------------------------------------------------------
 (22) i2_sprintf                                          22    16      6    3647
                                             62 COMRAM    20    14      6
                         i2_vfprintf
 ---------------------------------------------------------------------------------
 (23) i2_vfprintf                                          8     2      6    3396
                                             54 COMRAM     8     2      6
                        i2_vfpfcnvrt
 ---------------------------------------------------------------------------------
 (24) i2_vfpfcnvrt                                        19    13      6    3196
                                             40 COMRAM    14     8      6
                             i2_dtoa
                            i2_fputc
 ---------------------------------------------------------------------------------
 (25) i2_dtoa                                             13     9      4    2426
                                             27 COMRAM    13     9      4
                          i2___awdiv
                          i2___awmod
                              i2_abs
                              i2_pad
 ---------------------------------------------------------------------------------
 (26) i2_pad                                              11     5      6    1149
                                             16 COMRAM    11     5      6
                            i2_fputc
                            i2_fputs
 ---------------------------------------------------------------------------------
 (27) i2_fputs                                             7     3      4     531
                                              9 COMRAM     7     3      4
                            i2_fputc
 ---------------------------------------------------------------------------------
 (25) i2_fputc                                             9     5      4     382
                                              0 COMRAM     9     5      4
                            i2_putch
 ---------------------------------------------------------------------------------
 (26) i2_putch                                             1     1      0       0
 ---------------------------------------------------------------------------------
 (26) i2_abs                                               4     2      2      92
                                              6 COMRAM     4     2      2
                          i2___awmod (ARG)
 ---------------------------------------------------------------------------------
 (26) i2___awmod                                           6     2      4     348
                                              0 COMRAM     6     2      4
 ---------------------------------------------------------------------------------
 (26) i2___awdiv                                           8     4      4     352
                                              0 COMRAM     8     4      4
 ---------------------------------------------------------------------------------
 (22) i2_memset                                           12     6      6     797
                                              0 COMRAM    12     6      6
 ---------------------------------------------------------------------------------
 (19) i2_EUSART_RX_ISR                                     0     0      0   17436
                                NULL *
                     i2_USART_RX_INT *
 ---------------------------------------------------------------------------------
 (20) i2_USART_RX_INT                                      0     0      0   17436
 i2_EUSART_ASYNC_ReadByteNonBlocking
          i2_lcd_4bit_send_char_data
            i2_lcd_4bit_send_command
 ---------------------------------------------------------------------------------
 (21) i2_lcd_4bit_send_command                             4     1      3    8566
                                             14 COMRAM     4     1      3
             i2_gpio_pin_write_logic
      i2_lcd_4bit_send_enable_signal
                   i2_lcd_send_4bits
 ---------------------------------------------------------------------------------
 (22) i2_lcd_4bit_send_char_data                           4     1      3    8626
                                             14 COMRAM     4     1      3
             i2_gpio_pin_write_logic
      i2_lcd_4bit_send_enable_signal
                   i2_lcd_send_4bits
 ---------------------------------------------------------------------------------
 (23) i2_lcd_send_4bits                                    4     1      3    3241
                                             10 COMRAM     4     1      3
             i2_gpio_pin_write_logic
 ---------------------------------------------------------------------------------
 (23) i2_lcd_4bit_send_enable_signal                       3     1      2    2495
                                             10 COMRAM     3     1      2
             i2_gpio_pin_write_logic
 ---------------------------------------------------------------------------------
 (24) i2_gpio_pin_write_logic                             10     7      3    1859
                                              0 COMRAM    10     7      3
 ---------------------------------------------------------------------------------
 (21) i2_EUSART_ASYNC_ReadByteNonBlocking                  3     1      2     244
                                              0 COMRAM     2     0      2
 ---------------------------------------------------------------------------------
 (20) NULL(Fake)                                           0     0      0       0
 ---------------------------------------------------------------------------------
 (19) i2_CCP2_ISR                                          0     0      0       0
 ---------------------------------------------------------------------------------
 (19) i2_CCP1_ISR                                          0     0      0       0
 ---------------------------------------------------------------------------------
 (19) i2_ADC_ISR                                           0     0      0       0
 ---------------------------------------------------------------------------------
 (19) _INT0_ISR                                            0     0      0       0
 ---------------------------------------------------------------------------------
 Estimated maximum stack depth 27
 ---------------------------------------------------------------------------------

 Call Graph Graphs:

 _main (ROOT)
   _ecu_layer_initialize
     _lcd_4bit_initialize
       _gpio_pin_initialize
         _gpio_pin_direction_initialize
         _gpio_pin_write_logic
       _lcd_4bit_send_command
         _gpio_pin_write_logic
         _lcd_4bit_send_enable_signal
           _gpio_pin_write_logic
         _lcd_send_4bits
           _gpio_pin_write_logic
   _mcal_layer_initialize
     _USART_ASYNC_9600_BAUDRATE_INIT
       _EUSART_ASYNC_Init
         _EUSART_ASYNC_RX_Init
         _EUSART_ASYNC_TX_Init
         _EUSART_Baud_Rate_Calcualtion
           ___fladd
             ___fldiv (ARG)
               ___xxtofl (ARG)
           ___fldiv
           ___fltol
           ___xxtofl

 _InterruptManagerLow (ROOT)
   _ADC_ISR
   _CCP1_ISR
   _CCP2_ISR
   _EUSART_RX_ISR
     NULL(Fake) *
     _USART_RX_INT *
       _EUSART_ASYNC_ReadByteNonBlocking
       _lcd_4bit_send_char_data
         i1_gpio_pin_write_logic
         i1_lcd_4bit_send_enable_signal
           i1_gpio_pin_write_logic
         i1_lcd_send_4bits
           i1_gpio_pin_write_logic
       i1_lcd_4bit_send_command
         i1_gpio_pin_write_logic
         i1_lcd_4bit_send_enable_signal
         i1_lcd_send_4bits
     _usart_obj.EUSART_FramingErrorHandler *
     _usart_obj.EUSART_OverrunErrorHandler *
   _EUSART_TX_ISR
     NULL(Fake) *
     _USART_TX_INT *
       _convert_uint8_to_string
         _memset
         _sprintf
           _vfprintf
             _vfpfcnvrt
               _dtoa
                 ___awdiv
                 ___awmod
                 _abs
                   ___awmod (ARG)
                 _pad
                   _fputc
                     _putch
                   _fputs
                     _fputc
               _fputc
       _lcd_4bit_send_string
         _lcd_4bit_send_char_data
       i1_lcd_4bit_send_command
   _INT1_ISR
   _INT2_ISR
   _RB4_ISR
   _RB5_ISR
   _RB6_ISR
   _RB7_ISR
   _TMR0_ISR
   _TMR1_ISR
   _TMR2_ISR
   _TMR3_ISR

 _InterruptManagerHigh (ROOT)
   _INT0_ISR
   i2_ADC_ISR
   i2_CCP1_ISR
   i2_CCP2_ISR
   i2_EUSART_RX_ISR
     NULL(Fake) *
     _usart_obj.EUSART_FramingErrorHandler *
     _usart_obj.EUSART_OverrunErrorHandler *
     i2_USART_RX_INT *
       i2_EUSART_ASYNC_ReadByteNonBlocking
       i2_lcd_4bit_send_char_data
         i2_gpio_pin_write_logic
         i2_lcd_4bit_send_enable_signal
           i2_gpio_pin_write_logic
         i2_lcd_send_4bits
           i2_gpio_pin_write_logic
       i2_lcd_4bit_send_command
         i2_gpio_pin_write_logic
         i2_lcd_4bit_send_enable_signal
         i2_lcd_send_4bits
   i2_EUSART_TX_ISR
     NULL(Fake) *
     i2_USART_TX_INT *
       i2_convert_uint8_to_string
         i2_memset
         i2_sprintf
           i2_vfprintf
             i2_vfpfcnvrt
               i2_dtoa
                 i2___awdiv
                 i2___awmod
                 i2_abs
                   i2___awmod (ARG)
                 i2_pad
                   i2_fputc
                     i2_putch
                   i2_fputs
                     i2_fputc
               i2_fputc
       i2_lcd_4bit_send_command
       i2_lcd_4bit_send_string
         i2_lcd_4bit_send_char_data
   i2_INT1_ISR
   i2_INT2_ISR
   i2_RB4_ISR
   i2_RB5_ISR
   i2_RB6_ISR
   i2_RB7_ISR
   i2_TMR0_ISR
   i2_TMR1_ISR
   i2_TMR2_ISR
   i2_TMR3_ISR

 Address spaces:
Name               Size   Autos  Total    Cost      Usage
BIGRAM             F7F      0       0      40        0.0%
EEDATA             400      0       0       0        0.0%
BITBANK14          100      0       0      32        0.0%
BANK14             100      0       0      33        0.0%
BITBANK13          100      0       0      30        0.0%
BANK13             100      0       0      31        0.0%
BITBANK12          100      0       0      28        0.0%
BANK12             100      0       0      29        0.0%
BITBANK11          100      0       0      26        0.0%
BANK11             100      0       0      27        0.0%
BITBANK10          100      0       0      24        0.0%
BANK10             100      0       0      25        0.0%
BITBANK9           100      0       0      22        0.0%
BANK9              100      0       0      23        0.0%
BITBANK8           100      0       0      20        0.0%
BANK8              100      0       0      21        0.0%
BITBANK7           100      0       0      18        0.0%
BANK7              100      0       0      19        0.0%
BITBANK6           100      0       0      16        0.0%
BANK6              100      0       0      17        0.0%
BITBANK5           100      0       0      14        0.0%
BANK5              100      0       0      15        0.0%
BITBANK4           100      0       0      12        0.0%
BANK4              100      0       0      13        0.0%
BITBANK3           100      0       0      10        0.0%
BANK3              100      0       0      11        0.0%
BITBANK2           100      0       0       8        0.0%
BANK2              100      0       0       9        0.0%
BITBANK1           100      0       0       6        0.0%
BANK1              100     47      D4       7       82.8%
BITBANK15           80      0       0      34        0.0%
BANK15              80      0       0      35        0.0%
BITBANK0            80      0       0       4        0.0%
BANK0               80     6F      80       5      100.0%
BITCOMRAM           7E      0       0       0        0.0%
COMRAM              7E     6A      7E       1      100.0%
BITBIGSFRl          43      0       0      38        0.0%
BITBIGSFRhh         28      0       0      36        0.0%
BITBIGSFRhl         12      0       0      37        0.0%
BIGSFR               0      0       0     200        0.0%
BITSFR               0      0       0     200        0.0%
SFR                  0      0       0     200        0.0%
STACK                0      0       0       2        0.0%
NULL                 0      0       0       0        0.0%
ABS                  0      0     1D2      39        0.0%
DATA                 0      0     1D2       3        0.0%
CODE                 0      0       0       0        0.0%


Microchip Technology PIC18 Macro Assembler V2.41 build 20230208172133 
Symbol Table                                                                                   Mon Jan 29 22:18:38 2024

                    i1_gpio_pin_write_logic 2ADA                                ___fldiv@aexp 018F  
                              ___fldiv@bexp 018E                                ___fldiv@sign 0187  
                           ?_lcd_send_4bits 0173                                          l71 33D8  
                                        l76 3D88                                ___awdiv@sign 0085  
                                        bsr 0FE0                       ??_InterruptManagerLow 00E0  
                i2lcd_4bit_send_command@lcd 000F                  i2lcd_4bit_send_command@ret 0012  
EUSART_ASYNC_WriteStringNonBlocking@Counter 011B                                         l193 3A54  
                                       l354 4744                                         l198 415E  
                                       l714 3B76                                         l726 2988  
                                       l745 2AD8               gpio_pin_initialize@pin_config 0173  
                                       _abs 44F8                      ??_InterruptManagerHigh 005F  
                                       _pad 3D8A                                 ?i2_CCP1_ISR 0001  
                           __end_of_ADC_ISR 47C4                                 ?i2_CCP2_ISR 0001  
                                       _ret 0071         __end_of_lcd_4bit_send_enable_signal 4160  
            ?i2_lcd_4bit_send_enable_signal 000B                 _lcd_4bit_send_enable_signal 410C  
                              ___awmod@sign 0085                         led_initialize@F3349 007D  
                                       prod 0FF3                                         tosl 0FFD  
                                       wreg 0FE8                       relay_initialize@F3343 0079  
                       __end_ofi2_vfpfcnvrt 2FD2                 lcd_send_4bits@_data_command 0175  
                           __end_of_RB4_ISR 47B0                             __end_of_RB5_ISR 47AC  
                           __end_of_RB6_ISR 47A8                             __end_of_RB7_ISR 47A4  
                              ___fltol@exp1 0172                                        ?_abs 0086  
                                      l2114 1828                                        l2106 19DE  
                                      l2123 18F8                                        l2124 18E6  
                                      l2151 1D7A                                        l2231 213E  
                                      l2224 20A6                                        l1520 125A  
                                      l1440 4792                                        l2153 1BDA  
                                      l1521 1314                                        l2162 1C20  
                                      l1522 13CC                                        l2227 2202  
                                      l1443 45F2                                        l2164 1C98  
                                      l2156 1B9E                                        l1524 151C  
                                      l1516 102C                                        l1460 4486  
                                      l2165 1C86                                        l2238 219A  
                                      l1518 10E6                                        l1462 44B2  
                                      l1519 11A0                                        l1552 30EC  
                                      l2097 170E                                        l1538 32E8  
                                      l2098 16FC                                        l2099 16C2  
                                      l7001 168E                                        l1866 31F4  
                                      l7011 16E0                                        l7003 16AA  
                                      l7101 197E                                        l7021 172C  
                                      l7013 16EE                                        l7005 16BA  
                                      ?_pad 0090                                        l7111 19B8  
                                      l7103 199E                                        l7031 176C  
                                      l7015 16F0                                        l7007 16D0  
                                      l7113 19BE                                        l7105 19A2  
                                      l7041 1796                                        l7033 1778  
                                      l7025 1740                                        l7017 16FA  
                                      l7009 16DC                                        l7201 1BC8  
                                      l7121 19E0                                        l7115 19CC  
                                      l7107 19B0                                        l7051 1808  
                                      l7035 177C                                        l7027 1750  
                                      l7019 171C                                        l7043 179C  
                                      l7211 1C10                                        l7203 1BD8  
                                      l7131 1A1E                                        l7123 19EE  
                                      l8005 4736                                        l7117 19CE  
                                      l7109 19B6                                        l7061 1862  
                                      l7045 17C2                                        l7053 1818  
                                      l7037 178A                                        l7029 175E  
                                      l7221 1C50                                        l7213 1C1E  
                                      l7205 1BEA                                        l7141 1A4E  
                                      l7133 1A2E                                        l7125 19FC  
                                      l8007 4736                                        l7071 1892  
                                      l7063 186C                                        l7055 183E  
                                      l7047 17F6                                        l7039 178C  
                                      l7231 1CC2                                        l7223 1C7E  
                                      l7207 1C00                                        l7215 1C30  
                                      l7151 1A84                                        l7143 1A54  
                                      l7135 1A30                                        l7127 19FE  
                                      l7311 20CC                                        l7303 2050  
                                      l7081 18BA                                        l7073 1896  
                                      l7065 187A                                        l7057 184E  
                                      l7049 17F8                                        l7241 1D3A  
                                      l7233 1CEC                                        l7217 1C3E  
                                      l7209 1C06                                        l7161 1AC4  
                                      l7153 1A94                                        l7145 1A62  
                                      l7129 1A0E                                        l7137 1A38  
                                      l7321 2126                                        l7305 2062  
                                      l7091 1914                                        l7083 18C8  
                                      l7075 18A6                                        l7067 187C  
                                      l7251 1D70                                        l7243 1D56  
                                      l7227 1CA8                                        l7235 1CF0  
                                      l7219 1C42                                        l7163 1AD4  
                                      l7171 1AF4                                        l7155 1A96  
                                      l7147 1A64                                        l7139 1A48  
                                      l7331 218A                                        l7323 2128  
                                      l7315 20E0                                        l7307 2070  
                                      l7421 2822                                        l7093 1922  
                                      l7085 18DE                                        l7069 188A  
                                      l7077 18A8                                        l7245 1D5A  
                                      l7237 1D0A                                        l7229 1CB4  
                                      l7181 1B32                                        l7173 1B04  
                                      l7165 1ADC                                        l7149 1A74  
                                      l7157 1A9E                                        l7261 3106  
                                      l7341 21E2                                        l7333 21A8  
                                      l7325 2134                                        l7317 20E8  
                                      l7309 20B6                                        l7431 2882  
                                      l7423 2828                                        l7095 195C  
                                      l7079 18B6                                        l7247 1D68  
                                      l7239 1D20                                        l7191 1B7A  
                                      l7183 1B42                                        l7175 1B04  
                                      l7167 1AE0                                        l7159 1AAE  
                                      l7271 3156                                        l7343 21F0  
                                      l7335 21AA                                        l7327 2170  
                                      l7319 20F4                                        l7433 28E6  
                                      l7425 283A                                        l7601 300A  
                                      l7089 1908                                        l7097 195E  
                                      l7249 1D6E                                        l7193 1B8E  
                                      l7185 1B52                                        l7281 3180  
                                      l7273 315A                                        l7265 311A  
                                      l7345 21F2                                        l7337 21AE  
                                      l7329 217C                                        l7427 285C  
                                      l7451 39D8                                        l7611 3086  
                                      l7603 3010                                        l7099 196E  
                                      l7195 1B9C                                        l7187 1B62  
                                      l7179 1B18                                        l7291 31A8  
                                      l7283 318A                                        l7275 3168  
                                      l7267 3144                                        l7259 30EE  
                                      l7339 21D2                                        l7531 1032  
                                      l7437 2944                                        l7429 287A  
                                      l6901 29E2                                        l7461 410C  
                                      l7453 39E0                                        l7701 3D20  
                                      l7621 30D0                                        l7613 308E  
                                      l7605 302A                                        l7197 1BA8  
                                      l7189 1B6A                                        l7293 31B4  
                                      l7285 3194                                        l7269 3146  
                                      l7541 11FA                                        l7533 1086  
                                      l7439 2986                                        l6903 29EA  
                                      l6911 2AD6                                        l7463 4120  
                                      l7455 3A52                                        l7447 39C4  
                                      l7703 3D28                                        l7623 30EA  
                                      l7615 30AA                                        l7607 302C  
                                      l7199 1BC6                                        l7295 31C4  
                                      l7551 13D0                                        l7543 1260  
                                      l7535 10EC                                        l6905 2A48  
                                      l7465 4128                                        l7449 39C4  
                                      l7705 3D86                                        l7617 30B0  
                                      l7609 3068                                        l6921 152C  
                                      l7297 31D4                                        l7553 1424  
                                      l7545 12B4                                        l7537 1140  
                                      l7529 1016                                        l7467 413C  
                                      l7459 410C                                        l7619 30CA  
                                      l7571 322E                                        l6931 156C  
                                      l6923 153A                                        l7299 31E4  
                                      l7547 1318                                        l7539 11A6  
                                      l7555 1484                                        l6909 2AAC  
                                      l7469 415C                                        l7581 3282  
                                      l7573 3234                                        l7565 31F6  
                                      l6941 159E                                        l6933 156E  
                                      l6925 153C                                        l7549 136C  
                                      l7557 14DA                                        l7831 32EA  
                                      l7591 32CC                                        l7583 328A  
                                      l7575 324E                                        l7567 3212  
                                      l6951 15C6                                        l6943 15A0  
                                      l6927 154C                                        l6935 1576  
                                      l6919 151E                                        l7751 446E  
                                      l7681 3AE8                                        l7833 32F0  
                                      l7593 32E6                                        l7585 32A6  
                                      l7577 3250                                        l7569 3214  
                                      l6961 1600                                        l6953 15D6  
                                      l6945 15A6                                        l6937 1586  
                                      l6929 155C                                        l7761 4498  
                                      l7753 446E                                        l7691 3B44  
                                      l7683 3AE8                                        l7851 3362  
                                      l7835 3302                                        l7595 2FD2  
                                      l7587 32AC                                        l7579 3264  
                                      l6971 162C                                        l6963 1612  
                                      l6955 15E6                                        l6947 15B4  
                                      l6939 158C                                        l7763 44A4  
                                      l7755 4482                                        l6893 298A  
                                      l7693 3B74                                        l7685 3AFC  
                                      l7861 33AE                                        l7853 3372  
                                      l7845 3332                                        l7837 330A  
                                      l7597 2FEE                                        l7589 32C6  
                                      l6981 1640                                        l6973 1630  
                                      l6965 1620                                        l6957 15E8  
                                      l6949 15B6                                        l7765 44B0  
                                      l7757 4488                                        l6895 2990  
                                      l7687 3B1E                                        l7863 33C0  
                                      l7855 3378                                        l7847 334E  
                                      l7839 332E                                        l7599 2FF0  
                                      l6991 1654                                        l6983 1644  
                                      l6975 1634                                        l6967 1624  
                                      l6959 15F0                                        l7759 448C  
                                      l6897 29A2                                        l7689 3B3C  
                                      l7697 3D0C                                        l7857 338A  
                                      l7849 3352                                        l7865 33D6  
                                      l6993 1658                                        l6985 1648  
                                      l6977 1638                                        l6969 1628  
                                      l6899 29C4                                        l7699 3D0C  
                                      l7859 339C                                        l6995 165C  
                                      l6987 164C                                        l6979 163C  
                                      l6989 1650                                        l6997 1660  
                                      l6999 1664                                        STR_1 1011  
                                      u7000 1CA8                                        u7001 1CA4  
                                      u7010 1CC2                                        u7011 1CBE  
                                      u7020 1D0A                                        u7100 31C4  
                                      u7021 1D06                                        u7101 31C0  
                                      u7030 1D3A                                        u7110 31D4  
                                      u7031 1D36                                        u7111 31D0  
                                      u6400 29E2                                        u7040 1D68  
                                      u7200 21E2                                        u7120 2062  
                                      u6401 29DE                                        u7041 1D64  
                                      u7201 21DE                                        u7121 205E  
                                      u7050 3106                                        u7210 21F0  
                                      u7130 2070            CCP_Capture_Mode_Read_Value@F3488 0133  
                                      u7051 3102                                        u7211 21EC  
                                      u7131 206C                                        u7300 287A  
                                      u6500 1612                                        u7060 313A  
                                      u7140 20CC                                        u7301 2876  
                                      u6501 160E                                        u7141 20C8  
                                      u6414 2A0A                                        u6510 1620  
                                      u6430 153A                                        u7070 3168  
                                      u7150 2122                                        u6415 2A06  
                                      u6511 161C                                        u6431 1536  
                                      u7071 3164                                        u7151 211E  
                                      u6424 2A68                                        u6600 175E  
                                      u6520 168E                                        u6440 154C  
                                      u7080 317C                                        u7160 216C  
                                      i1l81 3E84                                        u6425 2A64  
                                      u6601 175A                                        u6521 168A  
                                      u6441 1548                                        u7081 3178  
                                      u7065 3130                                        u7161 2168  
                                      u7330 295C                                        u7314 28A2  
                                      u6610 176C                                        u6530 16A6  
                                      u6450 155C                                        u7090 31A4  
                                      u7170 218A                                        u7331 2956  
                                      u7315 289E                                        u6611 1768  
                                      u6531 16A0                                        u6451 1558  
                                      u7091 31A0                                        u7171 2186  
                                      i1l76 3F76                                        u7340 295E  
                                      u7324 2906                                        u6380 29A2  
                                      u7500 2FEE                                        u6700 18B6  
                                      u6620 178A                                        u6540 16A8  
                                      u6460 159E                                        u7180 219A  
                                      u7325 2902                                        u6381 299E  
                                      u7501 2FEA                                        u6701 18B2  
                                      u6621 1786                                        u6461 159A  
                                      u7181 2196                                        i1l94 4256  
                                      u6390 29C4                                        u7350 39D8  
                                      u7510 300A                                        u7430 3212  
                                      u6710 18C8                                        u6630 17C2  
                                      u6550 16D0                                        u6470 15B4  
                                      u7190 21A8                                        u6391 29C0  
                                      u7351 39D4                                        u7511 3006  
                                      u7431 320E                                        u6711 18C4  
                                      u6631 17BE                                        u6551 16CC  
                                      u6471 15B0                                        u7191 21A4  
                                      u7280 283A                                        u7360 4120  
                                      u7520 302A                                        u7440 322E  
                                      u6800 19B0                                        u6720 18DE  
                                      u6640 1808                                        u6560 16EE  
                                      u6480 15C6                                        i2l81 3FE8  
                                      u7281 2836                                        u7361 411C  
                                      u7521 3026                                        u7441 322A  
                                      u6801 19AC                                        u6721 18DA  
                                      u6641 1804                                        u6561 16EA  
                                      u6481 15C2                                        u7290 285C  
                                      u7530 3086                                        u7450 324E  
                                      u6810 19CC                                        u6730 18F4  
                                      u6650 183E                                        u6570 170E  
                                      u6490 15D6                                        u7291 2858  
                                      u7531 3082                                        u7451 324A  
                                      u6811 19C8                                        u6731 18F0  
                                      u6651 183A                                        u6571 170A  
                                      u6491 15D2                                        i2l76 4054  
                                      u7540 30AA                                        u7460 3282  
                                      u6740 1908                                        u6660 184E  
                                      u6580 171C                                        u6900 1B7A  
                                      u6820 19FC                                        u7541 30A6  
                                      u7461 327E                                        u6741 1904  
                                      u6661 184A                                        u6581 1718  
                                      u6901 1B76                                        u6821 19F8  
                                      i2l94 4390                                        u7630 3AFC  
                                      u7550 30CA                                        u7470 32A6  
                                      u6750 1922                                        u6670 187A  
                                      u6590 172C                                        u6910 1B9C  
                                      u6830 1A0E                                        u7631 3AF8  
                                      u7551 30C6                                        u7471 32A2  
                                      u6751 191E                                        u6671 1876  
                                      u6591 1728                                        u6911 1B98  
                                      u6831 1A0A                                        u7640 3B1E  
                                      u7560 30EA                                        u7480 32C6  
                                      u6760 195C                                        u6680 188A  
                                      u6920 1BC6                                        u6840 1A1E  
                                      u7641 3B1A                                        u7561 30E6  
                                      u7481 32C2                                        u6761 1958  
                                      u6681 1886                                        u6921 1BC2  
                                      u6841 1A1A                                        u7650 3B3C  
                                      u7490 32E6                                        u6770 196E  
                                      u6690 18A6                                        u6930 1BEA  
                                      u6850 1A62                                        u7730 4482  
                                      u7651 3B38                                        u7491 32E2  
                                      u6771 196A                                        u6691 18A2  
                                      u6931 1BE6                                        u6851 1A5E  
                                      u7731 447E                                        u7660 3D20  
                                      u7820 3302                                        u6780 197E  
                                      u6940 1C00                                        u6860 1A74  
                                      u7661 3D1C                                        u7821 32FE  
                                      u6781 197A                                        u6941 1BFC  
                                      u6861 1A70                                        u7830 3362  
                                      u6790 199E                                        u6950 1C1E  
                                      u6870 1A84                                        u7831 335E  
                                      u6791 199A                                        u6951 1C1A  
                                      u6871 1A80                                        u6960 1C3E  
                                      u6880 1AC4                                        u6961 1C3A  
                                      u6881 1AC0                                        u6970 1C50  
                                      u6890 1B04                                        u6971 1C4C  
                                      u6891 1B00                                        u6980 1C7E  
                                      u6981 1C7A                                        u6990 1C94  
                                      u6991 1C90                        _lcd_4bit_send_string 4208  
             __end_of_mcal_layer_initialize 4794               ??_lcd_4bit_send_enable_signal 0175  
                                      abs@a 0086                                        _lcd1 01CE  
                                      _led1 007E                                        _dbuf 0137  
                                      _main 46E8                                        _dtoa 2204  
                               ?i2_INT1_ISR 0001                                 ?i2_INT2_ISR 0001  
                          __end_of_CCP1_ISR 47C0                            __end_of_CCP2_ISR 47BC  
                                      _prec 00EF                   ??i1_lcd_4bit_send_command 0091  
                                      pad@i 0097                                        pad@p 0094  
                                      fsr1h 0FE2                                        fsr2h 0FDA  
                                      indf1 0FE7                                        indf2 0FDF  
                                      fsr1l 0FE1                                        pad@w 0099  
                                      fsr2l 0FD9                                        btemp 007F  
                                      prodh 0FF4                                        prodl 0FF3  
                                      start 02E0                             ___fldiv@new_exp 0188  
                           __end_ofi2_fputc 3570                             __end_ofi2_fputs 44F8  
                           __end_ofi2_putch 47F0                        _RB7_InterruptHandler 0123  
                               i2_dtoa$3417 0020                                ___param_bank 0000  
                     _lcd_4bit_send_command 3D0C                                 ?i2_TMR0_ISR 0001  
                               ?i2_TMR1_ISR 0001                                 ?i2_TMR2_ISR 0001  
                               ?i2_TMR3_ISR 0001                                       ??_abs 0088  
                      _gpio_pin_write_logic 298A                                       ??_pad 0096  
                                i2_vfprintf 42A8                            __end_of_INT0_ISR 47EC  
                          __end_of_INT1_ISR 47B8                            __end_of_INT2_ISR 47B4  
                                     l12055 46E8                                       l12057 46EC  
                                     l12171 14A4                                       l12059 46F0  
                                     l12173 2AC0                                       l12175 2970  
                                     l11781 45DE                                       l11837 478E  
                                     l11783 45E0                                       l11775 45B8  
                                     l11785 45E2                                       l11777 45CA  
                                     l11787 45E4                                       l11779 45D2  
                                     l11789 45E6                           USART_TX_INT@F3631 0111  
                             _EUSART_RX_ISR 3C00                               ___fltol@sign1 0171  
                             _EUSART_TX_ISR 465A                             __end_of___fladd 19E0  
                                     ?_main 0001                                       ?_dtoa 009B  
                           __end_of___fldiv 1D7C                             __end_of___awdiv 3636  
                           __end_of___awmod 3864                             __end_of___fltol 31F6  
                           ___awdiv@divisor 0082                                       u14957 46FC  
                                     u14967 3374                                       i1l168 37B0  
                                     i1l193 3AE6                                       i1l198 4206  
                                     i1l661 47BA                                       i1l901 47A2  
                                     i2l168 3912                                       i1l656 47BE  
                                     i2l193 3BFE                                       i1l745 2C28  
                                     i2l198 4344                                       i1l881 47B6  
                                     i1l795 47C2                                       i2l661 47DE  
                                     i2l901 47C6                                       i1l885 47B2  
                                     i1l893 47AA                                       i2l656 47E2  
                                     i2l745 2D72                                       i1l889 47AE  
                                     i1l897 47A6                                       i2l881 47DA  
                                     i2l795 47E6                             ___awdiv@counter 0084  
                                     i2l877 47EA                                       i2l885 47D6  
                                     i2l893 47CE                                       i2l889 47D2  
                                     i2l897 47CA                         relay_turn_off@F3353 0077  
                              vfpfcnvrt@fmt 00AA                                       _TMR0H 0FD7  
                                     i2_abs 453A                                       i2_pad 3E86  
EUSART_Baud_Rate_Calcualtion@Baud_Rate_Temp 01A4                            __end_of_TMR0_ISR 476A  
                          __end_of_TMR1_ISR 475E                            __end_of_TMR2_ISR 479A  
                          __end_of_TMR3_ISR 4752                                       _flags 00FD  
                                     _fputc 33DA                                       _fputs 43DE  
                                     pad@fp 0090                                       _width 0119  
                                     _putch 47EC                                       dtoa@d 009D  
                                     dtoa@i 00A5                                       dtoa@p 00A1  
                                     dtoa@s 00A7                                       dtoa@w 00A3  
                     ?_lcd_4bit_send_string 0092                                       pclath 0FFA  
                                     pclatu 0FFB                                       tablat 0FF5  
                                     ttemp5 0080                                       ttemp6 0083  
                                     ttemp7 0087                                       status 0FD8  
                                     wtemp8 0080                             __end_of_sprintf 42A8  
                          __end_ofi2_memset 2822              ?_gpio_pin_direction_initialize 0169  
                           __initialization 4056                                __end_of_main 4712  
                              __end_of_dtoa 239E                   i2gpio_pin_write_logic@ret 000A  
                     ?_gpio_pin_write_logic 0169                         i2lcd_send_4bits@lcd 000B  
                       i2lcd_send_4bits@ret 000E                 i2gpio_pin_write_logic@logic 0003  
                                 ??_ADC_ISR 0080                              ?_EUSART_RX_ISR 0001  
                               i2_vfpfcnvrt 2EA4                              ?_EUSART_TX_ISR 0001  
                             _lat_registers 01BA                               i2vfpfcnvrt@ap 002D  
                             i2vfpfcnvrt@cp 0035                               i2vfpfcnvrt@fp 0029  
                                    ??_main 01AE                                      ??_dtoa 009F  
                             __activetblptr 0003                                  i2sprintf@f 0047  
                                i2sprintf@s 003F                       _TMR3_InterruptHandler 011D  
                          led_turn_on@F3354 007C                                   ??_RB4_ISR 0080  
                                 ??_RB5_ISR 0080                                   ??_RB6_ISR 0080  
                                 ??_RB7_ISR 0080                                      ?i2_abs 0007  
                                    ?i2_pad 0011                          _RB4_pin_init_value 0076  
                         __end_ofi2_ADC_ISR 47E8                  _EUSART_OverrunErrorHandler 00F1  
                                    ?_fputc 0080                                      ?_fputs 0089  
                                    _ADRESH 0FC4                                      _ADRESL 0FC3  
                          ___awdiv@dividend 0080                                      ?_putch 0001  
                         _EUSART_ASYNC_Init 446E                            i1_lcd_send_4bits 3A56  
                                    i1l1302 475C                                      i1l1241 4768  
                                    i1l1171 0096                                      i1l1340 4798  
                                    i1l1181 01A0                                      i1l1173 00D0  
                                    i1l2302 239C                                      i1l1422 410A  
                                    i1l1191 0240                                      i1l1183 01C0  
                                    i1l1175 010C                                      i1l1512 4626  
                                    i1l1425 45B6                                      i1l1193 0260  
                                    i1l1185 01E0                                      i1l1177 0148  
                                    i1l1169 0076                                      i1l2322 4538  
                                    i1l2315 41B2                                      i1l1195 0280  
                                    i1l1187 0200                                      i1l1179 0180  
                                    i1l1508 460C                                      i1l2244 26AA  
                                    i1l2309 2EA2                                      i1l1189 0220  
                                    i1l2334 34A4                                      i1l2342 4424  
                                    i1l1198 02A0                                      i1l2319 4530  
                                    i1l1800 3634                                      i1l2345 47EC  
                                    i1l2257 42A6                                      i1l2290 2254  
                                    i1l2283 3E06                                      i1l2291 229A  
                                    i1l1387 4750                                      i1l1813 3862  
                                    i1l1557 4688                                      i1l1566 3C84  
                                    i1l2279 3DAE                                      i1l2288 224C  
                                    i2l1140 1E84                                      i2l1132 1DCE  
                                    i2l1302 4780                                      i2l1150 1F58  
                                    i2l1142 1EC0                                      i2l1134 1DEE  
                                    i2l1160 1FF8                                      i2l1152 1F78  
                                    i2l1144 1EF8                                      i2l1136 1E0E  
                                    i2l1241 478C                                      i2l1154 1F98  
                                    i2l1146 1F18                                      i2l1138 1E48  
                                    i2l1163 2018                                      i2l1340 479E  
                                    i2l1156 1FB8                                      i2l1148 1F38  
                                    i2l2302 2532                                      i2l1422 446C  
                                    i2l1158 1FD8                                      i2l1512 4658  
                                    i2l1425 46E6                                      i2l2322 4578  
                                    i2l2315 42F6                                      i2l1508 463E  
                                    i2l2244 2820                                      i2l2309 2FD0  
                                    i1l6501 35B2                                      i1l8101 47A4  
                                    i2l2334 356E                                      i2l2342 44F6  
                                    i2l2319 4570                                      i1l6511 35E8  
                                    i1l6503 35C4                                      i2l1800 36F8  
                                    i2l2345 47EE                                      i2l2257 43DC  
                                    i1l6513 35FE                                      i1l6505 35CC  
                                    i1l6521 3614                                      i1l6441 33DA  
                                    i1l8105 47A0                                      i2l2290 23EE  
                                    i2l2283 3EFE                                      i2l2291 2434  
                                    i2l1387 4774                                      i1l6523 3624  
                                    i1l6515 3606                                      i1l6507 35D4  
                                    i1l6531 37B8                                      i1l6451 345E  
                                    i1l6443 33EE                                      i2l1813 39C2  
                                    i2l1557 46B8                                      i2l4213 479A  
                                    i1l7501 2608                                      i1l6525 362C  
                                    i1l6517 3608                                      i1l6509 35E2  
                                    i1l6541 37E8                                      i1l6533 37C6  
                                    i1l6445 3400                                      i1l6701 2296  
                                    i2l1566 3D0A                                      i2l2279 3EA8  
                                    i1l8063 47BC                                      i1l7511 268E  
                                    i1l7503 2634                                      i1l6519 360E  
                                    i1l6551 382E                                      i1l6543 37FA  
                                    i1l6535 37CE                                      i1l6447 340A  
                                    i1l6471 43EC                                      i1l6711 22EC  
                                    i1l6703 22A2                                      i1l7351 416C  
                                    i2l2288 23E6                           __end_ofi2_RB4_ISR 47D4  
                                    i1l7513 2694                                      i1l6561 385A  
                                    i1l6553 3836                                      i1l6545 3802  
                                    i1l6537 37D2                                      i1l6529 37B2  
                                    i1l6449 3428                                      i1l6473 43FE  
                                    i1l6721 2356                                      i1l6713 22F2  
                                    i1l6705 22AC                                      i1l6801 2E64  
                                    i1l7353 418A                                      i1l7521 4272  
                                    i1l8145 475E                                      i1l8075 47C0  
                                    i1l7515 2698                                      i1l7507 264E  
                                    i1l6491 358C                                      i1l6555 383C  
                                    i1l6547 380A                                      i1l6539 37E0  
                                    i1l6475 4404                                      i1l6571 3DBA  
                                    i1l6723 2366                                      i1l6707 22B2  
                                    i1l6715 230E                                      i1l7355 41A8  
                                    i1l7523 427A                                      i1l8147 4762  
                                    i1l8155 4752                                      i1l8171 474E  
                                    i1l8069 47B8                                      i1l7509 2682  
                                    i1l6493 3590                                      i1l6485 3570  
                                    i1l6549 3818                                      i1l6557 3842  
                                    i1l6581 4514                                      i1l6469 43DE  
                                    i1l6573 3DCE                                      i1l6565 3D8A  
                                    i1l6725 236C                                      i1l6717 232A  
                                    i1l6709 22E6                                      i1l6805 2E76  
                                    i1l7349 4160                                      i1l7525 4296  
                                    i1l7517 4258                                      i1l8085 47B4  
                                    i1l8093 47AC                                      i1l8149 4766  
                                    i1l8157 4756                                      i1l8165 4794  
                                    i1l6495 359E                                      i1l6487 3576  
                                    i1l6559 3852                                      i1l6575 3DD4  
                                    i1l6567 3D9A                                      i1l6727 237C  
                                    i1l6719 233C                                      i1l7519 426A  
                                    i1l8159 475A                                      i1l8167 4746  
                                    i1l6497 35A6                                      i1l6489 3584  
                                    i1l6577 3DF2                                      i1l6569 3DA6  
                                    i1l6681 2204                                      i1l7721 36FE  
                                    i1l8089 47B0                                      i1l8097 47A8  
                                    i1l8169 474A                                      i1l7491 2560  
                                    i1l6499 35AA                                      i1l6579 44F8  
                                    i1l6691 225C                                      i1l6683 221A  
                                    i1l7731 3746                                      i1l7723 36FE  
                                    i1l7485 2534                                      i1l6693 226C  
                                    i1l6685 222A                                      i1l6781 2D74  
                                    i1l7733 3766                                      i1l7725 3714  
                                    i1l7495 2596                                      i1l6695 2272  
                                    i1l6687 2232                                      i1l6791 2DCC  
                                    i1l6783 2D9A                                      i1l7735 3782  
                                    i1l7727 3726                           __end_ofi2_RB5_ISR 47D0  
                                    i1l7497 25EE                                      i1l7489 2554  
                                    i1l6697 2282                                      i1l6689 2240  
                                    i1l6793 2DEA                                      i1l6785 2DA8  
                                    i1l7737 3784                                      i1l7729 372A  
                                    i1l6699 228E                                      i1l6795 2E08  
                                    i1l6787 2DB6                                      i1l7739 37A2  
                                    i1l6797 2E4C                                      i1l6789 2DBC  
                                    i2l6601 3688                                      i2l8203 47DC  
                                    i2l6611 36C2                                      i2l6603 3690  
                                    i2l7411 42A8                                      i2l6621 36E8  
                                    i2l6613 36CA                                      i2l6605 3698  
                                    i2l6461 34D4                                      i2l7413 42B4  
                                    i2l6623 36F0                                      i2l6615 36CC  
                                    i2l6607 36A6                                      i2l6631 3926  
                                    i2l6463 34F2                                      i2l6455 34A6  
                                    i2l7415 42D0                                      i2l8215 47D8  
                                    i2l8223 47D0                                      i2l8231 47C8  
                         __end_ofi2_RB6_ISR 47CC                                      i2l8081 47E8  
                                    i2l8209 47E4                                      i2l6617 36D2  
                                    i2l6609 36AC                                      i2l6641 395A  
                                    i2l6633 392E                                      i2l6465 3528  
                                    i2l6457 34B8                                      i2l6481 44D2  
                                    i2l7417 42EE                                      i2l8241 4786  
                                    i2l6619 36D8                                      i2l6651 3996  
                                    i2l6643 3962                                      i2l6635 3932  
                                    i2l6627 3914                                      i2l6459 34CA  
                                    i2l6483 44D6                                      i2l6731 239E  
                                    i2l8219 47D4                                      i2l8227 47CC  
                                    i2l8235 47C4                                      i2l8243 478A  
                                    i2l8251 477A                                      i2l6653 399C  
                                    i2l6645 396A                                      i2l6637 3940  
                                    i2l6629 3918                                      i2l6477 44B4  
                                    i2l6741 23F6                                      i2l6733 23B2  
                                    i2l8253 477E                                      i2l8261 476E  
                                    i2l6591 3654                                      i2l6583 3636  
                                    i2l6647 3978                                      i2l6655 39A2  
                                    i2l6639 3948                                      i2l6479 44C0  
                                    i2l6671 3EC8                                      i2l6663 3E86  
                                    i2l6751 2430                                      i2l6743 2406  
                                    i2l6735 23C2                                      i2l8239 4782  
                                    i2l8263 4772                                      i2l7641 26CA  
                                    i2l6593 3662                                      i2l6585 363A  
                                    i2l6657 39B2                                      i2l6649 398E  
                                    i2l6673 3ECC                                      i2l6665 3E94  
                                    i2l6761 2484                                      i2l6753 243C  
                                    i2l6745 240C                                      i2l6737 23CA  
                                    i2l7801 3866                                      i2l8249 4776  
                                    i2l7643 26D6                                      i2l6595 366A  
                                    i2l6587 3648                                      i2l6659 39BA  
                                    i2l6675 3EEA                                      i2l6667 3EA0  
                                    i2l6771 24EC                                      i2l6763 248A  
                                    i2l6755 2446                                      i2l6747 241C  
                                    i2l6739 23DA                                      i2l7811 38AC  
                                    i2l7803 3866                                      i2l8259 476A  
                                    i2l8197 47E0                                      i2l7661 27F8  
                                    i2l7653 277E                                      i2l7637 26AC  
                                    i2l6597 366E                                      i2l6589 3650  
                                    i2l6677 453A                                      i2l6669 3EB4  
                                    i2l6773 24FC                                      i2l6757 244C  
                                    i2l6765 24A6                                      i2l6749 2428  
                                    i2l7813 38CA                                      i2l7805 387A  
                                    i2l7663 2804                                      i2l7655 27AA  
                                    i2l7647 270C                                      i2l6599 3676  
                                    i2l6679 4554                                      i2l6775 2502  
                                    i2l6767 24C0                                      i2l6759 247E  
                                    i2l6871 2EEC                                      i2l6863 2EA4  
                                    i2l7671 43A2                                      i2l7815 38E6  
                                    i2l7807 388C                           __end_ofi2_RB7_ISR 47C8  
                                    i2l7665 280A                                      i2l7649 2764  
                                    i2l6777 2512                                      i2l6769 24D2  
                                    i2l6873 2EFC                                      i2l6865 2ECA  
                                    i2l7673 43AA                                      i2l7817 38E8  
                                    i2l7809 3890                                      i2l7667 280E  
                                    i2l7659 27C4                                      i2l6883 2F94  
                                    i2l6875 2F1A                                      i2l6867 2ED8  
                                    i2l7675 43B2                                      i2l7819 3904  
                                    i2l6877 2F38                                      i2l6869 2EE6  
                                    i2l7677 43CE                                      i2l7669 4392  
                                    i2l6879 2F7C                                      i2l6887 2FA6  
                                 ??i2_fputc 0005                                   ??i2_fputs 000E  
                                 ??i2_putch 0001                          ?_EUSART_ASYNC_Init 01AC  
              i2convert_uint8_to_string@cnt 005A                i2convert_uint8_to_string@str 0053  
                          __end_of___xxtofl 2204                                      i2abs@a 0007  
                            i2_USART_RX_INT 46BA                                      i2_dtoa 239E  
                            i2_USART_TX_INT 4426                  _EUSART_RX_InterruptHandler 00F5  
                                    i2pad@i 0018                                      i2pad@p 0015  
                                    i2pad@w 001A                      ?_lcd_4bit_send_command 0177  
                              vfprintf@cfmt 00BC                         ??_EUSART_ASYNC_Init 01AE  
                             i2vfprintf@fmt 0039                                   ??___fladd 0198  
                                 ??___fldiv 017F                                   ??___awdiv 0084  
                                 ??___awmod 0084                                   ??___fltol 016D  
                               ?i2_vfprintf 0037                                      _memset 2534  
                                    clear_0 408E                                      clear_1 409A  
                                    clear_2 40A6                            ___awdiv@quotient 0086  
                           ___awmod@divisor 0082                                      isa$std 0001  
                           ___awmod@counter 0084                                      pad@buf 0092  
                                    dtoa@fp 009B                              i2___awdiv@sign 0006  
                         ?i2_lcd_send_4bits 000B                                      fputc@c 0080  
                                 ?_CCP1_ISR 0001                                      fputs@c 008D  
                                    fputs@i 008E                                __pdataCOMRAM 007E  
                                 ?_CCP2_ISR 0001                                      fputs@s 0089  
                         __end_ofi2___awdiv 36FA                           __end_ofi2___awmod 39C4  
                              __mediumconst 0000                          ??i2_lcd_send_4bits 000E  
                                    tblptrh 0FF7                                      tblptrl 0FF6  
                                    tblptru 0FF8                   __end_of_EUSART_ASYNC_Init 44B4  
                                    putch@c 0001                            __end_of_vfprintf 41B4  
                            i2___awmod@sign 0006                      ??_lcd_4bit_send_string 0096  
                                 ??_sprintf 00C6                __end_of_EUSART_ASYNC_RX_Init 30EE  
              __end_of_EUSART_ASYNC_TX_Init 32EA                                ___xxtofl@arg 0173  
                    __end_ofi2_USART_RX_INT 46E8                                ___xxtofl@exp 0172  
                              ___xxtofl@val 0169                      __end_ofi2_USART_TX_INT 446E  
                ?i2_convert_uint8_to_string 0053                     _convert_uint8_to_string 36FA  
                        _RB6_pin_init_value 0074                                  __accesstop 0080  
                   __end_of__initialization 40AC                   i2USART_TX_INT@counter_Str 005B  
                                 ?_INT0_ISR 0001                                   ?_INT1_ISR 0001  
                                 ?_INT2_ISR 0001                               ___rparam_used 0001  
                                ___fltol@f1 0169                           ??i2_EUSART_RX_ISR 0013  
                         ??i2_EUSART_TX_ISR 005F                     ?i1_gpio_pin_write_logic 0080  
                convert_uint8_to_string@cnt 00DB                            ??_lcd_send_4bits 0176  
                         __end_ofi2_sprintf 43DE                  convert_uint8_to_string@str 00D4  
                ?i2_lcd_4bit_send_char_data 000F                     _lcd_4bit_send_char_data 3E08  
                             __end_ofi2_abs 457A                               __end_ofi2_pad 3F00  
                   i2_lcd_4bit_send_command 3FEA                      ??_gpio_pin_write_logic 016C  
                            __pcstackCOMRAM 0001             ??i1_lcd_4bit_send_enable_signal 008C  
                              __pidataBANK1 4712                                   ?_TMR0_ISR 0001  
                           ??_EUSART_RX_ISR 0092                                   ?_TMR1_ISR 0001  
                                 ?_TMR2_ISR 0001                                   ?_TMR3_ISR 0001  
                           ??_EUSART_TX_ISR 00E0                               __end_of_fputc 34A6  
                             __end_of_fputs 4426                      _USART_RX_INT$intlevel1 4584  
                             __end_of_putch 47EE                    lcd_4bit_send_command@lcd 0177  
                  lcd_4bit_send_command@ret 017A                               _Recieved_char 00FF  
                              ??i2_CCP1_ISR 0001                                ??i2_CCP2_ISR 0001  
                                ??_CCP1_ISR 0080                                  ??_CCP2_ISR 0080  
                                   ??i2_abs 0009                                     ??i2_pad 0017  
                                 ?i2_memset 0001                              i2vfpfcnvrt@fmt 002B  
                                   ??_fputc 0084                                     ??_fputs 008D  
                   lcd_4bit_send_string@lcd 0092                     lcd_4bit_send_string@str 0094  
                                   ??_putch 0080                                  __pbssBANK0 00EF  
                                __pbssBANK1 0100                                 i2sprintf@ap 0045  
                           ?i2_USART_RX_INT 0001           _EUSART_Baud_Rate_Calcualtion$4319 01A8  
                           ?i2_USART_TX_INT 0001                                ??i2_INT1_ISR 0001  
                     _INT0_InterruptHandler 012F                                  ??_INT0_ISR 0001  
                              ??i2_INT2_ISR 0001                                  ??_INT1_ISR 0080  
                                ??_INT2_ISR 0080           __end_ofi2_convert_uint8_to_string 3914  
            __end_ofi1_gpio_pin_write_logic 2C2A                                     ?i2_dtoa 001C  
                i1lcd_4bit_send_command@lcd 008E      i2EUSART_ASYNC_ReadByteNonBlocking@data 0001  
      EUSART_ASYNC_ReadByteNonBlocking@data 0080                 __end_of_InterruptManagerLow 02E0  
                i1lcd_4bit_send_command@ret 0091           __end_ofi2_lcd_4bit_send_char_data 3FEA  
                        __end_ofi2_CCP1_ISR 47E4                          __end_ofi2_CCP2_ISR 47E0  
                              ??i2_TMR0_ISR 0001                                ??i2_TMR1_ISR 0001  
                                ??_TMR0_ISR 0080                                ??i2_TMR2_ISR 0001  
                                ??_TMR1_ISR 0080                                ??i2_TMR3_ISR 0001  
                                ??_TMR2_ISR 0080                                  ??_TMR3_ISR 0080  
                         led_turn_off@F3359 007B              i2convert_uint8_to_string@value 0059  
                                   _ADC_ISR 47C0                 EUSART_ASYNC_TX_Init@_eusart 0169  
                                   ?_memset 0080                             led_toggle@F3364 007A  
                                   i1l12001 0108                                     i1l12011 0156  
                                   i1l12003 011A                                     i1l12021 019C  
                                   i1l12013 0164                                     i1l12005 0128  
                                   i1l12031 01EE                                     i1l12023 01AE  
                                   i1l12015 0178                                     i1l12007 0140  
                                   i1l12041 023C                                     i1l12033 01FC  
                                   i1l12025 01BC                                     i1l12017 017C  
                                   i1l12009 0144                                     i1l12051 028E  
                                   i1l12043 024E                                     i1l12035 020E  
                                   i1l12027 01CE                                     i1l12019 018E  
                                   i1l12053 029C                                     i1l12045 025C  
                                   i1l12037 021C                                     i1l12029 01DC  
                                   i1l12047 026E                                     i1l12039 022E  
                                   i1l12049 027C                                     i1l11701 4208  
                                   i1l11711 45F4                                     i1l11631 3AE4  
                                   i1l11623 3A56                                     i1l11703 421C  
                                   i1l11713 45F4                                     i1l12177 2C10  
                                   i1l11625 3A56                                     i1l11721 3F00  
                                   i1l11705 4220                                     i1l11715 4608  
                                   i1l11571 2ADA                                     i1l11651 41C8  
                                   i1l11627 3A6A                                     i1l11723 3F14  
                                   i1l11707 4238                                     i1l11717 461A  
                                   i1l11581 2B3A                                     i1l11573 2AE0  
                                   i1l11653 41D0                                     i1l11629 3A72  
                                   i1l11725 3F18                                     i1l11709 423E  
                                   i1l11821 465C                                     i1l11583 2B98  
                                   i1l11575 2AF2                                     i1l11655 41E4  
                                   i1l11647 41B4                                     i1l11719 3F00  
                                   i1l11831 3C40                                     i1l11823 4670  
                                   i1l11577 2B14                                     i1l11657 4204  
                                   i1l11649 41B4                                     i1l11681 3E24  
                                   i1l11833 3C58                                     i1l11825 3C00  
                                   i1l11761 40D0                                     i1l11587 2BFC  
                                   i1l11579 2B32                                     i1l11683 3E82  
                                   i1l11675 3E08                                     i1l11771 4592  
                                   i1l11835 3C6C                                     i1l11827 3C14  
                                   i1l11763 40D4                                     i1l11819 465A  
                                   i1l11589 2C26                                     i1l11677 3E08  
                                   i1l11773 45A4                                     i1l11829 3C2C  
                                   i1l11765 40E2                                     i1l11679 3E1C  
                                   i1l11767 40F4                                     i1l11759 40C0  
                                   i1l11769 4584                                     i1l11699 4208  
                                   i1l11981 0072                                     i1l11991 00C8  
                                   i1l11983 0084                                     i1l11993 00CC  
                                   i1l11985 0092                                     i1l11977 0056  
                                   i1l11995 00DE                                     i1l11987 00A4  
                                   i1l11979 0064                                     i1l11997 00EC  
                                   i1l11989 00B2                                     i1l11999 0104  
                                   i2l11601 2C40                                     i2l11603 2C62  
                                   i2l11613 2D46                                     i2l11605 2C80  
                                   i2l11607 2C88                                     i2l11615 2D70  
                                   i2l11609 2CE4                                     i2l11641 3B92  
                                   i2l11801 46BA                                     i2l12179 2D5A  
                                   i2l11643 3BFC                                     i2l11635 3B78  
                                   i2l11731 3FEA                                     i2l11803 46C6  
                                   i2l11661 42F8                                     i2l11637 3B78  
                                   i2l11733 3FFC                                     i2l11805 46D6  
                                   i2l11741 4346                                     i2l11901 1DDC  
                                   i2l11751 4628                                     i2l11671 4342  
                                   i2l11663 42F8                                     i2l11639 3B8A  
                                   i2l11735 4000                                     i2l11743 4358  
                                   i2l11911 1E2A                                     i2l11903 1DEA  
                                   i2l11753 4628                                     i2l11665 430A  
                                   i2l11729 3FEA                                     i2l11745 435C  
                                   i2l11841 468C                                     i2l11921 1E7C  
                                   i2l11913 1E40                                     i2l11905 1DFC  
                                   i2l11755 463A                                     i2l11667 4312  
                                   i2l11691 3F8A                                     i2l11851 3CC6  
                                   i2l11747 4374                                     i2l11739 4346  
                                   i2l11843 46A0                                     i2l11931 1EBC  
                                   i2l11923 1E80                                     i2l11915 1E44  
                                   i2l11907 1E0A                                     _RB4_ISR 47AC  
                                   i2l11757 464C                                     i2l11597 2C2A  
                                   i2l11669 4326                                     i2l11693 3F92  
                                   i2l11853 3CDE                                     i2l11845 3C86  
                                   i2l11749 4378                                     i2l11941 1F06  
                                   i2l11933 1ECE                                     i2l11925 1E92  
                                   i2l11917 1E56                                     i2l11909 1E1C  
                                   i2l11599 2C2E                                     i2l11695 3FE6  
                                   i2l11687 3F78                                     i2l11855 3CF2  
                                   i2l11847 3C9A                                     i2l11791 4426  
                                   i2l11839 468A                                     i2l11951 1F54  
                                   i2l11943 1F14                                     i2l11935 1EDC  
                                   i2l11927 1EA0                                     i2l11919 1E64  
                                   i2l11689 3F78                                     i2l11849 3CB2  
                                   i2l11793 4436                                     i2l11961 1FA6  
                                   i2l11953 1F66                                     i2l11945 1F26  
                                   i2l11937 1EF0                                     i2l11929 1EB8  
                                   i2l11795 443A                                     i2l11971 1FF4  
                                   i2l11963 1FB4                                     i2l11955 1F74  
                                   i2l11947 1F34                                     i2l11939 1EF4  
                                   i2l11797 4448                                     i2l11973 2006  
                                   i2l11965 1FC6                                     i2l11957 1F86  
                                   i2l11949 1F46                                     i2l11799 4458  
                                   i2l11975 2014                                     i2l11967 1FD4  
                                   i2l11959 1F94                                     i2l11895 1DAE  
                                   i2l11969 1FE6                                     i2l11897 1DBC  
                                   i2l11899 1DCA                                     _RB5_ISR 47A8  
                                   _RB6_ISR 47A4                                     _RB7_ISR 47A0  
                        __end_ofi2_INT1_ISR 47DC                                   ?___xxtofl 0169  
                        __end_ofi2_INT2_ISR 47D8                      _USART_TX_INT$intlevel1 40C0  
                                ??i2_memset 0007                   ??_convert_uint8_to_string 00D6  
           CCP_Compare_Mode_Set_Value@F3498 0131                                  _btn_values 1001  
                                   i2_fputc 34A6                          __end_ofi2_TMR0_ISR 478E  
                                   i2_fputs 44B4                          __end_ofi2_TMR1_ISR 4782  
                        __end_ofi2_TMR2_ISR 47A0                          __end_ofi2_TMR3_ISR 4776  
                            _tris_registers 01C4                                     i2pad@fp 0011  
                                   i2_putch 47EE                                     i2dtoa@d 001E  
                                   i2dtoa@i 0026                                     i2dtoa@p 0022  
                                   i2dtoa@s 0028                                     i2dtoa@w 0024  
                 ??_lcd_4bit_send_char_data 0091                   ??i2_lcd_4bit_send_command 0012  
                     _mcal_layer_initialize 478E      lcd_4bit_initialize@l_data_pins_counter 0180  
                      _ADC_InterruptHandler 00FB                                     __Hparam 0000  
                                   __Lparam 0000                         _gpio_pin_initialize 3AE8  
                                   ___fladd 151E                                     ___fldiv 19E0  
                                   ___awdiv 3570                                     ___awmod 37B2  
                                   ___fltol 30EE                    ??i2_lcd_4bit_send_string 0017  
                                 ?_vfprintf 00B6                              i2vfprintf@cfmt 003D  
                              __psmallconst 1000                        _EUSART_ASYNC_RX_Init 2FD2  
                  __end_ofi1_lcd_send_4bits 3AE8                        _EUSART_ASYNC_TX_Init 31F6  
                              ?i2_vfpfcnvrt 0029                                     __pcinit 4056  
                                   __ramtop 1000       __end_ofi1_lcd_4bit_send_enable_signal 4208  
             i1_lcd_4bit_send_enable_signal 41B4                                     __ptext0 46E8  
                                   __ptext1 478E                                     __ptext2 45B8  
                                   __ptext3 446E                                     __ptext4 1016  
                                   __ptext5 204C                                     __ptext6 30EE  
                                   __ptext7 19E0                                     __ptext8 151E  
                                   __ptext9 31F6                                i2memset@dest 0001  
              i2lcd_4bit_send_char_data@lcd 000F                i2lcd_4bit_send_char_data@ret 0012  
             i1lcd_send_4bits@_data_command 008C             ??_gpio_pin_direction_initialize 016B  
                                   _counter 00FE                                  ??___xxtofl 016D  
                          ___awmod@dividend 0080                             fp__USART_RX_INT 0000  
                           fp__USART_TX_INT 0000                        ?_gpio_pin_initialize 0173  
                  ??i2_gpio_pin_write_logic 0004                                     _sprintf 4258  
                  ?i1_lcd_4bit_send_command 008E                              __pintcode_body 1D7C  
                      end_of_initialization 40AC                           lcd_send_4bits@lcd 0173  
                         lcd_send_4bits@ret 0176                                   i2_ADC_ISR 47E4  
                                   fputc@fp 0082                                     memset@c 0082  
                                   memset@k 0088                                     memset@n 0084  
                                   memset@s 008A                                   i1u1411_20 3C6C  
                                 i1u1410_28 3C46                                   i1u1411_21 3C68  
                                 i1u1410_29 3C58                                   i1u1412_28 3C72  
                                 i1u1405_20 4670                                   i1u1412_29 3C84  
                                 i1u1405_21 466C                                     int_func 1D7C  
                                   fputs@fp 008B                                   i1u1407_20 3C14  
                                 i1u1406_28 4676                                   i1u1407_21 3C10  
                                 i1u1406_29 4688                                   i1u1409_20 3C40  
                                 i1u1408_28 3C1A                                   i1u1409_21 3C3C  
                                 i1u1408_29 3C2C                                   i1u1380_20 2B32  
                                 i1u1380_21 2B2E                                   i1u1461_20 0064  
                                 i1u1461_21 0060                                   i1u1381_24 2B5A  
                                 i1u1381_25 2B56                                   i1u1390_20 41C8  
                                 i1u1470_20 0104                                   i1u1462_20 0072  
                                 i1u1390_21 41C4                                   i1u1470_21 0100  
                                 i1u1462_21 006E                                   i1u1382_24 2BB8  
                                 i1u1382_25 2BB4                                   i1u1471_20 011A  
                                 i1u1463_20 0084                                   i1u1471_21 0116  
                                 i1u1463_21 0080                                   i1u1392_20 3E1C  
                                 i1u1480_20 01BC                                   i1u1472_20 0128  
                                 i1u1464_20 0092                                   i1u1392_21 3E18  
                                 i1u1480_21 01B8                                   i1u1472_21 0124  
                                 i1u1464_21 008E                                   i1u1481_20 01CE  
                                 i1u1473_20 0140                                   i1u1465_20 00A4  
                                 i1u1481_21 01CA                                   i1u1473_21 013C  
                                 i1u1465_21 00A0                                   i1u1378_20 2AF2  
                                 i1u1394_20 421C                                   i1u1490_20 025C  
                                 i1u1482_20 01DC                                   i1u1474_20 0156  
                                 i1u1466_20 00B2                                   i1u1378_21 2AEE  
                                 i1u1394_21 4218                                   i1u1490_21 0258  
                                 i1u1482_21 01D8                                   i1u1474_21 0152  
                                 i1u1466_21 00AE                                   i1u1379_20 2B14  
                                 i1u1395_20 4256                                   i1u1491_20 026E  
                                 i1u1483_20 01EE                                   i1u1475_20 0164  
                                 i1u1467_20 00C8                                   i1u1379_21 2B10  
                                 i1u1395_21 4252                                   i1u1491_21 026A  
                                 i1u1483_21 01EA                                   i1u1475_21 0160  
                                 i1u1467_21 00C4                                   i1u1396_20 4608  
                                 i1u1388_20 3A6A                                   i1u1492_20 027C  
                                 i1u1484_20 01FC                                   i1u1476_20 0178  
                                 i1u1468_20 00DE                                   i1u1396_21 4604  
                                 i1u1388_21 3A66                                   i1u1492_21 0278  
                                 i1u1484_21 01F8                                   i1u1476_21 0174  
                                 i1u1468_21 00DA                                   i1u1397_20 461A  
                                 i1u1493_20 028E                                   i1u1485_20 020E  
                                 i1u1477_20 018E                                   i1u1469_20 00EC  
                                 i1u1397_21 4616                                   i1u1493_21 028A  
                                 i1u1485_21 020A                                   i1u1477_21 018A  
                                 i1u1469_21 00E8                                   i1u1398_20 3F14  
                                 i1u1494_20 029C                                   i1u1486_20 021C  
                                 i1u1478_20 019C                                   i1u1398_21 3F10  
                                 i1u1494_21 0298                                   i1u1486_21 0218  
                                 i1u1478_21 0198                                   i1u1487_20 022E  
                                 i1u1479_20 01AE                                   i1u1487_21 022A  
                                 i1u1479_21 01AA                                   i1u1488_20 023C  
                                 i1u1488_21 0238                                   i1u1489_20 024E  
                                 i1u1489_21 024A                     ??_lcd_4bit_send_command 017A  
                                 i2u1400_40 4358                                   i2u1400_41 4354  
                                 i2u1401_40 4390                                   i2u1401_41 438C  
                                 i2u1402_40 463A                                   i2u1402_41 4636  
                                 i2u1403_40 464C                                   i2u1403_41 4648  
                                 i2u1420_48 3CF8                                   i2u1413_40 46A0  
                                 i2u1420_49 3D0A                                   i2u1413_41 469C  
                                 i2u1430_40 1E0A                                   i2u1430_41 1E06  
                                 i2u1415_40 3C9A                                   i2u1414_48 46A6  
                                 i2u1431_40 1E1C                                   i2u1415_41 3C96  
                                 i2u1414_49 46B8                                   i2u1431_41 1E18  
                                 i2u1440_40 1ECE                                   i2u1432_40 1E2A  
                                 i2u1440_41 1ECA                                   i2u1432_41 1E26  
                                 i2u1417_40 3CC6                                   i2u1416_48 3CA0  
                                 i2u1441_40 1EDC                                   i2u1433_40 1E40  
                                 i2u1425_40 1DBC                                   i2u1417_41 3CC2  
                                 i2u1416_49 3CB2                                   i2u1441_41 1ED8  
                                 i2u1433_41 1E3C                                   i2u1425_41 1DB8  
                                 i2u1450_40 1F74                                   i2u1442_40 1EF0  
                                 i2u1434_40 1E56                                   i2u1426_40 1DCA  
                                 i2u1450_41 1F70                                   i2u1442_41 1EEC  
                                 i2u1434_41 1E52                                   i2u1426_41 1DC6  
                                 i2u1419_40 3CF2                                   i2u1418_48 3CCC  
                                 i2u1451_40 1F86                                   i2u1443_40 1F06  
                                 i2u1435_40 1E64                                   i2u1427_40 1DDC  
                                 i2u1419_41 3CEE                                   i2u1418_49 3CDE  
                                 i2u1451_41 1F82                                   i2u1443_41 1F02  
                                 i2u1435_41 1E60                                   i2u1427_41 1DD8  
                                 i2u1460_40 2014                                   i2u1452_40 1F94  
                                 i2u1444_40 1F14                                   i2u1436_40 1E7C  
                                 i2u1428_40 1DEA                                   i2u1460_41 2010  
                                 i2u1452_41 1F90                                   i2u1444_41 1F10  
                                 i2u1436_41 1E78                                   i2u1428_41 1DE6  
                                 i2u1453_40 1FA6                                   i2u1445_40 1F26  
                                 i2u1437_40 1E92                                   i2u1429_40 1DFC  
                                 i2u1453_41 1FA2                                   i2u1445_41 1F22  
                                 i2u1437_41 1E8E                                   i2u1429_41 1DF8  
                                 i2u1454_40 1FB4                                   i2u1446_40 1F34  
                                 i2u1438_40 1EA0                                   i2u1454_41 1FB0  
                                 i2u1446_41 1F30                                   i2u1438_41 1E9C  
                                 i2u1383_40 2C40                                   i2u1391_40 430A  
                                 i2u1455_40 1FC6                                   i2u1447_40 1F46  
                                 i2u1439_40 1EB8                                   i2u1383_41 2C3C  
                                 i2u1391_41 4306                                   i2u1455_41 1FC2  
                                 i2u1447_41 1F42                                   i2u1439_41 1EB4  
                                 i2u1384_40 2C62                                   i2u1456_40 1FD4  
                                 i2u1448_40 1F54                                   i2u1384_41 2C5E  
                                 i2u1456_41 1FD0                                   i2u1448_41 1F50  
                                 i2u1385_40 2C80                                   i2u1393_40 3F8A  
                                 i2u1457_40 1FE6                                   i2u1449_40 1F66  
                                 i2u1385_41 2C7C                                   i2u1393_41 3F86  
                                 i2u1457_41 1FE2                                   i2u1449_41 1F62  
                                 i2u1458_40 1FF4                                   i2u1458_41 1FF0  
                                 i2u1386_44 2CA8                                   i2u1386_45 2CA4  
                                 i2u1459_40 2006                                   i2u1459_41 2002  
                                 i2u1387_44 2D04                                   i2u1387_45 2D00  
                                 i2u1389_40 3B8A                                   i2u1389_41 3B86  
                                 i2u1399_40 3FFC                                   i2u1399_41 3FF8  
                                 i2_RB4_ISR 47D0                                   i2_RB5_ISR 47CC  
                                 i2_RB6_ISR 47C8                                   i2_RB7_ISR 47C4  
                         __end_of_vfpfcnvrt 2EA4             __end_of_convert_uint8_to_string 37B2  
                                   postdec1 0FE5                                     postdec2 0FDD  
                                   postinc0 0FEE                                     postinc1 0FE6  
                                   postinc2 0FDE                            vfpfcnvrt@convarg 00B0  
                     ?_EUSART_ASYNC_RX_Init 0169                                ??i2_vfprintf 003D  
                                ??_vfprintf 00BC                       ?_EUSART_ASYNC_TX_Init 0169  
                       _lcd_4bit_initialize 32EA             __end_of_lcd_4bit_send_char_data 3E86  
                     _INT1_InterruptHandler 012D                                 ___fladd@grs 019F  
                lcd_4bit_send_char_data@lcd 008E                  lcd_4bit_send_char_data@ret 0091  
                             ___xxtofl@sign 0171                       ??_gpio_pin_initialize 0175  
                           i2_EUSART_RX_ISR 3C86                                 ___fldiv@grs 018A  
                               ___fldiv@rem 0183                             i2_EUSART_TX_ISR 468A  
                                 i2___awdiv 3636                                   i2___awmod 3914  
__end_ofi2_EUSART_ASYNC_ReadByteNonBlocking 465A    __end_of_EUSART_ASYNC_ReadByteNonBlocking 4628  
      ??i2_EUSART_ASYNC_ReadByteNonBlocking 0003         ?i2_EUSART_ASYNC_ReadByteNonBlocking 0001  
        ??_EUSART_ASYNC_ReadByteNonBlocking 0082           ?_EUSART_ASYNC_ReadByteNonBlocking 0080  
        i2_EUSART_ASYNC_ReadByteNonBlocking 4628            _EUSART_ASYNC_ReadByteNonBlocking 45F4  
                             ?_USART_RX_INT 0001                               ?_USART_TX_INT 0001  
                                ?i2_ADC_ISR 0001                        ?_lcd_4bit_initialize 017B  
                    ?_mcal_layer_initialize 0001                 ??i2_convert_uint8_to_string 0055  
                        __end_ofi2_vfprintf 42F8                          i2___awdiv@dividend 0001  
                                ?i2_RB4_ISR 0001                                  ?i2_RB5_ISR 0001  
                                ?i2_RB6_ISR 0001                                  ?i2_RB7_ISR 0001  
                            __end_ofi2_dtoa 2534                 ??i2_lcd_4bit_send_char_data 0012  
                        relay_turn_on@F3348 0078                    EUSART_ASYNC_Init@_eusart 01AC  
                                 i2_sprintf 4392               convert_uint16_to_string@F3502 010B  
             convert_uint32_to_string@F3509 0100                                 vfpfcnvrt@ap 00AC  
                               vfpfcnvrt@cp 00B4                                 vfpfcnvrt@fp 00A8  
                             __pidataCOMRAM 47F0                              _timer0_preload 006F  
                                 i2fputc@fp 0003                                   i2memset@c 0003  
                                 i2memset@k 0009                                   i2memset@n 0005  
                                 i2memset@s 000B                                   i2fputs@fp 000C  
                            __end_of_memset 26AC                              _timer1_preload 006D  
                            _timer2_preload 0072             __end_ofi1_lcd_4bit_send_command 3F78  
                       start_initialization 4056                              _timer3_preload 006B  
            ?i1_lcd_4bit_send_enable_signal 008A                ?_lcd_4bit_send_enable_signal 0173  
                        i2___awdiv@quotient 0007                        _RB4_InterruptHandler 0129  
                          ??i2_USART_RX_INT 0013                                 __end_of_abs 453A  
                          ??i2_USART_TX_INT 005B                                 __end_of_pad 3E08  
     __end_of_gpio_pin_direction_initialize 298A               _gpio_pin_direction_initialize 2822  
                                ?i2___awdiv 0001                                  ?i2___awmod 0001  
                            ??_USART_RX_INT 0092                              ??_USART_TX_INT 00DC  
                     ??_lcd_4bit_initialize 017D        __end_of_EUSART_Baud_Rate_Calcualtion 151E  
              _EUSART_Baud_Rate_Calcualtion 1016                                    ??i2_dtoa 0020  
                               vfprintf@fmt 00B8                                i2vfprintf@ap 003B  
                              i2vfprintf@fp 0037                  _EUSART_FramingErrorHandler 00F3  
                    ??_EUSART_ASYNC_RX_Init 016B                      ??_EUSART_ASYNC_TX_Init 016B  
                                ?i2_sprintf 003F                                 __pdataBANK1 01B0  
              convert_uint8_to_string@F3495 0115                                    ?_ADC_ISR 0001  
                                  ??_memset 0086                       __end_of_EUSART_RX_ISR 3C86  
                     __end_of_EUSART_TX_ISR 468A                   i2_convert_uint8_to_string 3864  
              __end_of_ecu_layer_initialize 4746                                  memset@dest 0080  
              lcd_4bit_send_command@command 0179           i2convert_uint8_to_string@Temp_str 0055  
           convert_uint8_to_string@Temp_str 00D6                     __end_ofi2_EUSART_RX_ISR 3D0C  
                   __end_ofi2_EUSART_TX_ISR 46BA                                   ___fladd@a 0194  
                                 ___fladd@b 0190            i1lcd_4bit_send_enable_signal@lcd 008A  
          i1lcd_4bit_send_enable_signal@ret 008C                                   ___fldiv@a 017B  
                                 ___fldiv@b 0177                                    ?_RB4_ISR 0001  
                                  ?_RB5_ISR 0001                                    ?_RB6_ISR 0001  
                                  ?_RB7_ISR 0001                                i2sprintf@fmt 0041  
                               __pbssCOMRAM 006B                   i2_lcd_4bit_send_char_data 3F78  
                             __pcstackBANK0 0080                               __pcstackBANK1 0169  
           ?_USART_ASYNC_9600_BAUDRATE_INIT 0001            ??_USART_ASYNC_9600_BAUDRATE_INIT 01AE  
              convert_uint8_to_string@value 00DA                      i2_lcd_4bit_send_string 4346  
                               ??i2_ADC_ISR 0001                                    ?i2_fputc 0001  
                                  ?i2_fputs 000A                                    ?i2_putch 0001  
                     _INT2_InterruptHandler 012B               ?_EUSART_Baud_Rate_Calcualtion 01A0  
          i2gpio_pin_write_logic@pin_config 0001              gpio_pin_write_logic@pin_config 0169  
                     _TMR0_InterruptHandler 0121                                 ??i2_RB4_ISR 0001  
                               ??i2_RB5_ISR 0001                                 ??i2_RB6_ISR 0001  
                               ??i2_RB7_ISR 0001                __end_of_InterruptManagerHigh 204C  
                                 _dtoa$3417 009F                                   __pintcode 0008  
                                  ?___fladd 0190                      i2_gpio_pin_write_logic 2C2A  
                 i2lcd_4bit_send_string@lcd 0013                                    ?___fldiv 0177  
                                  ?___awdiv 0080                                    ?___awmod 0080  
                                  ?___fltol 0169                   i2lcd_4bit_send_string@str 0015  
                               __pintcodelo 0018                   gpio_pin_write_logic@logic 016B  
                         ?i1_lcd_send_4bits 008A                          ??i1_lcd_send_4bits 008D  
                               __smallconst 1000                                    _CCP1_ISR 47BC  
                                  _CCP2_ISR 47B8                                 ??i2___awdiv 0005  
                               ??i2___awmod 0005                                    ?_sprintf 00BE  
                        _RB5_pin_init_value 0075                                    _INT0_ISR 47E8  
                                  _INT1_ISR 47B4                                    _INT2_ISR 47B0  
                          i2_lcd_send_4bits 3B78                                    i1u610_20 2356  
                                  i1u602_20 2216                                    i1u610_21 2352  
                                  i1u602_21 2210                                    i1u611_20 2366  
                                  i1u603_20 2218                                    i1u611_21 2362  
                                  i1u604_20 222A                                    i1u604_21 2226  
             __end_of_lcd_4bit_send_command 3D8A                                    i1u605_20 2240  
                                  i1u605_21 223C                                    i1u606_20 226C  
                                  i1u622_20 2D9A                                    i1u606_21 2268  
                                  i1u622_21 2D96                                    i1u607_20 2282  
                                  i1u623_20 2DEA                                    i1u607_21 227E  
                                  i1u623_21 2DE6                                    i1u608_20 232A  
                                  i1u624_20 2E08                                    i1u608_21 2326  
                                  i1u624_21 2E04                                    i1u609_20 233C  
                                  i1u609_21 2338                                    i1u562_20 33EE  
                                  i1u570_20 4424                                    i1u722_20 41A8  
                                  i1u562_21 33EA                                    i1u570_21 4420  
                                  i1u722_21 41A4                                    i1u563_20 3400  
                                  i1u563_21 33FC                                    i1u740_20 2604  
                                  i1u572_20 3584                                    i1u580_20 37FA  
                                  i1u564_20 3428                                    i1u740_21 2600  
                                  i1u572_21 3580                                    i1u580_21 37F6  
                                  i1u564_21 3424                                    i1u741_20 264A  
                                  i1u573_20 359E                                    i1u581_20 3818  
                                  i1u565_20 345E                                    i1u741_21 2646  
                                  i1u573_21 359A                                    i1u581_21 3814  
                                  i1u565_21 345A                                    i1u742_20 26AA  
                                  i1u574_20 35C4                                    i1u582_20 382E  
                                  i1u742_21 26A6                                    i1u574_21 35C0  
                                  i1u582_21 382A                                    i1u575_20 35E2  
                                  i1u583_20 3852                                    i1u575_21 35DE  
                                  i1u583_21 384E                                    i1u576_20 35FE  
                                  i1u584_20 3D9A                                    i1u576_21 35FA  
                                  i1u584_21 3D96                                    i2u600_40 3EEA  
                                  i2u600_41 3EE6                                    i1u577_20 3624  
                                  i1u585_20 3DF2                                    i1u577_21 3620  
                                  i1u585_21 3DEE                                    i2u601_40 4554  
                                  i2u601_41 4550                                    i1u738_20 2550  
                                  i1u578_20 37C6                                    i1u586_20 4514  
                                  i1u770_20 37A2                                    i1u738_21 254C  
                                  i1u578_21 37C2                                    i1u586_21 4510  
                                  i1u770_21 379E                                    i1u739_20 2592  
                                  i1u579_20 37E0                                    i1u739_21 258E  
                                  i1u579_21 37DC                                    i2u620_40 24EC  
                                  i2u612_40 23AE                                    i2u620_41 24E8  
                                  i2u612_41 23A8                                    i2u621_40 24FC  
                                  i2u613_40 23B0                        _RB5_InterruptHandler 0127  
                                  i2u621_41 24F8                                    i2u614_40 23C2  
                                  i2u614_41 23BE             ??i2_lcd_4bit_send_enable_signal 000D  
                                  i2u615_40 23DA                                    i2u615_41 23D6  
                                  i2u616_40 2406                                    i2u616_41 2402  
                                  i1u769_20 3726                                    i1u769_21 3722  
                                  i2u617_40 241C                                    i2u617_41 2418  
                                  i2u618_40 24C0                                    i2u618_41 24BC  
                                  i2u571_40 44F6                                    i2u619_40 24D2  
                                  i2u635_40 2ECA                                    i2u571_41 44F2  
                                  i2u619_41 24CE                                    i2u635_41 2EC6  
                                  i2u636_40 2F1A                                    i2u636_41 2F16  
                                  i2u637_40 2F38                                    i2u637_41 2F34  
                                  i2u590_40 36A6                                    i2u566_40 34B8  
                                  i2u590_41 36A2                                    i2u566_41 34B4  
                                  i2u591_40 36C2                                    i2u567_40 34CA  
                                  i2u727_40 42EE                                    i2u591_41 36BE  
                                  i2u567_41 34C6                                    i2u727_41 42EA  
                                  i2u760_40 277A                                    i2u592_40 36E8  
                                  i2u568_40 34F2                                    i2u760_41 2776  
                                  i2u592_41 36E4                                    i2u568_41 34EE  
                                  i2u761_40 27C0                                    i2u593_40 3926  
                                  i2u569_40 3528                                    i2u761_41 27BC  
                                  i2u593_41 3922                                    i2u569_41 3524  
                                  i2u762_40 2820                                    i2u594_40 3940  
                                  i2u762_41 281C                                    i2u594_41 393C  
                                  i2u587_40 3648                                    i2u595_40 395A  
                                  i2u587_41 3644                                    i2u595_41 3956  
                                  i2u588_40 3662                                    i2u596_40 3978  
                                  i2u588_41 365E                                    i2u596_41 3974  
                                  i2u589_40 3688                                    i2u597_40 398E  
                                  i2u589_41 3684                                    i2u597_41 398A  
                                  i2u758_40 26C6                                    i2u598_40 39B2  
                                  i2u758_41 26C2                                    i2u598_41 39AE  
                                  i2u759_40 2708                                    i2u599_40 3E94  
                                  i2u759_41 2704                                    i2u599_41 3E90  
                                  i2u778_40 388C                                    i2u778_41 3888  
                                  i2u779_40 3904                                    i2u779_41 3900  
          gpio_pin_direction_initialize@ret 0171                                 ??i2_sprintf 0045  
                                  _TMR0_ISR 475E                                    _TMR1_ISR 4752  
                                  _TMR2_ISR 4794                                    _TMR3_ISR 4746  
                      __end_of_USART_RX_INT 45B8                        __end_of_USART_TX_INT 410C  
                                 _vfpfcnvrt 2D74                            ?i2_EUSART_RX_ISR 0001  
                          ?i2_EUSART_TX_ISR 0001     gpio_pin_direction_initialize@pin_config 0169  
                  ?_convert_uint8_to_string 00D4                                   _usart_obj 0157  
                    gpio_pin_initialize@ret 0176                           i2___awdiv@divisor 0003  
                                  i2_memset 26AC                           i2___awdiv@counter 0005  
                                  i2pad@buf 0013                                    i2dtoa@fp 001C  
                  ??i1_gpio_pin_write_logic 0083                     ??_mcal_layer_initialize 01AE  
                   gpio_pin_write_logic@ret 0172                    ?_lcd_4bit_send_char_data 008E  
                                 copy_data0 406A                                    i2fputc@c 0001  
                                  i2fputs@c 000E                                    i2fputs@i 000F  
                                  i2fputs@s 000A                    ?i2_lcd_4bit_send_command 000F  
                        i2___awmod@dividend 0001                 i1gpio_pin_write_logic@logic 0082  
                      _ecu_layer_initialize 4736                          _RB7_pin_init_value 0073  
                                  __Hrparam 0000                   i1gpio_pin_write_logic@ret 0089  
                                vfprintf@ap 00BA                                    __Lrparam 0000  
                                vfprintf@fp 00B6              ??_EUSART_Baud_Rate_Calcualtion 01A2  
               EUSART_ASYNC_RX_Init@_eusart 0169                         i1lcd_send_4bits@lcd 008A  
                       i1lcd_send_4bits@ret 008D                       _CCP1_InterruptHandler 00F9  
                                ?_vfpfcnvrt 00A8                 __end_of_gpio_pin_initialize 3B78  
                        __end_of_btn_values 1011         EUSART_Baud_Rate_Calcualtion@_eusart 01A0  
                        i2vfpfcnvrt@convarg 0031                       _TMR1_InterruptHandler 011F  
                                sprintf@fmt 00C0                                    ___xxtofl 204C  
                      _InterruptManagerHigh 0008                                    __ptext10 2FD2  
                                  __ptext11 4736                                    __ptext20 4746  
                                  __ptext12 32EA                                    __ptext21 4794  
                                  __ptext13 3D0C                                    __ptext30 465A  
                                  __ptext22 4752                                    __ptext14 39C4  
                                  __ptext31 40B6                                    __ptext23 475E  
                                  __ptext15 410C                                    __ptext40 33DA  
                                  __ptext32 4208                                    __ptext24 47A0  
                                  __ptext16 3AE8                                    __ptext41 47EC  
                                  __ptext33 36FA                                    __ptext25 47A4  
                                  __ptext17 298A                                    __ptext50 3A56  
                                  __ptext42 44F8                                    __ptext34 4258  
                                  __ptext26 47A8                                    __ptext18 2822  
                                  __ptext51 41B4                                    __ptext43 37B2  
                                  __ptext35 4160                                    __ptext27 47AC  
                                  __ptext60 4776                                    __ptext52 2ADA  
                                  __ptext44 3570                                    __ptext36 2D74  
                                  __ptext28 47B0                                    __ptext61 4782  
                                  __ptext53 45F4                                    __ptext45 2534  
                                  __ptext37 2204                                    __ptext29 47B4  
                                  __ptext70 4346                                    __ptext62 47C4  
                                  __ptext54 47B8                                    __ptext46 3C00  
                                  __ptext38 3D8A                                    __ptext71 3864  
                                  __ptext63 47C8                                    __ptext55 47BC  
                                  __ptext47 457A                                    __ptext39 43DE  
                                  __ptext80 453A                                    __ptext72 4392  
                                  __ptext64 47CC                                    __ptext56 47C0  
                                  __ptext48 3F00                                    __ptext81 3914  
                                  __ptext73 42A8                                    __ptext65 47D0  
                                  __ptext49 3E08                                    __ptext90 2C2A  
                                  __ptext82 3636                                    __ptext74 2EA4  
                                  __ptext66 47D4                                    __ptext58 476A  
                                  __ptext91 4628                                    __ptext83 26AC  
                                  __ptext75 239E                                    __ptext67 47D8  
                                  __ptext59 479A                                    __ptext92 47DC  
                                  __ptext84 3C86                                    __ptext76 3E86  
                                  __ptext68 468A                                    __ptext93 47E0  
                                  __ptext85 46BA                                    __ptext77 44B4  
                                  __ptext69 4426                                    __ptext94 47E4  
                                  __ptext86 3FEA                                    __ptext78 34A6  
                                  __ptext95 47E8                                    __ptext87 3F78  
                                  __ptext79 47EE                                    __ptext96 0000  
                                  __ptext88 3B78                                    __ptext89 42F8  
             i2lcd_4bit_send_char_data@data 0011                       ?_ecu_layer_initialize 0001  
                _EUSART_TX_InterruptHandler 00F7                                    isa$xinst 0000  
                                  int$flags 007F                __end_of_lcd_4bit_send_string 4258  
                                  _vfprintf 4160       __end_ofi2_lcd_4bit_send_enable_signal 4346  
             i2_lcd_4bit_send_enable_signal 42F8                              _lcd_send_4bits 39C4  
                   USART_TX_INT@counter_Str 00DC               i2lcd_send_4bits@_data_command 000D  
                         i2___awmod@divisor 0003                           i2___awmod@counter 0005  
                                i2_CCP1_ISR 47E0                                  i2_CCP2_ISR 47DC  
               __end_of_lcd_4bit_initialize 33DA             __end_ofi2_lcd_4bit_send_command 4056  
                     ?_InterruptManagerHigh 0001                     ?i2_lcd_4bit_send_string 0013  
                      _RB6_InterruptHandler 0125                __end_of_gpio_pin_write_logic 2ADA  
                                  intlevel1 0000                                    intlevel2 0000  
                                 sprintf@ap 00C6              i2lcd_4bit_send_command@command 0011  
                       _InterruptManagerLow 0018            i2lcd_4bit_send_enable_signal@lcd 000B  
            lcd_4bit_send_enable_signal@lcd 0173            i2lcd_4bit_send_enable_signal@ret 000D  
            lcd_4bit_send_enable_signal@ret 0175                                  i2_INT1_ISR 47D8  
                                i2_INT2_ISR 47D4                     ?i2_gpio_pin_write_logic 0001  
                   i1_lcd_4bit_send_command 3F00      __end_of_USART_ASYNC_9600_BAUDRATE_INIT 45F4  
            _USART_ASYNC_9600_BAUDRATE_INIT 45B8                                  i2_TMR0_ISR 4782  
                                i2_TMR1_ISR 4776                      __end_of_lcd_send_4bits 3A56  
                                i2_TMR2_ISR 479A                                  i2_TMR3_ISR 476A  
                             ??i2_vfpfcnvrt 002F                                 ??_vfpfcnvrt 00AE  
                      ?_InterruptManagerLow 0001            i1gpio_pin_write_logic@pin_config 0080  
                  __end_ofi2_lcd_send_4bits 3C00                                    sprintf@f 00C8  
                                  sprintf@s 00BE              __end_ofi2_lcd_4bit_send_string 4392  
                            _port_registers 01B0                               ___fladd@signs 019C  
                     _CCP2_InterruptHandler 0135                      ??_ecu_layer_initialize 0181  
                              _USART_RX_INT 457A                                _USART_TX_INT 40B6  
                              ___fladd@aexp 019D                                ___fladd@bexp 019E  
            i1lcd_4bit_send_command@command 0090                 lcd_4bit_send_char_data@data 0090  
            __end_ofi2_gpio_pin_write_logic 2D74                           fp_i2_USART_RX_INT 0000  
                         fp_i2_USART_TX_INT 0000                      lcd_4bit_initialize@lcd 017B  
                    lcd_4bit_initialize@ret 017F  
