

Microchip MPLAB XC8 Assembler V2.41 build 20230208172133 
                                                                                               Wed Feb 14 16:40:50 2024

Microchip MPLAB XC8 C Compiler v2.41 (Free license) build 20230208172133 Og1 
     1                           	processor	18F4620
     2                           	fnconf	rparam,??,?,0
     3                           	pagewidth 120
     4                           	opt	flic
     5                           	psect	idataCOMRAM,global,class=CODE,delta=1,noexec
     6                           	psect	idataBANK0,global,class=CODE,delta=1,noexec
     7                           	psect	smallconst,global,reloc=2,class=SMALLCONST,delta=1,noexec
     8                           	psect	cinit,global,reloc=2,class=CODE,delta=1
     9                           	psect	bssCOMRAM,global,class=COMRAM,space=1,delta=1,lowdata,noexec
    10                           	psect	dataCOMRAM,global,class=COMRAM,space=1,delta=1,lowdata,noexec
    11                           	psect	bssBANK0,global,class=BANK0,space=1,delta=1,lowdata,noexec
    12                           	psect	dataBANK0,global,class=BANK0,space=1,delta=1,lowdata,noexec
    13                           	psect	cstackCOMRAM,global,class=COMRAM,space=1,delta=1,lowdata,noexec
    14                           	psect	text0,global,reloc=2,class=CODE,delta=1
    15                           	psect	text1,global,reloc=2,class=CODE,delta=1
    16                           	psect	text2,global,reloc=2,class=CODE,delta=1
    17                           	psect	text3,global,reloc=2,class=CODE,delta=1
    18                           	psect	text4,global,reloc=2,class=CODE,delta=1
    19                           	psect	text5,global,reloc=2,class=CODE,delta=1
    20                           	psect	text6,global,reloc=2,class=CODE,delta=1
    21                           	psect	text7,global,reloc=2,class=CODE,delta=1
    22                           	psect	text8,global,reloc=2,class=CODE,delta=1
    23                           	psect	text9,global,reloc=2,class=CODE,delta=1
    24                           	psect	text10,global,reloc=2,class=CODE,delta=1
    25                           	psect	text11,global,reloc=2,class=CODE,delta=1
    26                           	psect	text12,global,reloc=2,class=CODE,delta=1,inline
    27                           	psect	text13,global,reloc=2,class=CODE,delta=1,inline
    28                           	psect	text14,global,reloc=2,class=CODE,delta=1,inline
    29                           	psect	text15,global,reloc=2,class=CODE,delta=1,group=1
    30                           	psect	text16,global,reloc=2,class=CODE,delta=1,group=1
    31                           	psect	text17,global,reloc=2,class=CODE,delta=1,group=1
    32                           	psect	text18,global,reloc=2,class=CODE,delta=1,group=1
    33                           	psect	intcode,global,reloc=2,class=CODE,delta=1
    34                           	psect	intcode_body,global,reloc=2,class=CODE,delta=1
    35                           	psect	text20,global,reloc=2,class=CODE,delta=1
    36                           	psect	text21,global,reloc=2,class=CODE,delta=1
    37                           	psect	text22,global,reloc=2,class=CODE,delta=1
    38                           	psect	text23,global,reloc=2,class=CODE,delta=1
    39                           	psect	text24,global,reloc=2,class=CODE,delta=1
    40                           	psect	text25,global,reloc=2,class=CODE,delta=1
    41                           	psect	text26,global,reloc=2,class=CODE,delta=1
    42                           	psect	text27,global,reloc=2,class=CODE,delta=1
    43                           	psect	text28,global,reloc=2,class=CODE,delta=1
    44                           	psect	text29,global,reloc=2,class=CODE,delta=1
    45                           	psect	text30,global,reloc=2,class=CODE,delta=1
    46                           	psect	text31,global,reloc=2,class=CODE,delta=1
    47                           	psect	text32,global,reloc=2,class=CODE,delta=1
    48                           	psect	text33,global,reloc=2,class=CODE,delta=1
    49                           	psect	text34,global,reloc=2,class=CODE,delta=1
    50                           	psect	text35,global,reloc=2,class=CODE,delta=1
    51                           	psect	text36,global,reloc=2,class=CODE,delta=1
    52                           	psect	text37,global,reloc=2,class=CODE,delta=1
    53                           	psect	intsave_regs,global,class=BIGRAM,space=1,delta=1,noexec
    54                           	psect	rparam,global,class=COMRAM,space=1,delta=1,noexec
    55                           	psect	temp,global,ovrld,common,class=COMRAM,space=1,delta=1
    56                           	psect	config,global,abs,ovrld,class=CONFIG,space=4,delta=1,noexec
    57   000000                     
    58                           ; Generated 23/03/2023 GMT
    59                           ; 
    60                           ; Copyright © 2023, Microchip Technology Inc. and its subsidiaries ("Microchip")
    61                           ; All rights reserved.
    62                           ; 
    63                           ; This software is developed by Microchip Technology Inc. and its subsidiaries ("Microch
      +                          ip").
    64                           ; 
    65                           ; Redistribution and use in source and binary forms, with or without modification, are
    66                           ; permitted provided that the following conditions are met:
    67                           ; 
    68                           ;     1. Redistributions of source code must retain the above copyright notice, this lis
      +                          t of
    69                           ;        conditions and the following disclaimer.
    70                           ; 
    71                           ;     2. Redistributions in binary form must reproduce the above copyright notice, this 
      +                          list
    72                           ;        of conditions and the following disclaimer in the documentation and/or other
    73                           ;        materials provided with the distribution. Publication is not required when
    74                           ;        this file is used in an embedded application.
    75                           ; 
    76                           ;     3. Microchip's name may not be used to endorse or promote products derived from th
      +                          is
    77                           ;        software without specific prior written permission.
    78                           ; 
    79                           ; THIS SOFTWARE IS PROVIDED BY MICROCHIP "AS IS" AND ANY EXPRESS OR IMPLIED WARRANTIES,
    80                           ; INCLUDING, BUT NOT LIMITED TO, THE IMPLIED WARRANTIES OF MERCHANTABILITY AND FITNESS F
      +                          OR
    81                           ; PURPOSE ARE DISCLAIMED.  IN NO EVENT SHALL MICROCHIP BE LIABLE FOR ANY DIRECT, INDIREC
      +                          T,
    82                           ; INCIDENTAL, SPECIAL, EXEMPLARY, OR CONSEQUENTIAL DAMAGES (INCLUDING BUT NOT LIMITED TO
    83                           ; PROCUREMENT OF SUBSTITUTE GOODS OR SERVICES; LOSS OF USE, DATA OR PROFITS; OR BUSINESS
    84                           ; INTERRUPTION) HOWSOEVER CAUSED AND ON ANY THEORY OF LIABILITY, WHETHER IN CONTRACT, ST
      +                          RICT
    85                           ; LIABILITY, OR TORT (INCLUDING NEGLIGENCE OR OTHERWISE) ARISING IN ANY WAY OUT OF THE U
      +                          SE OF
    86                           ; THIS SOFTWARE, EVEN IF ADVISED OF THE POSSIBILITY OF SUCH DAMAGE.
    87                           ; 
    88                           ; 
    89                           ; Code-generator required, PIC18F4620 Definitions
    90                           ; 
    91                           ; SFR Addresses
    92   000000                     
    93                           	psect	idataCOMRAM
    94   00267E                     __pidataCOMRAM:
    95                           	callstack 0
    96                           
    97                           ;initializer for _led1
    98   00267E  03                 	db	3
    99                           
   100                           	psect	idataBANK0
   101   0025CE                     __pidataBANK0:
   102                           	callstack 0
   103                           
   104                           ;initializer for _port_registers
   105   0025CE  80                 	db	128
   106   0025CF  0F                 	db	15
   107   0025D0  81                 	db	129
   108   0025D1  0F                 	db	15
   109   0025D2  82                 	db	130
   110   0025D3  0F                 	db	15
   111   0025D4  83                 	db	131
   112   0025D5  0F                 	db	15
   113   0025D6  84                 	db	132
   114   0025D7  0F                 	db	15
   115                           
   116                           ;initializer for _lat_registers
   117   0025D8  89                 	db	137
   118   0025D9  0F                 	db	15
   119   0025DA  8A                 	db	138
   120   0025DB  0F                 	db	15
   121   0025DC  8B                 	db	139
   122   0025DD  0F                 	db	15
   123   0025DE  8C                 	db	140
   124   0025DF  0F                 	db	15
   125   0025E0  8D                 	db	141
   126   0025E1  0F                 	db	15
   127                           
   128                           ;initializer for _tris_registers
   129   0025E2  92                 	db	146
   130   0025E3  0F                 	db	15
   131   0025E4  93                 	db	147
   132   0025E5  0F                 	db	15
   133   0025E6  94                 	db	148
   134   0025E7  0F                 	db	15
   135   0025E8  95                 	db	149
   136   0025E9  0F                 	db	15
   137   0025EA  96                 	db	150
   138   0025EB  0F                 	db	15
   139                           
   140                           ;initializer for _lcd1
   141   0025EC  03                 	db	3
   142   0025ED  0B                 	db	11
   143   0025EE  13                 	db	19
   144   0025EF  1B                 	db	27
   145   0025F0  23                 	db	35
   146   0025F1  2B                 	db	43
   147                           
   148                           	psect	smallconst
   149   001000                     __psmallconst:
   150                           	callstack 0
   151   001000  00                 	db	0
   152   001001                     _btn_values:
   153                           	callstack 0
   154   001001  37                 	db	55
   155   001002  38                 	db	56
   156   001003  39                 	db	57
   157   001004  2F                 	db	47
   158   001005  34                 	db	52
   159   001006  35                 	db	53
   160   001007  36                 	db	54
   161   001008  2A                 	db	42
   162   001009  31                 	db	49
   163   00100A  32                 	db	50
   164   00100B  33                 	db	51
   165   00100C  2D                 	db	45
   166   00100D  23                 	db	35
   167   00100E  30                 	db	48
   168   00100F  3D                 	db	61
   169   001010  2B                 	db	43
   170   001011                     __end_of_btn_values:
   171                           	callstack 0
   172   000000                     _ADRESL	set	4035
   173   000000                     _ADRESH	set	4036
   174   000000                     _TMR0H	set	4055
   175   001011                     STR_1:
   176   001011  25                 	db	37
   177   001012  69                 	db	105	;'i'
   178   001013  00                 	db	0
   179   001014  00                 	db	0	; dummy byte at the end
   180   000000                     
   181                           ; #config settings
   182                           
   183                           	psect	cinit
   184   002466                     __pcinit:
   185                           	callstack 0
   186   002466                     start_initialization:
   187                           	callstack 0
   188   002466                     __initialization:
   189                           	callstack 0
   190                           
   191                           ; Initialize objects allocated to BANK0 (36 bytes)
   192                           ; load TBLPTR registers with __pidataBANK0
   193   002466  0ECE               	movlw	low __pidataBANK0
   194   002468  6EF6               	movwf	tblptrl,c
   195   00246A  0E25               	movlw	high __pidataBANK0
   196   00246C  6EF7               	movwf	tblptrh,c
   197   00246E  0E00               	movlw	low (__pidataBANK0 shr (0+16))
   198   002470  6EF8               	movwf	tblptru,c
   199   002472  EE00  F0AB         	lfsr	0,__pdataBANK0
   200   002476  EE10 F024          	lfsr	1,36
   201   00247A                     copy_data0:
   202   00247A  0009               	tblrd		*+
   203   00247C  CFF5 FFEE          	movff	tablat,postinc0
   204   002480  50E5               	movf	postdec1,w,c
   205   002482  50E1               	movf	fsr1l,w,c
   206   002484  E1FA               	bnz	copy_data0
   207                           
   208                           ; Initialize objects allocated to COMRAM (1 bytes)
   209                           ; load TBLPTR registers with __pidataCOMRAM
   210   002486  0E7E               	movlw	low __pidataCOMRAM
   211   002488  6EF6               	movwf	tblptrl,c
   212   00248A  0E26               	movlw	high __pidataCOMRAM
   213   00248C  6EF7               	movwf	tblptrh,c
   214   00248E  0E00               	movlw	low (__pidataCOMRAM shr (0+16))
   215   002490  6EF8               	movwf	tblptru,c
   216   002492  0009               	tblrd		*+	;fetch initializer
   217   002494  CFF5 F07D          	movff	tablat,__pdataCOMRAM
   218                           
   219                           ; Clear objects allocated to BANK0 (43 bytes)
   220   002498  EE00  F080         	lfsr	0,__pbssBANK0
   221   00249C  0E2B               	movlw	43
   222   00249E                     clear_0:
   223   00249E  6AEE               	clrf	postinc0,c
   224   0024A0  06E8               	decf	wreg,f,c
   225   0024A2  E1FD               	bnz	clear_0
   226                           
   227                           ; Clear objects allocated to COMRAM (52 bytes)
   228   0024A4  EE00  F049         	lfsr	0,__pbssCOMRAM
   229   0024A8  0E34               	movlw	52
   230   0024AA                     clear_1:
   231   0024AA  6AEE               	clrf	postinc0,c
   232   0024AC  06E8               	decf	wreg,f,c
   233   0024AE  E1FD               	bnz	clear_1
   234   0024B0                     end_of_initialization:
   235                           	callstack 0
   236   0024B0                     __end_of__initialization:
   237                           	callstack 0
   238   0024B0  907E               	bcf	int$flags,0,c	;clear compiler interrupt flag (level 1)
   239   0024B2  927E               	bcf	int$flags,1,c	;clear compiler interrupt flag (level 2)
   240   0024B4  0100               	movlb	0
   241   0024B6  EF2D  F011         	goto	_main	;jump to C main() function
   242                           
   243                           	psect	bssCOMRAM
   244   000049                     __pbssCOMRAM:
   245                           	callstack 0
   246   000049                     _timer3_preload:
   247                           	callstack 0
   248   000049                     	ds	2
   249   00004B                     _timer1_preload:
   250                           	callstack 0
   251   00004B                     	ds	2
   252   00004D                     _timer0_preload:
   253                           	callstack 0
   254   00004D                     	ds	2
   255   00004F                     _RB6_InterruptHandler:
   256                           	callstack 0
   257   00004F                     	ds	2
   258   000051                     _RB5_InterruptHandler:
   259                           	callstack 0
   260   000051                     	ds	2
   261   000053                     _RB4_InterruptHandler:
   262                           	callstack 0
   263   000053                     	ds	2
   264   000055                     _INT2_InterruptHandler:
   265                           	callstack 0
   266   000055                     	ds	2
   267   000057                     _INT1_InterruptHandler:
   268                           	callstack 0
   269   000057                     	ds	2
   270   000059                     _INT0_InterruptHandler:
   271                           	callstack 0
   272   000059                     	ds	2
   273   00005B                     CCP_Compare_Mode_Set_Value@F3533:
   274                           	callstack 0
   275   00005B                     	ds	2
   276   00005D                     CCP_Capture_Mode_Read_Value@F3523:
   277                           	callstack 0
   278   00005D                     	ds	2
   279   00005F                     _CCP2_InterruptHandler:
   280                           	callstack 0
   281   00005F                     	ds	2
   282   000061                     _CCP1_InterruptHandler:
   283                           	callstack 0
   284   000061                     	ds	2
   285   000063                     _ADC_InterruptHandler:
   286                           	callstack 0
   287   000063                     	ds	2
   288   000065                     _ret:
   289                           	callstack 0
   290   000065                     	ds	1
   291   000066                     _Master_Received_Data:
   292                           	callstack 0
   293   000066                     	ds	1
   294   000067                     _timer2_preload:
   295                           	callstack 0
   296   000067                     	ds	1
   297   000068                     _SPI_Slave_Receive_Status:
   298                           	callstack 0
   299   000068                     	ds	1
   300   000069                     _RB7_pin_init_value:
   301                           	callstack 0
   302   000069                     	ds	1
   303   00006A                     _RB6_pin_init_value:
   304                           	callstack 0
   305   00006A                     	ds	1
   306   00006B                     _RB5_pin_init_value:
   307                           	callstack 0
   308   00006B                     	ds	1
   309   00006C                     _RB4_pin_init_value:
   310                           	callstack 0
   311   00006C                     	ds	1
   312   00006D                     relay_turn_off@F3389:
   313                           	callstack 0
   314   00006D                     	ds	1
   315   00006E                     relay_turn_on@F3384:
   316                           	callstack 0
   317   00006E                     	ds	1
   318   00006F                     relay_initialize@F3379:
   319                           	callstack 0
   320   00006F                     	ds	1
   321   000070                     led_toggle@F3400:
   322                           	callstack 0
   323   000070                     	ds	1
   324   000071                     led_turn_off@F3395:
   325                           	callstack 0
   326   000071                     	ds	1
   327   000072                     led_turn_on@F3390:
   328                           	callstack 0
   329   000072                     	ds	1
   330   000073                     led_initialize@F3385:
   331                           	callstack 0
   332   000073                     	ds	1
   333   000074                     _i2c_obj:
   334                           	callstack 0
   335   000074                     	ds	7
   336   00007B                     _SS2_Pin:
   337                           	callstack 0
   338   00007B                     	ds	1
   339   00007C                     _SS1_Pin:
   340                           	callstack 0
   341   00007C                     	ds	1
   342                           
   343                           	psect	dataCOMRAM
   344   00007D                     __pdataCOMRAM:
   345                           	callstack 0
   346   00007D                     _led1:
   347                           	callstack 0
   348   00007D                     	ds	1
   349                           
   350                           	psect	bssBANK0
   351   000080                     __pbssBANK0:
   352                           	callstack 0
   353   000080                     	ds	11
   354   00008B                     	ds	6
   355   000091                     	ds	4
   356   000095                     EUSART_ASYNC_WriteStringNonBlocking@Counter:
   357                           	callstack 0
   358   000095                     	ds	2
   359   000097                     _EUSART_OverrunErrorHandler:
   360                           	callstack 0
   361   000097                     	ds	2
   362   000099                     _EUSART_FramingErrorHandler:
   363                           	callstack 0
   364   000099                     	ds	2
   365   00009B                     _EUSART_RX_InterruptHandler:
   366                           	callstack 0
   367   00009B                     	ds	2
   368   00009D                     _EUSART_TX_InterruptHandler:
   369                           	callstack 0
   370   00009D                     	ds	2
   371   00009F                     _TMR3_InterruptHandler:
   372                           	callstack 0
   373   00009F                     	ds	2
   374   0000A1                     _TMR1_InterruptHandler:
   375                           	callstack 0
   376   0000A1                     	ds	2
   377   0000A3                     _TMR0_InterruptHandler:
   378                           	callstack 0
   379   0000A3                     	ds	2
   380   0000A5                     _RB7_InterruptHandler:
   381                           	callstack 0
   382   0000A5                     	ds	2
   383   0000A7                     _spi_obj2:
   384                           	callstack 0
   385   0000A7                     	ds	2
   386   0000A9                     _spi_obj:
   387                           	callstack 0
   388   0000A9                     	ds	2
   389                           
   390                           	psect	dataBANK0
   391   0000AB                     __pdataBANK0:
   392                           	callstack 0
   393   0000AB                     _port_registers:
   394                           	callstack 0
   395   0000AB                     	ds	10
   396   0000B5                     _lat_registers:
   397                           	callstack 0
   398   0000B5                     	ds	10
   399   0000BF                     _tris_registers:
   400                           	callstack 0
   401   0000BF                     	ds	10
   402   0000C9                     _lcd1:
   403                           	callstack 0
   404   0000C9                     	ds	6
   405                           
   406                           	psect	cstackCOMRAM
   407   000001                     __pcstackCOMRAM:
   408                           	callstack 0
   409   000001                     ?___xxtofl:
   410                           	callstack 0
   411   000001                     gpio_pin_direction_initialize@pin_config:
   412                           	callstack 0
   413   000001                     gpio_pin_write_logic@pin_config:
   414                           	callstack 0
   415   000001                     MSSP_I2C_Master_Send_Start@i2c_obj:
   416                           	callstack 0
   417   000001                     MSSP_I2C_Master_Send_Stop@i2c_obj:
   418                           	callstack 0
   419   000001                     MSSP_I2C_Master_Write_Blocking@i2c_obj:
   420                           	callstack 0
   421   000001                     I2C_Slave_Mode_Configurations@i2c_obj:
   422                           	callstack 0
   423   000001                     ___xxtofl@val:
   424                           	callstack 0
   425                           
   426                           ; 4 bytes @ 0x0
   427   000001                     	ds	2
   428   000003                     ??_gpio_pin_direction_initialize:
   429   000003                     ??_I2C_Slave_Mode_Configurations:
   430   000003                     gpio_pin_write_logic@logic:
   431                           	callstack 0
   432   000003                     MSSP_I2C_Master_Write_Blocking@i2c_data:
   433                           	callstack 0
   434                           
   435                           ; 1 bytes @ 0x2
   436   000003                     	ds	1
   437   000004                     ??_gpio_pin_write_logic:
   438   000004                     MSSP_I2C_Master_Write_Blocking@ack:
   439                           	callstack 0
   440                           
   441                           ; 2 bytes @ 0x3
   442   000004                     	ds	1
   443   000005                     ??___xxtofl:
   444                           
   445                           ; 1 bytes @ 0x4
   446   000005                     	ds	1
   447   000006                     I2C_Send_1_byte@Data:
   448                           	callstack 0
   449                           
   450                           ; 1 bytes @ 0x5
   451   000006                     	ds	1
   452   000007                     I2C_Send_1_byte@add:
   453                           	callstack 0
   454                           
   455                           ; 1 bytes @ 0x6
   456   000007                     	ds	1
   457   000008                     I2C_Send_1_byte@ack:
   458                           	callstack 0
   459                           
   460                           ; 1 bytes @ 0x7
   461   000008                     	ds	1
   462   000009                     gpio_pin_direction_initialize@ret:
   463                           	callstack 0
   464   000009                     ___xxtofl@sign:
   465                           	callstack 0
   466                           
   467                           ; 1 bytes @ 0x8
   468   000009                     	ds	1
   469   00000A                     gpio_pin_write_logic@ret:
   470                           	callstack 0
   471   00000A                     ___xxtofl@exp:
   472                           	callstack 0
   473                           
   474                           ; 1 bytes @ 0x9
   475   00000A                     	ds	1
   476   00000B                     gpio_pin_initialize@pin_config:
   477                           	callstack 0
   478   00000B                     ___xxtofl@arg:
   479                           	callstack 0
   480                           
   481                           ; 4 bytes @ 0xA
   482   00000B                     	ds	2
   483   00000D                     ??_gpio_pin_initialize:
   484                           
   485                           ; 1 bytes @ 0xC
   486   00000D                     	ds	1
   487   00000E                     gpio_pin_initialize@ret:
   488                           	callstack 0
   489                           
   490                           ; 1 bytes @ 0xD
   491   00000E                     	ds	1
   492   00000F                     ?___fldiv:
   493                           	callstack 0
   494   00000F                     led_initialize@led:
   495                           	callstack 0
   496   00000F                     ___fldiv@b:
   497                           	callstack 0
   498                           
   499                           ; 4 bytes @ 0xE
   500   00000F                     	ds	2
   501   000011                     ??_led_initialize:
   502                           
   503                           ; 1 bytes @ 0x10
   504   000011                     	ds	1
   505   000012                     led_initialize@ret:
   506                           	callstack 0
   507                           
   508                           ; 1 bytes @ 0x11
   509   000012                     	ds	1
   510   000013                     led_initialize@pin_obj:
   511                           	callstack 0
   512   000013                     ___fldiv@a:
   513                           	callstack 0
   514                           
   515                           ; 4 bytes @ 0x12
   516   000013                     	ds	1
   517   000014                     
   518                           ; 1 bytes @ 0x13
   519   000014                     	ds	3
   520   000017                     ??___fldiv:
   521                           
   522                           ; 1 bytes @ 0x16
   523   000017                     	ds	4
   524   00001B                     ___fldiv@rem:
   525                           	callstack 0
   526                           
   527                           ; 4 bytes @ 0x1A
   528   00001B                     	ds	4
   529   00001F                     ___fldiv@sign:
   530                           	callstack 0
   531                           
   532                           ; 1 bytes @ 0x1E
   533   00001F                     	ds	1
   534   000020                     ___fldiv@new_exp:
   535                           	callstack 0
   536                           
   537                           ; 2 bytes @ 0x1F
   538   000020                     	ds	2
   539   000022                     ___fldiv@grs:
   540                           	callstack 0
   541                           
   542                           ; 4 bytes @ 0x21
   543   000022                     	ds	4
   544   000026                     ___fldiv@bexp:
   545                           	callstack 0
   546                           
   547                           ; 1 bytes @ 0x25
   548   000026                     	ds	1
   549   000027                     ___fldiv@aexp:
   550                           	callstack 0
   551                           
   552                           ; 1 bytes @ 0x26
   553   000027                     	ds	1
   554   000028                     ?___fladd:
   555                           	callstack 0
   556   000028                     ___fladd@b:
   557                           	callstack 0
   558                           
   559                           ; 4 bytes @ 0x27
   560   000028                     	ds	4
   561   00002C                     ___fladd@a:
   562                           	callstack 0
   563                           
   564                           ; 4 bytes @ 0x2B
   565   00002C                     	ds	4
   566   000030                     ??___fladd:
   567                           
   568                           ; 1 bytes @ 0x2F
   569   000030                     	ds	4
   570   000034                     ___fladd@signs:
   571                           	callstack 0
   572                           
   573                           ; 1 bytes @ 0x33
   574   000034                     	ds	1
   575   000035                     ___fladd@aexp:
   576                           	callstack 0
   577                           
   578                           ; 1 bytes @ 0x34
   579   000035                     	ds	1
   580   000036                     ___fladd@bexp:
   581                           	callstack 0
   582                           
   583                           ; 1 bytes @ 0x35
   584   000036                     	ds	1
   585   000037                     ___fladd@grs:
   586                           	callstack 0
   587                           
   588                           ; 1 bytes @ 0x36
   589   000037                     	ds	1
   590   000038                     ?___fltol:
   591                           	callstack 0
   592   000038                     ___fltol@f1:
   593                           	callstack 0
   594                           
   595                           ; 4 bytes @ 0x37
   596   000038                     	ds	4
   597   00003C                     ??___fltol:
   598                           
   599                           ; 1 bytes @ 0x3B
   600   00003C                     	ds	4
   601   000040                     ___fltol@sign1:
   602                           	callstack 0
   603                           
   604                           ; 1 bytes @ 0x3F
   605   000040                     	ds	1
   606   000041                     ___fltol@exp1:
   607                           	callstack 0
   608                           
   609                           ; 1 bytes @ 0x40
   610   000041                     	ds	1
   611   000042                     I2C_Master_Mode_Clock_Configurations@i2c_obj:
   612                           	callstack 0
   613                           
   614                           ; 2 bytes @ 0x41
   615   000042                     	ds	2
   616   000044                     ??_I2C_Master_Mode_Clock_Configurations:
   617                           
   618                           ; 1 bytes @ 0x43
   619   000044                     	ds	1
   620   000045                     MSSP_I2C_Init@i2c_obj:
   621                           	callstack 0
   622                           
   623                           ; 2 bytes @ 0x44
   624   000045                     	ds	2
   625   000047                     ??_main:
   626                           
   627                           ; 1 bytes @ 0x46
   628   000047                     	ds	2
   629                           
   630 ;;
   631 ;;Main: autosize = 0, tempsize = 2, incstack = 0, save=0
   632 ;;
   633 ;; *************** function _main *****************
   634 ;; Defined at:
   635 ;;		line 22 in file "application.c"
   636 ;; Parameters:    Size  Location     Type
   637 ;;		None
   638 ;; Auto vars:     Size  Location     Type
   639 ;;		None
   640 ;; Return value:  Size  Location     Type
   641 ;;                  2  1507[None  ] int 
   642 ;; Registers used:
   643 ;;		wreg, fsr2l, fsr2h, status,2, status,0, prodl, prodh, cstack
   644 ;; Tracked objects:
   645 ;;		On entry : 0/0
   646 ;;		On exit  : 0/0
   647 ;;		Unchanged: 0/0
   648 ;; Data sizes:     COMRAM   BANK0   BANK1   BANK2   BANK3   BANK4   BANK5   BANK6   BANK7   BANK8   BANK9  BANK10  BANK1
      +1  BANK12  BANK13  BANK14  BANK15
   649 ;;      Params:         0       0       0       0       0       0       0       0       0       0       0       0       
      +0       0       0       0       0
   650 ;;      Locals:         0       0       0       0       0       0       0       0       0       0       0       0       
      +0       0       0       0       0
   651 ;;      Temps:          2       0       0       0       0       0       0       0       0       0       0       0       
      +0       0       0       0       0
   652 ;;      Totals:         2       0       0       0       0       0       0       0       0       0       0       0       
      +0       0       0       0       0
   653 ;;Total ram usage:        2 bytes
   654 ;; Hardware stack levels required when called: 6
   655 ;; This function calls:
   656 ;;		_I2C_Master_Init
   657 ;;		_I2C_Send_1_byte
   658 ;;		_ecu_layer_initialize
   659 ;; This function is called by:
   660 ;;		Startup code after reset
   661 ;; This function uses a non-reentrant model
   662 ;;
   663                           
   664                           	psect	text0
   665   00225A                     __ptext0:
   666                           	callstack 0
   667   00225A                     _main:
   668                           	callstack 25
   669   00225A                     
   670                           ;application.c: 24:     I2C_Master_Init();
   671   00225A  ECD3  F012         	call	_I2C_Master_Init	;wreg free
   672   00225E                     
   673                           ;application.c: 25:     ecu_layer_initialize();
   674   00225E  EC07  F013         	call	_ecu_layer_initialize	;wreg free
   675   002262                     l7754:
   676                           
   677                           ;application.c: 28:     {;application.c: 29:         I2C_Send_1_byte(0X60,'a');
   678   002262  0E61               	movlw	97
   679   002264  6E06               	movwf	I2C_Send_1_byte@Data^0,c
   680   002266  0E60               	movlw	96
   681   002268  EC5D  F012         	call	_I2C_Send_1_byte
   682   00226C                     
   683                           ;application.c: 30:         _delay((unsigned long)((1000)*(8000000UL/4000.0)));
   684   00226C  0E0B               	movlw	11
   685   00226E  6E48               	movwf	(??_main+1)^0,c
   686   002270  0E26               	movlw	38
   687   002272  6E47               	movwf	??_main^0,c
   688   002274  0E5E               	movlw	94
   689   002276                     u7417:
   690   002276  2EE8               	decfsz	wreg,f,c
   691   002278  D7FE               	bra	u7417
   692   00227A  2E47               	decfsz	??_main^0,f,c
   693   00227C  D7FC               	bra	u7417
   694   00227E  2E48               	decfsz	(??_main+1)^0,f,c
   695   002280  D7FA               	bra	u7417
   696   002282                     
   697                           ;application.c: 31:         I2C_Send_1_byte(0X62,'b');
   698   002282  0E62               	movlw	98
   699   002284  6E06               	movwf	I2C_Send_1_byte@Data^0,c
   700   002286  0E62               	movlw	98
   701   002288  EC5D  F012         	call	_I2C_Send_1_byte
   702   00228C                     
   703                           ;application.c: 32:         _delay((unsigned long)((1000)*(8000000UL/4000.0)));
   704   00228C  0E0B               	movlw	11
   705   00228E  6E48               	movwf	(??_main+1)^0,c
   706   002290  0E26               	movlw	38
   707   002292  6E47               	movwf	??_main^0,c
   708   002294  0E5E               	movlw	94
   709   002296                     u7427:
   710   002296  2EE8               	decfsz	wreg,f,c
   711   002298  D7FE               	bra	u7427
   712   00229A  2E47               	decfsz	??_main^0,f,c
   713   00229C  D7FC               	bra	u7427
   714   00229E  2E48               	decfsz	(??_main+1)^0,f,c
   715   0022A0  D7FA               	bra	u7427
   716   0022A2                     
   717                           ;application.c: 33:          I2C_Send_1_byte(0X60,'c');
   718   0022A2  0E63               	movlw	99
   719   0022A4  6E06               	movwf	I2C_Send_1_byte@Data^0,c
   720   0022A6  0E60               	movlw	96
   721   0022A8  EC5D  F012         	call	_I2C_Send_1_byte
   722   0022AC                     
   723                           ;application.c: 34:         _delay((unsigned long)((1000)*(8000000UL/4000.0)));
   724   0022AC  0E0B               	movlw	11
   725   0022AE  6E48               	movwf	(??_main+1)^0,c
   726   0022B0  0E26               	movlw	38
   727   0022B2  6E47               	movwf	??_main^0,c
   728   0022B4  0E5E               	movlw	94
   729   0022B6                     u7437:
   730   0022B6  2EE8               	decfsz	wreg,f,c
   731   0022B8  D7FE               	bra	u7437
   732   0022BA  2E47               	decfsz	??_main^0,f,c
   733   0022BC  D7FC               	bra	u7437
   734   0022BE  2E48               	decfsz	(??_main+1)^0,f,c
   735   0022C0  D7FA               	bra	u7437
   736   0022C2                     
   737                           ;application.c: 35:         I2C_Send_1_byte(0X62,'d');
   738   0022C2  0E64               	movlw	100
   739   0022C4  6E06               	movwf	I2C_Send_1_byte@Data^0,c
   740   0022C6  0E62               	movlw	98
   741   0022C8  EC5D  F012         	call	_I2C_Send_1_byte
   742   0022CC                     
   743                           ;application.c: 36:         _delay((unsigned long)((1000)*(8000000UL/4000.0)));
   744   0022CC  0E0B               	movlw	11
   745   0022CE  6E48               	movwf	(??_main+1)^0,c
   746   0022D0  0E26               	movlw	38
   747   0022D2  6E47               	movwf	??_main^0,c
   748   0022D4  0E5E               	movlw	94
   749   0022D6                     u7447:
   750   0022D6  2EE8               	decfsz	wreg,f,c
   751   0022D8  D7FE               	bra	u7447
   752   0022DA  2E47               	decfsz	??_main^0,f,c
   753   0022DC  D7FC               	bra	u7447
   754   0022DE  2E48               	decfsz	(??_main+1)^0,f,c
   755   0022E0  D7FA               	bra	u7447
   756   0022E2  EF31  F011         	goto	l7754
   757   0022E6  EF07  F000         	goto	start
   758   0022EA                     __end_of_main:
   759                           	callstack 0
   760                           
   761 ;; *************** function _ecu_layer_initialize *****************
   762 ;; Defined at:
   763 ;;		line 154 in file "ECU_Layer/ecu_layer_init.c"
   764 ;; Parameters:    Size  Location     Type
   765 ;;		None
   766 ;; Auto vars:     Size  Location     Type
   767 ;;  ret             1    0        unsigned char 
   768 ;; Return value:  Size  Location     Type
   769 ;;                  1    wreg      void 
   770 ;; Registers used:
   771 ;;		wreg, fsr2l, fsr2h, status,2, status,0, prodl, prodh, cstack
   772 ;; Tracked objects:
   773 ;;		On entry : 0/0
   774 ;;		On exit  : 0/0
   775 ;;		Unchanged: 0/0
   776 ;; Data sizes:     COMRAM   BANK0   BANK1   BANK2   BANK3   BANK4   BANK5   BANK6   BANK7   BANK8   BANK9  BANK10  BANK1
      +1  BANK12  BANK13  BANK14  BANK15
   777 ;;      Params:         0       0       0       0       0       0       0       0       0       0       0       0       
      +0       0       0       0       0
   778 ;;      Locals:         0       0       0       0       0       0       0       0       0       0       0       0       
      +0       0       0       0       0
   779 ;;      Temps:          0       0       0       0       0       0       0       0       0       0       0       0       
      +0       0       0       0       0
   780 ;;      Totals:         0       0       0       0       0       0       0       0       0       0       0       0       
      +0       0       0       0       0
   781 ;;Total ram usage:        0 bytes
   782 ;; Hardware stack levels used: 1
   783 ;; Hardware stack levels required when called: 5
   784 ;; This function calls:
   785 ;;		_led_initialize
   786 ;; This function is called by:
   787 ;;		_main
   788 ;; This function uses a non-reentrant model
   789 ;;
   790                           
   791                           	psect	text1
   792   00260E                     __ptext1:
   793                           	callstack 0
   794   00260E                     _ecu_layer_initialize:
   795                           	callstack 25
   796   00260E  0E7D               	movlw	low _led1
   797   002610  6E0F               	movwf	led_initialize@led^0,c
   798   002612  0E00               	movlw	high _led1
   799   002614  6E10               	movwf	(led_initialize@led+1)^0,c
   800   002616  ECBA  F011         	call	_led_initialize	;wreg free
   801   00261A  0012               	return		;funcret
   802   00261C                     __end_of_ecu_layer_initialize:
   803                           	callstack 0
   804                           
   805 ;; *************** function _led_initialize *****************
   806 ;; Defined at:
   807 ;;		line 7 in file "ECU_Layer/LED/ecu_led.c"
   808 ;; Parameters:    Size  Location     Type
   809 ;;  led             2   14[COMRAM] PTR const struct .
   810 ;;		 -> led1(1), 
   811 ;; Auto vars:     Size  Location     Type
   812 ;;  pin_obj         1   18[COMRAM] struct .
   813 ;;  ret             1   17[COMRAM] unsigned char 
   814 ;; Return value:  Size  Location     Type
   815 ;;                  1    wreg      unsigned char 
   816 ;; Registers used:
   817 ;;		wreg, fsr2l, fsr2h, status,2, status,0, prodl, prodh, cstack
   818 ;; Tracked objects:
   819 ;;		On entry : 0/0
   820 ;;		On exit  : 0/0
   821 ;;		Unchanged: 0/0
   822 ;; Data sizes:     COMRAM   BANK0   BANK1   BANK2   BANK3   BANK4   BANK5   BANK6   BANK7   BANK8   BANK9  BANK10  BANK1
      +1  BANK12  BANK13  BANK14  BANK15
   823 ;;      Params:         2       0       0       0       0       0       0       0       0       0       0       0       
      +0       0       0       0       0
   824 ;;      Locals:         2       0       0       0       0       0       0       0       0       0       0       0       
      +0       0       0       0       0
   825 ;;      Temps:          1       0       0       0       0       0       0       0       0       0       0       0       
      +0       0       0       0       0
   826 ;;      Totals:         5       0       0       0       0       0       0       0       0       0       0       0       
      +0       0       0       0       0
   827 ;;Total ram usage:        5 bytes
   828 ;; Hardware stack levels used: 1
   829 ;; Hardware stack levels required when called: 4
   830 ;; This function calls:
   831 ;;		_gpio_pin_initialize
   832 ;; This function is called by:
   833 ;;		_ecu_layer_initialize
   834 ;; This function uses a non-reentrant model
   835 ;;
   836                           
   837                           	psect	text2
   838   002374                     __ptext2:
   839                           	callstack 0
   840   002374                     _led_initialize:
   841                           	callstack 25
   842   002374                     
   843                           ;ECU_Layer/LED/ecu_led.c: 9:     pin_config_t pin_obj={.port = led->port_name,.pin = led
      +                          ->pin,.direction=OUTPUT,.logic=led->led_status };
   844   002374  C073  F013         	movff	led_initialize@F3385,led_initialize@pin_obj
   845   002378  C00F  FFD9         	movff	led_initialize@led,fsr2l
   846   00237C  C010  FFDA         	movff	led_initialize@led+1,fsr2h
   847   002380  50DF               	movf	223,w,c
   848   002382  0B0F               	andlw	15
   849   002384  6E11               	movwf	??_led_initialize^0,c
   850   002386  5013               	movf	led_initialize@pin_obj^0,w,c
   851   002388  1811               	xorwf	??_led_initialize^0,w,c
   852   00238A  0BF8               	andlw	-8
   853   00238C  1811               	xorwf	??_led_initialize^0,w,c
   854   00238E  6E13               	movwf	led_initialize@pin_obj^0,c
   855   002390  C00F  FFD9         	movff	led_initialize@led,fsr2l
   856   002394  C010  FFDA         	movff	led_initialize@led+1,fsr2h
   857   002398  38DF               	swapf	223,w,c
   858   00239A  0B07               	andlw	7
   859   00239C  6E11               	movwf	??_led_initialize^0,c
   860   00239E  4611               	rlncf	??_led_initialize^0,f,c
   861   0023A0  4611               	rlncf	??_led_initialize^0,f,c
   862   0023A2  4611               	rlncf	??_led_initialize^0,f,c
   863   0023A4  5013               	movf	led_initialize@pin_obj^0,w,c
   864   0023A6  1811               	xorwf	??_led_initialize^0,w,c
   865   0023A8  0BC7               	andlw	-57
   866   0023AA  1811               	xorwf	??_led_initialize^0,w,c
   867   0023AC  6E13               	movwf	led_initialize@pin_obj^0,c
   868   0023AE  9C13               	bcf	led_initialize@pin_obj^0,6,c
   869   0023B0  C00F  FFD9         	movff	led_initialize@led,fsr2l
   870   0023B4  C010  FFDA         	movff	led_initialize@led+1,fsr2h
   871   0023B8  AEDF               	btfss	indf2,7,c
   872   0023BA  D002               	bra	u5315
   873   0023BC  8E13               	bsf	led_initialize@pin_obj^0,7,c
   874   0023BE  D001               	bra	u5317
   875   0023C0                     u5315:
   876   0023C0  9E13               	bcf	led_initialize@pin_obj^0,7,c
   877   0023C2                     u5317:
   878   0023C2                     
   879                           ;ECU_Layer/LED/ecu_led.c: 10:     if(led==((void*)0)){
   880   0023C2  500F               	movf	led_initialize@led^0,w,c
   881   0023C4  1010               	iorwf	(led_initialize@led+1)^0,w,c
   882   0023C6  A4D8               	btfss	status,2,c
   883   0023C8  EFE8  F011         	goto	u5321
   884   0023CC  EFEA  F011         	goto	u5320
   885   0023D0                     u5321:
   886   0023D0  EFEE  F011         	goto	l6224
   887   0023D4                     u5320:
   888   0023D4                     
   889                           ;ECU_Layer/LED/ecu_led.c: 11:         ret=(Std_ReturnType)0x00;
   890   0023D4  0E00               	movlw	0
   891   0023D6  6E12               	movwf	led_initialize@ret^0,c
   892                           
   893                           ;ECU_Layer/LED/ecu_led.c: 12:     }
   894   0023D8  EFF5  F011         	goto	l6226
   895   0023DC                     l6224:
   896                           
   897                           ;ECU_Layer/LED/ecu_led.c: 14:         ret=gpio_pin_initialize(&pin_obj);
   898   0023DC  0E13               	movlw	low led_initialize@pin_obj
   899   0023DE  6E0B               	movwf	gpio_pin_initialize@pin_config^0,c
   900   0023E0  0E00               	movlw	high led_initialize@pin_obj
   901   0023E2  6E0C               	movwf	(gpio_pin_initialize@pin_config+1)^0,c
   902   0023E4  EC75  F011         	call	_gpio_pin_initialize	;wreg free
   903   0023E8  6E12               	movwf	led_initialize@ret^0,c
   904   0023EA                     l6226:
   905                           
   906                           ;ECU_Layer/LED/ecu_led.c: 16:     return ret;
   907   0023EA  5012               	movf	led_initialize@ret^0,w,c
   908   0023EC  0012               	return		;funcret
   909   0023EE                     __end_of_led_initialize:
   910                           	callstack 0
   911                           
   912 ;; *************** function _gpio_pin_initialize *****************
   913 ;; Defined at:
   914 ;;		line 24 in file "MCAL_Layer/GPIO/hal_gpio.c"
   915 ;; Parameters:    Size  Location     Type
   916 ;;  pin_config      2   10[COMRAM] PTR const struct .
   917 ;;		 -> SS2_Pin(1), SS1_Pin(1), relay_initialize@pin_obj(1), led_initialize@pin_obj(1), 
   918 ;; Auto vars:     Size  Location     Type
   919 ;;  ret             1   13[COMRAM] unsigned char 
   920 ;; Return value:  Size  Location     Type
   921 ;;                  1    wreg      unsigned char 
   922 ;; Registers used:
   923 ;;		wreg, fsr2l, fsr2h, status,2, status,0, prodl, prodh, cstack
   924 ;; Tracked objects:
   925 ;;		On entry : 0/0
   926 ;;		On exit  : 0/0
   927 ;;		Unchanged: 0/0
   928 ;; Data sizes:     COMRAM   BANK0   BANK1   BANK2   BANK3   BANK4   BANK5   BANK6   BANK7   BANK8   BANK9  BANK10  BANK1
      +1  BANK12  BANK13  BANK14  BANK15
   929 ;;      Params:         2       0       0       0       0       0       0       0       0       0       0       0       
      +0       0       0       0       0
   930 ;;      Locals:         1       0       0       0       0       0       0       0       0       0       0       0       
      +0       0       0       0       0
   931 ;;      Temps:          1       0       0       0       0       0       0       0       0       0       0       0       
      +0       0       0       0       0
   932 ;;      Totals:         4       0       0       0       0       0       0       0       0       0       0       0       
      +0       0       0       0       0
   933 ;;Total ram usage:        4 bytes
   934 ;; Hardware stack levels used: 1
   935 ;; Hardware stack levels required when called: 3
   936 ;; This function calls:
   937 ;;		_gpio_pin_direction_initialize
   938 ;;		_gpio_pin_write_logic
   939 ;; This function is called by:
   940 ;;		_led_initialize
   941 ;;		_seven_segment_initialize
   942 ;;		_lcd_4bit_initialize
   943 ;;		_lcd_8bit_initialize
   944 ;;		_dc_motor_initialize
   945 ;;		_keypad_initialize
   946 ;;		_relay_initialize
   947 ;;		_CCP_Init
   948 ;;		_SS_Pins_Init
   949 ;; This function uses a non-reentrant model
   950 ;;
   951                           
   952                           	psect	text3
   953   0022EA                     __ptext3:
   954                           	callstack 0
   955   0022EA                     _gpio_pin_initialize:
   956                           	callstack 25
   957   0022EA                     
   958                           ;MCAL_Layer/GPIO/hal_gpio.c: 26:     if((pin_config==((void*)0))||(pin_config->pin>8 -1)
      +                          ||(pin_config->port>5 -1)){
   959   0022EA  500B               	movf	gpio_pin_initialize@pin_config^0,w,c
   960   0022EC  100C               	iorwf	(gpio_pin_initialize@pin_config+1)^0,w,c
   961   0022EE  B4D8               	btfsc	status,2,c
   962   0022F0  EF7C  F011         	goto	u5211
   963   0022F4  EF7E  F011         	goto	u5210
   964   0022F8                     u5211:
   965   0022F8  EF9E  F011         	goto	l6114
   966   0022FC                     u5210:
   967   0022FC  C00B  FFD9         	movff	gpio_pin_initialize@pin_config,fsr2l
   968   002300  C00C  FFDA         	movff	gpio_pin_initialize@pin_config+1,fsr2h
   969   002304  30DF               	rrcf	223,w,c
   970   002306  32E8               	rrcf	wreg,f,c
   971   002308  32E8               	rrcf	wreg,f,c
   972   00230A  0B07               	andlw	7
   973   00230C  6E0D               	movwf	??_gpio_pin_initialize^0,c
   974   00230E  0E08               	movlw	8
   975   002310  600D               	cpfslt	??_gpio_pin_initialize^0,c
   976   002312  EF8D  F011         	goto	u5221
   977   002316  EF8F  F011         	goto	u5220
   978   00231A                     u5221:
   979   00231A  EF9E  F011         	goto	l6114
   980   00231E                     u5220:
   981   00231E  C00B  FFD9         	movff	gpio_pin_initialize@pin_config,fsr2l
   982   002322  C00C  FFDA         	movff	gpio_pin_initialize@pin_config+1,fsr2h
   983   002326  50DF               	movf	223,w,c
   984   002328  0B07               	andlw	7
   985   00232A  6E0D               	movwf	??_gpio_pin_initialize^0,c
   986   00232C  0E04               	movlw	4
   987   00232E  640D               	cpfsgt	??_gpio_pin_initialize^0,c
   988   002330  EF9C  F011         	goto	u5231
   989   002334  EF9E  F011         	goto	u5230
   990   002338                     u5231:
   991   002338  EFA2  F011         	goto	l6116
   992   00233C                     u5230:
   993   00233C                     l6114:
   994                           
   995                           ;MCAL_Layer/GPIO/hal_gpio.c: 27:         ret=(Std_ReturnType)0x00;
   996   00233C  0E00               	movlw	0
   997   00233E  6E0E               	movwf	gpio_pin_initialize@ret^0,c
   998                           
   999                           ;MCAL_Layer/GPIO/hal_gpio.c: 28:     }
  1000   002340  EFB8  F011         	goto	l6118
  1001   002344                     l6116:
  1002                           
  1003                           ;MCAL_Layer/GPIO/hal_gpio.c: 30:         ret=gpio_pin_direction_initialize(pin_config);
  1004   002344  C00B  F001         	movff	gpio_pin_initialize@pin_config,gpio_pin_direction_initialize@pin_config
  1005   002348  C00C  F002         	movff	gpio_pin_initialize@pin_config+1,gpio_pin_direction_initialize@pin_config+1
  1006   00234C  EC6A  F00E         	call	_gpio_pin_direction_initialize	;wreg free
  1007   002350  6E0E               	movwf	gpio_pin_initialize@ret^0,c
  1008                           
  1009                           ;MCAL_Layer/GPIO/hal_gpio.c: 31:         ret=gpio_pin_write_logic(pin_config,pin_config-
      +                          >logic);
  1010   002352  C00B  F001         	movff	gpio_pin_initialize@pin_config,gpio_pin_write_logic@pin_config
  1011   002356  C00C  F002         	movff	gpio_pin_initialize@pin_config+1,gpio_pin_write_logic@pin_config+1
  1012   00235A  C00B  FFD9         	movff	gpio_pin_initialize@pin_config,fsr2l
  1013   00235E  C00C  FFDA         	movff	gpio_pin_initialize@pin_config+1,fsr2h
  1014   002362  0E00               	movlw	0
  1015   002364  BEDF               	btfsc	indf2,7,c
  1016   002366  0E01               	movlw	1
  1017   002368  6E03               	movwf	gpio_pin_write_logic@logic^0,c
  1018   00236A  EC1B  F00F         	call	_gpio_pin_write_logic	;wreg free
  1019   00236E  6E0E               	movwf	gpio_pin_initialize@ret^0,c
  1020   002370                     l6118:
  1021                           
  1022                           ;MCAL_Layer/GPIO/hal_gpio.c: 33:     return ret;
  1023   002370  500E               	movf	gpio_pin_initialize@ret^0,w,c
  1024   002372  0012               	return		;funcret
  1025   002374                     __end_of_gpio_pin_initialize:
  1026                           	callstack 0
  1027                           
  1028 ;; *************** function _gpio_pin_write_logic *****************
  1029 ;; Defined at:
  1030 ;;		line 94 in file "MCAL_Layer/GPIO/hal_gpio.c"
  1031 ;; Parameters:    Size  Location     Type
  1032 ;;  pin_config      2    0[COMRAM] PTR const struct .
  1033 ;;		 -> SS2_Pin(1), SS1_Pin(1), relay_turn_off@pin_obj(1), relay_turn_on@pin_obj(1), 
  1034 ;;		 -> relay_initialize@pin_obj(1), led_turn_off@pin_obj(1), led_turn_on@pin_obj(1), led_initialize@pin_obj(1), 
  1035 ;;  logic           1    2[COMRAM] enum E3305
  1036 ;; Auto vars:     Size  Location     Type
  1037 ;;  ret             1    9[COMRAM] unsigned char 
  1038 ;; Return value:  Size  Location     Type
  1039 ;;                  1    wreg      unsigned char 
  1040 ;; Registers used:
  1041 ;;		wreg, fsr2l, fsr2h, status,2, status,0, prodl, prodh
  1042 ;; Tracked objects:
  1043 ;;		On entry : 0/0
  1044 ;;		On exit  : 0/0
  1045 ;;		Unchanged: 0/0
  1046 ;; Data sizes:     COMRAM   BANK0   BANK1   BANK2   BANK3   BANK4   BANK5   BANK6   BANK7   BANK8   BANK9  BANK10  BANK1
      +1  BANK12  BANK13  BANK14  BANK15
  1047 ;;      Params:         3       0       0       0       0       0       0       0       0       0       0       0       
      +0       0       0       0       0
  1048 ;;      Locals:         1       0       0       0       0       0       0       0       0       0       0       0       
      +0       0       0       0       0
  1049 ;;      Temps:          6       0       0       0       0       0       0       0       0       0       0       0       
      +0       0       0       0       0
  1050 ;;      Totals:        10       0       0       0       0       0       0       0       0       0       0       0       
      +0       0       0       0       0
  1051 ;;Total ram usage:       10 bytes
  1052 ;; Hardware stack levels used: 1
  1053 ;; Hardware stack levels required when called: 2
  1054 ;; This function calls:
  1055 ;;		Nothing
  1056 ;; This function is called by:
  1057 ;;		_gpio_pin_initialize
  1058 ;;		_seven_segment_write_number
  1059 ;;		_lcd_4bit_send_command
  1060 ;;		_lcd_4bit_send_char_data
  1061 ;;		_lcd_8bit_send_command
  1062 ;;		_lcd_8bit_send_char_data
  1063 ;;		_lcd_send_4bits
  1064 ;;		_lcd_4bit_send_enable_signal
  1065 ;;		_lcd_8bit_send_enable_signal
  1066 ;;		_dc_motor_move_right
  1067 ;;		_dc_motor_move_left
  1068 ;;		_dc_motor_stop
  1069 ;;		_keypad_get_value
  1070 ;;		_led_turn_on
  1071 ;;		_led_turn_off
  1072 ;;		_relay_turn_on
  1073 ;;		_relay_turn_off
  1074 ;;		_SPI_Master_Transcieve_Blocking
  1075 ;;		_SPI_Master_Transmit_Blocking
  1076 ;;		_SPI_Master_Receive_Blocking
  1077 ;; This function uses a non-reentrant model
  1078 ;;
  1079                           
  1080                           	psect	text4
  1081   001E36                     __ptext4:
  1082                           	callstack 0
  1083   001E36                     _gpio_pin_write_logic:
  1084                           	callstack 25
  1085   001E36                     
  1086                           ;MCAL_Layer/GPIO/hal_gpio.c: 95:       Std_ReturnType ret=(Std_ReturnType)0x01;
  1087   001E36  0E01               	movlw	1
  1088   001E38  6E0A               	movwf	gpio_pin_write_logic@ret^0,c
  1089   001E3A                     
  1090                           ;MCAL_Layer/GPIO/hal_gpio.c: 96:     if((pin_config==((void*)0))||(pin_config->pin>8 -1)
      +                          ||(pin_config->port>5 -1)){
  1091   001E3A  5001               	movf	gpio_pin_write_logic@pin_config^0,w,c
  1092   001E3C  1002               	iorwf	(gpio_pin_write_logic@pin_config+1)^0,w,c
  1093   001E3E  B4D8               	btfsc	status,2,c
  1094   001E40  EF24  F00F         	goto	u4301
  1095   001E44  EF26  F00F         	goto	u4300
  1096   001E48                     u4301:
  1097   001E48  EF46  F00F         	goto	l5632
  1098   001E4C                     u4300:
  1099   001E4C  C001  FFD9         	movff	gpio_pin_write_logic@pin_config,fsr2l
  1100   001E50  C002  FFDA         	movff	gpio_pin_write_logic@pin_config+1,fsr2h
  1101   001E54  30DF               	rrcf	223,w,c
  1102   001E56  32E8               	rrcf	wreg,f,c
  1103   001E58  32E8               	rrcf	wreg,f,c
  1104   001E5A  0B07               	andlw	7
  1105   001E5C  6E04               	movwf	??_gpio_pin_write_logic^0,c
  1106   001E5E  0E08               	movlw	8
  1107   001E60  6004               	cpfslt	??_gpio_pin_write_logic^0,c
  1108   001E62  EF35  F00F         	goto	u4311
  1109   001E66  EF37  F00F         	goto	u4310
  1110   001E6A                     u4311:
  1111   001E6A  EF46  F00F         	goto	l5632
  1112   001E6E                     u4310:
  1113   001E6E  C001  FFD9         	movff	gpio_pin_write_logic@pin_config,fsr2l
  1114   001E72  C002  FFDA         	movff	gpio_pin_write_logic@pin_config+1,fsr2h
  1115   001E76  50DF               	movf	223,w,c
  1116   001E78  0B07               	andlw	7
  1117   001E7A  6E04               	movwf	??_gpio_pin_write_logic^0,c
  1118   001E7C  0E04               	movlw	4
  1119   001E7E  6404               	cpfsgt	??_gpio_pin_write_logic^0,c
  1120   001E80  EF44  F00F         	goto	u4321
  1121   001E84  EF46  F00F         	goto	u4320
  1122   001E88                     u4321:
  1123   001E88  EFA9  F00F         	goto	l5640
  1124   001E8C                     u4320:
  1125   001E8C                     l5632:
  1126                           
  1127                           ;MCAL_Layer/GPIO/hal_gpio.c: 97:         ret=(Std_ReturnType)0x00;
  1128   001E8C  0E00               	movlw	0
  1129   001E8E  6E0A               	movwf	gpio_pin_write_logic@ret^0,c
  1130                           
  1131                           ;MCAL_Layer/GPIO/hal_gpio.c: 98:     }
  1132   001E90  EFBE  F00F         	goto	l5642
  1133   001E94                     l5634:
  1134                           
  1135                           ;MCAL_Layer/GPIO/hal_gpio.c: 102:                 (*lat_registers[pin_config->port]|=((u
      +                          int8)0x01<<pin_config->pin));
  1136   001E94  C001  FFD9         	movff	gpio_pin_write_logic@pin_config,fsr2l
  1137   001E98  C002  FFDA         	movff	gpio_pin_write_logic@pin_config+1,fsr2h
  1138   001E9C  30DF               	rrcf	223,w,c
  1139   001E9E  32E8               	rrcf	wreg,f,c
  1140   001EA0  32E8               	rrcf	wreg,f,c
  1141   001EA2  0B07               	andlw	7
  1142   001EA4  6E04               	movwf	??_gpio_pin_write_logic^0,c
  1143   001EA6  0E01               	movlw	1
  1144   001EA8  6E05               	movwf	(??_gpio_pin_write_logic+1)^0,c
  1145   001EAA  2A04               	incf	??_gpio_pin_write_logic^0,f,c
  1146   001EAC  EF5A  F00F         	goto	u4334
  1147   001EB0                     u4335:
  1148   001EB0  90D8               	bcf	status,0,c
  1149   001EB2  3605               	rlcf	(??_gpio_pin_write_logic+1)^0,f,c
  1150   001EB4                     u4334:
  1151   001EB4  2E04               	decfsz	??_gpio_pin_write_logic^0,f,c
  1152   001EB6  EF58  F00F         	goto	u4335
  1153   001EBA  C001  FFD9         	movff	gpio_pin_write_logic@pin_config,fsr2l
  1154   001EBE  C002  FFDA         	movff	gpio_pin_write_logic@pin_config+1,fsr2h
  1155   001EC2  50DF               	movf	223,w,c
  1156   001EC4  0B07               	andlw	7
  1157   001EC6  6E06               	movwf	(??_gpio_pin_write_logic+2)^0,c
  1158   001EC8  5006               	movf	(??_gpio_pin_write_logic+2)^0,w,c
  1159   001ECA  0D02               	mullw	2
  1160   001ECC  0EB5               	movlw	low _lat_registers
  1161   001ECE  24F3               	addwf	243,w,c
  1162   001ED0  6ED9               	movwf	fsr2l,c
  1163   001ED2  0E00               	movlw	high _lat_registers
  1164   001ED4  20F4               	addwfc	prodh,w,c
  1165   001ED6  6EDA               	movwf	fsr2h,c
  1166   001ED8  CFDE F007          	movff	postinc2,??_gpio_pin_write_logic+3
  1167   001EDC  CFDD F008          	movff	postdec2,??_gpio_pin_write_logic+4
  1168   001EE0  C007  FFD9         	movff	??_gpio_pin_write_logic+3,fsr2l
  1169   001EE4  C008  FFDA         	movff	??_gpio_pin_write_logic+4,fsr2h
  1170   001EE8  5005               	movf	(??_gpio_pin_write_logic+1)^0,w,c
  1171   001EEA  12DF               	iorwf	indf2,f,c
  1172                           
  1173                           ;MCAL_Layer/GPIO/hal_gpio.c: 103:                 break;
  1174   001EEC  EFBE  F00F         	goto	l5642
  1175   001EF0                     l5636:
  1176                           
  1177                           ;MCAL_Layer/GPIO/hal_gpio.c: 105:                 (*lat_registers[pin_config->port]&=~((
      +                          uint8)0x01<<pin_config->pin));
  1178   001EF0  C001  FFD9         	movff	gpio_pin_write_logic@pin_config,fsr2l
  1179   001EF4  C002  FFDA         	movff	gpio_pin_write_logic@pin_config+1,fsr2h
  1180   001EF8  30DF               	rrcf	223,w,c
  1181   001EFA  32E8               	rrcf	wreg,f,c
  1182   001EFC  32E8               	rrcf	wreg,f,c
  1183   001EFE  0B07               	andlw	7
  1184   001F00  6E04               	movwf	??_gpio_pin_write_logic^0,c
  1185   001F02  0E01               	movlw	1
  1186   001F04  6E05               	movwf	(??_gpio_pin_write_logic+1)^0,c
  1187   001F06  2A04               	incf	??_gpio_pin_write_logic^0,f,c
  1188   001F08  EF88  F00F         	goto	u4344
  1189   001F0C                     u4345:
  1190   001F0C  90D8               	bcf	status,0,c
  1191   001F0E  3605               	rlcf	(??_gpio_pin_write_logic+1)^0,f,c
  1192   001F10                     u4344:
  1193   001F10  2E04               	decfsz	??_gpio_pin_write_logic^0,f,c
  1194   001F12  EF86  F00F         	goto	u4345
  1195   001F16  5005               	movf	(??_gpio_pin_write_logic+1)^0,w,c
  1196   001F18  0AFF               	xorlw	255
  1197   001F1A  6E06               	movwf	(??_gpio_pin_write_logic+2)^0,c
  1198   001F1C  C001  FFD9         	movff	gpio_pin_write_logic@pin_config,fsr2l
  1199   001F20  C002  FFDA         	movff	gpio_pin_write_logic@pin_config+1,fsr2h
  1200   001F24  50DF               	movf	223,w,c
  1201   001F26  0B07               	andlw	7
  1202   001F28  6E07               	movwf	(??_gpio_pin_write_logic+3)^0,c
  1203   001F2A  5007               	movf	(??_gpio_pin_write_logic+3)^0,w,c
  1204   001F2C  0D02               	mullw	2
  1205   001F2E  0EB5               	movlw	low _lat_registers
  1206   001F30  24F3               	addwf	243,w,c
  1207   001F32  6ED9               	movwf	fsr2l,c
  1208   001F34  0E00               	movlw	high _lat_registers
  1209   001F36  20F4               	addwfc	prodh,w,c
  1210   001F38  6EDA               	movwf	fsr2h,c
  1211   001F3A  CFDE F008          	movff	postinc2,??_gpio_pin_write_logic+4
  1212   001F3E  CFDD F009          	movff	postdec2,??_gpio_pin_write_logic+5
  1213   001F42  C008  FFD9         	movff	??_gpio_pin_write_logic+4,fsr2l
  1214   001F46  C009  FFDA         	movff	??_gpio_pin_write_logic+5,fsr2h
  1215   001F4A  5006               	movf	(??_gpio_pin_write_logic+2)^0,w,c
  1216   001F4C  16DF               	andwf	indf2,f,c
  1217                           
  1218                           ;MCAL_Layer/GPIO/hal_gpio.c: 106:                 break;
  1219   001F4E  EFBE  F00F         	goto	l5642
  1220   001F52                     l5640:
  1221   001F52  5003               	movf	gpio_pin_write_logic@logic^0,w,c
  1222   001F54  6E04               	movwf	??_gpio_pin_write_logic^0,c
  1223   001F56  6A05               	clrf	(??_gpio_pin_write_logic+1)^0,c
  1224                           
  1225                           ; Switch on 2 bytes has been partitioned into a top level switch of size 1, and 1 sub-sw
      +                          itches
  1226                           ; Switch size 1, requested type "simple"
  1227                           ; Number of cases is 1, Range of values is 0 to 0
  1228                           ; switch strategies available:
  1229                           ; Name         Instructions Cycles
  1230                           ; simple_byte            4     3 (average)
  1231                           ;	Chosen strategy is simple_byte
  1232   001F58  5005               	movf	(??_gpio_pin_write_logic+1)^0,w,c
  1233   001F5A  0A00               	xorlw	0	; case 0
  1234   001F5C  B4D8               	btfsc	status,2,c
  1235   001F5E  EFB3  F00F         	goto	l7844
  1236   001F62  EF46  F00F         	goto	l5632
  1237   001F66                     l7844:
  1238                           
  1239                           ; Switch size 1, requested type "simple"
  1240                           ; Number of cases is 2, Range of values is 0 to 1
  1241                           ; switch strategies available:
  1242                           ; Name         Instructions Cycles
  1243                           ; simple_byte            7     4 (average)
  1244                           ;	Chosen strategy is simple_byte
  1245   001F66  5004               	movf	??_gpio_pin_write_logic^0,w,c
  1246   001F68  0A00               	xorlw	0	; case 0
  1247   001F6A  B4D8               	btfsc	status,2,c
  1248   001F6C  EF78  F00F         	goto	l5636
  1249   001F70  0A01               	xorlw	1	; case 1
  1250   001F72  B4D8               	btfsc	status,2,c
  1251   001F74  EF4A  F00F         	goto	l5634
  1252   001F78  EF46  F00F         	goto	l5632
  1253   001F7C                     l5642:
  1254                           
  1255                           ;MCAL_Layer/GPIO/hal_gpio.c: 110:     return ret;
  1256   001F7C  500A               	movf	gpio_pin_write_logic@ret^0,w,c
  1257   001F7E  0012               	return		;funcret
  1258   001F80                     __end_of_gpio_pin_write_logic:
  1259                           	callstack 0
  1260                           
  1261 ;; *************** function _gpio_pin_direction_initialize *****************
  1262 ;; Defined at:
  1263 ;;		line 44 in file "MCAL_Layer/GPIO/hal_gpio.c"
  1264 ;; Parameters:    Size  Location     Type
  1265 ;;  pin_config      2    0[COMRAM] PTR const struct .
  1266 ;;		 -> SS2_Pin(1), SS1_Pin(1), relay_initialize@pin_obj(1), led_initialize@pin_obj(1), 
  1267 ;; Auto vars:     Size  Location     Type
  1268 ;;  ret             1    8[COMRAM] unsigned char 
  1269 ;; Return value:  Size  Location     Type
  1270 ;;                  1    wreg      unsigned char 
  1271 ;; Registers used:
  1272 ;;		wreg, fsr2l, fsr2h, status,2, status,0, prodl, prodh
  1273 ;; Tracked objects:
  1274 ;;		On entry : 0/0
  1275 ;;		On exit  : 0/0
  1276 ;;		Unchanged: 0/0
  1277 ;; Data sizes:     COMRAM   BANK0   BANK1   BANK2   BANK3   BANK4   BANK5   BANK6   BANK7   BANK8   BANK9  BANK10  BANK1
      +1  BANK12  BANK13  BANK14  BANK15
  1278 ;;      Params:         2       0       0       0       0       0       0       0       0       0       0       0       
      +0       0       0       0       0
  1279 ;;      Locals:         1       0       0       0       0       0       0       0       0       0       0       0       
      +0       0       0       0       0
  1280 ;;      Temps:          6       0       0       0       0       0       0       0       0       0       0       0       
      +0       0       0       0       0
  1281 ;;      Totals:         9       0       0       0       0       0       0       0       0       0       0       0       
      +0       0       0       0       0
  1282 ;;Total ram usage:        9 bytes
  1283 ;; Hardware stack levels used: 1
  1284 ;; Hardware stack levels required when called: 2
  1285 ;; This function calls:
  1286 ;;		Nothing
  1287 ;; This function is called by:
  1288 ;;		_gpio_pin_initialize
  1289 ;;		_button_initialize
  1290 ;;		_keypad_initialize
  1291 ;;		_Interrupt_INTx_Pin_Init
  1292 ;;		_Interrupt_RBx_Pin_Init
  1293 ;; This function uses a non-reentrant model
  1294 ;;
  1295                           
  1296                           	psect	text5
  1297   001CD4                     __ptext5:
  1298                           	callstack 0
  1299   001CD4                     _gpio_pin_direction_initialize:
  1300                           	callstack 25
  1301   001CD4                     
  1302                           ;MCAL_Layer/GPIO/hal_gpio.c: 45:     Std_ReturnType ret=(Std_ReturnType)0x01;
  1303   001CD4  0E01               	movlw	1
  1304   001CD6  6E09               	movwf	gpio_pin_direction_initialize@ret^0,c
  1305   001CD8                     
  1306                           ;MCAL_Layer/GPIO/hal_gpio.c: 46:     if((pin_config==((void*)0))||(pin_config->pin>8 -1)
      +                          ||(pin_config->port>5 -1)){
  1307   001CD8  5001               	movf	gpio_pin_direction_initialize@pin_config^0,w,c
  1308   001CDA  1002               	iorwf	(gpio_pin_direction_initialize@pin_config+1)^0,w,c
  1309   001CDC  B4D8               	btfsc	status,2,c
  1310   001CDE  EF73  F00E         	goto	u4351
  1311   001CE2  EF75  F00E         	goto	u4350
  1312   001CE6                     u4351:
  1313   001CE6  EF95  F00E         	goto	l5658
  1314   001CEA                     u4350:
  1315   001CEA  C001  FFD9         	movff	gpio_pin_direction_initialize@pin_config,fsr2l
  1316   001CEE  C002  FFDA         	movff	gpio_pin_direction_initialize@pin_config+1,fsr2h
  1317   001CF2  30DF               	rrcf	223,w,c
  1318   001CF4  32E8               	rrcf	wreg,f,c
  1319   001CF6  32E8               	rrcf	wreg,f,c
  1320   001CF8  0B07               	andlw	7
  1321   001CFA  6E03               	movwf	??_gpio_pin_direction_initialize^0,c
  1322   001CFC  0E08               	movlw	8
  1323   001CFE  6003               	cpfslt	??_gpio_pin_direction_initialize^0,c
  1324   001D00  EF84  F00E         	goto	u4361
  1325   001D04  EF86  F00E         	goto	u4360
  1326   001D08                     u4361:
  1327   001D08  EF95  F00E         	goto	l5658
  1328   001D0C                     u4360:
  1329   001D0C  C001  FFD9         	movff	gpio_pin_direction_initialize@pin_config,fsr2l
  1330   001D10  C002  FFDA         	movff	gpio_pin_direction_initialize@pin_config+1,fsr2h
  1331   001D14  50DF               	movf	223,w,c
  1332   001D16  0B07               	andlw	7
  1333   001D18  6E03               	movwf	??_gpio_pin_direction_initialize^0,c
  1334   001D1A  0E04               	movlw	4
  1335   001D1C  6403               	cpfsgt	??_gpio_pin_direction_initialize^0,c
  1336   001D1E  EF93  F00E         	goto	u4371
  1337   001D22  EF95  F00E         	goto	u4370
  1338   001D26                     u4371:
  1339   001D26  EFF8  F00E         	goto	l5666
  1340   001D2A                     u4370:
  1341   001D2A                     l5658:
  1342                           
  1343                           ;MCAL_Layer/GPIO/hal_gpio.c: 47:         ret=(Std_ReturnType)0x00;
  1344   001D2A  0E00               	movlw	0
  1345   001D2C  6E09               	movwf	gpio_pin_direction_initialize@ret^0,c
  1346                           
  1347                           ;MCAL_Layer/GPIO/hal_gpio.c: 48:     }
  1348   001D2E  EF19  F00F         	goto	l5668
  1349   001D32                     l5660:
  1350                           
  1351                           ;MCAL_Layer/GPIO/hal_gpio.c: 52:                 (*tris_registers[pin_config->port]&=~((
      +                          uint8)0x01<<pin_config->pin));
  1352   001D32  C001  FFD9         	movff	gpio_pin_direction_initialize@pin_config,fsr2l
  1353   001D36  C002  FFDA         	movff	gpio_pin_direction_initialize@pin_config+1,fsr2h
  1354   001D3A  30DF               	rrcf	223,w,c
  1355   001D3C  32E8               	rrcf	wreg,f,c
  1356   001D3E  32E8               	rrcf	wreg,f,c
  1357   001D40  0B07               	andlw	7
  1358   001D42  6E03               	movwf	??_gpio_pin_direction_initialize^0,c
  1359   001D44  0E01               	movlw	1
  1360   001D46  6E04               	movwf	(??_gpio_pin_direction_initialize+1)^0,c
  1361   001D48  2A03               	incf	??_gpio_pin_direction_initialize^0,f,c
  1362   001D4A  EFA9  F00E         	goto	u4384
  1363   001D4E                     u4385:
  1364   001D4E  90D8               	bcf	status,0,c
  1365   001D50  3604               	rlcf	(??_gpio_pin_direction_initialize+1)^0,f,c
  1366   001D52                     u4384:
  1367   001D52  2E03               	decfsz	??_gpio_pin_direction_initialize^0,f,c
  1368   001D54  EFA7  F00E         	goto	u4385
  1369   001D58  5004               	movf	(??_gpio_pin_direction_initialize+1)^0,w,c
  1370   001D5A  0AFF               	xorlw	255
  1371   001D5C  6E05               	movwf	(??_gpio_pin_direction_initialize+2)^0,c
  1372   001D5E  C001  FFD9         	movff	gpio_pin_direction_initialize@pin_config,fsr2l
  1373   001D62  C002  FFDA         	movff	gpio_pin_direction_initialize@pin_config+1,fsr2h
  1374   001D66  50DF               	movf	223,w,c
  1375   001D68  0B07               	andlw	7
  1376   001D6A  6E06               	movwf	(??_gpio_pin_direction_initialize+3)^0,c
  1377   001D6C  5006               	movf	(??_gpio_pin_direction_initialize+3)^0,w,c
  1378   001D6E  0D02               	mullw	2
  1379   001D70  0EBF               	movlw	low _tris_registers
  1380   001D72  24F3               	addwf	243,w,c
  1381   001D74  6ED9               	movwf	fsr2l,c
  1382   001D76  0E00               	movlw	high _tris_registers
  1383   001D78  20F4               	addwfc	prodh,w,c
  1384   001D7A  6EDA               	movwf	fsr2h,c
  1385   001D7C  CFDE F007          	movff	postinc2,??_gpio_pin_direction_initialize+4
  1386   001D80  CFDD F008          	movff	postdec2,??_gpio_pin_direction_initialize+5
  1387   001D84  C007  FFD9         	movff	??_gpio_pin_direction_initialize+4,fsr2l
  1388   001D88  C008  FFDA         	movff	??_gpio_pin_direction_initialize+5,fsr2h
  1389   001D8C  5005               	movf	(??_gpio_pin_direction_initialize+2)^0,w,c
  1390   001D8E  16DF               	andwf	indf2,f,c
  1391                           
  1392                           ;MCAL_Layer/GPIO/hal_gpio.c: 53:                 break;
  1393   001D90  EF19  F00F         	goto	l5668
  1394   001D94                     l5662:
  1395                           
  1396                           ;MCAL_Layer/GPIO/hal_gpio.c: 55:                 (*tris_registers[pin_config->port]|=((u
      +                          int8)0x01<<pin_config->pin));
  1397   001D94  C001  FFD9         	movff	gpio_pin_direction_initialize@pin_config,fsr2l
  1398   001D98  C002  FFDA         	movff	gpio_pin_direction_initialize@pin_config+1,fsr2h
  1399   001D9C  30DF               	rrcf	223,w,c
  1400   001D9E  32E8               	rrcf	wreg,f,c
  1401   001DA0  32E8               	rrcf	wreg,f,c
  1402   001DA2  0B07               	andlw	7
  1403   001DA4  6E03               	movwf	??_gpio_pin_direction_initialize^0,c
  1404   001DA6  0E01               	movlw	1
  1405   001DA8  6E04               	movwf	(??_gpio_pin_direction_initialize+1)^0,c
  1406   001DAA  2A03               	incf	??_gpio_pin_direction_initialize^0,f,c
  1407   001DAC  EFDA  F00E         	goto	u4394
  1408   001DB0                     u4395:
  1409   001DB0  90D8               	bcf	status,0,c
  1410   001DB2  3604               	rlcf	(??_gpio_pin_direction_initialize+1)^0,f,c
  1411   001DB4                     u4394:
  1412   001DB4  2E03               	decfsz	??_gpio_pin_direction_initialize^0,f,c
  1413   001DB6  EFD8  F00E         	goto	u4395
  1414   001DBA  C001  FFD9         	movff	gpio_pin_direction_initialize@pin_config,fsr2l
  1415   001DBE  C002  FFDA         	movff	gpio_pin_direction_initialize@pin_config+1,fsr2h
  1416   001DC2  50DF               	movf	223,w,c
  1417   001DC4  0B07               	andlw	7
  1418   001DC6  6E05               	movwf	(??_gpio_pin_direction_initialize+2)^0,c
  1419   001DC8  5005               	movf	(??_gpio_pin_direction_initialize+2)^0,w,c
  1420   001DCA  0D02               	mullw	2
  1421   001DCC  0EBF               	movlw	low _tris_registers
  1422   001DCE  24F3               	addwf	243,w,c
  1423   001DD0  6ED9               	movwf	fsr2l,c
  1424   001DD2  0E00               	movlw	high _tris_registers
  1425   001DD4  20F4               	addwfc	prodh,w,c
  1426   001DD6  6EDA               	movwf	fsr2h,c
  1427   001DD8  CFDE F006          	movff	postinc2,??_gpio_pin_direction_initialize+3
  1428   001DDC  CFDD F007          	movff	postdec2,??_gpio_pin_direction_initialize+4
  1429   001DE0  C006  FFD9         	movff	??_gpio_pin_direction_initialize+3,fsr2l
  1430   001DE4  C007  FFDA         	movff	??_gpio_pin_direction_initialize+4,fsr2h
  1431   001DE8  5004               	movf	(??_gpio_pin_direction_initialize+1)^0,w,c
  1432   001DEA  12DF               	iorwf	indf2,f,c
  1433                           
  1434                           ;MCAL_Layer/GPIO/hal_gpio.c: 56:                 break;
  1435   001DEC  EF19  F00F         	goto	l5668
  1436   001DF0                     l5666:
  1437   001DF0  C001  FFD9         	movff	gpio_pin_direction_initialize@pin_config,fsr2l
  1438   001DF4  C002  FFDA         	movff	gpio_pin_direction_initialize@pin_config+1,fsr2h
  1439   001DF8  BCDF               	btfsc	indf2,6,c
  1440   001DFA  EF01  F00F         	goto	u4401
  1441   001DFE  EF04  F00F         	goto	u4400
  1442   001E02                     u4401:
  1443   001E02  0E01               	movlw	1
  1444   001E04  EF05  F00F         	goto	u4410
  1445   001E08                     u4400:
  1446   001E08  0E00               	movlw	0
  1447   001E0A                     u4410:
  1448   001E0A  6E03               	movwf	??_gpio_pin_direction_initialize^0,c
  1449   001E0C  6A04               	clrf	(??_gpio_pin_direction_initialize+1)^0,c
  1450                           
  1451                           ; Switch on 2 bytes has been partitioned into a top level switch of size 1, and 1 sub-sw
      +                          itches
  1452                           ; Switch size 1, requested type "simple"
  1453                           ; Number of cases is 1, Range of values is 0 to 0
  1454                           ; switch strategies available:
  1455                           ; Name         Instructions Cycles
  1456                           ; simple_byte            4     3 (average)
  1457                           ;	Chosen strategy is simple_byte
  1458   001E0E  5004               	movf	(??_gpio_pin_direction_initialize+1)^0,w,c
  1459   001E10  0A00               	xorlw	0	; case 0
  1460   001E12  B4D8               	btfsc	status,2,c
  1461   001E14  EF0E  F00F         	goto	l7846
  1462   001E18  EF95  F00E         	goto	l5658
  1463   001E1C                     l7846:
  1464                           
  1465                           ; Switch size 1, requested type "simple"
  1466                           ; Number of cases is 2, Range of values is 0 to 1
  1467                           ; switch strategies available:
  1468                           ; Name         Instructions Cycles
  1469                           ; simple_byte            7     4 (average)
  1470                           ;	Chosen strategy is simple_byte
  1471   001E1C  5003               	movf	??_gpio_pin_direction_initialize^0,w,c
  1472   001E1E  0A00               	xorlw	0	; case 0
  1473   001E20  B4D8               	btfsc	status,2,c
  1474   001E22  EF99  F00E         	goto	l5660
  1475   001E26  0A01               	xorlw	1	; case 1
  1476   001E28  B4D8               	btfsc	status,2,c
  1477   001E2A  EFCA  F00E         	goto	l5662
  1478   001E2E  EF95  F00E         	goto	l5658
  1479   001E32                     l5668:
  1480                           
  1481                           ;MCAL_Layer/GPIO/hal_gpio.c: 61:     return ret;
  1482   001E32  5009               	movf	gpio_pin_direction_initialize@ret^0,w,c
  1483   001E34  0012               	return		;funcret
  1484   001E36                     __end_of_gpio_pin_direction_initialize:
  1485                           	callstack 0
  1486                           
  1487 ;; *************** function _I2C_Send_1_byte *****************
  1488 ;; Defined at:
  1489 ;;		line 72 in file "application.c"
  1490 ;; Parameters:    Size  Location     Type
  1491 ;;  add             1    wreg     unsigned char 
  1492 ;;  Data            1    5[COMRAM] unsigned char 
  1493 ;; Auto vars:     Size  Location     Type
  1494 ;;  add             1    6[COMRAM] unsigned char 
  1495 ;;  ack             1    7[COMRAM] unsigned char 
  1496 ;; Return value:  Size  Location     Type
  1497 ;;                  1    wreg      void 
  1498 ;; Registers used:
  1499 ;;		wreg, fsr2l, fsr2h, status,2, status,0, cstack
  1500 ;; Tracked objects:
  1501 ;;		On entry : 0/0
  1502 ;;		On exit  : 0/0
  1503 ;;		Unchanged: 0/0
  1504 ;; Data sizes:     COMRAM   BANK0   BANK1   BANK2   BANK3   BANK4   BANK5   BANK6   BANK7   BANK8   BANK9  BANK10  BANK1
      +1  BANK12  BANK13  BANK14  BANK15
  1505 ;;      Params:         1       0       0       0       0       0       0       0       0       0       0       0       
      +0       0       0       0       0
  1506 ;;      Locals:         2       0       0       0       0       0       0       0       0       0       0       0       
      +0       0       0       0       0
  1507 ;;      Temps:          0       0       0       0       0       0       0       0       0       0       0       0       
      +0       0       0       0       0
  1508 ;;      Totals:         3       0       0       0       0       0       0       0       0       0       0       0       
      +0       0       0       0       0
  1509 ;;Total ram usage:        3 bytes
  1510 ;; Hardware stack levels used: 1
  1511 ;; Hardware stack levels required when called: 3
  1512 ;; This function calls:
  1513 ;;		_MSSP_I2C_Master_Send_Start
  1514 ;;		_MSSP_I2C_Master_Send_Stop
  1515 ;;		_MSSP_I2C_Master_Write_Blocking
  1516 ;; This function is called by:
  1517 ;;		_main
  1518 ;; This function uses a non-reentrant model
  1519 ;;
  1520                           
  1521                           	psect	text6
  1522   0024BA                     __ptext6:
  1523                           	callstack 0
  1524   0024BA                     _I2C_Send_1_byte:
  1525                           	callstack 27
  1526                           
  1527                           ;incstack = 0
  1528                           ;I2C_Send_1_byte@add stored from wreg
  1529   0024BA  6E07               	movwf	I2C_Send_1_byte@add^0,c
  1530   0024BC                     
  1531                           ;application.c: 72: void I2C_Send_1_byte(uint8 add , uint8 Data);application.c: 73: {;ap
      +                          plication.c: 74:     uint8 ack =0;
  1532   0024BC  0E00               	movlw	0
  1533   0024BE  6E08               	movwf	I2C_Send_1_byte@ack^0,c
  1534   0024C0                     
  1535                           ;application.c: 75:     MSSP_I2C_Master_Send_Start(&i2c_obj);
  1536   0024C0  0E74               	movlw	low _i2c_obj
  1537   0024C2  6E01               	movwf	MSSP_I2C_Master_Send_Start@i2c_obj^0,c
  1538   0024C4  0E00               	movlw	high _i2c_obj
  1539   0024C6  6E02               	movwf	(MSSP_I2C_Master_Send_Start@i2c_obj+1)^0,c
  1540   0024C8  ECAC  F012         	call	_MSSP_I2C_Master_Send_Start	;wreg free
  1541   0024CC                     
  1542                           ;application.c: 76:     MSSP_I2C_Master_Write_Blocking(&i2c_obj,add,&ack);
  1543   0024CC  0E74               	movlw	low _i2c_obj
  1544   0024CE  6E01               	movwf	MSSP_I2C_Master_Write_Blocking@i2c_obj^0,c
  1545   0024D0  0E00               	movlw	high _i2c_obj
  1546   0024D2  6E02               	movwf	(MSSP_I2C_Master_Write_Blocking@i2c_obj+1)^0,c
  1547   0024D4  C007  F003         	movff	I2C_Send_1_byte@add,MSSP_I2C_Master_Write_Blocking@i2c_data
  1548   0024D8  0E08               	movlw	low I2C_Send_1_byte@ack
  1549   0024DA  6E04               	movwf	MSSP_I2C_Master_Write_Blocking@ack^0,c
  1550   0024DC  0E00               	movlw	high I2C_Send_1_byte@ack
  1551   0024DE  6E05               	movwf	(MSSP_I2C_Master_Write_Blocking@ack+1)^0,c
  1552   0024E0  ECF7  F011         	call	_MSSP_I2C_Master_Write_Blocking	;wreg free
  1553   0024E4                     
  1554                           ;application.c: 77:     MSSP_I2C_Master_Write_Blocking(&i2c_obj,Data,&ack);
  1555   0024E4  0E74               	movlw	low _i2c_obj
  1556   0024E6  6E01               	movwf	MSSP_I2C_Master_Write_Blocking@i2c_obj^0,c
  1557   0024E8  0E00               	movlw	high _i2c_obj
  1558   0024EA  6E02               	movwf	(MSSP_I2C_Master_Write_Blocking@i2c_obj+1)^0,c
  1559   0024EC  C006  F003         	movff	I2C_Send_1_byte@Data,MSSP_I2C_Master_Write_Blocking@i2c_data
  1560   0024F0  0E08               	movlw	low I2C_Send_1_byte@ack
  1561   0024F2  6E04               	movwf	MSSP_I2C_Master_Write_Blocking@ack^0,c
  1562   0024F4  0E00               	movlw	high I2C_Send_1_byte@ack
  1563   0024F6  6E05               	movwf	(MSSP_I2C_Master_Write_Blocking@ack+1)^0,c
  1564   0024F8  ECF7  F011         	call	_MSSP_I2C_Master_Write_Blocking	;wreg free
  1565   0024FC                     
  1566                           ;application.c: 78:     MSSP_I2C_Master_Send_Stop(&i2c_obj);
  1567   0024FC  0E74               	movlw	low _i2c_obj
  1568   0024FE  6E01               	movwf	MSSP_I2C_Master_Send_Stop@i2c_obj^0,c
  1569   002500  0E00               	movlw	high _i2c_obj
  1570   002502  6E02               	movwf	(MSSP_I2C_Master_Send_Stop@i2c_obj+1)^0,c
  1571   002504  EC85  F012         	call	_MSSP_I2C_Master_Send_Stop	;wreg free
  1572   002508  0012               	return		;funcret
  1573   00250A                     __end_of_I2C_Send_1_byte:
  1574                           	callstack 0
  1575                           
  1576 ;; *************** function _MSSP_I2C_Master_Write_Blocking *****************
  1577 ;; Defined at:
  1578 ;;		line 173 in file "MCAL_Layer/I2C/hal_i2c.c"
  1579 ;; Parameters:    Size  Location     Type
  1580 ;;  i2c_obj         2    0[COMRAM] PTR const struct .
  1581 ;;		 -> i2c_obj(7), 
  1582 ;;  i2c_data        1    2[COMRAM] unsigned char 
  1583 ;;  ack             2    3[COMRAM] PTR unsigned char 
  1584 ;;		 -> I2C_Recieve_1_byte@ack(1), I2C_Send_1_byte@ack(1), 
  1585 ;; Auto vars:     Size  Location     Type
  1586 ;;  ret             1    0        unsigned char 
  1587 ;; Return value:  Size  Location     Type
  1588 ;;                  1    wreg      unsigned char 
  1589 ;; Registers used:
  1590 ;;		wreg, fsr2l, fsr2h, status,2, status,0
  1591 ;; Tracked objects:
  1592 ;;		On entry : 0/0
  1593 ;;		On exit  : 0/0
  1594 ;;		Unchanged: 0/0
  1595 ;; Data sizes:     COMRAM   BANK0   BANK1   BANK2   BANK3   BANK4   BANK5   BANK6   BANK7   BANK8   BANK9  BANK10  BANK1
      +1  BANK12  BANK13  BANK14  BANK15
  1596 ;;      Params:         5       0       0       0       0       0       0       0       0       0       0       0       
      +0       0       0       0       0
  1597 ;;      Locals:         0       0       0       0       0       0       0       0       0       0       0       0       
      +0       0       0       0       0
  1598 ;;      Temps:          0       0       0       0       0       0       0       0       0       0       0       0       
      +0       0       0       0       0
  1599 ;;      Totals:         5       0       0       0       0       0       0       0       0       0       0       0       
      +0       0       0       0       0
  1600 ;;Total ram usage:        5 bytes
  1601 ;; Hardware stack levels used: 1
  1602 ;; Hardware stack levels required when called: 2
  1603 ;; This function calls:
  1604 ;;		Nothing
  1605 ;; This function is called by:
  1606 ;;		_I2C_Send_1_byte
  1607 ;;		_I2C_Recieve_1_byte
  1608 ;; This function uses a non-reentrant model
  1609 ;;
  1610                           
  1611                           	psect	text7
  1612   0023EE                     __ptext7:
  1613                           	callstack 0
  1614   0023EE                     _MSSP_I2C_Master_Write_Blocking:
  1615                           	callstack 27
  1616   0023EE                     
  1617                           ;MCAL_Layer/I2C/hal_i2c.c: 176:     if( (((void*)0) == i2c_obj) || (((void*)0)==ack) )
  1618   0023EE  5001               	movf	MSSP_I2C_Master_Write_Blocking@i2c_obj^0,w,c
  1619   0023F0  1002               	iorwf	(MSSP_I2C_Master_Write_Blocking@i2c_obj+1)^0,w,c
  1620   0023F2  B4D8               	btfsc	status,2,c
  1621   0023F4  EFFE  F011         	goto	u5481
  1622   0023F8  EF00  F012         	goto	u5480
  1623   0023FC                     u5481:
  1624   0023FC  EF09  F012         	goto	l6298
  1625   002400                     u5480:
  1626   002400  5004               	movf	MSSP_I2C_Master_Write_Blocking@ack^0,w,c
  1627   002402  1005               	iorwf	(MSSP_I2C_Master_Write_Blocking@ack+1)^0,w,c
  1628   002404  A4D8               	btfss	status,2,c
  1629   002406  EF07  F012         	goto	u5491
  1630   00240A  EF09  F012         	goto	u5490
  1631   00240E                     u5491:
  1632   00240E  EF0B  F012         	goto	l1621
  1633   002412                     u5490:
  1634   002412                     l6298:
  1635                           
  1636                           ;MCAL_Layer/I2C/hal_i2c.c: 179:     }
  1637   002412  EF32  F012         	goto	l1632
  1638   002416                     l1621:
  1639                           
  1640                           ;MCAL_Layer/I2C/hal_i2c.c: 181:     {;MCAL_Layer/I2C/hal_i2c.c: 183:         (*( (volati
      +                          le uint8 *)(0xFC9) ) ) = i2c_data;
  1641   002416  C003  FFC9         	movff	MSSP_I2C_Master_Write_Blocking@i2c_data,4041	;volatile
  1642   00241A                     l1625:
  1643   00241A  A69E               	btfss	158,3,c	;volatile
  1644   00241C  EF12  F012         	goto	u5501
  1645   002420  EF14  F012         	goto	u5500
  1646   002424                     u5501:
  1647   002424  EF0D  F012         	goto	l1625
  1648   002428                     u5500:
  1649   002428                     
  1650                           ;MCAL_Layer/I2C/hal_i2c.c: 187:         (*((volatile PIR1_t *)(0xF9E))).SSPIF =0;
  1651   002428  969E               	bcf	158,3,c	;volatile
  1652                           
  1653                           ;MCAL_Layer/I2C/hal_i2c.c: 189:         if(0X00U == (*((volatile SSPCON2_t *)(0xFC5))).A
      +                          CKSTAT)
  1654   00242A  BCC5               	btfsc	197,6,c	;volatile
  1655   00242C  EF1A  F012         	goto	u5511
  1656   002430  EF1C  F012         	goto	u5510
  1657   002434                     u5511:
  1658   002434  EF23  F012         	goto	l1628
  1659   002438                     u5510:
  1660   002438                     
  1661                           ;MCAL_Layer/I2C/hal_i2c.c: 190:         {;MCAL_Layer/I2C/hal_i2c.c: 191:             *ac
      +                          k =0X00U;
  1662   002438  C004  FFD9         	movff	MSSP_I2C_Master_Write_Blocking@ack,fsr2l
  1663   00243C  C005  FFDA         	movff	MSSP_I2C_Master_Write_Blocking@ack+1,fsr2h
  1664   002440  6ADF               	clrf	indf2,c
  1665                           
  1666                           ;MCAL_Layer/I2C/hal_i2c.c: 192:         }
  1667   002442  EF32  F012         	goto	l1632
  1668   002446                     l1628:
  1669   002446  ACC5               	btfss	197,6,c	;volatile
  1670   002448  EF28  F012         	goto	u5521
  1671   00244C  EF2A  F012         	goto	u5520
  1672   002450                     u5521:
  1673   002450  EF32  F012         	goto	l1629
  1674   002454                     u5520:
  1675   002454                     
  1676                           ;MCAL_Layer/I2C/hal_i2c.c: 194:         {;MCAL_Layer/I2C/hal_i2c.c: 195:             *ac
      +                          k=0X01U ;
  1677   002454  C004  FFD9         	movff	MSSP_I2C_Master_Write_Blocking@ack,fsr2l
  1678   002458  C005  FFDA         	movff	MSSP_I2C_Master_Write_Blocking@ack+1,fsr2h
  1679   00245C  0E01               	movlw	1
  1680   00245E  6EDF               	movwf	indf2,c
  1681                           
  1682                           ;MCAL_Layer/I2C/hal_i2c.c: 196:         }
  1683   002460  EF32  F012         	goto	l1632
  1684   002464                     l1629:
  1685   002464                     l1632:
  1686   002464  0012               	return		;funcret
  1687   002466                     __end_of_MSSP_I2C_Master_Write_Blocking:
  1688                           	callstack 0
  1689                           
  1690 ;; *************** function _MSSP_I2C_Master_Send_Stop *****************
  1691 ;; Defined at:
  1692 ;;		line 147 in file "MCAL_Layer/I2C/hal_i2c.c"
  1693 ;; Parameters:    Size  Location     Type
  1694 ;;  i2c_obj         2    0[COMRAM] PTR const struct .
  1695 ;;		 -> i2c_obj(7), 
  1696 ;; Auto vars:     Size  Location     Type
  1697 ;;  ret             1    0        unsigned char 
  1698 ;; Return value:  Size  Location     Type
  1699 ;;                  1    wreg      unsigned char 
  1700 ;; Registers used:
  1701 ;;		wreg, status,2, status,0
  1702 ;; Tracked objects:
  1703 ;;		On entry : 0/0
  1704 ;;		On exit  : 0/0
  1705 ;;		Unchanged: 0/0
  1706 ;; Data sizes:     COMRAM   BANK0   BANK1   BANK2   BANK3   BANK4   BANK5   BANK6   BANK7   BANK8   BANK9  BANK10  BANK1
      +1  BANK12  BANK13  BANK14  BANK15
  1707 ;;      Params:         2       0       0       0       0       0       0       0       0       0       0       0       
      +0       0       0       0       0
  1708 ;;      Locals:         0       0       0       0       0       0       0       0       0       0       0       0       
      +0       0       0       0       0
  1709 ;;      Temps:          0       0       0       0       0       0       0       0       0       0       0       0       
      +0       0       0       0       0
  1710 ;;      Totals:         2       0       0       0       0       0       0       0       0       0       0       0       
      +0       0       0       0       0
  1711 ;;Total ram usage:        2 bytes
  1712 ;; Hardware stack levels used: 1
  1713 ;; Hardware stack levels required when called: 2
  1714 ;; This function calls:
  1715 ;;		Nothing
  1716 ;; This function is called by:
  1717 ;;		_I2C_Send_1_byte
  1718 ;;		_I2C_Recieve_1_byte
  1719 ;; This function uses a non-reentrant model
  1720 ;;
  1721                           
  1722                           	psect	text8
  1723   00250A                     __ptext8:
  1724                           	callstack 0
  1725   00250A                     _MSSP_I2C_Master_Send_Stop:
  1726                           	callstack 27
  1727   00250A                     
  1728                           ;MCAL_Layer/I2C/hal_i2c.c: 150:     if(((void*)0) == i2c_obj)
  1729   00250A  5001               	movf	MSSP_I2C_Master_Send_Stop@i2c_obj^0,w,c
  1730   00250C  1002               	iorwf	(MSSP_I2C_Master_Send_Stop@i2c_obj+1)^0,w,c
  1731   00250E  A4D8               	btfss	status,2,c
  1732   002510  EF8C  F012         	goto	u5531
  1733   002514  EF8E  F012         	goto	u5530
  1734   002518                     u5531:
  1735   002518  EF90  F012         	goto	l1609
  1736   00251C                     u5530:
  1737   00251C                     l6308:
  1738                           
  1739                           ;MCAL_Layer/I2C/hal_i2c.c: 153:     }
  1740   00251C  EFAB  F012         	goto	l1618
  1741   002520                     l1609:
  1742                           
  1743                           ;MCAL_Layer/I2C/hal_i2c.c: 155:     {;MCAL_Layer/I2C/hal_i2c.c: 157:         (*((volatil
      +                          e SSPCON2_t *)(0xFC5))).PEN = 1;
  1744   002520  84C5               	bsf	197,2,c	;volatile
  1745   002522                     l1611:
  1746   002522  B4C5               	btfsc	197,2,c	;volatile
  1747   002524  EF96  F012         	goto	u5541
  1748   002528  EF98  F012         	goto	u5540
  1749   00252C                     u5541:
  1750   00252C  EF91  F012         	goto	l1611
  1751   002530                     u5540:
  1752   002530                     
  1753                           ;MCAL_Layer/I2C/hal_i2c.c: 161:         (*((volatile PIR1_t *)(0xF9E))).SSPIF =0;
  1754   002530  969E               	bcf	158,3,c	;volatile
  1755                           
  1756                           ;MCAL_Layer/I2C/hal_i2c.c: 163:         if(0X01U == (*((volatile SSPSTAT_t *)(0xFC7))).P
      +                          ){
  1757   002532  A8C7               	btfss	199,4,c	;volatile
  1758   002534  EF9E  F012         	goto	u5551
  1759   002538  EFA0  F012         	goto	u5550
  1760   00253C                     u5551:
  1761   00253C  EFA2  F012         	goto	l1614
  1762   002540                     u5550:
  1763   002540                     
  1764                           ;MCAL_Layer/I2C/hal_i2c.c: 165:         }
  1765   002540  EFAB  F012         	goto	l1618
  1766   002544                     l1614:
  1767   002544  B8C7               	btfsc	199,4,c	;volatile
  1768   002546  EFA7  F012         	goto	u5561
  1769   00254A  EFA9  F012         	goto	u5560
  1770   00254E                     u5561:
  1771   00254E  EFAB  F012         	goto	l1615
  1772   002552                     u5560:
  1773   002552  EF8E  F012         	goto	l6308
  1774   002556                     l1615:
  1775   002556                     l1618:
  1776   002556  0012               	return		;funcret
  1777   002558                     __end_of_MSSP_I2C_Master_Send_Stop:
  1778                           	callstack 0
  1779                           
  1780 ;; *************** function _MSSP_I2C_Master_Send_Start *****************
  1781 ;; Defined at:
  1782 ;;		line 103 in file "MCAL_Layer/I2C/hal_i2c.c"
  1783 ;; Parameters:    Size  Location     Type
  1784 ;;  i2c_obj         2    0[COMRAM] PTR const struct .
  1785 ;;		 -> i2c_obj(7), 
  1786 ;; Auto vars:     Size  Location     Type
  1787 ;;  ret             1    0        unsigned char 
  1788 ;; Return value:  Size  Location     Type
  1789 ;;                  1    wreg      unsigned char 
  1790 ;; Registers used:
  1791 ;;		wreg, status,2, status,0
  1792 ;; Tracked objects:
  1793 ;;		On entry : 0/0
  1794 ;;		On exit  : 0/0
  1795 ;;		Unchanged: 0/0
  1796 ;; Data sizes:     COMRAM   BANK0   BANK1   BANK2   BANK3   BANK4   BANK5   BANK6   BANK7   BANK8   BANK9  BANK10  BANK1
      +1  BANK12  BANK13  BANK14  BANK15
  1797 ;;      Params:         2       0       0       0       0       0       0       0       0       0       0       0       
      +0       0       0       0       0
  1798 ;;      Locals:         0       0       0       0       0       0       0       0       0       0       0       0       
      +0       0       0       0       0
  1799 ;;      Temps:          0       0       0       0       0       0       0       0       0       0       0       0       
      +0       0       0       0       0
  1800 ;;      Totals:         2       0       0       0       0       0       0       0       0       0       0       0       
      +0       0       0       0       0
  1801 ;;Total ram usage:        2 bytes
  1802 ;; Hardware stack levels used: 1
  1803 ;; Hardware stack levels required when called: 2
  1804 ;; This function calls:
  1805 ;;		Nothing
  1806 ;; This function is called by:
  1807 ;;		_I2C_Send_1_byte
  1808 ;;		_I2C_Recieve_1_byte
  1809 ;; This function uses a non-reentrant model
  1810 ;;
  1811                           
  1812                           	psect	text9
  1813   002558                     __ptext9:
  1814                           	callstack 0
  1815   002558                     _MSSP_I2C_Master_Send_Start:
  1816                           	callstack 27
  1817   002558                     
  1818                           ;MCAL_Layer/I2C/hal_i2c.c: 106:     if(((void*)0) == i2c_obj)
  1819   002558  5001               	movf	MSSP_I2C_Master_Send_Start@i2c_obj^0,w,c
  1820   00255A  1002               	iorwf	(MSSP_I2C_Master_Send_Start@i2c_obj+1)^0,w,c
  1821   00255C  A4D8               	btfss	status,2,c
  1822   00255E  EFB3  F012         	goto	u5441
  1823   002562  EFB5  F012         	goto	u5440
  1824   002566                     u5441:
  1825   002566  EFB7  F012         	goto	l1589
  1826   00256A                     u5440:
  1827   00256A                     l6286:
  1828                           
  1829                           ;MCAL_Layer/I2C/hal_i2c.c: 109:     }
  1830   00256A  EFD2  F012         	goto	l1598
  1831   00256E                     l1589:
  1832                           
  1833                           ;MCAL_Layer/I2C/hal_i2c.c: 111:     {;MCAL_Layer/I2C/hal_i2c.c: 113:         (*((volatil
      +                          e SSPCON2_t *)(0xFC5))).SEN = 1;
  1834   00256E  80C5               	bsf	197,0,c	;volatile
  1835   002570                     l1591:
  1836   002570  B0C5               	btfsc	197,0,c	;volatile
  1837   002572  EFBD  F012         	goto	u5451
  1838   002576  EFBF  F012         	goto	u5450
  1839   00257A                     u5451:
  1840   00257A  EFB8  F012         	goto	l1591
  1841   00257E                     u5450:
  1842   00257E                     
  1843                           ;MCAL_Layer/I2C/hal_i2c.c: 117:         (*((volatile PIR1_t *)(0xF9E))).SSPIF =0;
  1844   00257E  969E               	bcf	158,3,c	;volatile
  1845                           
  1846                           ;MCAL_Layer/I2C/hal_i2c.c: 119:         if(0X01U == (*((volatile SSPSTAT_t *)(0xFC7))).S
      +                          ){
  1847   002580  A6C7               	btfss	199,3,c	;volatile
  1848   002582  EFC5  F012         	goto	u5461
  1849   002586  EFC7  F012         	goto	u5460
  1850   00258A                     u5461:
  1851   00258A  EFC9  F012         	goto	l1594
  1852   00258E                     u5460:
  1853   00258E                     
  1854                           ;MCAL_Layer/I2C/hal_i2c.c: 121:         }
  1855   00258E  EFD2  F012         	goto	l1598
  1856   002592                     l1594:
  1857   002592  B6C7               	btfsc	199,3,c	;volatile
  1858   002594  EFCE  F012         	goto	u5471
  1859   002598  EFD0  F012         	goto	u5470
  1860   00259C                     u5471:
  1861   00259C  EFD2  F012         	goto	l1595
  1862   0025A0                     u5470:
  1863   0025A0  EFB5  F012         	goto	l6286
  1864   0025A4                     l1595:
  1865   0025A4                     l1598:
  1866   0025A4  0012               	return		;funcret
  1867   0025A6                     __end_of_MSSP_I2C_Master_Send_Start:
  1868                           	callstack 0
  1869                           
  1870 ;; *************** function _I2C_Master_Init *****************
  1871 ;; Defined at:
  1872 ;;		line 41 in file "application.c"
  1873 ;; Parameters:    Size  Location     Type
  1874 ;;		None
  1875 ;; Auto vars:     Size  Location     Type
  1876 ;;		None
  1877 ;; Return value:  Size  Location     Type
  1878 ;;                  1    wreg      void 
  1879 ;; Registers used:
  1880 ;;		wreg, fsr2l, fsr2h, status,2, status,0, cstack
  1881 ;; Tracked objects:
  1882 ;;		On entry : 0/0
  1883 ;;		On exit  : 0/0
  1884 ;;		Unchanged: 0/0
  1885 ;; Data sizes:     COMRAM   BANK0   BANK1   BANK2   BANK3   BANK4   BANK5   BANK6   BANK7   BANK8   BANK9  BANK10  BANK1
      +1  BANK12  BANK13  BANK14  BANK15
  1886 ;;      Params:         0       0       0       0       0       0       0       0       0       0       0       0       
      +0       0       0       0       0
  1887 ;;      Locals:         0       0       0       0       0       0       0       0       0       0       0       0       
      +0       0       0       0       0
  1888 ;;      Temps:          0       0       0       0       0       0       0       0       0       0       0       0       
      +0       0       0       0       0
  1889 ;;      Totals:         0       0       0       0       0       0       0       0       0       0       0       0       
      +0       0       0       0       0
  1890 ;;Total ram usage:        0 bytes
  1891 ;; Hardware stack levels used: 1
  1892 ;; Hardware stack levels required when called: 5
  1893 ;; This function calls:
  1894 ;;		_MSSP_I2C_Init
  1895 ;; This function is called by:
  1896 ;;		_main
  1897 ;; This function uses a non-reentrant model
  1898 ;;
  1899                           
  1900                           	psect	text10
  1901   0025A6                     __ptext10:
  1902                           	callstack 0
  1903   0025A6                     _I2C_Master_Init:
  1904                           	callstack 25
  1905   0025A6                     
  1906                           ;application.c: 43:     i2c_obj.i2c_clock = 100000;
  1907   0025A6  0EA0               	movlw	160
  1908   0025A8  6E74               	movwf	_i2c_obj^0,c
  1909   0025AA  0E86               	movlw	134
  1910   0025AC  6E75               	movwf	(_i2c_obj+1)^0,c
  1911   0025AE  0E01               	movlw	1
  1912   0025B0  6E76               	movwf	(_i2c_obj+2)^0,c
  1913   0025B2  0E00               	movlw	0
  1914   0025B4  6E77               	movwf	(_i2c_obj+3)^0,c
  1915   0025B6                     
  1916                           ;application.c: 44:     i2c_obj.i2c_cfg.i2c_SMBus_control = 0X00U;
  1917   0025B6  947A               	bcf	(_i2c_obj+6)^0,2,c
  1918   0025B8                     
  1919                           ;application.c: 45:     i2c_obj.i2c_cfg.i2c_mode = 0X01U;
  1920   0025B8  807A               	bsf	(_i2c_obj+6)^0,0,c
  1921   0025BA                     
  1922                           ;application.c: 46:     i2c_obj.i2c_cfg.i2c_slew_rate=0X01U;
  1923   0025BA  827A               	bsf	(_i2c_obj+6)^0,1,c
  1924                           
  1925                           ;application.c: 47:     i2c_obj.i2c_cfg.i2c_mode_cfg = 0X08U;
  1926   0025BC  0E08               	movlw	8
  1927   0025BE  6E78               	movwf	(_i2c_obj+4)^0,c
  1928   0025C0                     
  1929                           ;application.c: 48:     MSSP_I2C_Init(&i2c_obj);
  1930   0025C0  0E74               	movlw	low _i2c_obj
  1931   0025C2  6E45               	movwf	MSSP_I2C_Init@i2c_obj^0,c
  1932   0025C4  0E00               	movlw	high _i2c_obj
  1933   0025C6  6E46               	movwf	(MSSP_I2C_Init@i2c_obj+1)^0,c
  1934   0025C8  ECC0  F00F         	call	_MSSP_I2C_Init	;wreg free
  1935   0025CC  0012               	return		;funcret
  1936   0025CE                     __end_of_I2C_Master_Init:
  1937                           	callstack 0
  1938                           
  1939 ;; *************** function _MSSP_I2C_Init *****************
  1940 ;; Defined at:
  1941 ;;		line 11 in file "MCAL_Layer/I2C/hal_i2c.c"
  1942 ;; Parameters:    Size  Location     Type
  1943 ;;  i2c_obj         2   68[COMRAM] PTR const struct .
  1944 ;;		 -> i2c_obj(7), 
  1945 ;; Auto vars:     Size  Location     Type
  1946 ;;  ret             1    0        unsigned char 
  1947 ;; Return value:  Size  Location     Type
  1948 ;;                  1    wreg      unsigned char 
  1949 ;; Registers used:
  1950 ;;		wreg, fsr2l, fsr2h, status,2, status,0, cstack
  1951 ;; Tracked objects:
  1952 ;;		On entry : 0/0
  1953 ;;		On exit  : 0/0
  1954 ;;		Unchanged: 0/0
  1955 ;; Data sizes:     COMRAM   BANK0   BANK1   BANK2   BANK3   BANK4   BANK5   BANK6   BANK7   BANK8   BANK9  BANK10  BANK1
      +1  BANK12  BANK13  BANK14  BANK15
  1956 ;;      Params:         2       0       0       0       0       0       0       0       0       0       0       0       
      +0       0       0       0       0
  1957 ;;      Locals:         0       0       0       0       0       0       0       0       0       0       0       0       
      +0       0       0       0       0
  1958 ;;      Temps:          0       0       0       0       0       0       0       0       0       0       0       0       
      +0       0       0       0       0
  1959 ;;      Totals:         2       0       0       0       0       0       0       0       0       0       0       0       
      +0       0       0       0       0
  1960 ;;Total ram usage:        2 bytes
  1961 ;; Hardware stack levels used: 1
  1962 ;; Hardware stack levels required when called: 4
  1963 ;; This function calls:
  1964 ;;		_I2C_Master_Mode_Clock_Configurations
  1965 ;;		_I2C_Slave_Mode_Configurations
  1966 ;;		_MSSP_I2C_Mode_GPIO_CFG
  1967 ;; This function is called by:
  1968 ;;		_I2C_Master_Init
  1969 ;;		_I2C_Slave_1_Init
  1970 ;;		_I2C_Slave_2_Init
  1971 ;; This function uses a non-reentrant model
  1972 ;;
  1973                           
  1974                           	psect	text11
  1975   001F80                     __ptext11:
  1976                           	callstack 0
  1977   001F80                     _MSSP_I2C_Init:
  1978                           	callstack 25
  1979   001F80                     
  1980                           ;MCAL_Layer/I2C/hal_i2c.c: 14:     if(((void*)0) == i2c_obj)
  1981   001F80  5045               	movf	MSSP_I2C_Init@i2c_obj^0,w,c
  1982   001F82  1046               	iorwf	(MSSP_I2C_Init@i2c_obj+1)^0,w,c
  1983   001F84  A4D8               	btfss	status,2,c
  1984   001F86  EFC7  F00F         	goto	u5351
  1985   001F8A  EFC9  F00F         	goto	u5350
  1986   001F8E                     u5351:
  1987   001F8E  EFCB  F00F         	goto	l1563
  1988   001F92                     u5350:
  1989   001F92                     
  1990                           ;MCAL_Layer/I2C/hal_i2c.c: 17:     }
  1991   001F92  EF5C  F010         	goto	l1581
  1992   001F96                     l1563:
  1993                           
  1994                           ;MCAL_Layer/I2C/hal_i2c.c: 19:     {;MCAL_Layer/I2C/hal_i2c.c: 21:         ((*((volatile
      +                           SSPCON1_t *)(0xFC6))).SSPEN=0);
  1995   001F96  9AC6               	bcf	198,5,c	;volatile
  1996   001F98                     
  1997                           ;MCAL_Layer/I2C/hal_i2c.c: 23:         if(0X01U == i2c_obj->i2c_cfg.i2c_mode)
  1998   001F98  EE20 F006          	lfsr	2,6
  1999   001F9C  5045               	movf	MSSP_I2C_Init@i2c_obj^0,w,c
  2000   001F9E  26D9               	addwf	fsr2l,f,c
  2001   001FA0  5046               	movf	(MSSP_I2C_Init@i2c_obj+1)^0,w,c
  2002   001FA2  22DA               	addwfc	fsr2h,f,c
  2003   001FA4  A0DF               	btfss	indf2,0,c
  2004   001FA6  EFD7  F00F         	goto	u5361
  2005   001FAA  EFD9  F00F         	goto	u5360
  2006   001FAE                     u5361:
  2007   001FAE  EFE1  F00F         	goto	l6250
  2008   001FB2                     u5360:
  2009   001FB2                     
  2010                           ;MCAL_Layer/I2C/hal_i2c.c: 24:         {;MCAL_Layer/I2C/hal_i2c.c: 26:             I2C_M
      +                          aster_Mode_Clock_Configurations(i2c_obj);
  2011   001FB2  C045  F042         	movff	MSSP_I2C_Init@i2c_obj,I2C_Master_Mode_Clock_Configurations@i2c_obj
  2012   001FB6  C046  F043         	movff	MSSP_I2C_Init@i2c_obj+1,I2C_Master_Mode_Clock_Configurations@i2c_obj+1
  2013   001FBA  ECE0  F010         	call	_I2C_Master_Mode_Clock_Configurations	;wreg free
  2014                           
  2015                           ;MCAL_Layer/I2C/hal_i2c.c: 27:         }
  2016   001FBE  EF1D  F010         	goto	l6264
  2017   001FC2                     l6250:
  2018   001FC2  EE20 F006          	lfsr	2,6
  2019   001FC6  5045               	movf	MSSP_I2C_Init@i2c_obj^0,w,c
  2020   001FC8  26D9               	addwf	fsr2l,f,c
  2021   001FCA  5046               	movf	(MSSP_I2C_Init@i2c_obj+1)^0,w,c
  2022   001FCC  22DA               	addwfc	fsr2h,f,c
  2023   001FCE  B0DF               	btfsc	indf2,0,c
  2024   001FD0  EFEC  F00F         	goto	u5371
  2025   001FD4  EFEE  F00F         	goto	u5370
  2026   001FD8                     u5371:
  2027   001FD8  EF1D  F010         	goto	l6264
  2028   001FDC                     u5370:
  2029   001FDC                     
  2030                           ;MCAL_Layer/I2C/hal_i2c.c: 29:         {;MCAL_Layer/I2C/hal_i2c.c: 31:             if(0X
      +                          01U == i2c_obj->i2c_cfg.i2c_general_call)
  2031   001FDC  EE20 F006          	lfsr	2,6
  2032   001FE0  5045               	movf	MSSP_I2C_Init@i2c_obj^0,w,c
  2033   001FE2  26D9               	addwf	fsr2l,f,c
  2034   001FE4  5046               	movf	(MSSP_I2C_Init@i2c_obj+1)^0,w,c
  2035   001FE6  22DA               	addwfc	fsr2h,f,c
  2036   001FE8  A6DF               	btfss	indf2,3,c
  2037   001FEA  EFF9  F00F         	goto	u5381
  2038   001FEE  EFFB  F00F         	goto	u5380
  2039   001FF2                     u5381:
  2040   001FF2  EFFE  F00F         	goto	l6256
  2041   001FF6                     u5380:
  2042   001FF6                     
  2043                           ;MCAL_Layer/I2C/hal_i2c.c: 32:             {;MCAL_Layer/I2C/hal_i2c.c: 33:              
      +                             ((*((volatile SSPCON2_t *)(0xFC5))).GCEN=0X01U);
  2044   001FF6  8EC5               	bsf	197,7,c	;volatile
  2045                           
  2046                           ;MCAL_Layer/I2C/hal_i2c.c: 34:             }
  2047   001FF8  EF0C  F010         	goto	l1569
  2048   001FFC                     l6256:
  2049   001FFC  EE20 F006          	lfsr	2,6
  2050   002000  5045               	movf	MSSP_I2C_Init@i2c_obj^0,w,c
  2051   002002  26D9               	addwf	fsr2l,f,c
  2052   002004  5046               	movf	(MSSP_I2C_Init@i2c_obj+1)^0,w,c
  2053   002006  22DA               	addwfc	fsr2h,f,c
  2054   002008  B6DF               	btfsc	indf2,3,c
  2055   00200A  EF09  F010         	goto	u5391
  2056   00200E  EF0B  F010         	goto	u5390
  2057   002012                     u5391:
  2058   002012  EF0C  F010         	goto	l1569
  2059   002016                     u5390:
  2060   002016                     
  2061                           ;MCAL_Layer/I2C/hal_i2c.c: 36:             {;MCAL_Layer/I2C/hal_i2c.c: 37:              
      +                             ((*((volatile SSPCON2_t *)(0xFC5))).GCEN=0X00U);
  2062   002016  9EC5               	bcf	197,7,c	;volatile
  2063   002018                     l1569:
  2064                           
  2065                           ;MCAL_Layer/I2C/hal_i2c.c: 41:             (*((volatile SSPCON1_t *)(0xFC6))).WCOL =0;
  2066   002018  9EC6               	bcf	198,7,c	;volatile
  2067                           
  2068                           ;MCAL_Layer/I2C/hal_i2c.c: 43:             (*((volatile SSPCON1_t *)(0xFC6))).SSPOV=0;
  2069   00201A  9CC6               	bcf	198,6,c	;volatile
  2070                           
  2071                           ;MCAL_Layer/I2C/hal_i2c.c: 45:             (*((volatile SSPCON1_t *)(0xFC6))).CKP=1;
  2072   00201C  88C6               	bsf	198,4,c	;volatile
  2073   00201E                     
  2074                           ;MCAL_Layer/I2C/hal_i2c.c: 48:             (*( (volatile uint8 *)(0xFC8) ) ) = i2c_obj->
      +                          i2c_cfg.i2c_slave_address;
  2075   00201E  EE20 F005          	lfsr	2,5
  2076   002022  5045               	movf	MSSP_I2C_Init@i2c_obj^0,w,c
  2077   002024  26D9               	addwf	fsr2l,f,c
  2078   002026  5046               	movf	(MSSP_I2C_Init@i2c_obj+1)^0,w,c
  2079   002028  22DA               	addwfc	fsr2h,f,c
  2080   00202A  50DF               	movf	indf2,w,c
  2081   00202C  6EC8               	movwf	200,c	;volatile
  2082   00202E                     
  2083                           ;MCAL_Layer/I2C/hal_i2c.c: 50:             I2C_Slave_Mode_Configurations(i2c_obj);
  2084   00202E  C045  F001         	movff	MSSP_I2C_Init@i2c_obj,I2C_Slave_Mode_Configurations@i2c_obj
  2085   002032  C046  F002         	movff	MSSP_I2C_Init@i2c_obj+1,I2C_Slave_Mode_Configurations@i2c_obj+1
  2086   002036  ECF9  F012         	call	_I2C_Slave_Mode_Configurations	;wreg free
  2087   00203A                     l6264:
  2088                           
  2089                           ;MCAL_Layer/I2C/hal_i2c.c: 54:         MSSP_I2C_Mode_GPIO_CFG();
  2090   00203A  EC20  F013         	call	_MSSP_I2C_Mode_GPIO_CFG	;wreg free
  2091   00203E                     
  2092                           ;MCAL_Layer/I2C/hal_i2c.c: 56:         if(0X00U == i2c_obj->i2c_cfg.i2c_slew_rate)
  2093   00203E  EE20 F006          	lfsr	2,6
  2094   002042  5045               	movf	MSSP_I2C_Init@i2c_obj^0,w,c
  2095   002044  26D9               	addwf	fsr2l,f,c
  2096   002046  5046               	movf	(MSSP_I2C_Init@i2c_obj+1)^0,w,c
  2097   002048  22DA               	addwfc	fsr2h,f,c
  2098   00204A  B2DF               	btfsc	indf2,1,c
  2099   00204C  EF2A  F010         	goto	u5401
  2100   002050  EF2C  F010         	goto	u5400
  2101   002054                     u5401:
  2102   002054  EF2F  F010         	goto	l6270
  2103   002058                     u5400:
  2104   002058                     
  2105                           ;MCAL_Layer/I2C/hal_i2c.c: 57:         {;MCAL_Layer/I2C/hal_i2c.c: 58:             ((*((
      +                          volatile SSPSTAT_t *)(0xFC7))).SMP=0X00U);
  2106   002058  9EC7               	bcf	199,7,c	;volatile
  2107                           
  2108                           ;MCAL_Layer/I2C/hal_i2c.c: 59:         }
  2109   00205A  EF3D  F010         	goto	l6274
  2110   00205E                     l6270:
  2111   00205E  EE20 F006          	lfsr	2,6
  2112   002062  5045               	movf	MSSP_I2C_Init@i2c_obj^0,w,c
  2113   002064  26D9               	addwf	fsr2l,f,c
  2114   002066  5046               	movf	(MSSP_I2C_Init@i2c_obj+1)^0,w,c
  2115   002068  22DA               	addwfc	fsr2h,f,c
  2116   00206A  A2DF               	btfss	indf2,1,c
  2117   00206C  EF3A  F010         	goto	u5411
  2118   002070  EF3C  F010         	goto	u5410
  2119   002074                     u5411:
  2120   002074  EF3D  F010         	goto	l6274
  2121   002078                     u5410:
  2122   002078                     
  2123                           ;MCAL_Layer/I2C/hal_i2c.c: 61:         {;MCAL_Layer/I2C/hal_i2c.c: 62:             ((*((
      +                          volatile SSPSTAT_t *)(0xFC7))).SMP=0X01U);
  2124   002078  8EC7               	bsf	199,7,c	;volatile
  2125   00207A                     l6274:
  2126                           
  2127                           ;MCAL_Layer/I2C/hal_i2c.c: 66:         if(0X01U == i2c_obj->i2c_cfg.i2c_SMBus_control)
  2128   00207A  EE20 F006          	lfsr	2,6
  2129   00207E  5045               	movf	MSSP_I2C_Init@i2c_obj^0,w,c
  2130   002080  26D9               	addwf	fsr2l,f,c
  2131   002082  5046               	movf	(MSSP_I2C_Init@i2c_obj+1)^0,w,c
  2132   002084  22DA               	addwfc	fsr2h,f,c
  2133   002086  A4DF               	btfss	indf2,2,c
  2134   002088  EF48  F010         	goto	u5421
  2135   00208C  EF4A  F010         	goto	u5420
  2136   002090                     u5421:
  2137   002090  EF4D  F010         	goto	l6278
  2138   002094                     u5420:
  2139   002094                     
  2140                           ;MCAL_Layer/I2C/hal_i2c.c: 67:         {;MCAL_Layer/I2C/hal_i2c.c: 68:             ((*((
      +                          volatile SSPSTAT_t *)(0xFC7))).CKE=0X01U);
  2141   002094  8CC7               	bsf	199,6,c	;volatile
  2142                           
  2143                           ;MCAL_Layer/I2C/hal_i2c.c: 69:         }
  2144   002096  EF5B  F010         	goto	l1578
  2145   00209A                     l6278:
  2146   00209A  EE20 F006          	lfsr	2,6
  2147   00209E  5045               	movf	MSSP_I2C_Init@i2c_obj^0,w,c
  2148   0020A0  26D9               	addwf	fsr2l,f,c
  2149   0020A2  5046               	movf	(MSSP_I2C_Init@i2c_obj+1)^0,w,c
  2150   0020A4  22DA               	addwfc	fsr2h,f,c
  2151   0020A6  B4DF               	btfsc	indf2,2,c
  2152   0020A8  EF58  F010         	goto	u5431
  2153   0020AC  EF5A  F010         	goto	u5430
  2154   0020B0                     u5431:
  2155   0020B0  EF5B  F010         	goto	l1578
  2156   0020B4                     u5430:
  2157   0020B4                     
  2158                           ;MCAL_Layer/I2C/hal_i2c.c: 71:         {;MCAL_Layer/I2C/hal_i2c.c: 72:             ((*((
      +                          volatile SSPSTAT_t *)(0xFC7))).CKE=0X00U);
  2159   0020B4  9CC7               	bcf	199,6,c	;volatile
  2160   0020B6                     l1578:
  2161                           
  2162                           ;MCAL_Layer/I2C/hal_i2c.c: 80:         ((*((volatile SSPCON1_t *)(0xFC6))).SSPEN=1);
  2163   0020B6  8AC6               	bsf	198,5,c	;volatile
  2164   0020B8                     l1581:
  2165   0020B8  0012               	return		;funcret
  2166   0020BA                     __end_of_MSSP_I2C_Init:
  2167                           	callstack 0
  2168                           
  2169 ;; *************** function _MSSP_I2C_Mode_GPIO_CFG *****************
  2170 ;; Defined at:
  2171 ;;		line 233 in file "MCAL_Layer/I2C/hal_i2c.c"
  2172 ;; Parameters:    Size  Location     Type
  2173 ;;		None
  2174 ;; Auto vars:     Size  Location     Type
  2175 ;;		None
  2176 ;; Return value:  Size  Location     Type
  2177 ;;                  1    wreg      void 
  2178 ;; Registers used:
  2179 ;;		status,2, status,0
  2180 ;; Tracked objects:
  2181 ;;		On entry : 0/0
  2182 ;;		On exit  : 0/0
  2183 ;;		Unchanged: 0/0
  2184 ;; Data sizes:     COMRAM   BANK0   BANK1   BANK2   BANK3   BANK4   BANK5   BANK6   BANK7   BANK8   BANK9  BANK10  BANK1
      +1  BANK12  BANK13  BANK14  BANK15
  2185 ;;      Params:         0       0       0       0       0       0       0       0       0       0       0       0       
      +0       0       0       0       0
  2186 ;;      Locals:         0       0       0       0       0       0       0       0       0       0       0       0       
      +0       0       0       0       0
  2187 ;;      Temps:          0       0       0       0       0       0       0       0       0       0       0       0       
      +0       0       0       0       0
  2188 ;;      Totals:         0       0       0       0       0       0       0       0       0       0       0       0       
      +0       0       0       0       0
  2189 ;;Total ram usage:        0 bytes
  2190 ;; Hardware stack levels used: 1
  2191 ;; Hardware stack levels required when called: 2
  2192 ;; This function calls:
  2193 ;;		Nothing
  2194 ;; This function is called by:
  2195 ;;		_MSSP_I2C_Init
  2196 ;; This function uses a non-reentrant model
  2197 ;;
  2198                           
  2199                           	psect	text12
  2200   002640                     __ptext12:
  2201                           	callstack 0
  2202   002640                     _MSSP_I2C_Mode_GPIO_CFG:
  2203                           	callstack 26
  2204   002640                     
  2205                           ;MCAL_Layer/I2C/hal_i2c.c: 235:     (*((volatile uint8*)(0xF94))) |=(1<<3);
  2206   002640  8694               	bsf	148,3,c	;volatile
  2207                           
  2208                           ;MCAL_Layer/I2C/hal_i2c.c: 236:     (*((volatile uint8*)(0xF94))) |=(1<<4);
  2209   002642  8894               	bsf	148,4,c	;volatile
  2210   002644  0012               	return		;funcret
  2211   002646                     __end_of_MSSP_I2C_Mode_GPIO_CFG:
  2212                           	callstack 0
  2213                           
  2214 ;; *************** function _I2C_Slave_Mode_Configurations *****************
  2215 ;; Defined at:
  2216 ;;		line 243 in file "MCAL_Layer/I2C/hal_i2c.c"
  2217 ;; Parameters:    Size  Location     Type
  2218 ;;  i2c_obj         2    0[COMRAM] PTR const struct .
  2219 ;;		 -> i2c_obj(7), 
  2220 ;; Auto vars:     Size  Location     Type
  2221 ;;		None
  2222 ;; Return value:  Size  Location     Type
  2223 ;;                  1    wreg      void 
  2224 ;; Registers used:
  2225 ;;		wreg, fsr2l, fsr2h, status,2, status,0
  2226 ;; Tracked objects:
  2227 ;;		On entry : 0/0
  2228 ;;		On exit  : 0/0
  2229 ;;		Unchanged: 0/0
  2230 ;; Data sizes:     COMRAM   BANK0   BANK1   BANK2   BANK3   BANK4   BANK5   BANK6   BANK7   BANK8   BANK9  BANK10  BANK1
      +1  BANK12  BANK13  BANK14  BANK15
  2231 ;;      Params:         2       0       0       0       0       0       0       0       0       0       0       0       
      +0       0       0       0       0
  2232 ;;      Locals:         0       0       0       0       0       0       0       0       0       0       0       0       
      +0       0       0       0       0
  2233 ;;      Temps:          1       0       0       0       0       0       0       0       0       0       0       0       
      +0       0       0       0       0
  2234 ;;      Totals:         3       0       0       0       0       0       0       0       0       0       0       0       
      +0       0       0       0       0
  2235 ;;Total ram usage:        3 bytes
  2236 ;; Hardware stack levels used: 1
  2237 ;; Hardware stack levels required when called: 2
  2238 ;; This function calls:
  2239 ;;		Nothing
  2240 ;; This function is called by:
  2241 ;;		_MSSP_I2C_Init
  2242 ;; This function uses a non-reentrant model
  2243 ;;
  2244                           
  2245                           	psect	text13
  2246   0025F2                     __ptext13:
  2247                           	callstack 0
  2248   0025F2                     _I2C_Slave_Mode_Configurations:
  2249                           	callstack 26
  2250   0025F2                     
  2251                           ;MCAL_Layer/I2C/hal_i2c.c: 243: static __attribute__((inline)) void I2C_Slave_Mode_Confi
      +                          gurations(const mssp_i2c_t *i2c_obj);MCAL_Layer/I2C/hal_i2c.c: 244: {;MCAL_Layer/I2C/hal
      +                          _i2c.c: 245:     (*((volatile SSPCON1_t *)(0xFC6))).SSPM = i2c_obj->i2c_cfg.i2c_mode_cfg
      +                          ;
  2252   0025F2  EE20 F004          	lfsr	2,4
  2253   0025F6  5001               	movf	I2C_Slave_Mode_Configurations@i2c_obj^0,w,c
  2254   0025F8  26D9               	addwf	fsr2l,f,c
  2255   0025FA  5002               	movf	(I2C_Slave_Mode_Configurations@i2c_obj+1)^0,w,c
  2256   0025FC  22DA               	addwfc	fsr2h,f,c
  2257   0025FE  50DF               	movf	indf2,w,c
  2258   002600  6E03               	movwf	??_I2C_Slave_Mode_Configurations^0,c
  2259   002602  50C6               	movf	198,w,c	;volatile
  2260   002604  1803               	xorwf	??_I2C_Slave_Mode_Configurations^0,w,c
  2261   002606  0BF0               	andlw	-16
  2262   002608  1803               	xorwf	??_I2C_Slave_Mode_Configurations^0,w,c
  2263   00260A  6EC6               	movwf	198,c	;volatile
  2264   00260C  0012               	return		;funcret
  2265   00260E                     __end_of_I2C_Slave_Mode_Configurations:
  2266                           	callstack 0
  2267                           
  2268 ;; *************** function _I2C_Master_Mode_Clock_Configurations *****************
  2269 ;; Defined at:
  2270 ;;		line 238 in file "MCAL_Layer/I2C/hal_i2c.c"
  2271 ;; Parameters:    Size  Location     Type
  2272 ;;  i2c_obj         2   65[COMRAM] PTR const struct .
  2273 ;;		 -> i2c_obj(7), 
  2274 ;; Auto vars:     Size  Location     Type
  2275 ;;		None
  2276 ;; Return value:  Size  Location     Type
  2277 ;;                  1    wreg      void 
  2278 ;; Registers used:
  2279 ;;		wreg, fsr2l, fsr2h, status,2, status,0, cstack
  2280 ;; Tracked objects:
  2281 ;;		On entry : 0/0
  2282 ;;		On exit  : 0/0
  2283 ;;		Unchanged: 0/0
  2284 ;; Data sizes:     COMRAM   BANK0   BANK1   BANK2   BANK3   BANK4   BANK5   BANK6   BANK7   BANK8   BANK9  BANK10  BANK1
      +1  BANK12  BANK13  BANK14  BANK15
  2285 ;;      Params:         2       0       0       0       0       0       0       0       0       0       0       0       
      +0       0       0       0       0
  2286 ;;      Locals:         0       0       0       0       0       0       0       0       0       0       0       0       
      +0       0       0       0       0
  2287 ;;      Temps:          1       0       0       0       0       0       0       0       0       0       0       0       
      +0       0       0       0       0
  2288 ;;      Totals:         3       0       0       0       0       0       0       0       0       0       0       0       
      +0       0       0       0       0
  2289 ;;Total ram usage:        3 bytes
  2290 ;; Hardware stack levels used: 1
  2291 ;; Hardware stack levels required when called: 3
  2292 ;; This function calls:
  2293 ;;		___fladd
  2294 ;;		___fldiv
  2295 ;;		___fltol
  2296 ;;		___xxtofl
  2297 ;; This function is called by:
  2298 ;;		_MSSP_I2C_Init
  2299 ;; This function uses a non-reentrant model
  2300 ;;
  2301                           
  2302                           	psect	text14
  2303   0021C0                     __ptext14:
  2304                           	callstack 0
  2305   0021C0                     _I2C_Master_Mode_Clock_Configurations:
  2306                           	callstack 25
  2307   0021C0                     
  2308                           ;MCAL_Layer/I2C/hal_i2c.c: 238: static __attribute__((inline)) void I2C_Master_Mode_Cloc
      +                          k_Configurations(const mssp_i2c_t *i2c_obj);MCAL_Layer/I2C/hal_i2c.c: 239: {;MCAL_Layer/
      +                          I2C/hal_i2c.c: 240:     (*((volatile SSPCON1_t *)(0xFC6))).SSPM = i2c_obj->i2c_cfg.i2c_m
      +                          ode_cfg;
  2309   0021C0  EE20 F004          	lfsr	2,4
  2310   0021C4  5042               	movf	I2C_Master_Mode_Clock_Configurations@i2c_obj^0,w,c
  2311   0021C6  26D9               	addwf	fsr2l,f,c
  2312   0021C8  5043               	movf	(I2C_Master_Mode_Clock_Configurations@i2c_obj+1)^0,w,c
  2313   0021CA  22DA               	addwfc	fsr2h,f,c
  2314   0021CC  50DF               	movf	indf2,w,c
  2315   0021CE  6E44               	movwf	??_I2C_Master_Mode_Clock_Configurations^0,c
  2316   0021D0  50C6               	movf	198,w,c	;volatile
  2317   0021D2  1844               	xorwf	??_I2C_Master_Mode_Clock_Configurations^0,w,c
  2318   0021D4  0BF0               	andlw	-16
  2319   0021D6  1844               	xorwf	??_I2C_Master_Mode_Clock_Configurations^0,w,c
  2320   0021D8  6EC6               	movwf	198,c	;volatile
  2321   0021DA                     
  2322                           ;MCAL_Layer/I2C/hal_i2c.c: 241:     (*( (volatile uint8 *)(0xFC8) ) ) =(uint8)(((8000000
      +                          UL/4.0)/i2c_obj->i2c_clock)-1);
  2323   0021DA  0E00               	movlw	0
  2324   0021DC  6E2C               	movwf	___fladd@a^0,c
  2325   0021DE  0E00               	movlw	0
  2326   0021E0  6E2D               	movwf	(___fladd@a+1)^0,c
  2327   0021E2  0E80               	movlw	128
  2328   0021E4  6E2E               	movwf	(___fladd@a+2)^0,c
  2329   0021E6  0EBF               	movlw	191
  2330   0021E8  6E2F               	movwf	(___fladd@a+3)^0,c
  2331   0021EA  C042  FFD9         	movff	I2C_Master_Mode_Clock_Configurations@i2c_obj,fsr2l
  2332   0021EE  C043  FFDA         	movff	I2C_Master_Mode_Clock_Configurations@i2c_obj+1,fsr2h
  2333   0021F2  CFDE F001          	movff	postinc2,___xxtofl@val
  2334   0021F6  CFDE F002          	movff	postinc2,___xxtofl@val+1
  2335   0021FA  CFDE F003          	movff	postinc2,___xxtofl@val+2
  2336   0021FE  CFDE F004          	movff	postinc2,___xxtofl@val+3
  2337   002202  0E00               	movlw	0
  2338   002204  EC90  F00D         	call	___xxtofl
  2339   002208  C001  F013         	movff	?___xxtofl,___fldiv@a
  2340   00220C  C002  F014         	movff	?___xxtofl+1,___fldiv@a+1
  2341   002210  C003  F015         	movff	?___xxtofl+2,___fldiv@a+2
  2342   002214  C004  F016         	movff	?___xxtofl+3,___fldiv@a+3
  2343   002218  0E00               	movlw	0
  2344   00221A  6E0F               	movwf	___fldiv@b^0,c
  2345   00221C  0E24               	movlw	36
  2346   00221E  6E10               	movwf	(___fldiv@b+1)^0,c
  2347   002220  0EF4               	movlw	244
  2348   002222  6E11               	movwf	(___fldiv@b+2)^0,c
  2349   002224  0E49               	movlw	73
  2350   002226  6E12               	movwf	(___fldiv@b+3)^0,c
  2351   002228  EC6B  F00A         	call	___fldiv	;wreg free
  2352   00222C  C00F  F028         	movff	?___fldiv,___fladd@b
  2353   002230  C010  F029         	movff	?___fldiv+1,___fladd@b+1
  2354   002234  C011  F02A         	movff	?___fldiv+2,___fladd@b+2
  2355   002238  C012  F02B         	movff	?___fldiv+3,___fladd@b+3
  2356   00223C  EC0B  F008         	call	___fladd	;wreg free
  2357   002240  C028  F038         	movff	?___fladd,___fltol@f1
  2358   002244  C029  F039         	movff	?___fladd+1,___fltol@f1+1
  2359   002248  C02A  F03A         	movff	?___fladd+2,___fltol@f1+2
  2360   00224C  C02B  F03B         	movff	?___fladd+3,___fltol@f1+3
  2361   002250  EC5D  F010         	call	___fltol	;wreg free
  2362   002254  5038               	movf	?___fltol^0,w,c
  2363   002256  6EC8               	movwf	200,c	;volatile
  2364   002258  0012               	return		;funcret
  2365   00225A                     __end_of_I2C_Master_Mode_Clock_Configurations:
  2366                           	callstack 0
  2367                           
  2368 ;; *************** function ___xxtofl *****************
  2369 ;; Defined at:
  2370 ;;		line 10 in file "C:\Program Files\Microchip\xc8\v2.41\pic\sources\c99\common\xxtofl.c"
  2371 ;; Parameters:    Size  Location     Type
  2372 ;;  sign            1    wreg     unsigned char 
  2373 ;;  val             4    0[COMRAM] long 
  2374 ;; Auto vars:     Size  Location     Type
  2375 ;;  sign            1    8[COMRAM] unsigned char 
  2376 ;;  arg             4   10[COMRAM] unsigned long 
  2377 ;;  exp             1    9[COMRAM] unsigned char 
  2378 ;; Return value:  Size  Location     Type
  2379 ;;                  4    0[COMRAM] unsigned char 
  2380 ;; Registers used:
  2381 ;;		wreg, status,2, status,0
  2382 ;; Tracked objects:
  2383 ;;		On entry : 0/0
  2384 ;;		On exit  : 0/0
  2385 ;;		Unchanged: 0/0
  2386 ;; Data sizes:     COMRAM   BANK0   BANK1   BANK2   BANK3   BANK4   BANK5   BANK6   BANK7   BANK8   BANK9  BANK10  BANK1
      +1  BANK12  BANK13  BANK14  BANK15
  2387 ;;      Params:         4       0       0       0       0       0       0       0       0       0       0       0       
      +0       0       0       0       0
  2388 ;;      Locals:         6       0       0       0       0       0       0       0       0       0       0       0       
      +0       0       0       0       0
  2389 ;;      Temps:          4       0       0       0       0       0       0       0       0       0       0       0       
      +0       0       0       0       0
  2390 ;;      Totals:        14       0       0       0       0       0       0       0       0       0       0       0       
      +0       0       0       0       0
  2391 ;;Total ram usage:       14 bytes
  2392 ;; Hardware stack levels used: 1
  2393 ;; Hardware stack levels required when called: 2
  2394 ;; This function calls:
  2395 ;;		Nothing
  2396 ;; This function is called by:
  2397 ;;		_I2C_Master_Mode_Clock_Configurations
  2398 ;;		_EUSART_Baud_Rate_Calcualtion
  2399 ;; This function uses a non-reentrant model
  2400 ;;
  2401                           
  2402                           	psect	text15
  2403   001B20                     __ptext15:
  2404                           	callstack 0
  2405   001B20                     ___xxtofl:
  2406                           	callstack 25
  2407                           
  2408                           ;incstack = 0
  2409                           ;___xxtofl@sign stored from wreg
  2410   001B20  6E09               	movwf	___xxtofl@sign^0,c
  2411   001B22  5009               	movf	___xxtofl@sign^0,w,c
  2412   001B24  B4D8               	btfsc	status,2,c
  2413   001B26  EF97  F00D         	goto	u5111
  2414   001B2A  EF99  F00D         	goto	u5110
  2415   001B2E                     u5111:
  2416   001B2E  EFBB  F00D         	goto	l2313
  2417   001B32                     u5110:
  2418   001B32  BE04               	btfsc	(___xxtofl@val+3)^0,7,c
  2419   001B34  EFA0  F00D         	goto	u5120
  2420   001B38  EF9E  F00D         	goto	u5121
  2421   001B3C                     u5121:
  2422   001B3C  EFBB  F00D         	goto	l2313
  2423   001B40                     u5120:
  2424   001B40  C001  F005         	movff	___xxtofl@val,??___xxtofl
  2425   001B44  C002  F006         	movff	___xxtofl@val+1,??___xxtofl+1
  2426   001B48  C003  F007         	movff	___xxtofl@val+2,??___xxtofl+2
  2427   001B4C  C004  F008         	movff	___xxtofl@val+3,??___xxtofl+3
  2428   001B50  1E05               	comf	??___xxtofl^0,f,c
  2429   001B52  1E06               	comf	(??___xxtofl+1)^0,f,c
  2430   001B54  1E07               	comf	(??___xxtofl+2)^0,f,c
  2431   001B56  1E08               	comf	(??___xxtofl+3)^0,f,c
  2432   001B58  2A05               	incf	??___xxtofl^0,f,c
  2433   001B5A  0E00               	movlw	0
  2434   001B5C  2206               	addwfc	(??___xxtofl+1)^0,f,c
  2435   001B5E  2207               	addwfc	(??___xxtofl+2)^0,f,c
  2436   001B60  2208               	addwfc	(??___xxtofl+3)^0,f,c
  2437   001B62  C005  F00B         	movff	??___xxtofl,___xxtofl@arg
  2438   001B66  C006  F00C         	movff	??___xxtofl+1,___xxtofl@arg+1
  2439   001B6A  C007  F00D         	movff	??___xxtofl+2,___xxtofl@arg+2
  2440   001B6E  C008  F00E         	movff	??___xxtofl+3,___xxtofl@arg+3
  2441   001B72  EFC3  F00D         	goto	l6066
  2442   001B76                     l2313:
  2443   001B76  C001  F00B         	movff	___xxtofl@val,___xxtofl@arg
  2444   001B7A  C002  F00C         	movff	___xxtofl@val+1,___xxtofl@arg+1
  2445   001B7E  C003  F00D         	movff	___xxtofl@val+2,___xxtofl@arg+2
  2446   001B82  C004  F00E         	movff	___xxtofl@val+3,___xxtofl@arg+3
  2447   001B86                     l6066:
  2448   001B86  5001               	movf	___xxtofl@val^0,w,c
  2449   001B88  1002               	iorwf	(___xxtofl@val+1)^0,w,c
  2450   001B8A  1003               	iorwf	(___xxtofl@val+2)^0,w,c
  2451   001B8C  1004               	iorwf	(___xxtofl@val+3)^0,w,c
  2452   001B8E  A4D8               	btfss	status,2,c
  2453   001B90  EFCC  F00D         	goto	u5131
  2454   001B94  EFCE  F00D         	goto	u5130
  2455   001B98                     u5131:
  2456   001B98  EFD8  F00D         	goto	l6072
  2457   001B9C                     u5130:
  2458   001B9C  0E00               	movlw	0
  2459   001B9E  6E01               	movwf	?___xxtofl^0,c
  2460   001BA0  0E00               	movlw	0
  2461   001BA2  6E02               	movwf	(?___xxtofl+1)^0,c
  2462   001BA4  0E00               	movlw	0
  2463   001BA6  6E03               	movwf	(?___xxtofl+2)^0,c
  2464   001BA8  0E00               	movlw	0
  2465   001BAA  6E04               	movwf	(?___xxtofl+3)^0,c
  2466   001BAC  EF69  F00E         	goto	l2316
  2467   001BB0                     l6072:
  2468   001BB0  0E96               	movlw	150
  2469   001BB2  6E0A               	movwf	___xxtofl@exp^0,c
  2470   001BB4  EFE2  F00D         	goto	l6076
  2471   001BB8                     l6074:
  2472   001BB8  2A0A               	incf	___xxtofl@exp^0,f,c
  2473   001BBA  90D8               	bcf	status,0,c
  2474   001BBC  320E               	rrcf	(___xxtofl@arg+3)^0,f,c
  2475   001BBE  320D               	rrcf	(___xxtofl@arg+2)^0,f,c
  2476   001BC0  320C               	rrcf	(___xxtofl@arg+1)^0,f,c
  2477   001BC2  320B               	rrcf	___xxtofl@arg^0,f,c
  2478   001BC4                     l6076:
  2479   001BC4  0E00               	movlw	0
  2480   001BC6  140B               	andwf	___xxtofl@arg^0,w,c
  2481   001BC8  6E05               	movwf	??___xxtofl^0,c
  2482   001BCA  0E00               	movlw	0
  2483   001BCC  140C               	andwf	(___xxtofl@arg+1)^0,w,c
  2484   001BCE  6E06               	movwf	(??___xxtofl+1)^0,c
  2485   001BD0  0E00               	movlw	0
  2486   001BD2  140D               	andwf	(___xxtofl@arg+2)^0,w,c
  2487   001BD4  6E07               	movwf	(??___xxtofl+2)^0,c
  2488   001BD6  0EFE               	movlw	254
  2489   001BD8  140E               	andwf	(___xxtofl@arg+3)^0,w,c
  2490   001BDA  6E08               	movwf	(??___xxtofl+3)^0,c
  2491   001BDC  5005               	movf	??___xxtofl^0,w,c
  2492   001BDE  1006               	iorwf	(??___xxtofl+1)^0,w,c
  2493   001BE0  1007               	iorwf	(??___xxtofl+2)^0,w,c
  2494   001BE2  1008               	iorwf	(??___xxtofl+3)^0,w,c
  2495   001BE4  A4D8               	btfss	status,2,c
  2496   001BE6  EFF7  F00D         	goto	u5141
  2497   001BEA  EFF9  F00D         	goto	u5140
  2498   001BEE                     u5141:
  2499   001BEE  EFDC  F00D         	goto	l6074
  2500   001BF2                     u5140:
  2501   001BF2  EF07  F00E         	goto	l2320
  2502   001BF6                     l6078:
  2503   001BF6  2A0A               	incf	___xxtofl@exp^0,f,c
  2504   001BF8  0E01               	movlw	1
  2505   001BFA  260B               	addwf	___xxtofl@arg^0,f,c
  2506   001BFC  0E00               	movlw	0
  2507   001BFE  220C               	addwfc	(___xxtofl@arg+1)^0,f,c
  2508   001C00  220D               	addwfc	(___xxtofl@arg+2)^0,f,c
  2509   001C02  220E               	addwfc	(___xxtofl@arg+3)^0,f,c
  2510   001C04  90D8               	bcf	status,0,c
  2511   001C06  320E               	rrcf	(___xxtofl@arg+3)^0,f,c
  2512   001C08  320D               	rrcf	(___xxtofl@arg+2)^0,f,c
  2513   001C0A  320C               	rrcf	(___xxtofl@arg+1)^0,f,c
  2514   001C0C  320B               	rrcf	___xxtofl@arg^0,f,c
  2515   001C0E                     l2320:
  2516   001C0E  0E00               	movlw	0
  2517   001C10  140B               	andwf	___xxtofl@arg^0,w,c
  2518   001C12  6E05               	movwf	??___xxtofl^0,c
  2519   001C14  0E00               	movlw	0
  2520   001C16  140C               	andwf	(___xxtofl@arg+1)^0,w,c
  2521   001C18  6E06               	movwf	(??___xxtofl+1)^0,c
  2522   001C1A  0E00               	movlw	0
  2523   001C1C  140D               	andwf	(___xxtofl@arg+2)^0,w,c
  2524   001C1E  6E07               	movwf	(??___xxtofl+2)^0,c
  2525   001C20  0EFF               	movlw	255
  2526   001C22  140E               	andwf	(___xxtofl@arg+3)^0,w,c
  2527   001C24  6E08               	movwf	(??___xxtofl+3)^0,c
  2528   001C26  5005               	movf	??___xxtofl^0,w,c
  2529   001C28  1006               	iorwf	(??___xxtofl+1)^0,w,c
  2530   001C2A  1007               	iorwf	(??___xxtofl+2)^0,w,c
  2531   001C2C  1008               	iorwf	(??___xxtofl+3)^0,w,c
  2532   001C2E  A4D8               	btfss	status,2,c
  2533   001C30  EF1C  F00E         	goto	u5151
  2534   001C34  EF1E  F00E         	goto	u5150
  2535   001C38                     u5151:
  2536   001C38  EFFB  F00D         	goto	l6078
  2537   001C3C                     u5150:
  2538   001C3C  EF26  F00E         	goto	l6086
  2539   001C40                     l6084:
  2540   001C40  060A               	decf	___xxtofl@exp^0,f,c
  2541   001C42  90D8               	bcf	status,0,c
  2542   001C44  360B               	rlcf	___xxtofl@arg^0,f,c
  2543   001C46  360C               	rlcf	(___xxtofl@arg+1)^0,f,c
  2544   001C48  360D               	rlcf	(___xxtofl@arg+2)^0,f,c
  2545   001C4A  360E               	rlcf	(___xxtofl@arg+3)^0,f,c
  2546   001C4C                     l6086:
  2547   001C4C  BE0D               	btfsc	(___xxtofl@arg+2)^0,7,c
  2548   001C4E  EF2B  F00E         	goto	u5161
  2549   001C52  EF2D  F00E         	goto	u5160
  2550   001C56                     u5161:
  2551   001C56  EF35  F00E         	goto	l2327
  2552   001C5A                     u5160:
  2553   001C5A  0E02               	movlw	2
  2554   001C5C  600A               	cpfslt	___xxtofl@exp^0,c
  2555   001C5E  EF33  F00E         	goto	u5171
  2556   001C62  EF35  F00E         	goto	u5170
  2557   001C66                     u5171:
  2558   001C66  EF20  F00E         	goto	l6084
  2559   001C6A                     u5170:
  2560   001C6A                     l2327:
  2561   001C6A  B00A               	btfsc	___xxtofl@exp^0,0,c
  2562   001C6C  EF3A  F00E         	goto	u5181
  2563   001C70  EF3C  F00E         	goto	u5180
  2564   001C74                     u5181:
  2565   001C74  EF3D  F00E         	goto	l6092
  2566   001C78                     u5180:
  2567   001C78  9E0D               	bcf	(___xxtofl@arg+2)^0,7,c
  2568   001C7A                     l6092:
  2569   001C7A  90D8               	bcf	status,0,c
  2570   001C7C  320A               	rrcf	___xxtofl@exp^0,f,c
  2571   001C7E  C00A  F005         	movff	___xxtofl@exp,??___xxtofl
  2572   001C82  6A06               	clrf	(??___xxtofl+1)^0,c
  2573   001C84  6A07               	clrf	(??___xxtofl+2)^0,c
  2574   001C86  6A08               	clrf	(??___xxtofl+3)^0,c
  2575   001C88  C005  F008         	movff	??___xxtofl,??___xxtofl+3
  2576   001C8C  6A07               	clrf	(??___xxtofl+2)^0,c
  2577   001C8E  6A06               	clrf	(??___xxtofl+1)^0,c
  2578   001C90  6A05               	clrf	??___xxtofl^0,c
  2579   001C92  5005               	movf	??___xxtofl^0,w,c
  2580   001C94  120B               	iorwf	___xxtofl@arg^0,f,c
  2581   001C96  5006               	movf	(??___xxtofl+1)^0,w,c
  2582   001C98  120C               	iorwf	(___xxtofl@arg+1)^0,f,c
  2583   001C9A  5007               	movf	(??___xxtofl+2)^0,w,c
  2584   001C9C  120D               	iorwf	(___xxtofl@arg+2)^0,f,c
  2585   001C9E  5008               	movf	(??___xxtofl+3)^0,w,c
  2586   001CA0  120E               	iorwf	(___xxtofl@arg+3)^0,f,c
  2587   001CA2  5009               	movf	___xxtofl@sign^0,w,c
  2588   001CA4  B4D8               	btfsc	status,2,c
  2589   001CA6  EF57  F00E         	goto	u5191
  2590   001CAA  EF59  F00E         	goto	u5190
  2591   001CAE                     u5191:
  2592   001CAE  EF61  F00E         	goto	l6102
  2593   001CB2                     u5190:
  2594   001CB2  BE04               	btfsc	(___xxtofl@val+3)^0,7,c
  2595   001CB4  EF60  F00E         	goto	u5200
  2596   001CB8  EF5E  F00E         	goto	u5201
  2597   001CBC                     u5201:
  2598   001CBC  EF61  F00E         	goto	l6102
  2599   001CC0                     u5200:
  2600   001CC0  8E0E               	bsf	(___xxtofl@arg+3)^0,7,c
  2601   001CC2                     l6102:
  2602   001CC2  C00B  F001         	movff	___xxtofl@arg,?___xxtofl
  2603   001CC6  C00C  F002         	movff	___xxtofl@arg+1,?___xxtofl+1
  2604   001CCA  C00D  F003         	movff	___xxtofl@arg+2,?___xxtofl+2
  2605   001CCE  C00E  F004         	movff	___xxtofl@arg+3,?___xxtofl+3
  2606   001CD2                     l2316:
  2607   001CD2  0012               	return		;funcret
  2608   001CD4                     __end_of___xxtofl:
  2609                           	callstack 0
  2610                           
  2611 ;; *************** function ___fltol *****************
  2612 ;; Defined at:
  2613 ;;		line 43 in file "C:\Program Files\Microchip\xc8\v2.41\pic\sources\c99\common\fltol.c"
  2614 ;; Parameters:    Size  Location     Type
  2615 ;;  f1              4   55[COMRAM] unsigned char 
  2616 ;; Auto vars:     Size  Location     Type
  2617 ;;  exp1            1   64[COMRAM] unsigned char 
  2618 ;;  sign1           1   63[COMRAM] unsigned char 
  2619 ;; Return value:  Size  Location     Type
  2620 ;;                  4   55[COMRAM] long 
  2621 ;; Registers used:
  2622 ;;		wreg, status,2, status,0
  2623 ;; Tracked objects:
  2624 ;;		On entry : 0/0
  2625 ;;		On exit  : 0/0
  2626 ;;		Unchanged: 0/0
  2627 ;; Data sizes:     COMRAM   BANK0   BANK1   BANK2   BANK3   BANK4   BANK5   BANK6   BANK7   BANK8   BANK9  BANK10  BANK1
      +1  BANK12  BANK13  BANK14  BANK15
  2628 ;;      Params:         4       0       0       0       0       0       0       0       0       0       0       0       
      +0       0       0       0       0
  2629 ;;      Locals:         2       0       0       0       0       0       0       0       0       0       0       0       
      +0       0       0       0       0
  2630 ;;      Temps:          4       0       0       0       0       0       0       0       0       0       0       0       
      +0       0       0       0       0
  2631 ;;      Totals:        10       0       0       0       0       0       0       0       0       0       0       0       
      +0       0       0       0       0
  2632 ;;Total ram usage:       10 bytes
  2633 ;; Hardware stack levels used: 1
  2634 ;; Hardware stack levels required when called: 2
  2635 ;; This function calls:
  2636 ;;		Nothing
  2637 ;; This function is called by:
  2638 ;;		_I2C_Master_Mode_Clock_Configurations
  2639 ;;		_EUSART_Baud_Rate_Calcualtion
  2640 ;; This function uses a non-reentrant model
  2641 ;;
  2642                           
  2643                           	psect	text16
  2644   0020BA                     __ptext16:
  2645                           	callstack 0
  2646   0020BA                     ___fltol:
  2647                           	callstack 25
  2648   0020BA  343A               	rlcf	(___fltol@f1+2)^0,w,c
  2649   0020BC  343B               	rlcf	(___fltol@f1+3)^0,w,c
  2650   0020BE  6E41               	movwf	___fltol@exp1^0,c
  2651   0020C0  5041               	movf	___fltol@exp1^0,w,c
  2652   0020C2  A4D8               	btfss	status,2,c
  2653   0020C4  EF66  F010         	goto	u5041
  2654   0020C8  EF68  F010         	goto	u5040
  2655   0020CC                     u5041:
  2656   0020CC  EF72  F010         	goto	l6022
  2657   0020D0                     u5040:
  2658   0020D0                     l6018:
  2659   0020D0  0E00               	movlw	0
  2660   0020D2  6E38               	movwf	?___fltol^0,c
  2661   0020D4  0E00               	movlw	0
  2662   0020D6  6E39               	movwf	(?___fltol+1)^0,c
  2663   0020D8  0E00               	movlw	0
  2664   0020DA  6E3A               	movwf	(?___fltol+2)^0,c
  2665   0020DC  0E00               	movlw	0
  2666   0020DE  6E3B               	movwf	(?___fltol+3)^0,c
  2667   0020E0  EFDF  F010         	goto	l1955
  2668   0020E4                     l6022:
  2669   0020E4  C038  F03C         	movff	___fltol@f1,??___fltol
  2670   0020E8  C039  F03D         	movff	___fltol@f1+1,??___fltol+1
  2671   0020EC  C03A  F03E         	movff	___fltol@f1+2,??___fltol+2
  2672   0020F0  C03B  F03F         	movff	___fltol@f1+3,??___fltol+3
  2673   0020F4  0E20               	movlw	32
  2674   0020F6  EF82  F010         	goto	u5050
  2675   0020FA                     u5055:
  2676   0020FA  90D8               	bcf	status,0,c
  2677   0020FC  323F               	rrcf	(??___fltol+3)^0,f,c
  2678   0020FE  323E               	rrcf	(??___fltol+2)^0,f,c
  2679   002100  323D               	rrcf	(??___fltol+1)^0,f,c
  2680   002102  323C               	rrcf	??___fltol^0,f,c
  2681   002104                     u5050:
  2682   002104  2EE8               	decfsz	wreg,f,c
  2683   002106  EF7D  F010         	goto	u5055
  2684   00210A  503C               	movf	??___fltol^0,w,c
  2685   00210C  6E40               	movwf	___fltol@sign1^0,c
  2686   00210E  8E3A               	bsf	(___fltol@f1+2)^0,7,c
  2687   002110  0EFF               	movlw	255
  2688   002112  1638               	andwf	___fltol@f1^0,f,c
  2689   002114  0EFF               	movlw	255
  2690   002116  1639               	andwf	(___fltol@f1+1)^0,f,c
  2691   002118  0EFF               	movlw	255
  2692   00211A  163A               	andwf	(___fltol@f1+2)^0,f,c
  2693   00211C  0E00               	movlw	0
  2694   00211E  163B               	andwf	(___fltol@f1+3)^0,f,c
  2695   002120  0E96               	movlw	150
  2696   002122  5E41               	subwf	___fltol@exp1^0,f,c
  2697   002124  BE41               	btfsc	___fltol@exp1^0,7,c
  2698   002126  EF99  F010         	goto	u5060
  2699   00212A  EF97  F010         	goto	u5061
  2700   00212E                     u5061:
  2701   00212E  EFAF  F010         	goto	l6042
  2702   002132                     u5060:
  2703   002132  5041               	movf	___fltol@exp1^0,w,c
  2704   002134  0A80               	xorlw	128
  2705   002136  0F97               	addlw	151
  2706   002138  B0D8               	btfsc	status,0,c
  2707   00213A  EFA1  F010         	goto	u5071
  2708   00213E  EFA3  F010         	goto	u5070
  2709   002142                     u5071:
  2710   002142  EFA5  F010         	goto	l6038
  2711   002146                     u5070:
  2712   002146  EF68  F010         	goto	l6018
  2713   00214A                     l6038:
  2714   00214A  90D8               	bcf	status,0,c
  2715   00214C  323B               	rrcf	(___fltol@f1+3)^0,f,c
  2716   00214E  323A               	rrcf	(___fltol@f1+2)^0,f,c
  2717   002150  3239               	rrcf	(___fltol@f1+1)^0,f,c
  2718   002152  3238               	rrcf	___fltol@f1^0,f,c
  2719   002154  3E41               	incfsz	___fltol@exp1^0,f,c
  2720   002156  EFA5  F010         	goto	l6038
  2721   00215A  EFC7  F010         	goto	l6052
  2722   00215E                     l6042:
  2723   00215E  0E1F               	movlw	31
  2724   002160  6441               	cpfsgt	___fltol@exp1^0,c
  2725   002162  EFB5  F010         	goto	u5081
  2726   002166  EFB7  F010         	goto	u5080
  2727   00216A                     u5081:
  2728   00216A  EFBF  F010         	goto	l6050
  2729   00216E                     u5080:
  2730   00216E  EF68  F010         	goto	l6018
  2731   002172                     l6048:
  2732   002172  90D8               	bcf	status,0,c
  2733   002174  3638               	rlcf	___fltol@f1^0,f,c
  2734   002176  3639               	rlcf	(___fltol@f1+1)^0,f,c
  2735   002178  363A               	rlcf	(___fltol@f1+2)^0,f,c
  2736   00217A  363B               	rlcf	(___fltol@f1+3)^0,f,c
  2737   00217C  0641               	decf	___fltol@exp1^0,f,c
  2738   00217E                     l6050:
  2739   00217E  5041               	movf	___fltol@exp1^0,w,c
  2740   002180  A4D8               	btfss	status,2,c
  2741   002182  EFC5  F010         	goto	u5091
  2742   002186  EFC7  F010         	goto	u5090
  2743   00218A                     u5091:
  2744   00218A  EFB9  F010         	goto	l6048
  2745   00218E                     u5090:
  2746   00218E                     l6052:
  2747   00218E  5040               	movf	___fltol@sign1^0,w,c
  2748   002190  B4D8               	btfsc	status,2,c
  2749   002192  EFCD  F010         	goto	u5101
  2750   002196  EFCF  F010         	goto	u5100
  2751   00219A                     u5101:
  2752   00219A  EFD7  F010         	goto	l6056
  2753   00219E                     u5100:
  2754   00219E  1E3B               	comf	(___fltol@f1+3)^0,f,c
  2755   0021A0  1E3A               	comf	(___fltol@f1+2)^0,f,c
  2756   0021A2  1E39               	comf	(___fltol@f1+1)^0,f,c
  2757   0021A4  6C38               	negf	___fltol@f1^0,c
  2758   0021A6  0E00               	movlw	0
  2759   0021A8  2239               	addwfc	(___fltol@f1+1)^0,f,c
  2760   0021AA  223A               	addwfc	(___fltol@f1+2)^0,f,c
  2761   0021AC  223B               	addwfc	(___fltol@f1+3)^0,f,c
  2762   0021AE                     l6056:
  2763   0021AE  C038  F038         	movff	___fltol@f1,?___fltol
  2764   0021B2  C039  F039         	movff	___fltol@f1+1,?___fltol+1
  2765   0021B6  C03A  F03A         	movff	___fltol@f1+2,?___fltol+2
  2766   0021BA  C03B  F03B         	movff	___fltol@f1+3,?___fltol+3
  2767   0021BE                     l1955:
  2768   0021BE  0012               	return		;funcret
  2769   0021C0                     __end_of___fltol:
  2770                           	callstack 0
  2771                           
  2772 ;; *************** function ___fldiv *****************
  2773 ;; Defined at:
  2774 ;;		line 11 in file "C:\Program Files\Microchip\xc8\v2.41\pic\sources\c99\common\sprcdiv.c"
  2775 ;; Parameters:    Size  Location     Type
  2776 ;;  b               4   14[COMRAM] long 
  2777 ;;  a               4   18[COMRAM] long 
  2778 ;; Auto vars:     Size  Location     Type
  2779 ;;  grs             4   33[COMRAM] unsigned long 
  2780 ;;  rem             4   26[COMRAM] unsigned long 
  2781 ;;  new_exp         2   31[COMRAM] short 
  2782 ;;  aexp            1   38[COMRAM] unsigned char 
  2783 ;;  bexp            1   37[COMRAM] unsigned char 
  2784 ;;  sign            1   30[COMRAM] unsigned char 
  2785 ;; Return value:  Size  Location     Type
  2786 ;;                  4   14[COMRAM] unsigned char 
  2787 ;; Registers used:
  2788 ;;		wreg, status,2, status,0
  2789 ;; Tracked objects:
  2790 ;;		On entry : 0/0
  2791 ;;		On exit  : 0/0
  2792 ;;		Unchanged: 0/0
  2793 ;; Data sizes:     COMRAM   BANK0   BANK1   BANK2   BANK3   BANK4   BANK5   BANK6   BANK7   BANK8   BANK9  BANK10  BANK1
      +1  BANK12  BANK13  BANK14  BANK15
  2794 ;;      Params:         8       0       0       0       0       0       0       0       0       0       0       0       
      +0       0       0       0       0
  2795 ;;      Locals:        13       0       0       0       0       0       0       0       0       0       0       0       
      +0       0       0       0       0
  2796 ;;      Temps:          4       0       0       0       0       0       0       0       0       0       0       0       
      +0       0       0       0       0
  2797 ;;      Totals:        25       0       0       0       0       0       0       0       0       0       0       0       
      +0       0       0       0       0
  2798 ;;Total ram usage:       25 bytes
  2799 ;; Hardware stack levels used: 1
  2800 ;; Hardware stack levels required when called: 2
  2801 ;; This function calls:
  2802 ;;		Nothing
  2803 ;; This function is called by:
  2804 ;;		_I2C_Master_Mode_Clock_Configurations
  2805 ;;		_EUSART_Baud_Rate_Calcualtion
  2806 ;; This function uses a non-reentrant model
  2807 ;;
  2808                           
  2809                           	psect	text17
  2810   0014D6                     __ptext17:
  2811                           	callstack 0
  2812   0014D6                     ___fldiv:
  2813                           	callstack 25
  2814   0014D6  5012               	movf	(___fldiv@b+3)^0,w,c
  2815   0014D8  0B80               	andlw	128
  2816   0014DA  6E1F               	movwf	___fldiv@sign^0,c
  2817   0014DC  5012               	movf	(___fldiv@b+3)^0,w,c
  2818   0014DE  2412               	addwf	(___fldiv@b+3)^0,w,c
  2819   0014E0  6E26               	movwf	___fldiv@bexp^0,c
  2820   0014E2  AE11               	btfss	(___fldiv@b+2)^0,7,c
  2821   0014E4  EF76  F00A         	goto	u4811
  2822   0014E8  EF78  F00A         	goto	u4810
  2823   0014EC                     u4811:
  2824   0014EC  EF79  F00A         	goto	l5884
  2825   0014F0                     u4810:
  2826   0014F0  8026               	bsf	___fldiv@bexp^0,0,c
  2827   0014F2                     l5884:
  2828   0014F2  5026               	movf	___fldiv@bexp^0,w,c
  2829   0014F4  B4D8               	btfsc	status,2,c
  2830   0014F6  EF7F  F00A         	goto	u4821
  2831   0014FA  EF81  F00A         	goto	u4820
  2832   0014FE                     u4821:
  2833   0014FE  EF96  F00A         	goto	l5894
  2834   001502                     u4820:
  2835   001502  2826               	incf	___fldiv@bexp^0,w,c
  2836   001504  A4D8               	btfss	status,2,c
  2837   001506  EF87  F00A         	goto	u4831
  2838   00150A  EF89  F00A         	goto	u4830
  2839   00150E                     u4831:
  2840   00150E  EF91  F00A         	goto	l5890
  2841   001512                     u4830:
  2842   001512  0E00               	movlw	0
  2843   001514  6E0F               	movwf	___fldiv@b^0,c
  2844   001516  0E00               	movlw	0
  2845   001518  6E10               	movwf	(___fldiv@b+1)^0,c
  2846   00151A  0E00               	movlw	0
  2847   00151C  6E11               	movwf	(___fldiv@b+2)^0,c
  2848   00151E  0E00               	movlw	0
  2849   001520  6E12               	movwf	(___fldiv@b+3)^0,c
  2850   001522                     l5890:
  2851   001522  8E11               	bsf	(___fldiv@b+2)^0,7,c
  2852   001524  0E00               	movlw	0
  2853   001526  6E12               	movwf	(___fldiv@b+3)^0,c
  2854   001528  EF9E  F00A         	goto	l5896
  2855   00152C                     l5894:
  2856   00152C  0E00               	movlw	0
  2857   00152E  6E0F               	movwf	___fldiv@b^0,c
  2858   001530  0E00               	movlw	0
  2859   001532  6E10               	movwf	(___fldiv@b+1)^0,c
  2860   001534  0E00               	movlw	0
  2861   001536  6E11               	movwf	(___fldiv@b+2)^0,c
  2862   001538  0E00               	movlw	0
  2863   00153A  6E12               	movwf	(___fldiv@b+3)^0,c
  2864   00153C                     l5896:
  2865   00153C  5016               	movf	(___fldiv@a+3)^0,w,c
  2866   00153E  0B80               	andlw	128
  2867   001540  1A1F               	xorwf	___fldiv@sign^0,f,c
  2868   001542  5016               	movf	(___fldiv@a+3)^0,w,c
  2869   001544  2416               	addwf	(___fldiv@a+3)^0,w,c
  2870   001546  6E27               	movwf	___fldiv@aexp^0,c
  2871   001548  AE15               	btfss	(___fldiv@a+2)^0,7,c
  2872   00154A  EFA9  F00A         	goto	u4841
  2873   00154E  EFAB  F00A         	goto	u4840
  2874   001552                     u4841:
  2875   001552  EFAC  F00A         	goto	l5904
  2876   001556                     u4840:
  2877   001556  8027               	bsf	___fldiv@aexp^0,0,c
  2878   001558                     l5904:
  2879   001558  5027               	movf	___fldiv@aexp^0,w,c
  2880   00155A  B4D8               	btfsc	status,2,c
  2881   00155C  EFB2  F00A         	goto	u4851
  2882   001560  EFB4  F00A         	goto	u4850
  2883   001564                     u4851:
  2884   001564  EFC9  F00A         	goto	l5914
  2885   001568                     u4850:
  2886   001568  2827               	incf	___fldiv@aexp^0,w,c
  2887   00156A  A4D8               	btfss	status,2,c
  2888   00156C  EFBA  F00A         	goto	u4861
  2889   001570  EFBC  F00A         	goto	u4860
  2890   001574                     u4861:
  2891   001574  EFC4  F00A         	goto	l5910
  2892   001578                     u4860:
  2893   001578  0E00               	movlw	0
  2894   00157A  6E13               	movwf	___fldiv@a^0,c
  2895   00157C  0E00               	movlw	0
  2896   00157E  6E14               	movwf	(___fldiv@a+1)^0,c
  2897   001580  0E00               	movlw	0
  2898   001582  6E15               	movwf	(___fldiv@a+2)^0,c
  2899   001584  0E00               	movlw	0
  2900   001586  6E16               	movwf	(___fldiv@a+3)^0,c
  2901   001588                     l5910:
  2902   001588  8E15               	bsf	(___fldiv@a+2)^0,7,c
  2903   00158A  0E00               	movlw	0
  2904   00158C  6E16               	movwf	(___fldiv@a+3)^0,c
  2905   00158E  EFD1  F00A         	goto	l5916
  2906   001592                     l5914:
  2907   001592  0E00               	movlw	0
  2908   001594  6E13               	movwf	___fldiv@a^0,c
  2909   001596  0E00               	movlw	0
  2910   001598  6E14               	movwf	(___fldiv@a+1)^0,c
  2911   00159A  0E00               	movlw	0
  2912   00159C  6E15               	movwf	(___fldiv@a+2)^0,c
  2913   00159E  0E00               	movlw	0
  2914   0015A0  6E16               	movwf	(___fldiv@a+3)^0,c
  2915   0015A2                     l5916:
  2916   0015A2  5013               	movf	___fldiv@a^0,w,c
  2917   0015A4  1014               	iorwf	(___fldiv@a+1)^0,w,c
  2918   0015A6  1015               	iorwf	(___fldiv@a+2)^0,w,c
  2919   0015A8  1016               	iorwf	(___fldiv@a+3)^0,w,c
  2920   0015AA  A4D8               	btfss	status,2,c
  2921   0015AC  EFDA  F00A         	goto	u4871
  2922   0015B0  EFDC  F00A         	goto	u4870
  2923   0015B4                     u4871:
  2924   0015B4  EFF4  F00A         	goto	l5928
  2925   0015B8                     u4870:
  2926   0015B8  0E00               	movlw	0
  2927   0015BA  6E0F               	movwf	___fldiv@b^0,c
  2928   0015BC  0E00               	movlw	0
  2929   0015BE  6E10               	movwf	(___fldiv@b+1)^0,c
  2930   0015C0  0E00               	movlw	0
  2931   0015C2  6E11               	movwf	(___fldiv@b+2)^0,c
  2932   0015C4  0E00               	movlw	0
  2933   0015C6  6E12               	movwf	(___fldiv@b+3)^0,c
  2934   0015C8  0E80               	movlw	128
  2935   0015CA  1211               	iorwf	(___fldiv@b+2)^0,f,c
  2936   0015CC  0E7F               	movlw	127
  2937   0015CE  1212               	iorwf	(___fldiv@b+3)^0,f,c
  2938   0015D0                     l5922:
  2939   0015D0  501F               	movf	___fldiv@sign^0,w,c
  2940   0015D2  1212               	iorwf	(___fldiv@b+3)^0,f,c
  2941   0015D4  C00F  F00F         	movff	___fldiv@b,?___fldiv
  2942   0015D8  C010  F010         	movff	___fldiv@b+1,?___fldiv+1
  2943   0015DC  C011  F011         	movff	___fldiv@b+2,?___fldiv+2
  2944   0015E0  C012  F012         	movff	___fldiv@b+3,?___fldiv+3
  2945   0015E4  EF37  F00C         	goto	l2240
  2946   0015E8                     l5928:
  2947   0015E8  5026               	movf	___fldiv@bexp^0,w,c
  2948   0015EA  A4D8               	btfss	status,2,c
  2949   0015EC  EFFA  F00A         	goto	u4881
  2950   0015F0  EFFC  F00A         	goto	u4880
  2951   0015F4                     u4881:
  2952   0015F4  EF06  F00B         	goto	l5936
  2953   0015F8                     u4880:
  2954   0015F8  0E00               	movlw	0
  2955   0015FA  6E0F               	movwf	?___fldiv^0,c
  2956   0015FC  0E00               	movlw	0
  2957   0015FE  6E10               	movwf	(?___fldiv+1)^0,c
  2958   001600  0E00               	movlw	0
  2959   001602  6E11               	movwf	(?___fldiv+2)^0,c
  2960   001604  0E00               	movlw	0
  2961   001606  6E12               	movwf	(?___fldiv+3)^0,c
  2962   001608  EF37  F00C         	goto	l2240
  2963   00160C                     l5936:
  2964   00160C  5027               	movf	___fldiv@aexp^0,w,c
  2965   00160E  C026  F017         	movff	___fldiv@bexp,??___fldiv
  2966   001612  6A18               	clrf	(??___fldiv+1)^0,c
  2967   001614  5E17               	subwf	??___fldiv^0,f,c
  2968   001616  0E00               	movlw	0
  2969   001618  5A18               	subwfb	(??___fldiv+1)^0,f,c
  2970   00161A  0E7F               	movlw	127
  2971   00161C  2417               	addwf	??___fldiv^0,w,c
  2972   00161E  6E20               	movwf	___fldiv@new_exp^0,c
  2973   001620  0E00               	movlw	0
  2974   001622  2018               	addwfc	(??___fldiv+1)^0,w,c
  2975   001624  6E21               	movwf	(___fldiv@new_exp+1)^0,c
  2976   001626  C00F  F01B         	movff	___fldiv@b,___fldiv@rem
  2977   00162A  C010  F01C         	movff	___fldiv@b+1,___fldiv@rem+1
  2978   00162E  C011  F01D         	movff	___fldiv@b+2,___fldiv@rem+2
  2979   001632  C012  F01E         	movff	___fldiv@b+3,___fldiv@rem+3
  2980   001636  0E00               	movlw	0
  2981   001638  6E0F               	movwf	___fldiv@b^0,c
  2982   00163A  0E00               	movlw	0
  2983   00163C  6E10               	movwf	(___fldiv@b+1)^0,c
  2984   00163E  0E00               	movlw	0
  2985   001640  6E11               	movwf	(___fldiv@b+2)^0,c
  2986   001642  0E00               	movlw	0
  2987   001644  6E12               	movwf	(___fldiv@b+3)^0,c
  2988   001646  0E00               	movlw	0
  2989   001648  6E22               	movwf	___fldiv@grs^0,c
  2990   00164A  0E00               	movlw	0
  2991   00164C  6E23               	movwf	(___fldiv@grs+1)^0,c
  2992   00164E  0E00               	movlw	0
  2993   001650  6E24               	movwf	(___fldiv@grs+2)^0,c
  2994   001652  0E00               	movlw	0
  2995   001654  6E25               	movwf	(___fldiv@grs+3)^0,c
  2996   001656  0E00               	movlw	0
  2997   001658  6E27               	movwf	___fldiv@aexp^0,c
  2998   00165A  EF67  F00B         	goto	l2242
  2999   00165E                     l5946:
  3000   00165E  5027               	movf	___fldiv@aexp^0,w,c
  3001   001660  B4D8               	btfsc	status,2,c
  3002   001662  EF35  F00B         	goto	u4891
  3003   001666  EF37  F00B         	goto	u4890
  3004   00166A                     u4891:
  3005   00166A  EF4E  F00B         	goto	l5954
  3006   00166E                     u4890:
  3007   00166E  90D8               	bcf	status,0,c
  3008   001670  361B               	rlcf	___fldiv@rem^0,f,c
  3009   001672  361C               	rlcf	(___fldiv@rem+1)^0,f,c
  3010   001674  361D               	rlcf	(___fldiv@rem+2)^0,f,c
  3011   001676  361E               	rlcf	(___fldiv@rem+3)^0,f,c
  3012   001678  90D8               	bcf	status,0,c
  3013   00167A  360F               	rlcf	___fldiv@b^0,f,c
  3014   00167C  3610               	rlcf	(___fldiv@b+1)^0,f,c
  3015   00167E  3611               	rlcf	(___fldiv@b+2)^0,f,c
  3016   001680  3612               	rlcf	(___fldiv@b+3)^0,f,c
  3017   001682  AE25               	btfss	(___fldiv@grs+3)^0,7,c
  3018   001684  EF46  F00B         	goto	u4901
  3019   001688  EF48  F00B         	goto	u4900
  3020   00168C                     u4901:
  3021   00168C  EF49  F00B         	goto	l2245
  3022   001690                     u4900:
  3023   001690  800F               	bsf	___fldiv@b^0,0,c
  3024   001692                     l2245:
  3025   001692  90D8               	bcf	status,0,c
  3026   001694  3622               	rlcf	___fldiv@grs^0,f,c
  3027   001696  3623               	rlcf	(___fldiv@grs+1)^0,f,c
  3028   001698  3624               	rlcf	(___fldiv@grs+2)^0,f,c
  3029   00169A  3625               	rlcf	(___fldiv@grs+3)^0,f,c
  3030   00169C                     l5954:
  3031   00169C  5013               	movf	___fldiv@a^0,w,c
  3032   00169E  5C1B               	subwf	___fldiv@rem^0,w,c
  3033   0016A0  5014               	movf	(___fldiv@a+1)^0,w,c
  3034   0016A2  581C               	subwfb	(___fldiv@rem+1)^0,w,c
  3035   0016A4  5015               	movf	(___fldiv@a+2)^0,w,c
  3036   0016A6  581D               	subwfb	(___fldiv@rem+2)^0,w,c
  3037   0016A8  5016               	movf	(___fldiv@a+3)^0,w,c
  3038   0016AA  581E               	subwfb	(___fldiv@rem+3)^0,w,c
  3039   0016AC  A0D8               	btfss	status,0,c
  3040   0016AE  EF5B  F00B         	goto	u4911
  3041   0016B2  EF5D  F00B         	goto	u4910
  3042   0016B6                     u4911:
  3043   0016B6  EF66  F00B         	goto	l5960
  3044   0016BA                     u4910:
  3045   0016BA  8C25               	bsf	(___fldiv@grs+3)^0,6,c
  3046   0016BC  5013               	movf	___fldiv@a^0,w,c
  3047   0016BE  5E1B               	subwf	___fldiv@rem^0,f,c
  3048   0016C0  5014               	movf	(___fldiv@a+1)^0,w,c
  3049   0016C2  5A1C               	subwfb	(___fldiv@rem+1)^0,f,c
  3050   0016C4  5015               	movf	(___fldiv@a+2)^0,w,c
  3051   0016C6  5A1D               	subwfb	(___fldiv@rem+2)^0,f,c
  3052   0016C8  5016               	movf	(___fldiv@a+3)^0,w,c
  3053   0016CA  5A1E               	subwfb	(___fldiv@rem+3)^0,f,c
  3054   0016CC                     l5960:
  3055   0016CC  2A27               	incf	___fldiv@aexp^0,f,c
  3056   0016CE                     l2242:
  3057   0016CE  0E19               	movlw	25
  3058   0016D0  6427               	cpfsgt	___fldiv@aexp^0,c
  3059   0016D2  EF6D  F00B         	goto	u4921
  3060   0016D6  EF6F  F00B         	goto	u4920
  3061   0016DA                     u4921:
  3062   0016DA  EF2F  F00B         	goto	l5946
  3063   0016DE                     u4920:
  3064   0016DE  501B               	movf	___fldiv@rem^0,w,c
  3065   0016E0  101C               	iorwf	(___fldiv@rem+1)^0,w,c
  3066   0016E2  101D               	iorwf	(___fldiv@rem+2)^0,w,c
  3067   0016E4  101E               	iorwf	(___fldiv@rem+3)^0,w,c
  3068   0016E6  B4D8               	btfsc	status,2,c
  3069   0016E8  EF78  F00B         	goto	u4931
  3070   0016EC  EF7A  F00B         	goto	u4930
  3071   0016F0                     u4931:
  3072   0016F0  EF92  F00B         	goto	l5972
  3073   0016F4                     u4930:
  3074   0016F4  8022               	bsf	___fldiv@grs^0,0,c
  3075   0016F6  EF92  F00B         	goto	l5972
  3076   0016FA                     l5966:
  3077   0016FA  90D8               	bcf	status,0,c
  3078   0016FC  360F               	rlcf	___fldiv@b^0,f,c
  3079   0016FE  3610               	rlcf	(___fldiv@b+1)^0,f,c
  3080   001700  3611               	rlcf	(___fldiv@b+2)^0,f,c
  3081   001702  3612               	rlcf	(___fldiv@b+3)^0,f,c
  3082   001704  AE25               	btfss	(___fldiv@grs+3)^0,7,c
  3083   001706  EF87  F00B         	goto	u4941
  3084   00170A  EF89  F00B         	goto	u4940
  3085   00170E                     u4941:
  3086   00170E  EF8A  F00B         	goto	l2251
  3087   001712                     u4940:
  3088   001712  800F               	bsf	___fldiv@b^0,0,c
  3089   001714                     l2251:
  3090   001714  90D8               	bcf	status,0,c
  3091   001716  3622               	rlcf	___fldiv@grs^0,f,c
  3092   001718  3623               	rlcf	(___fldiv@grs+1)^0,f,c
  3093   00171A  3624               	rlcf	(___fldiv@grs+2)^0,f,c
  3094   00171C  3625               	rlcf	(___fldiv@grs+3)^0,f,c
  3095   00171E  0620               	decf	___fldiv@new_exp^0,f,c
  3096   001720  A0D8               	btfss	status,0,c
  3097   001722  0621               	decf	(___fldiv@new_exp+1)^0,f,c
  3098   001724                     l5972:
  3099   001724  AE11               	btfss	(___fldiv@b+2)^0,7,c
  3100   001726  EF97  F00B         	goto	u4951
  3101   00172A  EF99  F00B         	goto	u4950
  3102   00172E                     u4951:
  3103   00172E  EF7D  F00B         	goto	l5966
  3104   001732                     u4950:
  3105   001732  0E00               	movlw	0
  3106   001734  6E27               	movwf	___fldiv@aexp^0,c
  3107   001736  AE25               	btfss	(___fldiv@grs+3)^0,7,c
  3108   001738  EFA0  F00B         	goto	u4961
  3109   00173C  EFA2  F00B         	goto	u4960
  3110   001740                     u4961:
  3111   001740  EFC6  F00B         	goto	l2253
  3112   001744                     u4960:
  3113   001744  0EFF               	movlw	255
  3114   001746  1422               	andwf	___fldiv@grs^0,w,c
  3115   001748  6E17               	movwf	??___fldiv^0,c
  3116   00174A  0EFF               	movlw	255
  3117   00174C  1423               	andwf	(___fldiv@grs+1)^0,w,c
  3118   00174E  6E18               	movwf	(??___fldiv+1)^0,c
  3119   001750  0EFF               	movlw	255
  3120   001752  1424               	andwf	(___fldiv@grs+2)^0,w,c
  3121   001754  6E19               	movwf	(??___fldiv+2)^0,c
  3122   001756  0E7F               	movlw	127
  3123   001758  1425               	andwf	(___fldiv@grs+3)^0,w,c
  3124   00175A  6E1A               	movwf	(??___fldiv+3)^0,c
  3125   00175C  5017               	movf	??___fldiv^0,w,c
  3126   00175E  1018               	iorwf	(??___fldiv+1)^0,w,c
  3127   001760  1019               	iorwf	(??___fldiv+2)^0,w,c
  3128   001762  101A               	iorwf	(??___fldiv+3)^0,w,c
  3129   001764  B4D8               	btfsc	status,2,c
  3130   001766  EFB7  F00B         	goto	u4971
  3131   00176A  EFB9  F00B         	goto	u4970
  3132   00176E                     u4971:
  3133   00176E  EFBD  F00B         	goto	l2254
  3134   001772                     u4970:
  3135   001772                     l5980:
  3136   001772  0E01               	movlw	1
  3137   001774  6E27               	movwf	___fldiv@aexp^0,c
  3138   001776  EFC6  F00B         	goto	l2253
  3139   00177A                     l2254:
  3140   00177A  A00F               	btfss	___fldiv@b^0,0,c
  3141   00177C  EFC2  F00B         	goto	u4981
  3142   001780  EFC4  F00B         	goto	u4980
  3143   001784                     u4981:
  3144   001784  EFC6  F00B         	goto	l2253
  3145   001788                     u4980:
  3146   001788  EFB9  F00B         	goto	l5980
  3147   00178C                     l2253:
  3148   00178C  5027               	movf	___fldiv@aexp^0,w,c
  3149   00178E  B4D8               	btfsc	status,2,c
  3150   001790  EFCC  F00B         	goto	u4991
  3151   001794  EFCE  F00B         	goto	u4990
  3152   001798                     u4991:
  3153   001798  EFF2  F00B         	goto	l5992
  3154   00179C                     u4990:
  3155   00179C  0E01               	movlw	1
  3156   00179E  260F               	addwf	___fldiv@b^0,f,c
  3157   0017A0  0E00               	movlw	0
  3158   0017A2  2210               	addwfc	(___fldiv@b+1)^0,f,c
  3159   0017A4  2211               	addwfc	(___fldiv@b+2)^0,f,c
  3160   0017A6  2212               	addwfc	(___fldiv@b+3)^0,f,c
  3161   0017A8  A012               	btfss	(___fldiv@b+3)^0,0,c
  3162   0017AA  EFD9  F00B         	goto	u5001
  3163   0017AE  EFDB  F00B         	goto	u5000
  3164   0017B2                     u5001:
  3165   0017B2  EFF2  F00B         	goto	l5992
  3166   0017B6                     u5000:
  3167   0017B6  C00F  F017         	movff	___fldiv@b,??___fldiv
  3168   0017BA  C010  F018         	movff	___fldiv@b+1,??___fldiv+1
  3169   0017BE  C011  F019         	movff	___fldiv@b+2,??___fldiv+2
  3170   0017C2  C012  F01A         	movff	___fldiv@b+3,??___fldiv+3
  3171   0017C6  341A               	rlcf	(??___fldiv+3)^0,w,c
  3172   0017C8  321A               	rrcf	(??___fldiv+3)^0,f,c
  3173   0017CA  3219               	rrcf	(??___fldiv+2)^0,f,c
  3174   0017CC  3218               	rrcf	(??___fldiv+1)^0,f,c
  3175   0017CE  3217               	rrcf	??___fldiv^0,f,c
  3176   0017D0  C017  F00F         	movff	??___fldiv,___fldiv@b
  3177   0017D4  C018  F010         	movff	??___fldiv+1,___fldiv@b+1
  3178   0017D8  C019  F011         	movff	??___fldiv+2,___fldiv@b+2
  3179   0017DC  C01A  F012         	movff	??___fldiv+3,___fldiv@b+3
  3180   0017E0  4A20               	infsnz	___fldiv@new_exp^0,f,c
  3181   0017E2  2A21               	incf	(___fldiv@new_exp+1)^0,f,c
  3182   0017E4                     l5992:
  3183   0017E4  BE21               	btfsc	(___fldiv@new_exp+1)^0,7,c
  3184   0017E6  EFFD  F00B         	goto	u5011
  3185   0017EA  5021               	movf	(___fldiv@new_exp+1)^0,w,c
  3186   0017EC  E108               	bnz	u5010
  3187   0017EE  2820               	incf	___fldiv@new_exp^0,w,c
  3188   0017F0  A0D8               	btfss	status,0,c
  3189   0017F2  EFFD  F00B         	goto	u5011
  3190   0017F6  EFFF  F00B         	goto	u5010
  3191   0017FA                     u5011:
  3192   0017FA  EF0A  F00C         	goto	l5996
  3193   0017FE                     u5010:
  3194   0017FE  0E00               	movlw	0
  3195   001800  6E21               	movwf	(___fldiv@new_exp+1)^0,c
  3196   001802  6820               	setf	___fldiv@new_exp^0,c
  3197   001804  0E00               	movlw	0
  3198   001806  6E0F               	movwf	___fldiv@b^0,c
  3199   001808  0E00               	movlw	0
  3200   00180A  6E10               	movwf	(___fldiv@b+1)^0,c
  3201   00180C  0E00               	movlw	0
  3202   00180E  6E11               	movwf	(___fldiv@b+2)^0,c
  3203   001810  0E00               	movlw	0
  3204   001812  6E12               	movwf	(___fldiv@b+3)^0,c
  3205   001814                     l5996:
  3206   001814  BE21               	btfsc	(___fldiv@new_exp+1)^0,7,c
  3207   001816  EF17  F00C         	goto	u5020
  3208   00181A  5021               	movf	(___fldiv@new_exp+1)^0,w,c
  3209   00181C  E106               	bnz	u5021
  3210   00181E  0420               	decf	___fldiv@new_exp^0,w,c
  3211   001820  B0D8               	btfsc	status,0,c
  3212   001822  EF15  F00C         	goto	u5021
  3213   001826  EF17  F00C         	goto	u5020
  3214   00182A                     u5021:
  3215   00182A  EF25  F00C         	goto	l6000
  3216   00182E                     u5020:
  3217   00182E  0E00               	movlw	0
  3218   001830  6E21               	movwf	(___fldiv@new_exp+1)^0,c
  3219   001832  0E00               	movlw	0
  3220   001834  6E20               	movwf	___fldiv@new_exp^0,c
  3221   001836  0E00               	movlw	0
  3222   001838  6E0F               	movwf	___fldiv@b^0,c
  3223   00183A  0E00               	movlw	0
  3224   00183C  6E10               	movwf	(___fldiv@b+1)^0,c
  3225   00183E  0E00               	movlw	0
  3226   001840  6E11               	movwf	(___fldiv@b+2)^0,c
  3227   001842  0E00               	movlw	0
  3228   001844  6E12               	movwf	(___fldiv@b+3)^0,c
  3229   001846  0E00               	movlw	0
  3230   001848  6E1F               	movwf	___fldiv@sign^0,c
  3231   00184A                     l6000:
  3232   00184A  C020  F026         	movff	___fldiv@new_exp,___fldiv@bexp
  3233   00184E  A026               	btfss	___fldiv@bexp^0,0,c
  3234   001850  EF2C  F00C         	goto	u5031
  3235   001854  EF2E  F00C         	goto	u5030
  3236   001858                     u5031:
  3237   001858  EF31  F00C         	goto	l6006
  3238   00185C                     u5030:
  3239   00185C  8E11               	bsf	(___fldiv@b+2)^0,7,c
  3240   00185E  EF32  F00C         	goto	l6008
  3241   001862                     l6006:
  3242   001862  9E11               	bcf	(___fldiv@b+2)^0,7,c
  3243   001864                     l6008:
  3244   001864  90D8               	bcf	status,0,c
  3245   001866  3026               	rrcf	___fldiv@bexp^0,w,c
  3246   001868  6E12               	movwf	(___fldiv@b+3)^0,c
  3247   00186A  EFE8  F00A         	goto	l5922
  3248   00186E                     l2240:
  3249   00186E  0012               	return		;funcret
  3250   001870                     __end_of___fldiv:
  3251                           	callstack 0
  3252                           
  3253 ;; *************** function ___fladd *****************
  3254 ;; Defined at:
  3255 ;;		line 10 in file "C:\Program Files\Microchip\xc8\v2.41\pic\sources\c99\common\sprcadd.c"
  3256 ;; Parameters:    Size  Location     Type
  3257 ;;  b               4   39[COMRAM] unsigned char 
  3258 ;;  a               4   43[COMRAM] unsigned char 
  3259 ;; Auto vars:     Size  Location     Type
  3260 ;;  grs             1   54[COMRAM] unsigned char 
  3261 ;;  bexp            1   53[COMRAM] unsigned char 
  3262 ;;  aexp            1   52[COMRAM] unsigned char 
  3263 ;;  signs           1   51[COMRAM] unsigned char 
  3264 ;; Return value:  Size  Location     Type
  3265 ;;                  4   39[COMRAM] unsigned char 
  3266 ;; Registers used:
  3267 ;;		wreg, status,2, status,0
  3268 ;; Tracked objects:
  3269 ;;		On entry : 0/0
  3270 ;;		On exit  : 0/0
  3271 ;;		Unchanged: 0/0
  3272 ;; Data sizes:     COMRAM   BANK0   BANK1   BANK2   BANK3   BANK4   BANK5   BANK6   BANK7   BANK8   BANK9  BANK10  BANK1
      +1  BANK12  BANK13  BANK14  BANK15
  3273 ;;      Params:         8       0       0       0       0       0       0       0       0       0       0       0       
      +0       0       0       0       0
  3274 ;;      Locals:         4       0       0       0       0       0       0       0       0       0       0       0       
      +0       0       0       0       0
  3275 ;;      Temps:          4       0       0       0       0       0       0       0       0       0       0       0       
      +0       0       0       0       0
  3276 ;;      Totals:        16       0       0       0       0       0       0       0       0       0       0       0       
      +0       0       0       0       0
  3277 ;;Total ram usage:       16 bytes
  3278 ;; Hardware stack levels used: 1
  3279 ;; Hardware stack levels required when called: 2
  3280 ;; This function calls:
  3281 ;;		Nothing
  3282 ;; This function is called by:
  3283 ;;		_I2C_Master_Mode_Clock_Configurations
  3284 ;;		_EUSART_Baud_Rate_Calcualtion
  3285 ;; This function uses a non-reentrant model
  3286 ;;
  3287                           
  3288                           	psect	text18
  3289   001016                     __ptext18:
  3290                           	callstack 0
  3291   001016                     ___fladd:
  3292                           	callstack 25
  3293   001016  502B               	movf	(___fladd@b+3)^0,w,c
  3294   001018  0B80               	andlw	128
  3295   00101A  6E34               	movwf	___fladd@signs^0,c
  3296   00101C  502B               	movf	(___fladd@b+3)^0,w,c
  3297   00101E  242B               	addwf	(___fladd@b+3)^0,w,c
  3298   001020  6E36               	movwf	___fladd@bexp^0,c
  3299   001022  AE2A               	btfss	(___fladd@b+2)^0,7,c
  3300   001024  EF16  F008         	goto	u4421
  3301   001028  EF18  F008         	goto	u4420
  3302   00102C                     u4421:
  3303   00102C  EF19  F008         	goto	l5682
  3304   001030                     u4420:
  3305   001030  8036               	bsf	___fladd@bexp^0,0,c
  3306   001032                     l5682:
  3307   001032  5036               	movf	___fladd@bexp^0,w,c
  3308   001034  B4D8               	btfsc	status,2,c
  3309   001036  EF1F  F008         	goto	u4431
  3310   00103A  EF21  F008         	goto	u4430
  3311   00103E                     u4431:
  3312   00103E  EF36  F008         	goto	l5692
  3313   001042                     u4430:
  3314   001042  2836               	incf	___fladd@bexp^0,w,c
  3315   001044  A4D8               	btfss	status,2,c
  3316   001046  EF27  F008         	goto	u4441
  3317   00104A  EF29  F008         	goto	u4440
  3318   00104E                     u4441:
  3319   00104E  EF31  F008         	goto	l5688
  3320   001052                     u4440:
  3321   001052  0E00               	movlw	0
  3322   001054  6E28               	movwf	___fladd@b^0,c
  3323   001056  0E00               	movlw	0
  3324   001058  6E29               	movwf	(___fladd@b+1)^0,c
  3325   00105A  0E00               	movlw	0
  3326   00105C  6E2A               	movwf	(___fladd@b+2)^0,c
  3327   00105E  0E00               	movlw	0
  3328   001060  6E2B               	movwf	(___fladd@b+3)^0,c
  3329   001062                     l5688:
  3330   001062  8E2A               	bsf	(___fladd@b+2)^0,7,c
  3331   001064  0E00               	movlw	0
  3332   001066  6E2B               	movwf	(___fladd@b+3)^0,c
  3333   001068  EF3E  F008         	goto	l5694
  3334   00106C                     l5692:
  3335   00106C  0E00               	movlw	0
  3336   00106E  6E28               	movwf	___fladd@b^0,c
  3337   001070  0E00               	movlw	0
  3338   001072  6E29               	movwf	(___fladd@b+1)^0,c
  3339   001074  0E00               	movlw	0
  3340   001076  6E2A               	movwf	(___fladd@b+2)^0,c
  3341   001078  0E00               	movlw	0
  3342   00107A  6E2B               	movwf	(___fladd@b+3)^0,c
  3343   00107C                     l5694:
  3344   00107C  502F               	movf	(___fladd@a+3)^0,w,c
  3345   00107E  0B80               	andlw	128
  3346   001080  6E35               	movwf	___fladd@aexp^0,c
  3347   001082  5034               	movf	___fladd@signs^0,w,c
  3348   001084  1835               	xorwf	___fladd@aexp^0,w,c
  3349   001086  B4D8               	btfsc	status,2,c
  3350   001088  EF48  F008         	goto	u4451
  3351   00108C  EF4A  F008         	goto	u4450
  3352   001090                     u4451:
  3353   001090  EF4B  F008         	goto	l5700
  3354   001094                     u4450:
  3355   001094  8C34               	bsf	___fladd@signs^0,6,c
  3356   001096                     l5700:
  3357   001096  502F               	movf	(___fladd@a+3)^0,w,c
  3358   001098  242F               	addwf	(___fladd@a+3)^0,w,c
  3359   00109A  6E35               	movwf	___fladd@aexp^0,c
  3360   00109C  AE2E               	btfss	(___fladd@a+2)^0,7,c
  3361   00109E  EF53  F008         	goto	u4461
  3362   0010A2  EF55  F008         	goto	u4460
  3363   0010A6                     u4461:
  3364   0010A6  EF56  F008         	goto	l5706
  3365   0010AA                     u4460:
  3366   0010AA  8035               	bsf	___fladd@aexp^0,0,c
  3367   0010AC                     l5706:
  3368   0010AC  5035               	movf	___fladd@aexp^0,w,c
  3369   0010AE  B4D8               	btfsc	status,2,c
  3370   0010B0  EF5C  F008         	goto	u4471
  3371   0010B4  EF5E  F008         	goto	u4470
  3372   0010B8                     u4471:
  3373   0010B8  EF73  F008         	goto	l5716
  3374   0010BC                     u4470:
  3375   0010BC  2835               	incf	___fladd@aexp^0,w,c
  3376   0010BE  A4D8               	btfss	status,2,c
  3377   0010C0  EF64  F008         	goto	u4481
  3378   0010C4  EF66  F008         	goto	u4480
  3379   0010C8                     u4481:
  3380   0010C8  EF6E  F008         	goto	l5712
  3381   0010CC                     u4480:
  3382   0010CC  0E00               	movlw	0
  3383   0010CE  6E2C               	movwf	___fladd@a^0,c
  3384   0010D0  0E00               	movlw	0
  3385   0010D2  6E2D               	movwf	(___fladd@a+1)^0,c
  3386   0010D4  0E00               	movlw	0
  3387   0010D6  6E2E               	movwf	(___fladd@a+2)^0,c
  3388   0010D8  0E00               	movlw	0
  3389   0010DA  6E2F               	movwf	(___fladd@a+3)^0,c
  3390   0010DC                     l5712:
  3391   0010DC  8E2E               	bsf	(___fladd@a+2)^0,7,c
  3392   0010DE  0E00               	movlw	0
  3393   0010E0  6E2F               	movwf	(___fladd@a+3)^0,c
  3394   0010E2  EF7B  F008         	goto	l5718
  3395   0010E6                     l5716:
  3396   0010E6  0E00               	movlw	0
  3397   0010E8  6E2C               	movwf	___fladd@a^0,c
  3398   0010EA  0E00               	movlw	0
  3399   0010EC  6E2D               	movwf	(___fladd@a+1)^0,c
  3400   0010EE  0E00               	movlw	0
  3401   0010F0  6E2E               	movwf	(___fladd@a+2)^0,c
  3402   0010F2  0E00               	movlw	0
  3403   0010F4  6E2F               	movwf	(___fladd@a+3)^0,c
  3404   0010F6                     l5718:
  3405   0010F6  5036               	movf	___fladd@bexp^0,w,c
  3406   0010F8  5C35               	subwf	___fladd@aexp^0,w,c
  3407   0010FA  B0D8               	btfsc	status,0,c
  3408   0010FC  EF82  F008         	goto	u4491
  3409   001100  EF84  F008         	goto	u4490
  3410   001104                     u4491:
  3411   001104  EFAB  F008         	goto	l5754
  3412   001108                     u4490:
  3413   001108  AC34               	btfss	___fladd@signs^0,6,c
  3414   00110A  EF89  F008         	goto	u4501
  3415   00110E  EF8B  F008         	goto	u4500
  3416   001112                     u4501:
  3417   001112  EF8D  F008         	goto	l5724
  3418   001116                     u4500:
  3419   001116  0E80               	movlw	128
  3420   001118  1A34               	xorwf	___fladd@signs^0,f,c
  3421   00111A                     l5724:
  3422   00111A  C036  F037         	movff	___fladd@bexp,___fladd@grs
  3423   00111E  C035  F036         	movff	___fladd@aexp,___fladd@bexp
  3424   001122  C037  F035         	movff	___fladd@grs,___fladd@aexp
  3425   001126  C028  F037         	movff	___fladd@b,___fladd@grs
  3426   00112A  C02C  F028         	movff	___fladd@a,___fladd@b
  3427   00112E  C037  F02C         	movff	___fladd@grs,___fladd@a
  3428   001132  C029  F037         	movff	___fladd@b+1,___fladd@grs
  3429   001136  C02D  F029         	movff	___fladd@a+1,___fladd@b+1
  3430   00113A  C037  F02D         	movff	___fladd@grs,___fladd@a+1
  3431   00113E  C02A  F037         	movff	___fladd@b+2,___fladd@grs
  3432   001142  C02E  F02A         	movff	___fladd@a+2,___fladd@b+2
  3433   001146  C037  F02E         	movff	___fladd@grs,___fladd@a+2
  3434   00114A  C02B  F037         	movff	___fladd@b+3,___fladd@grs
  3435   00114E  C02F  F02B         	movff	___fladd@a+3,___fladd@b+3
  3436   001152  C037  F02F         	movff	___fladd@grs,___fladd@a+3
  3437   001156                     l5754:
  3438   001156  0E00               	movlw	0
  3439   001158  6E37               	movwf	___fladd@grs^0,c
  3440   00115A  5036               	movf	___fladd@bexp^0,w,c
  3441   00115C  C035  F030         	movff	___fladd@aexp,??___fladd
  3442   001160  6A31               	clrf	(??___fladd+1)^0,c
  3443   001162  5E30               	subwf	??___fladd^0,f,c
  3444   001164  0E00               	movlw	0
  3445   001166  5A31               	subwfb	(??___fladd+1)^0,f,c
  3446   001168  BE31               	btfsc	(??___fladd+1)^0,7,c
  3447   00116A  EFC0  F008         	goto	u4511
  3448   00116E  5031               	movf	(??___fladd+1)^0,w,c
  3449   001170  E109               	bnz	u4510
  3450   001172  0E1A               	movlw	26
  3451   001174  5C30               	subwf	??___fladd^0,w,c
  3452   001176  A0D8               	btfss	status,0,c
  3453   001178  EFC0  F008         	goto	u4511
  3454   00117C  EFC2  F008         	goto	u4510
  3455   001180                     u4511:
  3456   001180  EFF9  F008         	goto	l2187
  3457   001184                     u4510:
  3458   001184  5028               	movf	___fladd@b^0,w,c
  3459   001186  1029               	iorwf	(___fladd@b+1)^0,w,c
  3460   001188  102A               	iorwf	(___fladd@b+2)^0,w,c
  3461   00118A  102B               	iorwf	(___fladd@b+3)^0,w,c
  3462   00118C  A4D8               	btfss	status,2,c
  3463   00118E  EFCB  F008         	goto	u4521
  3464   001192  EFCE  F008         	goto	u4520
  3465   001196                     u4521:
  3466   001196  0E01               	movlw	1
  3467   001198  EFCF  F008         	goto	u4530
  3468   00119C                     u4520:
  3469   00119C  0E00               	movlw	0
  3470   00119E                     u4530:
  3471   00119E  6E37               	movwf	___fladd@grs^0,c
  3472   0011A0  0E00               	movlw	0
  3473   0011A2  6E28               	movwf	___fladd@b^0,c
  3474   0011A4  0E00               	movlw	0
  3475   0011A6  6E29               	movwf	(___fladd@b+1)^0,c
  3476   0011A8  0E00               	movlw	0
  3477   0011AA  6E2A               	movwf	(___fladd@b+2)^0,c
  3478   0011AC  0E00               	movlw	0
  3479   0011AE  6E2B               	movwf	(___fladd@b+3)^0,c
  3480   0011B0  C035  F036         	movff	___fladd@aexp,___fladd@bexp
  3481   0011B4  EF02  F009         	goto	l2186
  3482   0011B8                     l2188:
  3483   0011B8  A037               	btfss	___fladd@grs^0,0,c
  3484   0011BA  EFE1  F008         	goto	u4541
  3485   0011BE  EFE3  F008         	goto	u4540
  3486   0011C2                     u4541:
  3487   0011C2  EFE9  F008         	goto	l5766
  3488   0011C6                     u4540:
  3489   0011C6  90D8               	bcf	status,0,c
  3490   0011C8  3037               	rrcf	___fladd@grs^0,w,c
  3491   0011CA  0901               	iorlw	1
  3492   0011CC  6E37               	movwf	___fladd@grs^0,c
  3493   0011CE  EFEB  F008         	goto	l5768
  3494   0011D2                     l5766:
  3495   0011D2  90D8               	bcf	status,0,c
  3496   0011D4  3237               	rrcf	___fladd@grs^0,f,c
  3497   0011D6                     l5768:
  3498   0011D6  A028               	btfss	___fladd@b^0,0,c
  3499   0011D8  EFF0  F008         	goto	u4551
  3500   0011DC  EFF2  F008         	goto	u4550
  3501   0011E0                     u4551:
  3502   0011E0  EFF3  F008         	goto	l5772
  3503   0011E4                     u4550:
  3504   0011E4  8E37               	bsf	___fladd@grs^0,7,c
  3505   0011E6                     l5772:
  3506   0011E6  342B               	rlcf	(___fladd@b+3)^0,w,c
  3507   0011E8  322B               	rrcf	(___fladd@b+3)^0,f,c
  3508   0011EA  322A               	rrcf	(___fladd@b+2)^0,f,c
  3509   0011EC  3229               	rrcf	(___fladd@b+1)^0,f,c
  3510   0011EE  3228               	rrcf	___fladd@b^0,f,c
  3511   0011F0  2A36               	incf	___fladd@bexp^0,f,c
  3512   0011F2                     l2187:
  3513   0011F2  5035               	movf	___fladd@aexp^0,w,c
  3514   0011F4  5C36               	subwf	___fladd@bexp^0,w,c
  3515   0011F6  A0D8               	btfss	status,0,c
  3516   0011F8  EF00  F009         	goto	u4561
  3517   0011FC  EF02  F009         	goto	u4560
  3518   001200                     u4561:
  3519   001200  EFDC  F008         	goto	l2188
  3520   001204                     u4560:
  3521   001204                     l2186:
  3522   001204  BC34               	btfsc	___fladd@signs^0,6,c
  3523   001206  EF07  F009         	goto	u4571
  3524   00120A  EF09  F009         	goto	u4570
  3525   00120E                     u4571:
  3526   00120E  EF49  F009         	goto	l5800
  3527   001212                     u4570:
  3528   001212  5036               	movf	___fladd@bexp^0,w,c
  3529   001214  A4D8               	btfss	status,2,c
  3530   001216  EF0F  F009         	goto	u4581
  3531   00121A  EF11  F009         	goto	u4580
  3532   00121E                     u4581:
  3533   00121E  EF1B  F009         	goto	l5782
  3534   001222                     u4580:
  3535   001222  0E00               	movlw	0
  3536   001224  6E28               	movwf	?___fladd^0,c
  3537   001226  0E00               	movlw	0
  3538   001228  6E29               	movwf	(?___fladd+1)^0,c
  3539   00122A  0E00               	movlw	0
  3540   00122C  6E2A               	movwf	(?___fladd+2)^0,c
  3541   00122E  0E00               	movlw	0
  3542   001230  6E2B               	movwf	(?___fladd+3)^0,c
  3543   001232  EF6A  F00A         	goto	l2195
  3544   001236                     l5782:
  3545   001236  502C               	movf	___fladd@a^0,w,c
  3546   001238  2628               	addwf	___fladd@b^0,f,c
  3547   00123A  502D               	movf	(___fladd@a+1)^0,w,c
  3548   00123C  2229               	addwfc	(___fladd@b+1)^0,f,c
  3549   00123E  502E               	movf	(___fladd@a+2)^0,w,c
  3550   001240  222A               	addwfc	(___fladd@b+2)^0,f,c
  3551   001242  502F               	movf	(___fladd@a+3)^0,w,c
  3552   001244  222B               	addwfc	(___fladd@b+3)^0,f,c
  3553   001246  A02B               	btfss	(___fladd@b+3)^0,0,c
  3554   001248  EF28  F009         	goto	u4591
  3555   00124C  EF2A  F009         	goto	u4590
  3556   001250                     u4591:
  3557   001250  EFD6  F009         	goto	l5836
  3558   001254                     u4590:
  3559   001254  A037               	btfss	___fladd@grs^0,0,c
  3560   001256  EF2F  F009         	goto	u4601
  3561   00125A  EF31  F009         	goto	u4600
  3562   00125E                     u4601:
  3563   00125E  EF37  F009         	goto	l5790
  3564   001262                     u4600:
  3565   001262  90D8               	bcf	status,0,c
  3566   001264  3037               	rrcf	___fladd@grs^0,w,c
  3567   001266  0901               	iorlw	1
  3568   001268  6E37               	movwf	___fladd@grs^0,c
  3569   00126A  EF39  F009         	goto	l5792
  3570   00126E                     l5790:
  3571   00126E  90D8               	bcf	status,0,c
  3572   001270  3237               	rrcf	___fladd@grs^0,f,c
  3573   001272                     l5792:
  3574   001272  A028               	btfss	___fladd@b^0,0,c
  3575   001274  EF3E  F009         	goto	u4611
  3576   001278  EF40  F009         	goto	u4610
  3577   00127C                     u4611:
  3578   00127C  EF41  F009         	goto	l5796
  3579   001280                     u4610:
  3580   001280  8E37               	bsf	___fladd@grs^0,7,c
  3581   001282                     l5796:
  3582   001282  342B               	rlcf	(___fladd@b+3)^0,w,c
  3583   001284  322B               	rrcf	(___fladd@b+3)^0,f,c
  3584   001286  322A               	rrcf	(___fladd@b+2)^0,f,c
  3585   001288  3229               	rrcf	(___fladd@b+1)^0,f,c
  3586   00128A  3228               	rrcf	___fladd@b^0,f,c
  3587   00128C  2A36               	incf	___fladd@bexp^0,f,c
  3588   00128E  EFD6  F009         	goto	l5836
  3589   001292                     l5800:
  3590   001292  502C               	movf	___fladd@a^0,w,c
  3591   001294  5C28               	subwf	___fladd@b^0,w,c
  3592   001296  502D               	movf	(___fladd@a+1)^0,w,c
  3593   001298  5829               	subwfb	(___fladd@b+1)^0,w,c
  3594   00129A  502E               	movf	(___fladd@a+2)^0,w,c
  3595   00129C  582A               	subwfb	(___fladd@b+2)^0,w,c
  3596   00129E  502B               	movf	(___fladd@b+3)^0,w,c
  3597   0012A0  0A80               	xorlw	128
  3598   0012A2  6E30               	movwf	??___fladd^0,c
  3599   0012A4  502F               	movf	(___fladd@a+3)^0,w,c
  3600   0012A6  0A80               	xorlw	128
  3601   0012A8  5830               	subwfb	??___fladd^0,w,c
  3602   0012AA  B0D8               	btfsc	status,0,c
  3603   0012AC  EF5A  F009         	goto	u4621
  3604   0012B0  EF5C  F009         	goto	u4620
  3605   0012B4                     u4621:
  3606   0012B4  EF87  F009         	goto	l5810
  3607   0012B8                     u4620:
  3608   0012B8  5028               	movf	___fladd@b^0,w,c
  3609   0012BA  5C2C               	subwf	___fladd@a^0,w,c
  3610   0012BC  6E30               	movwf	??___fladd^0,c
  3611   0012BE  5029               	movf	(___fladd@b+1)^0,w,c
  3612   0012C0  582D               	subwfb	(___fladd@a+1)^0,w,c
  3613   0012C2  6E31               	movwf	(??___fladd+1)^0,c
  3614   0012C4  502A               	movf	(___fladd@b+2)^0,w,c
  3615   0012C6  582E               	subwfb	(___fladd@a+2)^0,w,c
  3616   0012C8  6E32               	movwf	(??___fladd+2)^0,c
  3617   0012CA  502B               	movf	(___fladd@b+3)^0,w,c
  3618   0012CC  582F               	subwfb	(___fladd@a+3)^0,w,c
  3619   0012CE  6E33               	movwf	(??___fladd+3)^0,c
  3620   0012D0  0EFF               	movlw	255
  3621   0012D2  2430               	addwf	??___fladd^0,w,c
  3622   0012D4  6E28               	movwf	___fladd@b^0,c
  3623   0012D6  0EFF               	movlw	255
  3624   0012D8  2031               	addwfc	(??___fladd+1)^0,w,c
  3625   0012DA  6E29               	movwf	(___fladd@b+1)^0,c
  3626   0012DC  0EFF               	movlw	255
  3627   0012DE  2032               	addwfc	(??___fladd+2)^0,w,c
  3628   0012E0  6E2A               	movwf	(___fladd@b+2)^0,c
  3629   0012E2  0EFF               	movlw	255
  3630   0012E4  2033               	addwfc	(??___fladd+3)^0,w,c
  3631   0012E6  6E2B               	movwf	(___fladd@b+3)^0,c
  3632   0012E8  0E80               	movlw	128
  3633   0012EA  1A34               	xorwf	___fladd@signs^0,f,c
  3634   0012EC  6C37               	negf	___fladd@grs^0,c
  3635   0012EE  5037               	movf	___fladd@grs^0,w,c
  3636   0012F0  A4D8               	btfss	status,2,c
  3637   0012F2  EF7D  F009         	goto	u4631
  3638   0012F6  EF7F  F009         	goto	u4630
  3639   0012FA                     u4631:
  3640   0012FA  EF8F  F009         	goto	l2203
  3641   0012FE                     u4630:
  3642   0012FE  0E01               	movlw	1
  3643   001300  2628               	addwf	___fladd@b^0,f,c
  3644   001302  0E00               	movlw	0
  3645   001304  2229               	addwfc	(___fladd@b+1)^0,f,c
  3646   001306  222A               	addwfc	(___fladd@b+2)^0,f,c
  3647   001308  222B               	addwfc	(___fladd@b+3)^0,f,c
  3648   00130A  EF8F  F009         	goto	l2203
  3649   00130E                     l5810:
  3650   00130E  502C               	movf	___fladd@a^0,w,c
  3651   001310  5E28               	subwf	___fladd@b^0,f,c
  3652   001312  502D               	movf	(___fladd@a+1)^0,w,c
  3653   001314  5A29               	subwfb	(___fladd@b+1)^0,f,c
  3654   001316  502E               	movf	(___fladd@a+2)^0,w,c
  3655   001318  5A2A               	subwfb	(___fladd@b+2)^0,f,c
  3656   00131A  502F               	movf	(___fladd@a+3)^0,w,c
  3657   00131C  5A2B               	subwfb	(___fladd@b+3)^0,f,c
  3658   00131E                     l2203:
  3659   00131E  5028               	movf	___fladd@b^0,w,c
  3660   001320  1029               	iorwf	(___fladd@b+1)^0,w,c
  3661   001322  102A               	iorwf	(___fladd@b+2)^0,w,c
  3662   001324  102B               	iorwf	(___fladd@b+3)^0,w,c
  3663   001326  A4D8               	btfss	status,2,c
  3664   001328  EF98  F009         	goto	u4641
  3665   00132C  EF9A  F009         	goto	u4640
  3666   001330                     u4641:
  3667   001330  EFCF  F009         	goto	l5834
  3668   001334                     u4640:
  3669   001334  5037               	movf	___fladd@grs^0,w,c
  3670   001336  A4D8               	btfss	status,2,c
  3671   001338  EFA0  F009         	goto	u4651
  3672   00133C  EFA2  F009         	goto	u4650
  3673   001340                     u4651:
  3674   001340  EFCF  F009         	goto	l5834
  3675   001344                     u4650:
  3676   001344  0E00               	movlw	0
  3677   001346  6E28               	movwf	?___fladd^0,c
  3678   001348  0E00               	movlw	0
  3679   00134A  6E29               	movwf	(?___fladd+1)^0,c
  3680   00134C  0E00               	movlw	0
  3681   00134E  6E2A               	movwf	(?___fladd+2)^0,c
  3682   001350  0E00               	movlw	0
  3683   001352  6E2B               	movwf	(?___fladd+3)^0,c
  3684   001354  EF6A  F00A         	goto	l2195
  3685   001358                     l5818:
  3686   001358  90D8               	bcf	status,0,c
  3687   00135A  3628               	rlcf	___fladd@b^0,f,c
  3688   00135C  3629               	rlcf	(___fladd@b+1)^0,f,c
  3689   00135E  362A               	rlcf	(___fladd@b+2)^0,f,c
  3690   001360  362B               	rlcf	(___fladd@b+3)^0,f,c
  3691   001362  AE37               	btfss	___fladd@grs^0,7,c
  3692   001364  EFB6  F009         	goto	u4661
  3693   001368  EFB8  F009         	goto	u4660
  3694   00136C                     u4661:
  3695   00136C  EFB9  F009         	goto	l5824
  3696   001370                     u4660:
  3697   001370  8028               	bsf	___fladd@b^0,0,c
  3698   001372                     l5824:
  3699   001372  A037               	btfss	___fladd@grs^0,0,c
  3700   001374  EFBE  F009         	goto	u4671
  3701   001378  EFC0  F009         	goto	u4670
  3702   00137C                     u4671:
  3703   00137C  EFC4  F009         	goto	l5828
  3704   001380                     u4670:
  3705   001380  80D8               	bsf	status,0,c
  3706   001382  3637               	rlcf	___fladd@grs^0,f,c
  3707   001384  EFC6  F009         	goto	l5830
  3708   001388                     l5828:
  3709   001388  90D8               	bcf	status,0,c
  3710   00138A  3637               	rlcf	___fladd@grs^0,f,c
  3711   00138C                     l5830:
  3712   00138C  5036               	movf	___fladd@bexp^0,w,c
  3713   00138E  B4D8               	btfsc	status,2,c
  3714   001390  EFCC  F009         	goto	u4681
  3715   001394  EFCE  F009         	goto	u4680
  3716   001398                     u4681:
  3717   001398  EFCF  F009         	goto	l5834
  3718   00139C                     u4680:
  3719   00139C  0636               	decf	___fladd@bexp^0,f,c
  3720   00139E                     l5834:
  3721   00139E  AE2A               	btfss	(___fladd@b+2)^0,7,c
  3722   0013A0  EFD4  F009         	goto	u4691
  3723   0013A4  EFD6  F009         	goto	u4690
  3724   0013A8                     u4691:
  3725   0013A8  EFAC  F009         	goto	l5818
  3726   0013AC                     u4690:
  3727   0013AC                     l5836:
  3728   0013AC  0E00               	movlw	0
  3729   0013AE  6E35               	movwf	___fladd@aexp^0,c
  3730   0013B0  AE37               	btfss	___fladd@grs^0,7,c
  3731   0013B2  EFDD  F009         	goto	u4701
  3732   0013B6  EFDF  F009         	goto	u4700
  3733   0013BA                     u4701:
  3734   0013BA  EFF7  F009         	goto	l2212
  3735   0013BE                     u4700:
  3736   0013BE  C037  F030         	movff	___fladd@grs,??___fladd
  3737   0013C2  0E7F               	movlw	127
  3738   0013C4  1630               	andwf	??___fladd^0,f,c
  3739   0013C6  B4D8               	btfsc	status,2,c
  3740   0013C8  EFE8  F009         	goto	u4711
  3741   0013CC  EFEA  F009         	goto	u4710
  3742   0013D0                     u4711:
  3743   0013D0  EFEE  F009         	goto	l2213
  3744   0013D4                     u4710:
  3745   0013D4                     l5842:
  3746   0013D4  0E01               	movlw	1
  3747   0013D6  6E35               	movwf	___fladd@aexp^0,c
  3748   0013D8  EFF7  F009         	goto	l2212
  3749   0013DC                     l2213:
  3750   0013DC  A028               	btfss	___fladd@b^0,0,c
  3751   0013DE  EFF3  F009         	goto	u4721
  3752   0013E2  EFF5  F009         	goto	u4720
  3753   0013E6                     u4721:
  3754   0013E6  EFF7  F009         	goto	l2212
  3755   0013EA                     u4720:
  3756   0013EA  EFEA  F009         	goto	l5842
  3757   0013EE                     l2212:
  3758   0013EE  5035               	movf	___fladd@aexp^0,w,c
  3759   0013F0  B4D8               	btfsc	status,2,c
  3760   0013F2  EFFD  F009         	goto	u4731
  3761   0013F6  EFFF  F009         	goto	u4730
  3762   0013FA                     u4731:
  3763   0013FA  EF2A  F00A         	goto	l5854
  3764   0013FE                     u4730:
  3765   0013FE  0E01               	movlw	1
  3766   001400  2628               	addwf	___fladd@b^0,f,c
  3767   001402  0E00               	movlw	0
  3768   001404  2229               	addwfc	(___fladd@b+1)^0,f,c
  3769   001406  222A               	addwfc	(___fladd@b+2)^0,f,c
  3770   001408  222B               	addwfc	(___fladd@b+3)^0,f,c
  3771   00140A  A02B               	btfss	(___fladd@b+3)^0,0,c
  3772   00140C  EF0A  F00A         	goto	u4741
  3773   001410  EF0C  F00A         	goto	u4740
  3774   001414                     u4741:
  3775   001414  EF2A  F00A         	goto	l5854
  3776   001418                     u4740:
  3777   001418  C028  F030         	movff	___fladd@b,??___fladd
  3778   00141C  C029  F031         	movff	___fladd@b+1,??___fladd+1
  3779   001420  C02A  F032         	movff	___fladd@b+2,??___fladd+2
  3780   001424  C02B  F033         	movff	___fladd@b+3,??___fladd+3
  3781   001428  3433               	rlcf	(??___fladd+3)^0,w,c
  3782   00142A  3233               	rrcf	(??___fladd+3)^0,f,c
  3783   00142C  3232               	rrcf	(??___fladd+2)^0,f,c
  3784   00142E  3231               	rrcf	(??___fladd+1)^0,f,c
  3785   001430  3230               	rrcf	??___fladd^0,f,c
  3786   001432  C030  F028         	movff	??___fladd,___fladd@b
  3787   001436  C031  F029         	movff	??___fladd+1,___fladd@b+1
  3788   00143A  C032  F02A         	movff	??___fladd+2,___fladd@b+2
  3789   00143E  C033  F02B         	movff	??___fladd+3,___fladd@b+3
  3790   001442  2836               	incf	___fladd@bexp^0,w,c
  3791   001444  B4D8               	btfsc	status,2,c
  3792   001446  EF27  F00A         	goto	u4751
  3793   00144A  EF29  F00A         	goto	u4750
  3794   00144E                     u4751:
  3795   00144E  EF2A  F00A         	goto	l5854
  3796   001452                     u4750:
  3797   001452  2A36               	incf	___fladd@bexp^0,f,c
  3798   001454                     l5854:
  3799   001454  2836               	incf	___fladd@bexp^0,w,c
  3800   001456  B4D8               	btfsc	status,2,c
  3801   001458  EF30  F00A         	goto	u4761
  3802   00145C  EF32  F00A         	goto	u4760
  3803   001460                     u4761:
  3804   001460  EF3A  F00A         	goto	l5858
  3805   001464                     u4760:
  3806   001464  5036               	movf	___fladd@bexp^0,w,c
  3807   001466  A4D8               	btfss	status,2,c
  3808   001468  EF38  F00A         	goto	u4771
  3809   00146C  EF3A  F00A         	goto	u4770
  3810   001470                     u4771:
  3811   001470  EF4C  F00A         	goto	l5862
  3812   001474                     u4770:
  3813   001474                     l5858:
  3814   001474  0E00               	movlw	0
  3815   001476  6E28               	movwf	___fladd@b^0,c
  3816   001478  0E00               	movlw	0
  3817   00147A  6E29               	movwf	(___fladd@b+1)^0,c
  3818   00147C  0E00               	movlw	0
  3819   00147E  6E2A               	movwf	(___fladd@b+2)^0,c
  3820   001480  0E00               	movlw	0
  3821   001482  6E2B               	movwf	(___fladd@b+3)^0,c
  3822   001484  5036               	movf	___fladd@bexp^0,w,c
  3823   001486  A4D8               	btfss	status,2,c
  3824   001488  EF48  F00A         	goto	u4781
  3825   00148C  EF4A  F00A         	goto	u4780
  3826   001490                     u4781:
  3827   001490  EF4C  F00A         	goto	l5862
  3828   001494                     u4780:
  3829   001494  0E00               	movlw	0
  3830   001496  6E34               	movwf	___fladd@signs^0,c
  3831   001498                     l5862:
  3832   001498  A036               	btfss	___fladd@bexp^0,0,c
  3833   00149A  EF51  F00A         	goto	u4791
  3834   00149E  EF53  F00A         	goto	u4790
  3835   0014A2                     u4791:
  3836   0014A2  EF56  F00A         	goto	l5866
  3837   0014A6                     u4790:
  3838   0014A6  8E2A               	bsf	(___fladd@b+2)^0,7,c
  3839   0014A8  EF57  F00A         	goto	l5868
  3840   0014AC                     l5866:
  3841   0014AC  9E2A               	bcf	(___fladd@b+2)^0,7,c
  3842   0014AE                     l5868:
  3843   0014AE  90D8               	bcf	status,0,c
  3844   0014B0  3036               	rrcf	___fladd@bexp^0,w,c
  3845   0014B2  6E2B               	movwf	(___fladd@b+3)^0,c
  3846   0014B4  AE34               	btfss	___fladd@signs^0,7,c
  3847   0014B6  EF5F  F00A         	goto	u4801
  3848   0014BA  EF61  F00A         	goto	u4800
  3849   0014BE                     u4801:
  3850   0014BE  EF62  F00A         	goto	l5874
  3851   0014C2                     u4800:
  3852   0014C2  8E2B               	bsf	(___fladd@b+3)^0,7,c
  3853   0014C4                     l5874:
  3854   0014C4  C028  F028         	movff	___fladd@b,?___fladd
  3855   0014C8  C029  F029         	movff	___fladd@b+1,?___fladd+1
  3856   0014CC  C02A  F02A         	movff	___fladd@b+2,?___fladd+2
  3857   0014D0  C02B  F02B         	movff	___fladd@b+3,?___fladd+3
  3858   0014D4                     l2195:
  3859   0014D4  0012               	return		;funcret
  3860   0014D6                     __end_of___fladd:
  3861                           	callstack 0
  3862                           
  3863 ;; *************** function _InterruptManager *****************
  3864 ;; Defined at:
  3865 ;;		line 156 in file "MCAL_Layer/Interrupt/mcal_interrupt_manager.c"
  3866 ;; Parameters:    Size  Location     Type
  3867 ;;		None
  3868 ;; Auto vars:     Size  Location     Type
  3869 ;;		None
  3870 ;; Return value:  Size  Location     Type
  3871 ;;                  1    wreg      void 
  3872 ;; Registers used:
  3873 ;;		wreg, status,2, status,0, cstack
  3874 ;; Tracked objects:
  3875 ;;		On entry : 0/0
  3876 ;;		On exit  : 0/0
  3877 ;;		Unchanged: 0/0
  3878 ;; Data sizes:     COMRAM   BANK0   BANK1   BANK2   BANK3   BANK4   BANK5   BANK6   BANK7   BANK8   BANK9  BANK10  BANK1
      +1  BANK12  BANK13  BANK14  BANK15
  3879 ;;      Params:         0       0       0       0       0       0       0       0       0       0       0       0       
      +0       0       0       0       0
  3880 ;;      Locals:         0       0       0       0       0       0       0       0       0       0       0       0       
      +0       0       0       0       0
  3881 ;;      Temps:          0       0       0       0       0       0       0       0       0       0       0       0       
      +0       0       0       0       0
  3882 ;;      Totals:         0       0       0       0       0       0       0       0       0       0       0       0       
      +0       0       0       0       0
  3883 ;;Total ram usage:        0 bytes
  3884 ;; Hardware stack levels used: 1
  3885 ;; Hardware stack levels required when called: 1
  3886 ;; This function calls:
  3887 ;;		_ADC_ISR
  3888 ;;		_CCP1_ISR
  3889 ;;		_CCP2_ISR
  3890 ;;		_EUSART_RX_ISR
  3891 ;;		_EUSART_TX_ISR
  3892 ;;		_INT0_ISR
  3893 ;;		_INT1_ISR
  3894 ;;		_INT2_ISR
  3895 ;;		_MSSP_Bus_Collision_ISR
  3896 ;;		_MSSP_ISR
  3897 ;;		_RB4_ISR
  3898 ;;		_RB5_ISR
  3899 ;;		_RB6_ISR
  3900 ;;		_RB7_ISR
  3901 ;;		_TMR0_ISR
  3902 ;;		_TMR1_ISR
  3903 ;;		_TMR2_ISR
  3904 ;;		_TMR3_ISR
  3905 ;; This function is called by:
  3906 ;;		Interrupt level 2
  3907 ;; This function uses a non-reentrant model
  3908 ;;
  3909                           
  3910                           	psect	intcode
  3911   000008                     __pintcode:
  3912                           	callstack 0
  3913   000008                     _InterruptManager:
  3914                           	callstack 25
  3915                           
  3916                           ;incstack = 0
  3917   000008  827E               	bsf	int$flags,1,c	;set compiler interrupt flag (level 2)
  3918   00000A  ED38  F00C         	call	int_func,f	;refresh shadow registers
  3919                           
  3920                           	psect	intcode_body
  3921   001870                     __pintcode_body:
  3922                           	callstack 25
  3923   001870                     int_func:
  3924                           	callstack 25
  3925   001870  0006               	pop		; remove dummy address from shadow register refresh
  3926   001872                     
  3927                           ;MCAL_Layer/Interrupt/mcal_interrupt_manager.c: 157:     if((1 == (*((volatile INTCON_t 
      +                          *)(0xFF2))).INT0IE)&&(1 == (*((volatile INTCON_t *)(0xFF2))).INT0IF)){
  3928   001872  A8F2               	btfss	242,4,c	;volatile
  3929   001874  EF3E  F00C         	goto	i2u663_41
  3930   001878  EF40  F00C         	goto	i2u663_40
  3931   00187C                     i2u663_41:
  3932   00187C  EF49  F00C         	goto	i2l1087
  3933   001880                     i2u663_40:
  3934   001880  A2F2               	btfss	242,1,c	;volatile
  3935   001882  EF45  F00C         	goto	i2u664_41
  3936   001886  EF47  F00C         	goto	i2u664_40
  3937   00188A                     i2u664_41:
  3938   00188A  EF49  F00C         	goto	i2l1087
  3939   00188E                     i2u664_40:
  3940   00188E                     
  3941                           ;MCAL_Layer/Interrupt/mcal_interrupt_manager.c: 158:         INT0_ISR();
  3942   00188E  EC32  F013         	call	_INT0_ISR	;wreg free
  3943   001892                     i2l1087:
  3944                           
  3945                           ;MCAL_Layer/Interrupt/mcal_interrupt_manager.c: 161:     if((1 == (*((volatile INTCON3_t
      +                           *)(0xFF0))).INT1IE)&&(1 == (*((volatile INTCON3_t *)(0xFF0))).INT1IF)){
  3946   001892  A6F0               	btfss	240,3,c	;volatile
  3947   001894  EF4E  F00C         	goto	i2u665_41
  3948   001898  EF50  F00C         	goto	i2u665_40
  3949   00189C                     i2u665_41:
  3950   00189C  EF59  F00C         	goto	i2l1089
  3951   0018A0                     i2u665_40:
  3952   0018A0  A0F0               	btfss	240,0,c	;volatile
  3953   0018A2  EF55  F00C         	goto	i2u666_41
  3954   0018A6  EF57  F00C         	goto	i2u666_40
  3955   0018AA                     i2u666_41:
  3956   0018AA  EF59  F00C         	goto	i2l1089
  3957   0018AE                     i2u666_40:
  3958   0018AE                     
  3959                           ;MCAL_Layer/Interrupt/mcal_interrupt_manager.c: 162:         INT1_ISR();
  3960   0018AE  EC30  F013         	call	_INT1_ISR	;wreg free
  3961   0018B2                     i2l1089:
  3962                           
  3963                           ;MCAL_Layer/Interrupt/mcal_interrupt_manager.c: 165:     if((1 == (*((volatile INTCON3_t
      +                           *)(0xFF0))).INT2IE)&&(1 == (*((volatile INTCON3_t *)(0xFF0))).INT2IF)){
  3964   0018B2  A8F0               	btfss	240,4,c	;volatile
  3965   0018B4  EF5E  F00C         	goto	i2u667_41
  3966   0018B8  EF60  F00C         	goto	i2u667_40
  3967   0018BC                     i2u667_41:
  3968   0018BC  EF69  F00C         	goto	i2l1091
  3969   0018C0                     i2u667_40:
  3970   0018C0  A2F0               	btfss	240,1,c	;volatile
  3971   0018C2  EF65  F00C         	goto	i2u668_41
  3972   0018C6  EF67  F00C         	goto	i2u668_40
  3973   0018CA                     i2u668_41:
  3974   0018CA  EF69  F00C         	goto	i2l1091
  3975   0018CE                     i2u668_40:
  3976   0018CE                     
  3977                           ;MCAL_Layer/Interrupt/mcal_interrupt_manager.c: 166:         INT2_ISR();
  3978   0018CE  EC2E  F013         	call	_INT2_ISR	;wreg free
  3979   0018D2                     i2l1091:
  3980                           
  3981                           ;MCAL_Layer/Interrupt/mcal_interrupt_manager.c: 169:     if((1 == (*((volatile INTCON_t 
      +                          *)(0xFF2))).RBIE)&&(1 == (*((volatile INTCON_t *)(0xFF2))).RBIF) && (((((*((volatile uin
      +                          t8*)(0xF81)))>>4)&((uint8)0x01)))!=RB4_pin_init_value)){
  3982   0018D2  A6F2               	btfss	242,3,c	;volatile
  3983   0018D4  EF6E  F00C         	goto	i2u669_41
  3984   0018D8  EF70  F00C         	goto	i2u669_40
  3985   0018DC                     i2u669_41:
  3986   0018DC  EF86  F00C         	goto	i2l1093
  3987   0018E0                     i2u669_40:
  3988   0018E0  A0F2               	btfss	242,0,c	;volatile
  3989   0018E2  EF75  F00C         	goto	i2u670_41
  3990   0018E6  EF77  F00C         	goto	i2u670_40
  3991   0018EA                     i2u670_41:
  3992   0018EA  EF86  F00C         	goto	i2l1093
  3993   0018EE                     i2u670_40:
  3994   0018EE  3881               	swapf	129,w,c	;volatile
  3995   0018F0  0B0F               	andlw	15
  3996   0018F2  0B01               	andlw	1
  3997   0018F4  186C               	xorwf	_RB4_pin_init_value^0,w,c	;volatile
  3998   0018F6  B4D8               	btfsc	status,2,c
  3999   0018F8  EF80  F00C         	goto	i2u671_41
  4000   0018FC  EF82  F00C         	goto	i2u671_40
  4001   001900                     i2u671_41:
  4002   001900  EF86  F00C         	goto	i2l1093
  4003   001904                     i2u671_40:
  4004   001904                     
  4005                           ;MCAL_Layer/Interrupt/mcal_interrupt_manager.c: 170:         RB4_pin_init_value^=1;
  4006   001904  0E01               	movlw	1
  4007   001906  1A6C               	xorwf	_RB4_pin_init_value^0,f,c	;volatile
  4008   001908                     
  4009                           ;MCAL_Layer/Interrupt/mcal_interrupt_manager.c: 171:         RB4_ISR();
  4010   001908  EC2C  F013         	call	_RB4_ISR	;wreg free
  4011   00190C                     i2l1093:
  4012                           
  4013                           ;MCAL_Layer/Interrupt/mcal_interrupt_manager.c: 174:        if((1 == (*((volatile INTCON
      +                          _t *)(0xFF2))).RBIE)&&(1 == (*((volatile INTCON_t *)(0xFF2))).RBIF) && (((((*((volatile 
      +                          uint8*)(0xF81)))>>5)&((uint8)0x01)))!=RB5_pin_init_value)){
  4014   00190C  A6F2               	btfss	242,3,c	;volatile
  4015   00190E  EF8B  F00C         	goto	i2u672_41
  4016   001912  EF8D  F00C         	goto	i2u672_40
  4017   001916                     i2u672_41:
  4018   001916  EFA4  F00C         	goto	i2l1095
  4019   00191A                     i2u672_40:
  4020   00191A  A0F2               	btfss	242,0,c	;volatile
  4021   00191C  EF92  F00C         	goto	i2u673_41
  4022   001920  EF94  F00C         	goto	i2u673_40
  4023   001924                     i2u673_41:
  4024   001924  EFA4  F00C         	goto	i2l1095
  4025   001928                     i2u673_40:
  4026   001928  3881               	swapf	129,w,c	;volatile
  4027   00192A  42E8               	rrncf	wreg,f,c
  4028   00192C  0B07               	andlw	7
  4029   00192E  0B01               	andlw	1
  4030   001930  186B               	xorwf	_RB5_pin_init_value^0,w,c	;volatile
  4031   001932  B4D8               	btfsc	status,2,c
  4032   001934  EF9E  F00C         	goto	i2u674_41
  4033   001938  EFA0  F00C         	goto	i2u674_40
  4034   00193C                     i2u674_41:
  4035   00193C  EFA4  F00C         	goto	i2l1095
  4036   001940                     i2u674_40:
  4037   001940                     
  4038                           ;MCAL_Layer/Interrupt/mcal_interrupt_manager.c: 175:         RB5_pin_init_value^=1;
  4039   001940  0E01               	movlw	1
  4040   001942  1A6B               	xorwf	_RB5_pin_init_value^0,f,c	;volatile
  4041   001944                     
  4042                           ;MCAL_Layer/Interrupt/mcal_interrupt_manager.c: 176:         RB5_ISR();
  4043   001944  EC2A  F013         	call	_RB5_ISR	;wreg free
  4044   001948                     i2l1095:
  4045                           
  4046                           ;MCAL_Layer/Interrupt/mcal_interrupt_manager.c: 179:        if((1 == (*((volatile INTCON
      +                          _t *)(0xFF2))).RBIE)&&(1 == (*((volatile INTCON_t *)(0xFF2))).RBIF) && (((((*((volatile 
      +                          uint8*)(0xF81)))>>6)&((uint8)0x01)))!=RB6_pin_init_value)){
  4047   001948  A6F2               	btfss	242,3,c	;volatile
  4048   00194A  EFA9  F00C         	goto	i2u675_41
  4049   00194E  EFAB  F00C         	goto	i2u675_40
  4050   001952                     i2u675_41:
  4051   001952  EFC2  F00C         	goto	i2l1097
  4052   001956                     i2u675_40:
  4053   001956  A0F2               	btfss	242,0,c	;volatile
  4054   001958  EFB0  F00C         	goto	i2u676_41
  4055   00195C  EFB2  F00C         	goto	i2u676_40
  4056   001960                     i2u676_41:
  4057   001960  EFC2  F00C         	goto	i2l1097
  4058   001964                     i2u676_40:
  4059   001964  4481               	rlncf	129,w,c	;volatile
  4060   001966  46E8               	rlncf	wreg,f,c
  4061   001968  0B03               	andlw	3
  4062   00196A  0B01               	andlw	1
  4063   00196C  186A               	xorwf	_RB6_pin_init_value^0,w,c	;volatile
  4064   00196E  B4D8               	btfsc	status,2,c
  4065   001970  EFBC  F00C         	goto	i2u677_41
  4066   001974  EFBE  F00C         	goto	i2u677_40
  4067   001978                     i2u677_41:
  4068   001978  EFC2  F00C         	goto	i2l1097
  4069   00197C                     i2u677_40:
  4070   00197C                     
  4071                           ;MCAL_Layer/Interrupt/mcal_interrupt_manager.c: 180:         RB6_pin_init_value^=1;
  4072   00197C  0E01               	movlw	1
  4073   00197E  1A6A               	xorwf	_RB6_pin_init_value^0,f,c	;volatile
  4074   001980                     
  4075                           ;MCAL_Layer/Interrupt/mcal_interrupt_manager.c: 181:         RB6_ISR();
  4076   001980  EC28  F013         	call	_RB6_ISR	;wreg free
  4077   001984                     i2l1097:
  4078                           
  4079                           ;MCAL_Layer/Interrupt/mcal_interrupt_manager.c: 184:        if((1 == (*((volatile INTCON
      +                          _t *)(0xFF2))).RBIE)&&(1 == (*((volatile INTCON_t *)(0xFF2))).RBIF) && (((((*((volatile 
      +                          uint8*)(0xF81)))>>7)&((uint8)0x01)))!=RB7_pin_init_value)){
  4080   001984  A6F2               	btfss	242,3,c	;volatile
  4081   001986  EFC7  F00C         	goto	i2u678_41
  4082   00198A  EFC9  F00C         	goto	i2u678_40
  4083   00198E                     i2u678_41:
  4084   00198E  EFDE  F00C         	goto	i2l1099
  4085   001992                     i2u678_40:
  4086   001992  A0F2               	btfss	242,0,c	;volatile
  4087   001994  EFCE  F00C         	goto	i2u679_41
  4088   001998  EFD0  F00C         	goto	i2u679_40
  4089   00199C                     i2u679_41:
  4090   00199C  EFDE  F00C         	goto	i2l1099
  4091   0019A0                     i2u679_40:
  4092   0019A0  4481               	rlncf	129,w,c	;volatile
  4093   0019A2  0B01               	andlw	1
  4094   0019A4  1869               	xorwf	_RB7_pin_init_value^0,w,c	;volatile
  4095   0019A6  B4D8               	btfsc	status,2,c
  4096   0019A8  EFD8  F00C         	goto	i2u680_41
  4097   0019AC  EFDA  F00C         	goto	i2u680_40
  4098   0019B0                     i2u680_41:
  4099   0019B0  EFDE  F00C         	goto	i2l1099
  4100   0019B4                     i2u680_40:
  4101   0019B4                     
  4102                           ;MCAL_Layer/Interrupt/mcal_interrupt_manager.c: 185:         RB7_pin_init_value^=1;
  4103   0019B4  0E01               	movlw	1
  4104   0019B6  1A69               	xorwf	_RB7_pin_init_value^0,f,c	;volatile
  4105   0019B8                     
  4106                           ;MCAL_Layer/Interrupt/mcal_interrupt_manager.c: 186:         RB7_ISR();
  4107   0019B8  EC26  F013         	call	_RB7_ISR	;wreg free
  4108   0019BC                     i2l1099:
  4109                           
  4110                           ;MCAL_Layer/Interrupt/mcal_interrupt_manager.c: 189:      if((1== (*((volatile PIE1_t *)
      +                          (0xF9D))).ADIE)&&(1 == (*((volatile PIR1_t *)(0xF9E))).ADIF)){
  4111   0019BC  AC9D               	btfss	157,6,c	;volatile
  4112   0019BE  EFE3  F00C         	goto	i2u681_41
  4113   0019C2  EFE5  F00C         	goto	i2u681_40
  4114   0019C6                     i2u681_41:
  4115   0019C6  EFEE  F00C         	goto	i2l1101
  4116   0019CA                     i2u681_40:
  4117   0019CA  AC9E               	btfss	158,6,c	;volatile
  4118   0019CC  EFEA  F00C         	goto	i2u682_41
  4119   0019D0  EFEC  F00C         	goto	i2u682_40
  4120   0019D4                     i2u682_41:
  4121   0019D4  EFEE  F00C         	goto	i2l1101
  4122   0019D8                     i2u682_40:
  4123   0019D8                     
  4124                           ;MCAL_Layer/Interrupt/mcal_interrupt_manager.c: 190:         ADC_ISR();
  4125   0019D8  EC3A  F013         	call	_ADC_ISR	;wreg free
  4126   0019DC                     i2l1101:
  4127                           
  4128                           ;MCAL_Layer/Interrupt/mcal_interrupt_manager.c: 193:        if((1 == (*((volatile INTCON
      +                          _t *)(0xFF2))).TMR0IE)&&(1 == (*((volatile INTCON_t *)(0xFF2))).TMR0IF)){
  4129   0019DC  AAF2               	btfss	242,5,c	;volatile
  4130   0019DE  EFF3  F00C         	goto	i2u683_41
  4131   0019E2  EFF5  F00C         	goto	i2u683_40
  4132   0019E6                     i2u683_41:
  4133   0019E6  EFFE  F00C         	goto	i2l1103
  4134   0019EA                     i2u683_40:
  4135   0019EA  A4F2               	btfss	242,2,c	;volatile
  4136   0019EC  EFFA  F00C         	goto	i2u684_41
  4137   0019F0  EFFC  F00C         	goto	i2u684_40
  4138   0019F4                     i2u684_41:
  4139   0019F4  EFFE  F00C         	goto	i2l1103
  4140   0019F8                     i2u684_40:
  4141   0019F8                     
  4142                           ;MCAL_Layer/Interrupt/mcal_interrupt_manager.c: 194:         TMR0_ISR();
  4143   0019F8  EC1A  F013         	call	_TMR0_ISR	;wreg free
  4144   0019FC                     i2l1103:
  4145                           
  4146                           ;MCAL_Layer/Interrupt/mcal_interrupt_manager.c: 197:     if((1 == (*((volatile PIE1_t *)
      +                          (0xF9D))).TMR1IE)&&(1 ==(*((volatile PIR1_t *)(0xF9E))).TMR1IF)){
  4147   0019FC  A09D               	btfss	157,0,c	;volatile
  4148   0019FE  EF03  F00D         	goto	i2u685_41
  4149   001A02  EF05  F00D         	goto	i2u685_40
  4150   001A06                     i2u685_41:
  4151   001A06  EF0E  F00D         	goto	i2l1105
  4152   001A0A                     i2u685_40:
  4153   001A0A  A09E               	btfss	158,0,c	;volatile
  4154   001A0C  EF0A  F00D         	goto	i2u686_41
  4155   001A10  EF0C  F00D         	goto	i2u686_40
  4156   001A14                     i2u686_41:
  4157   001A14  EF0E  F00D         	goto	i2l1105
  4158   001A18                     i2u686_40:
  4159   001A18                     
  4160                           ;MCAL_Layer/Interrupt/mcal_interrupt_manager.c: 198:         TMR1_ISR();
  4161   001A18  EC14  F013         	call	_TMR1_ISR	;wreg free
  4162   001A1C                     i2l1105:
  4163                           
  4164                           ;MCAL_Layer/Interrupt/mcal_interrupt_manager.c: 201:     if((1 == (*((volatile PIE1_t *)
      +                          (0xF9D))).TMR2IE)&&(1 ==(*((volatile PIR1_t *)(0xF9E))).TMR2IF)){
  4165   001A1C  A29D               	btfss	157,1,c	;volatile
  4166   001A1E  EF13  F00D         	goto	i2u687_41
  4167   001A22  EF15  F00D         	goto	i2u687_40
  4168   001A26                     i2u687_41:
  4169   001A26  EF1E  F00D         	goto	i2l1107
  4170   001A2A                     i2u687_40:
  4171   001A2A  A29E               	btfss	158,1,c	;volatile
  4172   001A2C  EF1A  F00D         	goto	i2u688_41
  4173   001A30  EF1C  F00D         	goto	i2u688_40
  4174   001A34                     i2u688_41:
  4175   001A34  EF1E  F00D         	goto	i2l1107
  4176   001A38                     i2u688_40:
  4177   001A38                     
  4178                           ;MCAL_Layer/Interrupt/mcal_interrupt_manager.c: 202:         TMR2_ISR();
  4179   001A38  EC23  F013         	call	_TMR2_ISR	;wreg free
  4180   001A3C                     i2l1107:
  4181                           
  4182                           ;MCAL_Layer/Interrupt/mcal_interrupt_manager.c: 205:     if((1 == (*((volatile PIE2_t *)
      +                          (0xFA0))).TMR3IE)&&(1 ==(*((volatile PIR2_t *)(0xFA1))).TMR3IF)){
  4183   001A3C  A2A0               	btfss	160,1,c	;volatile
  4184   001A3E  EF23  F00D         	goto	i2u689_41
  4185   001A42  EF25  F00D         	goto	i2u689_40
  4186   001A46                     i2u689_41:
  4187   001A46  EF2E  F00D         	goto	i2l1109
  4188   001A4A                     i2u689_40:
  4189   001A4A  A2A1               	btfss	161,1,c	;volatile
  4190   001A4C  EF2A  F00D         	goto	i2u690_41
  4191   001A50  EF2C  F00D         	goto	i2u690_40
  4192   001A54                     i2u690_41:
  4193   001A54  EF2E  F00D         	goto	i2l1109
  4194   001A58                     i2u690_40:
  4195   001A58                     
  4196                           ;MCAL_Layer/Interrupt/mcal_interrupt_manager.c: 206:         TMR3_ISR();
  4197   001A58  EC0E  F013         	call	_TMR3_ISR	;wreg free
  4198   001A5C                     i2l1109:
  4199                           
  4200                           ;MCAL_Layer/Interrupt/mcal_interrupt_manager.c: 209:     if((1 == (*((volatile PIE1_t *)
      +                          (0xF9D))).CCP1IE)&&(1 ==(*((volatile PIR1_t *)(0xF9E))).CCP1IF)){
  4201   001A5C  A49D               	btfss	157,2,c	;volatile
  4202   001A5E  EF33  F00D         	goto	i2u691_41
  4203   001A62  EF35  F00D         	goto	i2u691_40
  4204   001A66                     i2u691_41:
  4205   001A66  EF3E  F00D         	goto	i2l1111
  4206   001A6A                     i2u691_40:
  4207   001A6A  A49E               	btfss	158,2,c	;volatile
  4208   001A6C  EF3A  F00D         	goto	i2u692_41
  4209   001A70  EF3C  F00D         	goto	i2u692_40
  4210   001A74                     i2u692_41:
  4211   001A74  EF3E  F00D         	goto	i2l1111
  4212   001A78                     i2u692_40:
  4213   001A78                     
  4214                           ;MCAL_Layer/Interrupt/mcal_interrupt_manager.c: 210:         CCP1_ISR();
  4215   001A78  EC38  F013         	call	_CCP1_ISR	;wreg free
  4216   001A7C                     i2l1111:
  4217                           
  4218                           ;MCAL_Layer/Interrupt/mcal_interrupt_manager.c: 213:     if((1 == (*((volatile PIE2_t *)
      +                          (0xFA0))).CCP2IE)&&(1 ==(*((volatile PIR2_t *)(0xFA1))).CCP2IF)){
  4219   001A7C  A0A0               	btfss	160,0,c	;volatile
  4220   001A7E  EF43  F00D         	goto	i2u693_41
  4221   001A82  EF45  F00D         	goto	i2u693_40
  4222   001A86                     i2u693_41:
  4223   001A86  EF4E  F00D         	goto	i2l1113
  4224   001A8A                     i2u693_40:
  4225   001A8A  A0A1               	btfss	161,0,c	;volatile
  4226   001A8C  EF4A  F00D         	goto	i2u694_41
  4227   001A90  EF4C  F00D         	goto	i2u694_40
  4228   001A94                     i2u694_41:
  4229   001A94  EF4E  F00D         	goto	i2l1113
  4230   001A98                     i2u694_40:
  4231   001A98                     
  4232                           ;MCAL_Layer/Interrupt/mcal_interrupt_manager.c: 214:         CCP2_ISR();
  4233   001A98  EC36  F013         	call	_CCP2_ISR	;wreg free
  4234   001A9C                     i2l1113:
  4235                           
  4236                           ;MCAL_Layer/Interrupt/mcal_interrupt_manager.c: 217:     if((1 == (*((volatile PIE1_t *)
      +                          (0xF9D))).TXIE)&&(1 == (*((volatile PIR1_t *)(0xF9E))).TXIF)){
  4237   001A9C  A89D               	btfss	157,4,c	;volatile
  4238   001A9E  EF53  F00D         	goto	i2u695_41
  4239   001AA2  EF55  F00D         	goto	i2u695_40
  4240   001AA6                     i2u695_41:
  4241   001AA6  EF5E  F00D         	goto	i2l1115
  4242   001AAA                     i2u695_40:
  4243   001AAA  A89E               	btfss	158,4,c	;volatile
  4244   001AAC  EF5A  F00D         	goto	i2u696_41
  4245   001AB0  EF5C  F00D         	goto	i2u696_40
  4246   001AB4                     i2u696_41:
  4247   001AB4  EF5E  F00D         	goto	i2l1115
  4248   001AB8                     i2u696_40:
  4249   001AB8                     
  4250                           ;MCAL_Layer/Interrupt/mcal_interrupt_manager.c: 218:         EUSART_TX_ISR();
  4251   001AB8  EC34  F013         	call	_EUSART_TX_ISR	;wreg free
  4252   001ABC                     i2l1115:
  4253                           
  4254                           ;MCAL_Layer/Interrupt/mcal_interrupt_manager.c: 221:     if((1 == (*((volatile PIE1_t *)
      +                          (0xF9D))).RCIE)&&(1 == (*((volatile PIR1_t *)(0xF9E))).RCIF)){
  4255   001ABC  AA9D               	btfss	157,5,c	;volatile
  4256   001ABE  EF63  F00D         	goto	i2u697_41
  4257   001AC2  EF65  F00D         	goto	i2u697_40
  4258   001AC6                     i2u697_41:
  4259   001AC6  EF6E  F00D         	goto	i2l1117
  4260   001ACA                     i2u697_40:
  4261   001ACA  AA9E               	btfss	158,5,c	;volatile
  4262   001ACC  EF6A  F00D         	goto	i2u698_41
  4263   001AD0  EF6C  F00D         	goto	i2u698_40
  4264   001AD4                     i2u698_41:
  4265   001AD4  EF6E  F00D         	goto	i2l1117
  4266   001AD8                     i2u698_40:
  4267   001AD8                     
  4268                           ;MCAL_Layer/Interrupt/mcal_interrupt_manager.c: 222:         EUSART_RX_ISR();
  4269   001AD8  EC3E  F013         	call	_EUSART_RX_ISR	;wreg free
  4270   001ADC                     i2l1117:
  4271                           
  4272                           ;MCAL_Layer/Interrupt/mcal_interrupt_manager.c: 225:     if((1 == (*((volatile PIE1_t *)
      +                          (0xF9D))).SSPIE)&&(1 == (*((volatile PIR1_t *)(0xF9E))).SSPIF)){
  4273   001ADC  A69D               	btfss	157,3,c	;volatile
  4274   001ADE  EF73  F00D         	goto	i2u699_41
  4275   001AE2  EF75  F00D         	goto	i2u699_40
  4276   001AE6                     i2u699_41:
  4277   001AE6  EF7E  F00D         	goto	i2l1119
  4278   001AEA                     i2u699_40:
  4279   001AEA  A69E               	btfss	158,3,c	;volatile
  4280   001AEC  EF7A  F00D         	goto	i2u700_41
  4281   001AF0  EF7C  F00D         	goto	i2u700_40
  4282   001AF4                     i2u700_41:
  4283   001AF4  EF7E  F00D         	goto	i2l1119
  4284   001AF8                     i2u700_40:
  4285   001AF8                     
  4286                           ;MCAL_Layer/Interrupt/mcal_interrupt_manager.c: 226:         MSSP_ISR();
  4287   001AF8  EC3C  F013         	call	_MSSP_ISR	;wreg free
  4288   001AFC                     i2l1119:
  4289                           
  4290                           ;MCAL_Layer/Interrupt/mcal_interrupt_manager.c: 229:     if((1 == (*((volatile PIE2_t *)
      +                          (0xFA0))).BCLIE)&&(1 == (*((volatile PIR2_t *)(0xFA1))).BCLIF)){
  4291   001AFC  A6A0               	btfss	160,3,c	;volatile
  4292   001AFE  EF83  F00D         	goto	i2u701_41
  4293   001B02  EF85  F00D         	goto	i2u701_40
  4294   001B06                     i2u701_41:
  4295   001B06  EF8E  F00D         	goto	i2l1122
  4296   001B0A                     i2u701_40:
  4297   001B0A  A6A1               	btfss	161,3,c	;volatile
  4298   001B0C  EF8A  F00D         	goto	i2u702_41
  4299   001B10  EF8C  F00D         	goto	i2u702_40
  4300   001B14                     i2u702_41:
  4301   001B14  EF8E  F00D         	goto	i2l1122
  4302   001B18                     i2u702_40:
  4303   001B18                     
  4304                           ;MCAL_Layer/Interrupt/mcal_interrupt_manager.c: 230:         MSSP_Bus_Collision_ISR();
  4305   001B18  EC3D  F013         	call	_MSSP_Bus_Collision_ISR	;wreg free
  4306   001B1C                     i2l1122:
  4307   001B1C  927E               	bcf	int$flags,1,c	;clear compiler interrupt flag (level 2)
  4308   001B1E  0011               	retfie		f
  4309   001B20                     __end_of_InterruptManager:
  4310                           	callstack 0
  4311                           
  4312 ;; *************** function _TMR3_ISR *****************
  4313 ;; Defined at:
  4314 ;;		line 138 in file "MCAL_Layer/Timer3/hal_timer3.c"
  4315 ;; Parameters:    Size  Location     Type
  4316 ;;		None
  4317 ;; Auto vars:     Size  Location     Type
  4318 ;;		None
  4319 ;; Return value:  Size  Location     Type
  4320 ;;                  1    wreg      void 
  4321 ;; Registers used:
  4322 ;;		wreg, status,2
  4323 ;; Tracked objects:
  4324 ;;		On entry : 0/0
  4325 ;;		On exit  : 0/0
  4326 ;;		Unchanged: 0/0
  4327 ;; Data sizes:     COMRAM   BANK0   BANK1   BANK2   BANK3   BANK4   BANK5   BANK6   BANK7   BANK8   BANK9  BANK10  BANK1
      +1  BANK12  BANK13  BANK14  BANK15
  4328 ;;      Params:         0       0       0       0       0       0       0       0       0       0       0       0       
      +0       0       0       0       0
  4329 ;;      Locals:         0       0       0       0       0       0       0       0       0       0       0       0       
      +0       0       0       0       0
  4330 ;;      Temps:          0       0       0       0       0       0       0       0       0       0       0       0       
      +0       0       0       0       0
  4331 ;;      Totals:         0       0       0       0       0       0       0       0       0       0       0       0       
      +0       0       0       0       0
  4332 ;;Total ram usage:        0 bytes
  4333 ;; Hardware stack levels used: 1
  4334 ;; This function calls:
  4335 ;;		Nothing
  4336 ;; This function is called by:
  4337 ;;		_InterruptManager
  4338 ;; This function uses a non-reentrant model
  4339 ;;
  4340                           
  4341                           	psect	text20
  4342   00261C                     __ptext20:
  4343                           	callstack 0
  4344   00261C                     _TMR3_ISR:
  4345                           	callstack 25
  4346   00261C                     
  4347                           ;MCAL_Layer/Timer3/hal_timer3.c: 140:     (*((volatile uint8 *)(0xFB3))) = (timer3_prelo
      +                          ad)>>8;
  4348   00261C  504A               	movf	(_timer3_preload+1)^0,w,c
  4349   00261E  6EB3               	movwf	179,c	;volatile
  4350   002620                     
  4351                           ;MCAL_Layer/Timer3/hal_timer3.c: 141:     (*((volatile uint8 *)(0xFB2))) = (uint8)(timer
      +                          3_preload);
  4352   002620  C049  FFB2         	movff	_timer3_preload,4018	;volatile
  4353   002624                     
  4354                           ;MCAL_Layer/Timer3/hal_timer3.c: 142:     ((*((volatile PIR2_t *)(0xFA1))).TMR3IF=0);
  4355   002624  92A1               	bcf	161,1,c	;volatile
  4356   002626  0012               	return		;funcret
  4357   002628                     __end_of_TMR3_ISR:
  4358                           	callstack 0
  4359                           
  4360 ;; *************** function _TMR2_ISR *****************
  4361 ;; Defined at:
  4362 ;;		line 110 in file "MCAL_Layer/Timer2/hal_timer2.c"
  4363 ;; Parameters:    Size  Location     Type
  4364 ;;		None
  4365 ;; Auto vars:     Size  Location     Type
  4366 ;;		None
  4367 ;; Return value:  Size  Location     Type
  4368 ;;                  1    wreg      void 
  4369 ;; Registers used:
  4370 ;;		None
  4371 ;; Tracked objects:
  4372 ;;		On entry : 0/0
  4373 ;;		On exit  : 0/0
  4374 ;;		Unchanged: 0/0
  4375 ;; Data sizes:     COMRAM   BANK0   BANK1   BANK2   BANK3   BANK4   BANK5   BANK6   BANK7   BANK8   BANK9  BANK10  BANK1
      +1  BANK12  BANK13  BANK14  BANK15
  4376 ;;      Params:         0       0       0       0       0       0       0       0       0       0       0       0       
      +0       0       0       0       0
  4377 ;;      Locals:         0       0       0       0       0       0       0       0       0       0       0       0       
      +0       0       0       0       0
  4378 ;;      Temps:          0       0       0       0       0       0       0       0       0       0       0       0       
      +0       0       0       0       0
  4379 ;;      Totals:         0       0       0       0       0       0       0       0       0       0       0       0       
      +0       0       0       0       0
  4380 ;;Total ram usage:        0 bytes
  4381 ;; Hardware stack levels used: 1
  4382 ;; This function calls:
  4383 ;;		Nothing
  4384 ;; This function is called by:
  4385 ;;		_InterruptManager
  4386 ;; This function uses a non-reentrant model
  4387 ;;
  4388                           
  4389                           	psect	text21
  4390   002646                     __ptext21:
  4391                           	callstack 0
  4392   002646                     _TMR2_ISR:
  4393                           	callstack 25
  4394   002646                     
  4395                           ;MCAL_Layer/Timer2/hal_timer2.c: 111:     (*((volatile uint8 *)(0xFCC))) = timer2_preloa
      +                          d;
  4396   002646  C067  FFCC         	movff	_timer2_preload,4044	;volatile
  4397   00264A  0012               	return		;funcret
  4398   00264C                     __end_of_TMR2_ISR:
  4399                           	callstack 0
  4400                           
  4401 ;; *************** function _TMR1_ISR *****************
  4402 ;; Defined at:
  4403 ;;		line 113 in file "MCAL_Layer/Timer1/hal_timer1.c"
  4404 ;; Parameters:    Size  Location     Type
  4405 ;;		None
  4406 ;; Auto vars:     Size  Location     Type
  4407 ;;		None
  4408 ;; Return value:  Size  Location     Type
  4409 ;;                  1    wreg      void 
  4410 ;; Registers used:
  4411 ;;		wreg, status,2
  4412 ;; Tracked objects:
  4413 ;;		On entry : 0/0
  4414 ;;		On exit  : 0/0
  4415 ;;		Unchanged: 0/0
  4416 ;; Data sizes:     COMRAM   BANK0   BANK1   BANK2   BANK3   BANK4   BANK5   BANK6   BANK7   BANK8   BANK9  BANK10  BANK1
      +1  BANK12  BANK13  BANK14  BANK15
  4417 ;;      Params:         0       0       0       0       0       0       0       0       0       0       0       0       
      +0       0       0       0       0
  4418 ;;      Locals:         0       0       0       0       0       0       0       0       0       0       0       0       
      +0       0       0       0       0
  4419 ;;      Temps:          0       0       0       0       0       0       0       0       0       0       0       0       
      +0       0       0       0       0
  4420 ;;      Totals:         0       0       0       0       0       0       0       0       0       0       0       0       
      +0       0       0       0       0
  4421 ;;Total ram usage:        0 bytes
  4422 ;; Hardware stack levels used: 1
  4423 ;; This function calls:
  4424 ;;		Nothing
  4425 ;; This function is called by:
  4426 ;;		_InterruptManager
  4427 ;; This function uses a non-reentrant model
  4428 ;;
  4429                           
  4430                           	psect	text22
  4431   002628                     __ptext22:
  4432                           	callstack 0
  4433   002628                     _TMR1_ISR:
  4434                           	callstack 25
  4435   002628                     
  4436                           ;MCAL_Layer/Timer1/hal_timer1.c: 114:     (*((volatile uint8 *)(0xFCF))) = (timer1_prelo
      +                          ad)>>8;
  4437   002628  504C               	movf	(_timer1_preload+1)^0,w,c
  4438   00262A  6ECF               	movwf	207,c	;volatile
  4439   00262C                     
  4440                           ;MCAL_Layer/Timer1/hal_timer1.c: 115:     (*((volatile uint8 *)(0xFCE))) = (uint8)(timer
      +                          1_preload);
  4441   00262C  C04B  FFCE         	movff	_timer1_preload,4046	;volatile
  4442   002630                     
  4443                           ;MCAL_Layer/Timer1/hal_timer1.c: 116:     ((*((volatile PIR1_t *)(0xF9E))).TMR1IF=0);
  4444   002630  909E               	bcf	158,0,c	;volatile
  4445   002632  0012               	return		;funcret
  4446   002634                     __end_of_TMR1_ISR:
  4447                           	callstack 0
  4448                           
  4449 ;; *************** function _TMR0_ISR *****************
  4450 ;; Defined at:
  4451 ;;		line 110 in file "MCAL_Layer/Timer0/hal_timer0.c"
  4452 ;; Parameters:    Size  Location     Type
  4453 ;;		None
  4454 ;; Auto vars:     Size  Location     Type
  4455 ;;		None
  4456 ;; Return value:  Size  Location     Type
  4457 ;;                  1    wreg      void 
  4458 ;; Registers used:
  4459 ;;		wreg, status,2
  4460 ;; Tracked objects:
  4461 ;;		On entry : 0/0
  4462 ;;		On exit  : 0/0
  4463 ;;		Unchanged: 0/0
  4464 ;; Data sizes:     COMRAM   BANK0   BANK1   BANK2   BANK3   BANK4   BANK5   BANK6   BANK7   BANK8   BANK9  BANK10  BANK1
      +1  BANK12  BANK13  BANK14  BANK15
  4465 ;;      Params:         0       0       0       0       0       0       0       0       0       0       0       0       
      +0       0       0       0       0
  4466 ;;      Locals:         0       0       0       0       0       0       0       0       0       0       0       0       
      +0       0       0       0       0
  4467 ;;      Temps:          0       0       0       0       0       0       0       0       0       0       0       0       
      +0       0       0       0       0
  4468 ;;      Totals:         0       0       0       0       0       0       0       0       0       0       0       0       
      +0       0       0       0       0
  4469 ;;Total ram usage:        0 bytes
  4470 ;; Hardware stack levels used: 1
  4471 ;; This function calls:
  4472 ;;		Nothing
  4473 ;; This function is called by:
  4474 ;;		_InterruptManager
  4475 ;; This function uses a non-reentrant model
  4476 ;;
  4477                           
  4478                           	psect	text23
  4479   002634                     __ptext23:
  4480                           	callstack 0
  4481   002634                     _TMR0_ISR:
  4482                           	callstack 25
  4483   002634                     
  4484                           ;MCAL_Layer/Timer0/hal_timer0.c: 112:     TMR0H = (timer0_preload)>>8;
  4485   002634  504E               	movf	(_timer0_preload+1)^0,w,c
  4486   002636  6ED7               	movwf	215,c	;volatile
  4487   002638                     
  4488                           ;MCAL_Layer/Timer0/hal_timer0.c: 113:     (*((volatile uint8 *)(0xFD6))) = (uint8)(timer
      +                          0_preload);
  4489   002638  C04D  FFD6         	movff	_timer0_preload,4054	;volatile
  4490   00263C                     
  4491                           ;MCAL_Layer/Timer0/hal_timer0.c: 114:     ((*((volatile INTCON_t *)(0xFF2))).TMR0IF=0);
  4492   00263C  94F2               	bcf	242,2,c	;volatile
  4493   00263E  0012               	return		;funcret
  4494   002640                     __end_of_TMR0_ISR:
  4495                           	callstack 0
  4496                           
  4497 ;; *************** function _RB7_ISR *****************
  4498 ;; Defined at:
  4499 ;;		line 180 in file "MCAL_Layer/Interrupt/mcal_external_interrupt.c"
  4500 ;; Parameters:    Size  Location     Type
  4501 ;;		None
  4502 ;; Auto vars:     Size  Location     Type
  4503 ;;		None
  4504 ;; Return value:  Size  Location     Type
  4505 ;;                  1    wreg      void 
  4506 ;; Registers used:
  4507 ;;		None
  4508 ;; Tracked objects:
  4509 ;;		On entry : 0/0
  4510 ;;		On exit  : 0/0
  4511 ;;		Unchanged: 0/0
  4512 ;; Data sizes:     COMRAM   BANK0   BANK1   BANK2   BANK3   BANK4   BANK5   BANK6   BANK7   BANK8   BANK9  BANK10  BANK1
      +1  BANK12  BANK13  BANK14  BANK15
  4513 ;;      Params:         0       0       0       0       0       0       0       0       0       0       0       0       
      +0       0       0       0       0
  4514 ;;      Locals:         0       0       0       0       0       0       0       0       0       0       0       0       
      +0       0       0       0       0
  4515 ;;      Temps:          0       0       0       0       0       0       0       0       0       0       0       0       
      +0       0       0       0       0
  4516 ;;      Totals:         0       0       0       0       0       0       0       0       0       0       0       0       
      +0       0       0       0       0
  4517 ;;Total ram usage:        0 bytes
  4518 ;; Hardware stack levels used: 1
  4519 ;; This function calls:
  4520 ;;		Nothing
  4521 ;; This function is called by:
  4522 ;;		_InterruptManager
  4523 ;; This function uses a non-reentrant model
  4524 ;;
  4525                           
  4526                           	psect	text24
  4527   00264C                     __ptext24:
  4528                           	callstack 0
  4529   00264C                     _RB7_ISR:
  4530                           	callstack 25
  4531   00264C                     
  4532                           ;MCAL_Layer/Interrupt/mcal_external_interrupt.c: 182:     ((*((volatile INTCON_t *)(0xFF
      +                          2))).RBIF=0);
  4533   00264C  90F2               	bcf	242,0,c	;volatile
  4534   00264E  0012               	return		;funcret
  4535   002650                     __end_of_RB7_ISR:
  4536                           	callstack 0
  4537                           
  4538 ;; *************** function _RB6_ISR *****************
  4539 ;; Defined at:
  4540 ;;		line 172 in file "MCAL_Layer/Interrupt/mcal_external_interrupt.c"
  4541 ;; Parameters:    Size  Location     Type
  4542 ;;		None
  4543 ;; Auto vars:     Size  Location     Type
  4544 ;;		None
  4545 ;; Return value:  Size  Location     Type
  4546 ;;                  1    wreg      void 
  4547 ;; Registers used:
  4548 ;;		None
  4549 ;; Tracked objects:
  4550 ;;		On entry : 0/0
  4551 ;;		On exit  : 0/0
  4552 ;;		Unchanged: 0/0
  4553 ;; Data sizes:     COMRAM   BANK0   BANK1   BANK2   BANK3   BANK4   BANK5   BANK6   BANK7   BANK8   BANK9  BANK10  BANK1
      +1  BANK12  BANK13  BANK14  BANK15
  4554 ;;      Params:         0       0       0       0       0       0       0       0       0       0       0       0       
      +0       0       0       0       0
  4555 ;;      Locals:         0       0       0       0       0       0       0       0       0       0       0       0       
      +0       0       0       0       0
  4556 ;;      Temps:          0       0       0       0       0       0       0       0       0       0       0       0       
      +0       0       0       0       0
  4557 ;;      Totals:         0       0       0       0       0       0       0       0       0       0       0       0       
      +0       0       0       0       0
  4558 ;;Total ram usage:        0 bytes
  4559 ;; Hardware stack levels used: 1
  4560 ;; This function calls:
  4561 ;;		Nothing
  4562 ;; This function is called by:
  4563 ;;		_InterruptManager
  4564 ;; This function uses a non-reentrant model
  4565 ;;
  4566                           
  4567                           	psect	text25
  4568   002650                     __ptext25:
  4569                           	callstack 0
  4570   002650                     _RB6_ISR:
  4571                           	callstack 25
  4572   002650                     
  4573                           ;MCAL_Layer/Interrupt/mcal_external_interrupt.c: 174:     ((*((volatile INTCON_t *)(0xFF
      +                          2))).RBIF=0);
  4574   002650  90F2               	bcf	242,0,c	;volatile
  4575   002652  0012               	return		;funcret
  4576   002654                     __end_of_RB6_ISR:
  4577                           	callstack 0
  4578                           
  4579 ;; *************** function _RB5_ISR *****************
  4580 ;; Defined at:
  4581 ;;		line 164 in file "MCAL_Layer/Interrupt/mcal_external_interrupt.c"
  4582 ;; Parameters:    Size  Location     Type
  4583 ;;		None
  4584 ;; Auto vars:     Size  Location     Type
  4585 ;;		None
  4586 ;; Return value:  Size  Location     Type
  4587 ;;                  1    wreg      void 
  4588 ;; Registers used:
  4589 ;;		None
  4590 ;; Tracked objects:
  4591 ;;		On entry : 0/0
  4592 ;;		On exit  : 0/0
  4593 ;;		Unchanged: 0/0
  4594 ;; Data sizes:     COMRAM   BANK0   BANK1   BANK2   BANK3   BANK4   BANK5   BANK6   BANK7   BANK8   BANK9  BANK10  BANK1
      +1  BANK12  BANK13  BANK14  BANK15
  4595 ;;      Params:         0       0       0       0       0       0       0       0       0       0       0       0       
      +0       0       0       0       0
  4596 ;;      Locals:         0       0       0       0       0       0       0       0       0       0       0       0       
      +0       0       0       0       0
  4597 ;;      Temps:          0       0       0       0       0       0       0       0       0       0       0       0       
      +0       0       0       0       0
  4598 ;;      Totals:         0       0       0       0       0       0       0       0       0       0       0       0       
      +0       0       0       0       0
  4599 ;;Total ram usage:        0 bytes
  4600 ;; Hardware stack levels used: 1
  4601 ;; This function calls:
  4602 ;;		Nothing
  4603 ;; This function is called by:
  4604 ;;		_InterruptManager
  4605 ;; This function uses a non-reentrant model
  4606 ;;
  4607                           
  4608                           	psect	text26
  4609   002654                     __ptext26:
  4610                           	callstack 0
  4611   002654                     _RB5_ISR:
  4612                           	callstack 25
  4613   002654                     
  4614                           ;MCAL_Layer/Interrupt/mcal_external_interrupt.c: 166:     ((*((volatile INTCON_t *)(0xFF
      +                          2))).RBIF=0);
  4615   002654  90F2               	bcf	242,0,c	;volatile
  4616   002656  0012               	return		;funcret
  4617   002658                     __end_of_RB5_ISR:
  4618                           	callstack 0
  4619                           
  4620 ;; *************** function _RB4_ISR *****************
  4621 ;; Defined at:
  4622 ;;		line 156 in file "MCAL_Layer/Interrupt/mcal_external_interrupt.c"
  4623 ;; Parameters:    Size  Location     Type
  4624 ;;		None
  4625 ;; Auto vars:     Size  Location     Type
  4626 ;;		None
  4627 ;; Return value:  Size  Location     Type
  4628 ;;                  1    wreg      void 
  4629 ;; Registers used:
  4630 ;;		None
  4631 ;; Tracked objects:
  4632 ;;		On entry : 0/0
  4633 ;;		On exit  : 0/0
  4634 ;;		Unchanged: 0/0
  4635 ;; Data sizes:     COMRAM   BANK0   BANK1   BANK2   BANK3   BANK4   BANK5   BANK6   BANK7   BANK8   BANK9  BANK10  BANK1
      +1  BANK12  BANK13  BANK14  BANK15
  4636 ;;      Params:         0       0       0       0       0       0       0       0       0       0       0       0       
      +0       0       0       0       0
  4637 ;;      Locals:         0       0       0       0       0       0       0       0       0       0       0       0       
      +0       0       0       0       0
  4638 ;;      Temps:          0       0       0       0       0       0       0       0       0       0       0       0       
      +0       0       0       0       0
  4639 ;;      Totals:         0       0       0       0       0       0       0       0       0       0       0       0       
      +0       0       0       0       0
  4640 ;;Total ram usage:        0 bytes
  4641 ;; Hardware stack levels used: 1
  4642 ;; This function calls:
  4643 ;;		Nothing
  4644 ;; This function is called by:
  4645 ;;		_InterruptManager
  4646 ;; This function uses a non-reentrant model
  4647 ;;
  4648                           
  4649                           	psect	text27
  4650   002658                     __ptext27:
  4651                           	callstack 0
  4652   002658                     _RB4_ISR:
  4653                           	callstack 25
  4654   002658                     
  4655                           ;MCAL_Layer/Interrupt/mcal_external_interrupt.c: 158:     ((*((volatile INTCON_t *)(0xFF
      +                          2))).RBIF=0);
  4656   002658  90F2               	bcf	242,0,c	;volatile
  4657   00265A  0012               	return		;funcret
  4658   00265C                     __end_of_RB4_ISR:
  4659                           	callstack 0
  4660                           
  4661 ;; *************** function _MSSP_ISR *****************
  4662 ;; Defined at:
  4663 ;;		line 12 in file "MCAL_Layer/Interrupt/mcal_internal_interrupt.c"
  4664 ;; Parameters:    Size  Location     Type
  4665 ;;		None
  4666 ;; Auto vars:     Size  Location     Type
  4667 ;;		None
  4668 ;; Return value:  Size  Location     Type
  4669 ;;                  1    wreg      void 
  4670 ;; Registers used:
  4671 ;;		None
  4672 ;; Tracked objects:
  4673 ;;		On entry : 0/0
  4674 ;;		On exit  : 0/0
  4675 ;;		Unchanged: 0/0
  4676 ;; Data sizes:     COMRAM   BANK0   BANK1   BANK2   BANK3   BANK4   BANK5   BANK6   BANK7   BANK8   BANK9  BANK10  BANK1
      +1  BANK12  BANK13  BANK14  BANK15
  4677 ;;      Params:         0       0       0       0       0       0       0       0       0       0       0       0       
      +0       0       0       0       0
  4678 ;;      Locals:         0       0       0       0       0       0       0       0       0       0       0       0       
      +0       0       0       0       0
  4679 ;;      Temps:          0       0       0       0       0       0       0       0       0       0       0       0       
      +0       0       0       0       0
  4680 ;;      Totals:         0       0       0       0       0       0       0       0       0       0       0       0       
      +0       0       0       0       0
  4681 ;;Total ram usage:        0 bytes
  4682 ;; Hardware stack levels used: 1
  4683 ;; This function calls:
  4684 ;;		Nothing
  4685 ;; This function is called by:
  4686 ;;		_InterruptManager
  4687 ;; This function uses a non-reentrant model
  4688 ;;
  4689                           
  4690                           	psect	text28
  4691   002678                     __ptext28:
  4692                           	callstack 0
  4693   002678                     _MSSP_ISR:
  4694                           	callstack 25
  4695   002678  0012               	return		;funcret
  4696   00267A                     __end_of_MSSP_ISR:
  4697                           	callstack 0
  4698                           
  4699 ;; *************** function _MSSP_Bus_Collision_ISR *****************
  4700 ;; Defined at:
  4701 ;;		line 24 in file "MCAL_Layer/Interrupt/mcal_internal_interrupt.c"
  4702 ;; Parameters:    Size  Location     Type
  4703 ;;		None
  4704 ;; Auto vars:     Size  Location     Type
  4705 ;;		None
  4706 ;; Return value:  Size  Location     Type
  4707 ;;                  1    wreg      void 
  4708 ;; Registers used:
  4709 ;;		None
  4710 ;; Tracked objects:
  4711 ;;		On entry : 0/0
  4712 ;;		On exit  : 0/0
  4713 ;;		Unchanged: 0/0
  4714 ;; Data sizes:     COMRAM   BANK0   BANK1   BANK2   BANK3   BANK4   BANK5   BANK6   BANK7   BANK8   BANK9  BANK10  BANK1
      +1  BANK12  BANK13  BANK14  BANK15
  4715 ;;      Params:         0       0       0       0       0       0       0       0       0       0       0       0       
      +0       0       0       0       0
  4716 ;;      Locals:         0       0       0       0       0       0       0       0       0       0       0       0       
      +0       0       0       0       0
  4717 ;;      Temps:          0       0       0       0       0       0       0       0       0       0       0       0       
      +0       0       0       0       0
  4718 ;;      Totals:         0       0       0       0       0       0       0       0       0       0       0       0       
      +0       0       0       0       0
  4719 ;;Total ram usage:        0 bytes
  4720 ;; Hardware stack levels used: 1
  4721 ;; This function calls:
  4722 ;;		Nothing
  4723 ;; This function is called by:
  4724 ;;		_InterruptManager
  4725 ;; This function uses a non-reentrant model
  4726 ;;
  4727                           
  4728                           	psect	text29
  4729   00267A                     __ptext29:
  4730                           	callstack 0
  4731   00267A                     _MSSP_Bus_Collision_ISR:
  4732                           	callstack 25
  4733   00267A  0012               	return		;funcret
  4734   00267C                     __end_of_MSSP_Bus_Collision_ISR:
  4735                           	callstack 0
  4736                           
  4737 ;; *************** function _INT2_ISR *****************
  4738 ;; Defined at:
  4739 ;;		line 148 in file "MCAL_Layer/Interrupt/mcal_external_interrupt.c"
  4740 ;; Parameters:    Size  Location     Type
  4741 ;;		None
  4742 ;; Auto vars:     Size  Location     Type
  4743 ;;		None
  4744 ;; Return value:  Size  Location     Type
  4745 ;;                  1    wreg      void 
  4746 ;; Registers used:
  4747 ;;		None
  4748 ;; Tracked objects:
  4749 ;;		On entry : 0/0
  4750 ;;		On exit  : 0/0
  4751 ;;		Unchanged: 0/0
  4752 ;; Data sizes:     COMRAM   BANK0   BANK1   BANK2   BANK3   BANK4   BANK5   BANK6   BANK7   BANK8   BANK9  BANK10  BANK1
      +1  BANK12  BANK13  BANK14  BANK15
  4753 ;;      Params:         0       0       0       0       0       0       0       0       0       0       0       0       
      +0       0       0       0       0
  4754 ;;      Locals:         0       0       0       0       0       0       0       0       0       0       0       0       
      +0       0       0       0       0
  4755 ;;      Temps:          0       0       0       0       0       0       0       0       0       0       0       0       
      +0       0       0       0       0
  4756 ;;      Totals:         0       0       0       0       0       0       0       0       0       0       0       0       
      +0       0       0       0       0
  4757 ;;Total ram usage:        0 bytes
  4758 ;; Hardware stack levels used: 1
  4759 ;; This function calls:
  4760 ;;		Nothing
  4761 ;; This function is called by:
  4762 ;;		_InterruptManager
  4763 ;; This function uses a non-reentrant model
  4764 ;;
  4765                           
  4766                           	psect	text30
  4767   00265C                     __ptext30:
  4768                           	callstack 0
  4769   00265C                     _INT2_ISR:
  4770                           	callstack 25
  4771   00265C                     
  4772                           ;MCAL_Layer/Interrupt/mcal_external_interrupt.c: 150:     ((*((volatile INTCON3_t *)(0xF
      +                          F0))).INT2IF=0);
  4773   00265C  92F0               	bcf	240,1,c	;volatile
  4774   00265E  0012               	return		;funcret
  4775   002660                     __end_of_INT2_ISR:
  4776                           	callstack 0
  4777                           
  4778 ;; *************** function _INT1_ISR *****************
  4779 ;; Defined at:
  4780 ;;		line 140 in file "MCAL_Layer/Interrupt/mcal_external_interrupt.c"
  4781 ;; Parameters:    Size  Location     Type
  4782 ;;		None
  4783 ;; Auto vars:     Size  Location     Type
  4784 ;;		None
  4785 ;; Return value:  Size  Location     Type
  4786 ;;                  1    wreg      void 
  4787 ;; Registers used:
  4788 ;;		None
  4789 ;; Tracked objects:
  4790 ;;		On entry : 0/0
  4791 ;;		On exit  : 0/0
  4792 ;;		Unchanged: 0/0
  4793 ;; Data sizes:     COMRAM   BANK0   BANK1   BANK2   BANK3   BANK4   BANK5   BANK6   BANK7   BANK8   BANK9  BANK10  BANK1
      +1  BANK12  BANK13  BANK14  BANK15
  4794 ;;      Params:         0       0       0       0       0       0       0       0       0       0       0       0       
      +0       0       0       0       0
  4795 ;;      Locals:         0       0       0       0       0       0       0       0       0       0       0       0       
      +0       0       0       0       0
  4796 ;;      Temps:          0       0       0       0       0       0       0       0       0       0       0       0       
      +0       0       0       0       0
  4797 ;;      Totals:         0       0       0       0       0       0       0       0       0       0       0       0       
      +0       0       0       0       0
  4798 ;;Total ram usage:        0 bytes
  4799 ;; Hardware stack levels used: 1
  4800 ;; This function calls:
  4801 ;;		Nothing
  4802 ;; This function is called by:
  4803 ;;		_InterruptManager
  4804 ;; This function uses a non-reentrant model
  4805 ;;
  4806                           
  4807                           	psect	text31
  4808   002660                     __ptext31:
  4809                           	callstack 0
  4810   002660                     _INT1_ISR:
  4811                           	callstack 25
  4812   002660                     
  4813                           ;MCAL_Layer/Interrupt/mcal_external_interrupt.c: 142:     ((*((volatile INTCON3_t *)(0xF
      +                          F0))).INT1IF=0);
  4814   002660  90F0               	bcf	240,0,c	;volatile
  4815   002662  0012               	return		;funcret
  4816   002664                     __end_of_INT1_ISR:
  4817                           	callstack 0
  4818                           
  4819 ;; *************** function _INT0_ISR *****************
  4820 ;; Defined at:
  4821 ;;		line 132 in file "MCAL_Layer/Interrupt/mcal_external_interrupt.c"
  4822 ;; Parameters:    Size  Location     Type
  4823 ;;		None
  4824 ;; Auto vars:     Size  Location     Type
  4825 ;;		None
  4826 ;; Return value:  Size  Location     Type
  4827 ;;                  1    wreg      void 
  4828 ;; Registers used:
  4829 ;;		None
  4830 ;; Tracked objects:
  4831 ;;		On entry : 0/0
  4832 ;;		On exit  : 0/0
  4833 ;;		Unchanged: 0/0
  4834 ;; Data sizes:     COMRAM   BANK0   BANK1   BANK2   BANK3   BANK4   BANK5   BANK6   BANK7   BANK8   BANK9  BANK10  BANK1
      +1  BANK12  BANK13  BANK14  BANK15
  4835 ;;      Params:         0       0       0       0       0       0       0       0       0       0       0       0       
      +0       0       0       0       0
  4836 ;;      Locals:         0       0       0       0       0       0       0       0       0       0       0       0       
      +0       0       0       0       0
  4837 ;;      Temps:          0       0       0       0       0       0       0       0       0       0       0       0       
      +0       0       0       0       0
  4838 ;;      Totals:         0       0       0       0       0       0       0       0       0       0       0       0       
      +0       0       0       0       0
  4839 ;;Total ram usage:        0 bytes
  4840 ;; Hardware stack levels used: 1
  4841 ;; This function calls:
  4842 ;;		Nothing
  4843 ;; This function is called by:
  4844 ;;		_InterruptManager
  4845 ;; This function uses a non-reentrant model
  4846 ;;
  4847                           
  4848                           	psect	text32
  4849   002664                     __ptext32:
  4850                           	callstack 0
  4851   002664                     _INT0_ISR:
  4852                           	callstack 25
  4853   002664                     
  4854                           ;MCAL_Layer/Interrupt/mcal_external_interrupt.c: 134:     ((*((volatile INTCON_t *)(0xFF
      +                          2))).INT0IF=0);
  4855   002664  92F2               	bcf	242,1,c	;volatile
  4856   002666  0012               	return		;funcret
  4857   002668                     __end_of_INT0_ISR:
  4858                           	callstack 0
  4859                           
  4860 ;; *************** function _EUSART_TX_ISR *****************
  4861 ;; Defined at:
  4862 ;;		line 290 in file "MCAL_Layer/USART/hal_usart.c"
  4863 ;; Parameters:    Size  Location     Type
  4864 ;;		None
  4865 ;; Auto vars:     Size  Location     Type
  4866 ;;		None
  4867 ;; Return value:  Size  Location     Type
  4868 ;;                  1    wreg      void 
  4869 ;; Registers used:
  4870 ;;		None
  4871 ;; Tracked objects:
  4872 ;;		On entry : 0/0
  4873 ;;		On exit  : 0/0
  4874 ;;		Unchanged: 0/0
  4875 ;; Data sizes:     COMRAM   BANK0   BANK1   BANK2   BANK3   BANK4   BANK5   BANK6   BANK7   BANK8   BANK9  BANK10  BANK1
      +1  BANK12  BANK13  BANK14  BANK15
  4876 ;;      Params:         0       0       0       0       0       0       0       0       0       0       0       0       
      +0       0       0       0       0
  4877 ;;      Locals:         0       0       0       0       0       0       0       0       0       0       0       0       
      +0       0       0       0       0
  4878 ;;      Temps:          0       0       0       0       0       0       0       0       0       0       0       0       
      +0       0       0       0       0
  4879 ;;      Totals:         0       0       0       0       0       0       0       0       0       0       0       0       
      +0       0       0       0       0
  4880 ;;Total ram usage:        0 bytes
  4881 ;; Hardware stack levels used: 1
  4882 ;; This function calls:
  4883 ;;		Nothing
  4884 ;; This function is called by:
  4885 ;;		_InterruptManager
  4886 ;; This function uses a non-reentrant model
  4887 ;;
  4888                           
  4889                           	psect	text33
  4890   002668                     __ptext33:
  4891                           	callstack 0
  4892   002668                     _EUSART_TX_ISR:
  4893                           	callstack 25
  4894   002668                     
  4895                           ;MCAL_Layer/USART/hal_usart.c: 292:     ((*((volatile PIE1_t *)(0xF9D))).TXIE=0);
  4896   002668  989D               	bcf	157,4,c	;volatile
  4897   00266A  0012               	return		;funcret
  4898   00266C                     __end_of_EUSART_TX_ISR:
  4899                           	callstack 0
  4900                           
  4901 ;; *************** function _EUSART_RX_ISR *****************
  4902 ;; Defined at:
  4903 ;;		line 301 in file "MCAL_Layer/USART/hal_usart.c"
  4904 ;; Parameters:    Size  Location     Type
  4905 ;;		None
  4906 ;; Auto vars:     Size  Location     Type
  4907 ;;		None
  4908 ;; Return value:  Size  Location     Type
  4909 ;;                  1    wreg      void 
  4910 ;; Registers used:
  4911 ;;		wreg, status,2, status,0
  4912 ;; Tracked objects:
  4913 ;;		On entry : 0/0
  4914 ;;		On exit  : 0/0
  4915 ;;		Unchanged: 0/0
  4916 ;; Data sizes:     COMRAM   BANK0   BANK1   BANK2   BANK3   BANK4   BANK5   BANK6   BANK7   BANK8   BANK9  BANK10  BANK1
      +1  BANK12  BANK13  BANK14  BANK15
  4917 ;;      Params:         0       0       0       0       0       0       0       0       0       0       0       0       
      +0       0       0       0       0
  4918 ;;      Locals:         0       0       0       0       0       0       0       0       0       0       0       0       
      +0       0       0       0       0
  4919 ;;      Temps:          0       0       0       0       0       0       0       0       0       0       0       0       
      +0       0       0       0       0
  4920 ;;      Totals:         0       0       0       0       0       0       0       0       0       0       0       0       
      +0       0       0       0       0
  4921 ;;Total ram usage:        0 bytes
  4922 ;; Hardware stack levels used: 1
  4923 ;; This function calls:
  4924 ;;		Nothing
  4925 ;; This function is called by:
  4926 ;;		_InterruptManager
  4927 ;; This function uses a non-reentrant model
  4928 ;;
  4929                           
  4930                           	psect	text34
  4931   00267C                     __ptext34:
  4932                           	callstack 0
  4933   00267C                     _EUSART_RX_ISR:
  4934                           	callstack 25
  4935   00267C  0012               	return		;funcret
  4936   00267E                     __end_of_EUSART_RX_ISR:
  4937                           	callstack 0
  4938                           
  4939 ;; *************** function _CCP2_ISR *****************
  4940 ;; Defined at:
  4941 ;;		line 604 in file "MCAL_Layer/CCP/hal_ccp.c"
  4942 ;; Parameters:    Size  Location     Type
  4943 ;;		None
  4944 ;; Auto vars:     Size  Location     Type
  4945 ;;		None
  4946 ;; Return value:  Size  Location     Type
  4947 ;;                  1    wreg      void 
  4948 ;; Registers used:
  4949 ;;		None
  4950 ;; Tracked objects:
  4951 ;;		On entry : 0/0
  4952 ;;		On exit  : 0/0
  4953 ;;		Unchanged: 0/0
  4954 ;; Data sizes:     COMRAM   BANK0   BANK1   BANK2   BANK3   BANK4   BANK5   BANK6   BANK7   BANK8   BANK9  BANK10  BANK1
      +1  BANK12  BANK13  BANK14  BANK15
  4955 ;;      Params:         0       0       0       0       0       0       0       0       0       0       0       0       
      +0       0       0       0       0
  4956 ;;      Locals:         0       0       0       0       0       0       0       0       0       0       0       0       
      +0       0       0       0       0
  4957 ;;      Temps:          0       0       0       0       0       0       0       0       0       0       0       0       
      +0       0       0       0       0
  4958 ;;      Totals:         0       0       0       0       0       0       0       0       0       0       0       0       
      +0       0       0       0       0
  4959 ;;Total ram usage:        0 bytes
  4960 ;; Hardware stack levels used: 1
  4961 ;; This function calls:
  4962 ;;		Nothing
  4963 ;; This function is called by:
  4964 ;;		_InterruptManager
  4965 ;; This function uses a non-reentrant model
  4966 ;;
  4967                           
  4968                           	psect	text35
  4969   00266C                     __ptext35:
  4970                           	callstack 0
  4971   00266C                     _CCP2_ISR:
  4972                           	callstack 25
  4973   00266C                     
  4974                           ;MCAL_Layer/CCP/hal_ccp.c: 607:     ((*((volatile PIR2_t *)(0xFA1))).CCP2IF=0);
  4975   00266C  90A1               	bcf	161,0,c	;volatile
  4976   00266E  0012               	return		;funcret
  4977   002670                     __end_of_CCP2_ISR:
  4978                           	callstack 0
  4979                           
  4980 ;; *************** function _CCP1_ISR *****************
  4981 ;; Defined at:
  4982 ;;		line 594 in file "MCAL_Layer/CCP/hal_ccp.c"
  4983 ;; Parameters:    Size  Location     Type
  4984 ;;		None
  4985 ;; Auto vars:     Size  Location     Type
  4986 ;;		None
  4987 ;; Return value:  Size  Location     Type
  4988 ;;                  1    wreg      void 
  4989 ;; Registers used:
  4990 ;;		None
  4991 ;; Tracked objects:
  4992 ;;		On entry : 0/0
  4993 ;;		On exit  : 0/0
  4994 ;;		Unchanged: 0/0
  4995 ;; Data sizes:     COMRAM   BANK0   BANK1   BANK2   BANK3   BANK4   BANK5   BANK6   BANK7   BANK8   BANK9  BANK10  BANK1
      +1  BANK12  BANK13  BANK14  BANK15
  4996 ;;      Params:         0       0       0       0       0       0       0       0       0       0       0       0       
      +0       0       0       0       0
  4997 ;;      Locals:         0       0       0       0       0       0       0       0       0       0       0       0       
      +0       0       0       0       0
  4998 ;;      Temps:          0       0       0       0       0       0       0       0       0       0       0       0       
      +0       0       0       0       0
  4999 ;;      Totals:         0       0       0       0       0       0       0       0       0       0       0       0       
      +0       0       0       0       0
  5000 ;;Total ram usage:        0 bytes
  5001 ;; Hardware stack levels used: 1
  5002 ;; This function calls:
  5003 ;;		Nothing
  5004 ;; This function is called by:
  5005 ;;		_InterruptManager
  5006 ;; This function uses a non-reentrant model
  5007 ;;
  5008                           
  5009                           	psect	text36
  5010   002670                     __ptext36:
  5011                           	callstack 0
  5012   002670                     _CCP1_ISR:
  5013                           	callstack 25
  5014   002670                     
  5015                           ;MCAL_Layer/CCP/hal_ccp.c: 597:     ((*((volatile PIR1_t *)(0xF9E))).CCP1IF=0);
  5016   002670  949E               	bcf	158,2,c	;volatile
  5017   002672  0012               	return		;funcret
  5018   002674                     __end_of_CCP1_ISR:
  5019                           	callstack 0
  5020                           
  5021 ;; *************** function _ADC_ISR *****************
  5022 ;; Defined at:
  5023 ;;		line 3 in file "MCAL_Layer/Interrupt/mcal_internal_interrupt.c"
  5024 ;; Parameters:    Size  Location     Type
  5025 ;;		None
  5026 ;; Auto vars:     Size  Location     Type
  5027 ;;		None
  5028 ;; Return value:  Size  Location     Type
  5029 ;;                  1    wreg      void 
  5030 ;; Registers used:
  5031 ;;		None
  5032 ;; Tracked objects:
  5033 ;;		On entry : 0/0
  5034 ;;		On exit  : 0/0
  5035 ;;		Unchanged: 0/0
  5036 ;; Data sizes:     COMRAM   BANK0   BANK1   BANK2   BANK3   BANK4   BANK5   BANK6   BANK7   BANK8   BANK9  BANK10  BANK1
      +1  BANK12  BANK13  BANK14  BANK15
  5037 ;;      Params:         0       0       0       0       0       0       0       0       0       0       0       0       
      +0       0       0       0       0
  5038 ;;      Locals:         0       0       0       0       0       0       0       0       0       0       0       0       
      +0       0       0       0       0
  5039 ;;      Temps:          0       0       0       0       0       0       0       0       0       0       0       0       
      +0       0       0       0       0
  5040 ;;      Totals:         0       0       0       0       0       0       0       0       0       0       0       0       
      +0       0       0       0       0
  5041 ;;Total ram usage:        0 bytes
  5042 ;; Hardware stack levels used: 1
  5043 ;; This function calls:
  5044 ;;		Nothing
  5045 ;; This function is called by:
  5046 ;;		_InterruptManager
  5047 ;; This function uses a non-reentrant model
  5048 ;;
  5049                           
  5050                           	psect	text37
  5051   002674                     __ptext37:
  5052                           	callstack 0
  5053   002674                     _ADC_ISR:
  5054                           	callstack 25
  5055   002674                     
  5056                           ;MCAL_Layer/Interrupt/mcal_internal_interrupt.c: 5:        ((*((volatile PIR1_t *)(0xF9E
      +                          ))).ADIF=0);
  5057   002674  9C9E               	bcf	158,6,c	;volatile
  5058   002676  0012               	return		;funcret
  5059   002678                     __end_of_ADC_ISR:
  5060                           	callstack 0
  5061                           
  5062                           	psect	rparam
  5063   000000                     
  5064                           	psect	temp
  5065   00007E                     btemp:
  5066                           	callstack 0
  5067   00007E                     	ds	1
  5068   000000                     int$flags	set	btemp
  5069   000000                     wtemp8	set	btemp+1
  5070   000000                     ttemp5	set	btemp+1
  5071   000000                     ttemp6	set	btemp+4
  5072   000000                     ttemp7	set	btemp+8
  5073                           
  5074                           	psect	config
  5075                           
  5076                           ; Padding undefined space
  5077   300000                     	org	3145728
  5078   300000  FF                 	db	255
  5079                           
  5080                           ;Config register CONFIG1H @ 0x300001
  5081                           ;	Oscillator Selection bits
  5082                           ;	OSC = HS, HS oscillator
  5083                           ;	Fail-Safe Clock Monitor Enable bit
  5084                           ;	FCMEN = OFF, Fail-Safe Clock Monitor disabled
  5085                           ;	Internal/External Oscillator Switchover bit
  5086                           ;	IESO = OFF, Oscillator Switchover mode disabled
  5087   300001                     	org	3145729
  5088   300001  02                 	db	2
  5089                           
  5090                           ;Config register CONFIG2L @ 0x300002
  5091                           ;	Power-up Timer Enable bit
  5092                           ;	PWRT = OFF, PWRT disabled
  5093                           ;	Brown-out Reset Enable bits
  5094                           ;	BOREN = OFF, Brown-out Reset disabled in hardware and software
  5095                           ;	Brown Out Reset Voltage bits
  5096                           ;	BORV = 1, 
  5097   300002                     	org	3145730
  5098   300002  09                 	db	9
  5099                           
  5100                           ;Config register CONFIG2H @ 0x300003
  5101                           ;	Watchdog Timer Enable bit
  5102                           ;	WDT = OFF, WDT disabled (control is placed on the SWDTEN bit)
  5103                           ;	Watchdog Timer Postscale Select bits
  5104                           ;	WDTPS = 32768, 1:32768
  5105   300003                     	org	3145731
  5106   300003  1E                 	db	30
  5107                           
  5108                           ; Padding undefined space
  5109   300004                     	org	3145732
  5110   300004  FF                 	db	255
  5111                           
  5112                           ;Config register CONFIG3H @ 0x300005
  5113                           ;	CCP2 MUX bit
  5114                           ;	CCP2MX = PORTC, CCP2 input/output is multiplexed with RC1
  5115                           ;	PORTB A/D Enable bit
  5116                           ;	PBADEN = OFF, PORTB<4:0> pins are configured as digital I/O on Reset
  5117                           ;	Low-Power Timer1 Oscillator Enable bit
  5118                           ;	LPT1OSC = OFF, Timer1 configured for higher power operation
  5119                           ;	MCLR Pin Enable bit
  5120                           ;	MCLRE = ON, MCLR pin enabled; RE3 input pin disabled
  5121   300005                     	org	3145733
  5122   300005  81                 	db	129
  5123                           
  5124                           ;Config register CONFIG4L @ 0x300006
  5125                           ;	Stack Full/Underflow Reset Enable bit
  5126                           ;	STVREN = ON, Stack full/underflow will cause Reset
  5127                           ;	Single-Supply ICSP Enable bit
  5128                           ;	LVP = OFF, Single-Supply ICSP disabled
  5129                           ;	Extended Instruction Set Enable bit
  5130                           ;	XINST = OFF, Instruction set extension and Indexed Addressing mode disabled (Legacy mo
      +                          de)
  5131                           ;	Background Debugger Enable bit
  5132                           ;	DEBUG = 0x1, unprogrammed default
  5133   300006                     	org	3145734
  5134   300006  81                 	db	129
  5135                           
  5136                           ; Padding undefined space
  5137   300007                     	org	3145735
  5138   300007  FF                 	db	255
  5139                           
  5140                           ;Config register CONFIG5L @ 0x300008
  5141                           ;	Code Protection bit
  5142                           ;	CP0 = OFF, Block 0 (000800-003FFFh) not code-protected
  5143                           ;	Code Protection bit
  5144                           ;	CP1 = OFF, Block 1 (004000-007FFFh) not code-protected
  5145                           ;	Code Protection bit
  5146                           ;	CP2 = OFF, Block 2 (008000-00BFFFh) not code-protected
  5147                           ;	Code Protection bit
  5148                           ;	CP3 = OFF, Block 3 (00C000-00FFFFh) not code-protected
  5149   300008                     	org	3145736
  5150   300008  0F                 	db	15
  5151                           
  5152                           ;Config register CONFIG5H @ 0x300009
  5153                           ;	Boot Block Code Protection bit
  5154                           ;	CPB = OFF, Boot block (000000-0007FFh) not code-protected
  5155                           ;	Data EEPROM Code Protection bit
  5156                           ;	CPD = OFF, Data EEPROM not code-protected
  5157   300009                     	org	3145737
  5158   300009  C0                 	db	192
  5159                           
  5160                           ;Config register CONFIG6L @ 0x30000A
  5161                           ;	Write Protection bit
  5162                           ;	WRT0 = OFF, Block 0 (000800-003FFFh) not write-protected
  5163                           ;	Write Protection bit
  5164                           ;	WRT1 = OFF, Block 1 (004000-007FFFh) not write-protected
  5165                           ;	Write Protection bit
  5166                           ;	WRT2 = OFF, Block 2 (008000-00BFFFh) not write-protected
  5167                           ;	Write Protection bit
  5168                           ;	WRT3 = OFF, Block 3 (00C000-00FFFFh) not write-protected
  5169   30000A                     	org	3145738
  5170   30000A  0F                 	db	15
  5171                           
  5172                           ;Config register CONFIG6H @ 0x30000B
  5173                           ;	Configuration Register Write Protection bit
  5174                           ;	WRTC = OFF, Configuration registers (300000-3000FFh) not write-protected
  5175                           ;	Boot Block Write Protection bit
  5176                           ;	WRTB = OFF, Boot Block (000000-0007FFh) not write-protected
  5177                           ;	Data EEPROM Write Protection bit
  5178                           ;	WRTD = OFF, Data EEPROM not write-protected
  5179   30000B                     	org	3145739
  5180   30000B  E0                 	db	224
  5181                           
  5182                           ;Config register CONFIG7L @ 0x30000C
  5183                           ;	Table Read Protection bit
  5184                           ;	EBTR0 = OFF, Block 0 (000800-003FFFh) not protected from table reads executed in other
      +                           blocks
  5185                           ;	Table Read Protection bit
  5186                           ;	EBTR1 = OFF, Block 1 (004000-007FFFh) not protected from table reads executed in other
      +                           blocks
  5187                           ;	Table Read Protection bit
  5188                           ;	EBTR2 = OFF, Block 2 (008000-00BFFFh) not protected from table reads executed in other
      +                           blocks
  5189                           ;	Table Read Protection bit
  5190                           ;	EBTR3 = OFF, Block 3 (00C000-00FFFFh) not protected from table reads executed in other
      +                           blocks
  5191   30000C                     	org	3145740
  5192   30000C  0F                 	db	15
  5193                           
  5194                           ;Config register CONFIG7H @ 0x30000D
  5195                           ;	Boot Block Table Read Protection bit
  5196                           ;	EBTRB = OFF, Boot Block (000000-0007FFh) not protected from table reads executed in ot
      +                          her blocks
  5197   30000D                     	org	3145741
  5198   30000D  40                 	db	64
  5199                           tosu	equ	0xFFF
  5200                           tosh	equ	0xFFE
  5201                           tosl	equ	0xFFD
  5202                           stkptr	equ	0xFFC
  5203                           pclatu	equ	0xFFB
  5204                           pclath	equ	0xFFA
  5205                           pcl	equ	0xFF9
  5206                           tblptru	equ	0xFF8
  5207                           tblptrh	equ	0xFF7
  5208                           tblptrl	equ	0xFF6
  5209                           tablat	equ	0xFF5
  5210                           prodh	equ	0xFF4
  5211                           prodl	equ	0xFF3
  5212                           indf0	equ	0xFEF
  5213                           postinc0	equ	0xFEE
  5214                           postdec0	equ	0xFED
  5215                           preinc0	equ	0xFEC
  5216                           plusw0	equ	0xFEB
  5217                           fsr0h	equ	0xFEA
  5218                           fsr0l	equ	0xFE9
  5219                           wreg	equ	0xFE8
  5220                           indf1	equ	0xFE7
  5221                           postinc1	equ	0xFE6
  5222                           postdec1	equ	0xFE5
  5223                           preinc1	equ	0xFE4
  5224                           plusw1	equ	0xFE3
  5225                           fsr1h	equ	0xFE2
  5226                           fsr1l	equ	0xFE1
  5227                           bsr	equ	0xFE0
  5228                           indf2	equ	0xFDF
  5229                           postinc2	equ	0xFDE
  5230                           postdec2	equ	0xFDD
  5231                           preinc2	equ	0xFDC
  5232                           plusw2	equ	0xFDB
  5233                           fsr2h	equ	0xFDA
  5234                           fsr2l	equ	0xFD9
  5235                           status	equ	0xFD8

Data Sizes:
    Strings     3
    Constant    16
    Data        37
    BSS         95
    Persistent  0
    Stack       0

Auto Spaces:
    Space          Size  Autos    Used
    COMRAM          126     72     125
    BANK0           128      0      79
    BANK1           256      0       0
    BANK2           256      0       0
    BANK3           256      0       0
    BANK4           256      0       0
    BANK5           256      0       0
    BANK6           256      0       0
    BANK7           256      0       0
    BANK8           256      0       0
    BANK9           256      0       0
    BANK10          256      0       0
    BANK11          256      0       0
    BANK12          256      0       0
    BANK13          256      0       0
    BANK14          256      0       0
    BANK15          128      0       0

Pointer List with Targets:

    vfprintf$2	PTR PTR void  size(2) Largest target is 2
		 -> sprintf@ap(COMRAM[2]), 

    vfprintf$1	PTR const unsigned char  size(2) Largest target is 3
		 -> STR_3(CODE[3]), STR_2(CODE[3]), STR_1(CODE[3]), 

    vfprintf$0	PTR struct _IO_FILE size(2) Largest target is 12
		 -> sprintf@f(COMRAM[12]), 

    S3398$source	PTR const unsigned char  size(2) Largest target is 0

    f...source	PTR const unsigned char  size(2) Largest target is 0

    S3398$buffer	PTR unsigned char  size(2) Largest target is 0

    f...buffer	PTR unsigned char  size(2) Largest target is 0

    I2C_Slave_Mode_Configurations@i2c_obj	PTR const struct . size(2) Largest target is 7
		 -> i2c_obj(COMRAM[7]), 

    I2C_Master_Mode_Clock_Configurations@i2c_obj	PTR const struct . size(2) Largest target is 7
		 -> i2c_obj(COMRAM[7]), 

    MSSP_I2C_Master_Write_Blocking@ack	PTR unsigned char  size(2) Largest target is 1
		 -> I2C_Recieve_1_byte@ack(COMRAM[1]), I2C_Send_1_byte@ack(COMRAM[1]), 

    MSSP_I2C_Master_Write_Blocking@i2c_obj	PTR const struct . size(2) Largest target is 7
		 -> i2c_obj(COMRAM[7]), 

    MSSP_I2C_Master_Send_Stop@i2c_obj	PTR const struct . size(2) Largest target is 7
		 -> i2c_obj(COMRAM[7]), 

    MSSP_I2C_Master_Send_Start@i2c_obj	PTR const struct . size(2) Largest target is 7
		 -> i2c_obj(COMRAM[7]), 

    MSSP_I2C_Init@i2c_obj	PTR const struct . size(2) Largest target is 7
		 -> i2c_obj(COMRAM[7]), 

    EUSART_OverrunErrorHandler	PTR FTN()void  size(2) Largest target is 1
		 -> NULL(), 

    EUSART_FramingErrorHandler	PTR FTN()void  size(2) Largest target is 1
		 -> NULL(), 

    EUSART_RX_InterruptHandler	PTR FTN()void  size(2) Largest target is 1
		 -> NULL(), 

    EUSART_ASYNC_RX_Init@_eusart.EUSART_OverrunErrorHandler	PTR FTN()void  size(2) Largest target is 0

    EUSART_ASYNC_RX_Init@_eusart.EUSART_FramingErrorHandler	PTR FTN()void  size(2) Largest target is 0

    EUSART_ASYNC_RX_Init@_eusart.EUSART_RxDefaultInterruptHandler	PTR FTN()void  size(2) Largest target is 0

    EUSART_ASYNC_RX_Init@_eusart.EUSART_TxDefaultInterruptHandler	PTR FTN()void  size(2) Largest target is 0

    EUSART_TX_InterruptHandler	PTR FTN()void  size(2) Largest target is 1
		 -> NULL(), 

    EUSART_ASYNC_TX_Init@_eusart.EUSART_OverrunErrorHandler	PTR FTN()void  size(2) Largest target is 0

    EUSART_ASYNC_TX_Init@_eusart.EUSART_FramingErrorHandler	PTR FTN()void  size(2) Largest target is 0

    EUSART_ASYNC_TX_Init@_eusart.EUSART_RxDefaultInterruptHandler	PTR FTN()void  size(2) Largest target is 0

    EUSART_ASYNC_TX_Init@_eusart.EUSART_TxDefaultInterruptHandler	PTR FTN()void  size(2) Largest target is 0

    S2456$EUSART_OverrunErrorHandler	PTR FTN()void  size(2) Largest target is 0

    EUSART_Baud_Rate_Calcualtion@_eusart.EUSART_OverrunErrorHandler	PTR FTN()void  size(2) Largest target is 0

    S2456$EUSART_FramingErrorHandler	PTR FTN()void  size(2) Largest target is 0

    EUSART_Baud_Rate_Calcualtion@_eusart.EUSART_FramingErrorHandler	PTR FTN()void  size(2) Largest target is 0

    S2456$EUSART_RxDefaultInterruptHandler	PTR FTN()void  size(2) Largest target is 0

    EUSART_Baud_Rate_Calcualtion@_eusart.EUSART_RxDefaultInterruptHandler	PTR FTN()void  size(2) Largest target is 0

    S2456$EUSART_TxDefaultInterruptHandler	PTR FTN()void  size(2) Largest target is 0

    EUSART_Baud_Rate_Calcualtion@_eusart.EUSART_TxDefaultInterruptHandler	PTR FTN()void  size(2) Largest target is 0

    Timer3_Mode_Select@_timer.TMR3_InterruptHandler	PTR FTN()void  size(2) Largest target is 0

    TMR3_InterruptHandler	PTR FTN()void  size(2) Largest target is 1
		 -> NULL(), 

    S2313$TMR3_InterruptHandler	PTR FTN()void  size(2) Largest target is 0

    Timer3_Init@_timer.TMR3_InterruptHandler	PTR FTN()void  size(2) Largest target is 0

    Timer1_Mode_Select@_timer.TMR1_InterruptHandler	PTR FTN()void  size(2) Largest target is 0

    TMR1_InterruptHandler	PTR FTN()void  size(2) Largest target is 1
		 -> NULL(), 

    S2163$TMR1_InterruptHandler	PTR FTN()void  size(2) Largest target is 0

    Timer1_Init@_timer.TMR1_InterruptHandler	PTR FTN()void  size(2) Largest target is 0

    Timer0_Register_Size_Config@_timer.TMR0_InterruptHandler	PTR FTN()void  size(2) Largest target is 0

    Timer0_Mode_Select@_timer.TMR0_InterruptHandler	PTR FTN()void  size(2) Largest target is 0

    Timer0_Prescaler_Config@_timer.TMR0_InterruptHandler	PTR FTN()void  size(2) Largest target is 0

    S2039$TMR0_InterruptHandler	PTR FTN()void  size(2) Largest target is 0

    Timer0_Init@_timer.TMR0_InterruptHandler	PTR FTN()void  size(2) Largest target is 0

    TMR0_InterruptHandler	PTR FTN()void  size(2) Largest target is 1
		 -> NULL(), 

    Interrupt_RBx_set_pin_init_value@int_obj.EXT_InterruptHandler	PTR FTN()void  size(2) Largest target is 0

    Interrupt_RBx_SetInterruptHandler@int_obj.EXT_InterruptHandler	PTR FTN()void  size(2) Largest target is 0

    S1517$EXT_InterruptHandler	PTR FTN()void  size(2) Largest target is 0

    Interrupt_RBx_Pin_Init@int_obj.EXT_InterruptHandler	PTR FTN()void  size(2) Largest target is 0

    Interrupt_INTx_SetInterruptHandler@int_obj.EXT_InterruptHandler	PTR FTN()void  size(2) Largest target is 0

    Interrupt_INTx_Clear_Flag@int_obj.EXT_InterruptHandler	PTR FTN()void  size(2) Largest target is 0

    Interrupt_INTx_Pin_Init@int_obj.EXT_InterruptHandler	PTR FTN()void  size(2) Largest target is 0

    Interrupt_INTx_Edge_Init@int_obj.EXT_InterruptHandler	PTR FTN()void  size(2) Largest target is 0

    Interrupt_INTx_Disable@int_obj.EXT_InterruptHandler	PTR FTN()void  size(2) Largest target is 0

    S1480$EXT_InterruptHandler	PTR FTN()void  size(2) Largest target is 0

    Interrupt_INTx_Enable@int_obj.EXT_InterruptHandler	PTR FTN()void  size(2) Largest target is 0

    RB7_InterruptHandler	PTR FTN()void  size(2) Largest target is 1
		 -> NULL(), 

    RB6_InterruptHandler	PTR FTN()void  size(2) Largest target is 1
		 -> NULL(), 

    RB5_InterruptHandler	PTR FTN()void  size(2) Largest target is 1
		 -> NULL(), 

    RB4_InterruptHandler	PTR FTN()void  size(2) Largest target is 1
		 -> NULL(), 

    INT2_InterruptHandler	PTR FTN()void  size(2) Largest target is 1
		 -> NULL(), 

    INT1_InterruptHandler	PTR FTN()void  size(2) Largest target is 1
		 -> NULL(), 

    INT0_InterruptHandler	PTR FTN()void  size(2) Largest target is 1
		 -> NULL(), 

    gpio_pin_write_logic@pin_config	PTR const struct . size(2) Largest target is 1
		 -> SS2_Pin(COMRAM[1]), SS1_Pin(COMRAM[1]), relay_turn_off@pin_obj(COMRAM[1]), relay_turn_on@pin_obj(COMRAM[1]), 
		 -> relay_initialize@pin_obj(COMRAM[1]), led_turn_off@pin_obj(COMRAM[1]), led_turn_on@pin_obj(COMRAM[1]), led_initialize@pin_obj(COMRAM[1]), 

    gpio_pin_direction_initialize@pin_config	PTR const struct . size(2) Largest target is 1
		 -> SS2_Pin(COMRAM[1]), SS1_Pin(COMRAM[1]), relay_initialize@pin_obj(COMRAM[1]), led_initialize@pin_obj(COMRAM[1]), 

    gpio_pin_initialize@pin_config	PTR const struct . size(2) Largest target is 1
		 -> SS2_Pin(COMRAM[1]), SS1_Pin(COMRAM[1]), relay_initialize@pin_obj(COMRAM[1]), led_initialize@pin_obj(COMRAM[1]), 

    port_registers	PTR volatile unsigned char [5] size(2) Largest target is 3967
		 -> RAM(DATA[3967]), 

    lat_registers	PTR volatile unsigned char [5] size(2) Largest target is 3967
		 -> RAM(DATA[3967]), 

    tris_registers	PTR volatile unsigned char [5] size(2) Largest target is 3967
		 -> RAM(DATA[3967]), 

    CCP_Interrupt_Init@_ccp_obj.CCP_Interrupt_Handler	PTR FTN()void  size(2) Largest target is 0

    CCP2_Interrupt_Init@_ccp_obj.CCP_Interrupt_Handler	PTR FTN()void  size(2) Largest target is 0

    CCP2_InterruptHandler	PTR FTN()void  size(2) Largest target is 1
		 -> NULL(), 

    CCP1_Interrupt_Init@_ccp_obj.CCP_Interrupt_Handler	PTR FTN()void  size(2) Largest target is 0

    CCP1_InterruptHandler	PTR FTN()void  size(2) Largest target is 1
		 -> NULL(), 

    CCP_Capture_Compare_Timer_Config@_ccp_obj.CCP_Interrupt_Handler	PTR FTN()void  size(2) Largest target is 0

    CCP_Compare_Mode_Init@_ccp_obj.CCP_Interrupt_Handler	PTR FTN()void  size(2) Largest target is 0

    CCP_Capture_Mode_Init@_ccp_obj.CCP_Interrupt_Handler	PTR FTN()void  size(2) Largest target is 0

    CCP_Compare_Mode_Set_Value@_ccp_obj.CCP_Interrupt_Handler	PTR FTN()void  size(2) Largest target is 0

    CCP_IsCompareComplete@_ccp_obj.CCP_Interrupt_Handler	PTR FTN()void  size(2) Largest target is 0

    CCP_Capture_Mode_Read_Value@_ccp_obj.CCP_Interrupt_Handler	PTR FTN()void  size(2) Largest target is 0

    CCP_IsCapturedDataReady@_ccp_obj.CCP_Interrupt_Handler	PTR FTN()void  size(2) Largest target is 0

    CCP_DeInit@_ccp_obj.CCP_Interrupt_Handler	PTR FTN()void  size(2) Largest target is 0

    S926$CCP_Interrupt_Handler	PTR FTN()void  size(2) Largest target is 0

    CCP_Init@_ccp_obj.CCP_Interrupt_Handler	PTR FTN()void  size(2) Largest target is 0

    configure_voltage_reference@_adc.ADC_InterruptHandler	PTR FTN()void  size(2) Largest target is 0

    select_result_format@_adc.ADC_InterruptHandler	PTR FTN()void  size(2) Largest target is 0

    ADC_GetConversionResult@_adc.ADC_InterruptHandler	PTR FTN()void  size(2) Largest target is 0

    ADC_InterruptHandler	PTR FTN()void  size(2) Largest target is 1
		 -> NULL(), 

    S715$ADC_InterruptHandler	PTR FTN()void  size(2) Largest target is 0

    ADC_Init@_adc.ADC_InterruptHandler	PTR FTN()void  size(2) Largest target is 0

    led_initialize@led	PTR const struct . size(2) Largest target is 1
		 -> led1(COMRAM[1]), 

    sp__memset	PTR void  size(2) Largest target is 0


Critical Paths under _main in COMRAM

    _ecu_layer_initialize->_led_initialize
    _led_initialize->_gpio_pin_initialize
    _gpio_pin_initialize->_gpio_pin_write_logic
    _I2C_Send_1_byte->_MSSP_I2C_Master_Write_Blocking
    _I2C_Master_Init->_MSSP_I2C_Init
    _MSSP_I2C_Init->_I2C_Master_Mode_Clock_Configurations
    _I2C_Master_Mode_Clock_Configurations->___fltol
    ___fltol->___fladd
    ___fldiv->___xxtofl
    ___fladd->___fldiv

Critical Paths under _InterruptManager in COMRAM

    None.

Critical Paths under _main in BANK0

    None.

Critical Paths under _InterruptManager in BANK0

    None.

Critical Paths under _main in BANK1

    None.

Critical Paths under _InterruptManager in BANK1

    None.

Critical Paths under _main in BANK2

    None.

Critical Paths under _InterruptManager in BANK2

    None.

Critical Paths under _main in BANK3

    None.

Critical Paths under _InterruptManager in BANK3

    None.

Critical Paths under _main in BANK4

    None.

Critical Paths under _InterruptManager in BANK4

    None.

Critical Paths under _main in BANK5

    None.

Critical Paths under _InterruptManager in BANK5

    None.

Critical Paths under _main in BANK6

    None.

Critical Paths under _InterruptManager in BANK6

    None.

Critical Paths under _main in BANK7

    None.

Critical Paths under _InterruptManager in BANK7

    None.

Critical Paths under _main in BANK8

    None.

Critical Paths under _InterruptManager in BANK8

    None.

Critical Paths under _main in BANK9

    None.

Critical Paths under _InterruptManager in BANK9

    None.

Critical Paths under _main in BANK10

    None.

Critical Paths under _InterruptManager in BANK10

    None.

Critical Paths under _main in BANK11

    None.

Critical Paths under _InterruptManager in BANK11

    None.

Critical Paths under _main in BANK12

    None.

Critical Paths under _InterruptManager in BANK12

    None.

Critical Paths under _main in BANK13

    None.

Critical Paths under _InterruptManager in BANK13

    None.

Critical Paths under _main in BANK14

    None.

Critical Paths under _InterruptManager in BANK14

    None.

Critical Paths under _main in BANK15

    None.

Critical Paths under _InterruptManager in BANK15

    None.

Call Graph Tables:

 ---------------------------------------------------------------------------------
 (Depth) Function   	        Calls       Base Space   Used Autos Params    Refs
 ---------------------------------------------------------------------------------
 (0) _main                                                 2     2      0   18123
                                             70 COMRAM     2     2      0
                    _I2C_Master_Init
                    _I2C_Send_1_byte
               _ecu_layer_initialize
 ---------------------------------------------------------------------------------
 (1) _ecu_layer_initialize                                 1     1      0    8166
                     _led_initialize
 ---------------------------------------------------------------------------------
 (2) _led_initialize                                       5     3      2    8164
                                             14 COMRAM     5     3      2
                _gpio_pin_initialize
 ---------------------------------------------------------------------------------
 (3) _gpio_pin_initialize                                  4     2      2    7932
                                             10 COMRAM     4     2      2
      _gpio_pin_direction_initialize
               _gpio_pin_write_logic
 ---------------------------------------------------------------------------------
 (4) _gpio_pin_write_logic                                10     7      3    5825
                                              0 COMRAM    10     7      3
 ---------------------------------------------------------------------------------
 (4) _gpio_pin_direction_initialize                        9     7      2     581
                                              0 COMRAM     9     7      2
 ---------------------------------------------------------------------------------
 (1) _I2C_Send_1_byte                                      3     2      1    1567
                                              5 COMRAM     3     2      1
         _MSSP_I2C_Master_Send_Start
          _MSSP_I2C_Master_Send_Stop
     _MSSP_I2C_Master_Write_Blocking
 ---------------------------------------------------------------------------------
 (2) _MSSP_I2C_Master_Write_Blocking                       6     1      5     802
                                              0 COMRAM     5     0      5
 ---------------------------------------------------------------------------------
 (2) _MSSP_I2C_Master_Send_Stop                            3     1      2     184
                                              0 COMRAM     2     0      2
 ---------------------------------------------------------------------------------
 (2) _MSSP_I2C_Master_Send_Start                           3     1      2     184
                                              0 COMRAM     2     0      2
 ---------------------------------------------------------------------------------
 (1) _I2C_Master_Init                                      0     0      0    8390
                      _MSSP_I2C_Init
 ---------------------------------------------------------------------------------
 (2) _MSSP_I2C_Init                                        3     1      2    8390
                                             68 COMRAM     2     0      2
_I2C_Master_Mode_Clock_Configuration
      _I2C_Slave_Mode_Configurations
             _MSSP_I2C_Mode_GPIO_CFG
 ---------------------------------------------------------------------------------
 (3) _MSSP_I2C_Mode_GPIO_CFG                               0     0      0       0
 ---------------------------------------------------------------------------------
 (3) _I2C_Slave_Mode_Configurations                        3     1      2      98
                                              0 COMRAM     3     1      2
 ---------------------------------------------------------------------------------
 (3) _I2C_Master_Mode_Clock_Configurations                 3     1      2    7792
                                             65 COMRAM     3     1      2
                            ___fladd
                            ___fldiv
                            ___fltol
                           ___xxtofl
 ---------------------------------------------------------------------------------
 (4) ___xxtofl                                            14    10      4     827
                                              0 COMRAM    14    10      4
 ---------------------------------------------------------------------------------
 (4) ___fltol                                             10     6      4     430
                                             55 COMRAM    10     6      4
                            ___fladd (ARG)
                            ___fldiv (ARG)
                           ___xxtofl (ARG)
 ---------------------------------------------------------------------------------
 (4) ___fldiv                                             25    17      8    3169
                                             14 COMRAM    25    17      8
                           ___xxtofl (ARG)
 ---------------------------------------------------------------------------------
 (4) ___fladd                                             16     8      8    3246
                                             39 COMRAM    16     8      8
                            ___fldiv (ARG)
                           ___xxtofl (ARG)
 ---------------------------------------------------------------------------------
 Estimated maximum stack depth 4
 ---------------------------------------------------------------------------------
 (Depth) Function   	        Calls       Base Space   Used Autos Params    Refs
 ---------------------------------------------------------------------------------
 (5) _InterruptManager                                     0     0      0       0
                            _ADC_ISR
                           _CCP1_ISR
                           _CCP2_ISR
                      _EUSART_RX_ISR
                      _EUSART_TX_ISR
                           _INT0_ISR
                           _INT1_ISR
                           _INT2_ISR
             _MSSP_Bus_Collision_ISR
                           _MSSP_ISR
                            _RB4_ISR
                            _RB5_ISR
                            _RB6_ISR
                            _RB7_ISR
                           _TMR0_ISR
                           _TMR1_ISR
                           _TMR2_ISR
                           _TMR3_ISR
 ---------------------------------------------------------------------------------
 (6) _TMR3_ISR                                             0     0      0       0
 ---------------------------------------------------------------------------------
 (6) _TMR2_ISR                                             0     0      0       0
 ---------------------------------------------------------------------------------
 (6) _TMR1_ISR                                             0     0      0       0
 ---------------------------------------------------------------------------------
 (6) _TMR0_ISR                                             0     0      0       0
 ---------------------------------------------------------------------------------
 (6) _RB7_ISR                                              0     0      0       0
 ---------------------------------------------------------------------------------
 (6) _RB6_ISR                                              0     0      0       0
 ---------------------------------------------------------------------------------
 (6) _RB5_ISR                                              0     0      0       0
 ---------------------------------------------------------------------------------
 (6) _RB4_ISR                                              0     0      0       0
 ---------------------------------------------------------------------------------
 (6) _MSSP_ISR                                             0     0      0       0
 ---------------------------------------------------------------------------------
 (6) _MSSP_Bus_Collision_ISR                               0     0      0       0
 ---------------------------------------------------------------------------------
 (6) _INT2_ISR                                             0     0      0       0
 ---------------------------------------------------------------------------------
 (6) _INT1_ISR                                             0     0      0       0
 ---------------------------------------------------------------------------------
 (6) _INT0_ISR                                             0     0      0       0
 ---------------------------------------------------------------------------------
 (6) _EUSART_TX_ISR                                        0     0      0       0
 ---------------------------------------------------------------------------------
 (6) _EUSART_RX_ISR                                        0     0      0       0
 ---------------------------------------------------------------------------------
 (6) _CCP2_ISR                                             0     0      0       0
 ---------------------------------------------------------------------------------
 (6) _CCP1_ISR                                             0     0      0       0
 ---------------------------------------------------------------------------------
 (6) _ADC_ISR                                              0     0      0       0
 ---------------------------------------------------------------------------------
 Estimated maximum stack depth 6
 ---------------------------------------------------------------------------------

 Call Graph Graphs:

 _main (ROOT)
   _I2C_Master_Init
     _MSSP_I2C_Init
       _I2C_Master_Mode_Clock_Configurations
         ___fladd
           ___fldiv (ARG)
             ___xxtofl (ARG)
           ___xxtofl (ARG)
         ___fldiv
         ___fltol
           ___fladd (ARG)
           ___fldiv (ARG)
           ___xxtofl (ARG)
         ___xxtofl
       _I2C_Slave_Mode_Configurations
       _MSSP_I2C_Mode_GPIO_CFG
   _I2C_Send_1_byte
     _MSSP_I2C_Master_Send_Start
     _MSSP_I2C_Master_Send_Stop
     _MSSP_I2C_Master_Write_Blocking
   _ecu_layer_initialize
     _led_initialize
       _gpio_pin_initialize
         _gpio_pin_direction_initialize
         _gpio_pin_write_logic

 _InterruptManager (ROOT)
   _ADC_ISR
   _CCP1_ISR
   _CCP2_ISR
   _EUSART_RX_ISR
   _EUSART_TX_ISR
   _INT0_ISR
   _INT1_ISR
   _INT2_ISR
   _MSSP_Bus_Collision_ISR
   _MSSP_ISR
   _RB4_ISR
   _RB5_ISR
   _RB6_ISR
   _RB7_ISR
   _TMR0_ISR
   _TMR1_ISR
   _TMR2_ISR
   _TMR3_ISR

 Address spaces:
Name               Size   Autos  Total    Cost      Usage
BIGRAM             F7F      0       0      40        0.0%
EEDATA             400      0       0       0        0.0%
BITBANK14          100      0       0      32        0.0%
BANK14             100      0       0      33        0.0%
BITBANK13          100      0       0      30        0.0%
BANK13             100      0       0      31        0.0%
BITBANK12          100      0       0      28        0.0%
BANK12             100      0       0      29        0.0%
BITBANK11          100      0       0      26        0.0%
BANK11             100      0       0      27        0.0%
BITBANK10          100      0       0      24        0.0%
BANK10             100      0       0      25        0.0%
BITBANK9           100      0       0      22        0.0%
BANK9              100      0       0      23        0.0%
BITBANK8           100      0       0      20        0.0%
BANK8              100      0       0      21        0.0%
BITBANK7           100      0       0      18        0.0%
BANK7              100      0       0      19        0.0%
BITBANK6           100      0       0      16        0.0%
BANK6              100      0       0      17        0.0%
BITBANK5           100      0       0      14        0.0%
BANK5              100      0       0      15        0.0%
BITBANK4           100      0       0      12        0.0%
BANK4              100      0       0      13        0.0%
BITBANK3           100      0       0      10        0.0%
BANK3              100      0       0      11        0.0%
BITBANK2           100      0       0       8        0.0%
BANK2              100      0       0       9        0.0%
BITBANK1           100      0       0       6        0.0%
BANK1              100      0       0       7        0.0%
BITBANK15           80      0       0      34        0.0%
BANK15              80      0       0      35        0.0%
BITBANK0            80      0       0       4        0.0%
BANK0               80      0      4F       5       61.7%
BITCOMRAM           7E      0       0       0        0.0%
COMRAM              7E     48      7D       1       99.2%
BITBIGSFRl          43      0       0      38        0.0%
BITBIGSFRhh         28      0       0      36        0.0%
BITBIGSFRhl         12      0       0      37        0.0%
BIGSFR               0      0       0     200        0.0%
BITSFR               0      0       0     200        0.0%
SFR                  0      0       0     200        0.0%
STACK                0      0       0       2        0.0%
NULL                 0      0       0       0        0.0%
ABS                  0      0      CC      39        0.0%
DATA                 0      0      CC       3        0.0%
CODE                 0      0       0       0        0.0%


Microchip Technology PIC18 Macro Assembler V2.41 build 20230208172133 
Symbol Table                                                                                   Wed Feb 14 16:40:50 2024

                          ??_InterruptManager 0001                __end_of_MSSP_Bus_Collision_ISR 267C  
                                ___fldiv@aexp 0027                                  ___fldiv@bexp 0026  
                                ___fldiv@sign 001F                      _SPI_Slave_Receive_Status 0068  
  EUSART_ASYNC_WriteStringNonBlocking@Counter 0095                                           l354 261A  
                                         l702 2372                                           l714 1E34  
                                         l299 23EC                                           l733 1F7E  
               gpio_pin_initialize@pin_config 000B                               __end_of_ADC_ISR 2678  
                                         _ret 0065                                           prod 0FF3  
                         led_initialize@F3385 0073                                           wreg 0FE8  
                       relay_initialize@F3379 006F                      ??_MSSP_I2C_Mode_GPIO_CFG 0001  
                             __end_of_RB4_ISR 265C                               __end_of_RB5_ISR 2658  
                             __end_of_RB6_ISR 2654                               __end_of_RB7_ISR 2650  
                                ___fltol@exp1 0041                                          l2203 131E  
                                        l2212 13EE                                          l2213 13DC  
                                        l2240 186E                                          l2320 1C0E  
                                        l2313 1B76                                          l2242 16CE  
                                        l1514 25CC                                          l2251 1714  
                                        l1611 2522                                          l1523 2508  
                                        l2316 1CD2                                          l2253 178C  
                                        l2245 1692                                          l1613 2530  
                                        l1621 2416                                          l2254 177A  
                                        l1614 2544                                          l2327 1C6A  
                                        l1615 2556                                          l1632 2464  
                                        l1609 2520                                          l1625 241A  
                                        l2186 1204                                          l1618 2556  
                                        l2195 14D4                                          l2187 11F2  
                                        l1563 1F96                                          l1627 2428  
                                        l2188 11B8                                          l1652 2258  
                                        l1628 2446                                          l1581 20B8  
                                        l1629 2464                                          l1655 260C  
                                        l1591 2570                                          l6000 184A  
                                        l1649 2644                                          l1569 2018  
                                        l1593 257E                                          l6002 184E  
                                        l1578 20B6                                          l1594 2592  
                                        l1595 25A4                                          l6004 185C  
                                        l6100 1CC0                                          l1589 256E  
                                        l6006 1862                                          l6030 2124  
                                        l6022 20E4                                          l6102 1CC2  
                                        l1598 25A4                                          l6110 22FC  
                                        l6008 1864                                          l6040 2154  
                                        l6032 2132                                          l6024 210E  
                                        l6016 20BA                                          l6112 231E  
                                        l6050 217E                                          l6042 215E  
                                        l6026 2110                                          l6018 20D0  
                                        l6122 21C0                                          l6114 233C  
                                        l6106 22EA                                          l6210 2374  
                                        l1955 21BE                                          l6052 218E  
                                        l6028 2120                                          l6060 1B22  
                                        l6124 21DA                                          l2852 2640  
                                        l6300 2438                                          l6116 2344  
                                        l6108 22EA                                          l6220 23C2  
                                        l6212 2378                                          l6054 219E  
                                        l6038 214A                                          l6062 1B32  
                                        l6126 25F2                                          l6310 2540  
                                        l6302 2454                                          l6118 2370  
                                        l6222 23D4                                          l6214 2390  
                                        l6056 21AE                                          l6048 2172  
                                        l6080 1BF8                                          l6072 1BB0  
                                        l6064 1B40                                          l6240 1F80  
                                        l6304 250A                                          l6224 23DC  
                                        l6216 23AE                                          l6208 2374  
                                        l6090 1C78                                          l6082 1C04  
                                        l6074 1BB8                                          l6066 1B86  
                                        l6250 1FC2                                          l6242 1F80  
                                        l6306 250A                                          l6226 23EA  
                                        l6218 23B0                                          l5700 1096  
                                        l6092 1C7A                                          l6084 1C40  
                                        l6076 1BC4                                          l6068 1B9C  
                                        l6260 201E                                          l6252 1FDC  
                                        l6244 1F92                                          l6308 251C  
                                        l5710 10CC                                          l5702 109C  
                                        l6094 1C7E                                          l6086 1C4C  
                                        l6078 1BF6                                          l6270 205E  
                                        l6262 202E                                          l6254 1FF6  
                                        l6246 1F98                                          l5630 1E6E  
                                        l5800 1292                                          l5720 1108  
                                        l5712 10DC                                          l5704 10AA  
                                        l6096 1CA2                                          l6088 1C5A  
                                        l6280 20B4                                          l6272 2078  
                                        l6256 1FFC                                          l6264 203A  
                                        l6248 1FB2                                          l5640 1F52  
                                        l5632 1E8C                                          l5624 1E36  
                                        l5802 12B8                                          l5810 130E  
                                        l5730 1126                                          l5722 1116  
                                        l5714 10DE                                          l5706 10AC  
                                        l6098 1CB2                                          l6274 207A  
                                        l6266 203E                                          l6258 2016  
                                        l6450 25B6                                          l6282 2558  
                                        l5650 1CD4                                          l5634 1E94  
                                        l5642 1F7C                                          l5626 1E3A  
                                        l5820 1362                                          l5812 1334  
                                        l5804 12EC                                          l5740 113A  
                                        l5732 112A                                          l5724 111A  
                                        l5708 10BC                                          l5716 10E6  
                                        l5900 1548                                          l6276 2094  
                                        l6268 2058                                          l6452 25B8  
                                        l6284 2558                                          l6292 23EE  
                                        l6460 24C0                                          l5660 1D32  
                                        l5652 1CD8                                          l5636 1EF0  
                                        l5628 1E4C                                          l5830 138C  
                                        l5822 1370                                          l5814 1344  
                                        l5806 12EE                                          l5750 114E  
                                        l5742 113E                                          l5734 112E  
                                        l5726 111E                                          l5718 10F6  
                                        l5910 1588                                          l5902 1556  
                                        l6278 209A                                          l6454 25BA  
                                        l6286 256A                                          l6294 23EE  
                                        l6462 24CC                                          l5662 1D94  
                                        l5654 1CEA                                          l5840 13BE  
                                        l5832 139C                                          l5824 1372  
                                        l5808 12FE                                          l5760 11A0  
                                        l5752 1152                                          l5744 1142  
                                        l5736 1132                                          l5728 1122  
                                        l5680 1030                                          l5920 15C8  
                                        l5912 158A                                          l5904 1558  
                                        l6456 25C0                                          l6448 25A6  
                                        l6288 258E                                          l6296 2400  
                                        l6464 24E4                                          l5656 1D0C  
                                        l6376 260E                                          l5850 1418  
                                        l5842 13D4                                          l5826 1380  
                                        l5818 1358                                          l5834 139E  
                                        l5770 11E4                                          l5762 11B0  
                                        l5746 1146                                          l5738 1136  
                                        l5754 1156                                          l5690 1064  
                                        l5682 1032                                          l5930 15F8  
                                        l5922 15D0                                          l5906 1568  
                                        l5914 1592                                          l6298 2412  
                                        l6466 24FC                                          l6458 24BC  
                                        l5666 1DF0                                          l5658 1D2A  
                                        l6378 260E                                          l5860 1494  
                                        l5852 1452                                          l5828 1388  
                                        l5836 13AC                                          l5772 11E6  
                                        l5764 11C6                                          l5756 115A  
                                        l5748 114A                                          l5684 1042  
                                        l5692 106C                                          l5676 1016  
                                        l5940 1636                                          l5932 15F8  
                                        l5924 15D4                                          l5916 15A2  
                                        l5908 1578                                          l5668 1E32  
                                        l5870 14B4                                          l5862 1498  
                                        l5846 13FE                                          l5854 1454  
                                        l5838 13B0                                          l5790 126E  
                                        l5782 1236                                          l5774 11F0  
                                        l5766 11D2                                          l5758 1184  
                                        l5694 107C                                          l5686 1052  
                                        l5678 1022                                          l5950 1682  
                                        l5942 1646                                          l5918 15B8  
                                        l5872 14C2                                          l5864 14A6  
                                        l5856 1464                                          l5848 140A  
                                        l5792 1272                                          l5784 1246  
                                        l5776 1212                                          l5768 11D6  
                                        l5696 1082                                          l5688 1062  
                                        l5960 16CC                                          l5952 1690  
                                        l5944 1656                                          l5936 160C  
                                        l5928 15E8                                          l5880 14E2  
                                        l5874 14C4                                          l5866 14AC  
                                        l5858 1474                                          l5794 1280  
                                        l5786 1254                                          l5778 1222  
                                        l5698 1094                                          l5970 1712  
                                        l5962 16DE                                          l5954 169C  
                                        l5946 165E                                          l5938 1626  
                                        l5890 1522                                          l5882 14F0  
                                        l5868 14AE                                          l5796 1282  
                                        l5788 1262                                          l5980 1772  
                                        l5964 16F4                                          l5972 1724  
                                        l5956 16BA                                          l5948 166E  
                                        l5892 1524                                          l5884 14F2  
                                        l5798 128C                                          l5990 17E0  
                                        l5974 1732                                          l5966 16FA  
                                        l5958 16BC                                          l5886 1502  
                                        l5894 152C                                          l5878 14D6  
                                        l7750 225A                                          l5984 179C  
                                        l5992 17E4                                          l5976 1736  
                                        l5968 1704                                          l5896 153C  
                                        l5888 1512                                          l7760 228C  
                                        l7752 225E                                          l5994 17FE  
                                        l5986 17A8                                          l5978 1744  
                                        l5898 1542                                          l7762 22A2  
                                        l7754 2262                                          l5996 1814  
                                        l5988 17B6                                          l7844 1F66  
                                        l7764 22AC                                          l7756 226C  
                                        l5998 182E                                          l7846 1E1C  
                                        l7766 22C2                                          l7758 2282  
                                        l7768 22CC                                          STR_1 1011  
                                        u5000 17B6                                          u5001 17B2  
                                        u5010 17FE                                          u5011 17FA  
                                        u5020 182E                                          u5100 219E  
                                        u4300 1E4C                                          u5021 182A  
                                        u5101 219A                                          u4301 1E48  
                                        u5030 185C                                          u5110 1B32  
                                        u4310 1E6E                                          u5031 1858  
                                        u5111 1B2E                                          u4311 1E6A  
                                        u5040 20D0                                          u5200 1CC0  
                                        u5120 1B40                                          u4400 1E08  
                                        u4320 1E8C                                          u5041 20CC  
                                        u5201 1CBC                                          u5121 1B3C  
                                        u4401 1E02                                          u4321 1E88  
                                        u5050 2104                                          u5130 1B9C  
                                        u4410 1E0A                                          u5210 22FC  
                                        u5131 1B98                                          u5211 22F8  
                                        u4500 1116                                          u4420 1030  
                                        u5060 2132                                          u5140 1BF2  
                                        u5220 231E                                          u4501 1112  
                                        u4421 102C                                          u5061 212E  
                                        u5141 1BEE                                          u5221 231A  
            CCP_Capture_Mode_Read_Value@F3523 005D                                          u4510 1184  
                                        u4430 1042                                          u5070 2146  
                                        u5150 1C3C                                          u4350 1CEA  
                                        u4334 1EB4                                          u5230 233C  
                                        u4511 1180                                          u4431 103E  
                                        u5071 2142                                          u5055 20FA  
                                        u5151 1C38                                          u4351 1CE6  
                                        u4335 1EB0                                          u5231 2338  
                                        u4600 1262                                          u4520 119C  
                                        u4440 1052                                          u5080 216E  
                                        u5160 1C5A                                          u5400 2058  
                                        u4360 1D0C                                          u4344 1F10  
                                        u5320 23D4                                          u4601 125E  
                                        u4521 1196                                          u4441 104E  
                                        u5081 216A                                          u5161 1C56  
                                        u5401 2054                                          u4361 1D08  
                                        u4345 1F0C                                          u5321 23D0  
                                        u4610 1280                                          u4530 119E  
                                        u4450 1094                                          u5090 218E  
                                        u5170 1C6A                                          u5410 2078  
                                        u4370 1D2A                                          u4611 127C  
                                        u4451 1090                                          u5091 218A  
                                        u5171 1C66                                          u5411 2074  
                                        u4371 1D26                                          u5315 23C0  
                                        u4700 13BE                                          u4620 12B8  
                                        u4540 11C6                                          u4460 10AA  
                                        u5180 1C78                                          u5420 2094  
                                        u5500 2428                                          u4701 13BA  
                                        u4621 12B4                                          u4541 11C2  
                                        u4461 10A6                                          u5181 1C74  
                                        u5421 2090                                          u5501 2424  
                                        u5317 23C2                                          u4710 13D4  
                                        u4630 12FE                                          u4550 11E4  
                                        u4470 10BC                                          u5190 1CB2  
                                        u5430 20B4                                          u5350 1F92  
                                        u5510 2438                                          u4711 13D0  
                                        u4631 12FA                                          u4551 11E0  
                                        u4471 10B8                                          u5191 1CAE  
                                        u5431 20B0                                          u5351 1F8E  
                                        u5511 2434                                          u4800 14C2  
                                        u4720 13EA                                          u4640 1334  
                                        u4560 1204                                          u4480 10CC  
                                        u5360 1FB2                                          u5440 256A  
                                        u5520 2454                                          u4384 1D52  
                                        u4801 14BE                                          u4721 13E6  
                                        u4641 1330                                          u4561 1200  
                                        u4481 10C8                                          u5361 1FAE  
                                        u5441 2566                                          u5521 2450  
                                        u4385 1D4E                                          u4730 13FE  
                                        u4650 1344                                          u4570 1212  
                                        u4490 1108                                          u4810 14F0  
                                        u5370 1FDC                                          u5450 257E  
                                        u5530 251C                                          u4394 1DB4  
                                        u4731 13FA                                          u4651 1340  
                                        u4571 120E                                          u4491 1104  
                                        u4811 14EC                                          u5371 1FD8  
                                        u5451 257A                                          u5531 2518  
                                        u4395 1DB0                                          u4740 1418  
                                        u4660 1370                                          u4580 1222  
                                        u4900 1690                                          u4820 1502  
                                        u5380 1FF6                                          u5460 258E  
                                        u5540 2530                                          u4741 1414  
                                        u4661 136C                                          u4581 121E  
                                        u4901 168C                                          u4821 14FE  
                                        u5381 1FF2                                          u5461 258A  
                                        u5541 252C                                          u4750 1452  
                                        u4670 1380                                          u4590 1254  
                                        u4910 16BA                                          u4830 1512  
                                        u5390 2016                                          u5470 25A0  
                                        u5550 2540                                          u4751 144E  
                                        u4671 137C                                          u4591 1250  
                                        u4911 16B6                                          u4831 150E  
                                        u5391 2012                                          u5471 259C  
                                        u5551 253C                                          u4760 1464  
                                        u4680 139C                                          u4920 16DE  
                                        u4840 1556                                          u5560 2552  
                                        u5480 2400                                          u4761 1460  
                                        u4681 1398                                          u4921 16DA  
                                        u4841 1552                                          u5561 254E  
                                        u5481 23FC                                          u4770 1474  
                                        u4690 13AC                                          u4930 16F4  
                                        u4850 1568                                          u5490 2412  
                                        u4771 1470                                          u4691 13A8  
                                        u4931 16F0                                          u4851 1564  
                                        u5491 240E                                          u4780 1494  
                                        u4940 1712                                          u4860 1578  
                                        u4781 1490                                          u4941 170E  
                                        u4861 1574                                          u4790 14A6  
                                        u4950 1732                                          u4870 15B8  
                                        u4791 14A2                                          u4951 172E  
                                        u4871 15B4                                          u4960 1744  
                                        u4880 15F8                                          u4961 1740  
                                        u4881 15F4                                          u7417 2276  
                                        u4970 1772                                          u4890 166E  
                                        u4971 176E                                          u4891 166A  
                                        u7427 2296                                          u4980 1788  
                                        u4981 1784                                          u7437 22B6  
                                        u4990 179C                                          u4991 1798  
                                        u7447 22D6                                          _lcd1 00C9  
                                        _led1 007D                                          _main 225A  
                            __end_of_CCP1_ISR 2674                              __end_of_CCP2_ISR 2670  
                                        fsr2h 0FDA                                          indf2 0FDF  
                                        fsr1l 0FE1                                          fsr2l 0FD9  
                                        btemp 007E                        __end_of_led_initialize 23EE  
                                        prodl 0FF3                                          start 000E  
                             ___fldiv@new_exp 0020                          _RB7_InterruptHandler 00A5  
                                ___param_bank 0000                          _gpio_pin_write_logic 1E36  
                            __end_of_INT0_ISR 2668                              __end_of_INT1_ISR 2664  
                            ?_I2C_Master_Init 0001                              __end_of_INT2_ISR 2660  
                               _EUSART_RX_ISR 267C                                 ___fltol@sign1 0040  
                               _EUSART_TX_ISR 2668                               __end_of___fladd 14D6  
                                       ?_main 0001                               __end_of___fldiv 1870  
                             __end_of___fltol 21C0                   ??_MSSP_I2C_Master_Send_Stop 0003  
                                       i2l644 2672                                         i2l649 266E  
                                       i2l783 2676                                         i2l871 2662  
                                       i2l786 2678                                         i2l867 2666  
                                       i2l875 265E                                         i2l883 2656  
                                       i2l891 264E                                         i2l789 267A  
                                       i2l879 265A                                         i2l887 2652  
                         relay_turn_off@F3389 006D                                         _TMR0H 0FD7  
                            __end_of_TMR0_ISR 2640                              __end_of_TMR1_ISR 2634  
                            __end_of_MSSP_ISR 267A                              __end_of_TMR2_ISR 264C  
                            __end_of_TMR3_ISR 2628                          _Master_Received_Data 0066  
                                       tablat 0FF5                                         ttemp5 007F  
                                       ttemp6 0082                                         ttemp7 0086  
                                       status 0FD8                                         wtemp8 007F  
                             ?_led_initialize 000F                              ?_I2C_Send_1_byte 0006  
              ?_gpio_pin_direction_initialize 0001                               __initialization 2466  
      MSSP_I2C_Master_Write_Blocking@i2c_data 0003                                  __end_of_main 22EA  
                       ?_gpio_pin_write_logic 0001                                     ??_ADC_ISR 0001  
                              ?_EUSART_RX_ISR 0001                                ?_EUSART_TX_ISR 0001  
                               _lat_registers 00B5                                        ??_main 0047  
                               __activetblptr 0003                         _TMR3_InterruptHandler 009F  
                            led_turn_on@F3390 0072                                     ??_RB4_ISR 0001  
                                   ??_RB5_ISR 0001                                     ??_RB6_ISR 0001  
                                   ??_RB7_ISR 0001                            _RB4_pin_init_value 006C  
                         I2C_Send_1_byte@Data 0006                    _EUSART_OverrunErrorHandler 0097  
                                      _ADRESH 0FC4                                        _ADRESL 0FC3  
                ??_MSSP_I2C_Master_Send_Start 0003                                        i2l1101 19DC  
                                      i2l1111 1A7C                                        i2l1103 19FC  
                                      i2l1113 1A9C                                        i2l1105 1A1C  
                                      i2l1122 1B1C                                        i2l1115 1ABC  
                                      i2l1107 1A3C                                        i2l1117 1ADC  
                                      i2l1109 1A5C                                        i2l1119 1AFC  
                                      i2l1219 263E                                        i2l1315 264A  
                                      i2l1091 18D2                                        i2l1093 190C  
                                      i2l1095 1948                                        i2l1087 1892  
                                      i2l3200 2674                                        i2l1097 1984  
                                      i2l1089 18B2                                        i2l3210 2660  
                                      i2l1099 19BC                                        i2l1277 2632  
                                      i2l3206 2664                                        i2l3214 265C  
                                      i2l3222 2654                                        i2l1359 2626  
                                      i2l3218 2658                                        i2l3226 2650  
                                      i2l1469 266A                                        i2l1478 267C  
                                      i2l3194 266C                                        i2l3290 2646  
                                      i2l3188 2670                                        i2l6420 267C  
                                      i2l6404 261C                                        i2l6414 2668  
                                      i2l6406 2620                                        i2l6408 2624  
                                      i2l7400 1A38                                        i2l7410 1A8A  
                                      i2l7402 1A4A                                        i2l6380 264C  
                                      i2l7420 1AD8                                        i2l7412 1A98  
                                      i2l7404 1A58                                        i2l7340 1872  
                                      i2l7422 1AEA                                        i2l7414 1AAA  
                                      i2l7406 1A6A                                        i2l7350 18C0  
                                      i2l7342 1880                                        i2l6384 2634  
                                      i2l7424 1AF8                                        i2l7416 1AB8  
                                      i2l7408 1A78                                        i2l7360 1908  
                                      i2l7352 18CE                                        i2l7344 188E  
                                      i2l6386 2638                                        i2l6394 2628  
                                      i2l7426 1B0A                                        i2l7418 1ACA  
                                      i2l7370 1956                                        i2l7362 191A  
                                      i2l7354 18E0                                        i2l7346 18A0  
                                      i2l6388 263C                                        i2l6396 262C  
                                      i2l7428 1B18                                        i2l7380 19A0  
                                      i2l7372 1964                                        i2l7364 1928  
                                      i2l7356 18EE                                        i2l7348 18AE  
                                      i2l6398 2630                                        i2l7390 19EA  
                                      i2l7382 19B4                                        i2l7374 197C  
                                      i2l7366 1940                                        i2l7358 1904  
                                      i2l7392 19F8                                        i2l7384 19B8  
                                      i2l7376 1980                                        i2l7368 1944  
                                      i2l7394 1A0A                                        i2l7386 19CA  
                                      i2l7378 1992                                        i2l7396 1A18  
                                      i2l7388 19D8                                        i2l7398 1A2A  
                   _MSSP_I2C_Master_Send_Stop 250A                              __end_of___xxtofl 1CD4  
                  _EUSART_RX_InterruptHandler 009B                         __end_of_MSSP_I2C_Init 20BA  
__end_of_I2C_Master_Mode_Clock_Configurations 225A        ??_I2C_Master_Mode_Clock_Configurations 0044  
       ?_I2C_Master_Mode_Clock_Configurations 0042          _I2C_Master_Mode_Clock_Configurations 21C0  
                                   ??___fladd 0030                                     ??___fldiv 0017  
                                   ??___fltol 003C                                        clear_0 249E  
                                      clear_1 24AA                         led_initialize@pin_obj 0013  
                                      isa$std 0001                                     ?_CCP1_ISR 0001  
                                __pdataCOMRAM 007D                                     ?_CCP2_ISR 0001  
                                __mediumconst 0000                                        tblptrh 0FF7  
                                      tblptrl 0FF6                                        tblptru 0FF8  
                                ___xxtofl@arg 000B                                  ___xxtofl@exp 000A  
                                ___xxtofl@val 0001                            _RB6_pin_init_value 006A  
                                  __accesstop 0080                       __end_of__initialization 24B0  
                                   ?_INT0_ISR 0001                                     ?_INT1_ISR 0001  
                                   ?_INT2_ISR 0001                                 ___rparam_used 0001  
                                  ___fltol@f1 0038              ??_MSSP_I2C_Master_Write_Blocking 0006  
             ?_MSSP_I2C_Master_Write_Blocking 0001                             led_initialize@led 000F  
                           led_initialize@ret 0012                        ??_gpio_pin_write_logic 0004  
                              __pcstackCOMRAM 0001                        _MSSP_I2C_Mode_GPIO_CFG 2640  
                                __pidataBANK0 25CE                                     ?_TMR0_ISR 0001  
                             ??_EUSART_RX_ISR 0001         MSSP_I2C_Master_Write_Blocking@i2c_obj 0001  
                                   ?_TMR1_ISR 0001                                     ?_MSSP_ISR 0001  
                                   ?_TMR2_ISR 0001                                     ?_TMR3_ISR 0001  
                             ??_EUSART_TX_ISR 0001                                    ??_CCP1_ISR 0001  
                                  ??_CCP2_ISR 0001                                    __pbssBANK0 0080  
                       _INT0_InterruptHandler 0059                                    ??_INT0_ISR 0001  
                                  ??_INT1_ISR 0001                                    ??_INT2_ISR 0001  
           MSSP_I2C_Master_Write_Blocking@ack 0004                                    ??_TMR0_ISR 0001  
                                  ??_TMR1_ISR 0001                                    ??_MSSP_ISR 0001  
                                  ??_TMR2_ISR 0001                                    ??_TMR3_ISR 0001  
                           led_turn_off@F3395 0071                                       _ADC_ISR 2674  
                             led_toggle@F3400 0070                                       _RB4_ISR 2658  
                                     _RB5_ISR 2654                                       _RB6_ISR 2650  
                                     _RB7_ISR 264C                                     ?___xxtofl 0001  
                                     _SS1_Pin 007C                                       _SS2_Pin 007B  
          __end_of_MSSP_I2C_Master_Send_Start 25A6                    _MSSP_I2C_Master_Send_Start 2558  
                            ??_led_initialize 0011               CCP_Compare_Mode_Set_Value@F3533 005B  
                                  _btn_values 1001                                _tris_registers 00BF  
             ??_I2C_Slave_Mode_Configurations 0003                                       _i2c_obj 0074  
                        _ADC_InterruptHandler 0063                                       __Hparam 0000  
                                     __Lparam 0000                           _gpio_pin_initialize 22EA  
                                     ___fladd 1016                                       ___fldiv 14D6  
                                     ___fltol 20BA                                  __psmallconst 1000  
                                     __pcinit 2466                                       __ramtop 1000  
                                     __ptext0 225A                                       __ptext1 260E  
                                     __ptext2 2374                                       __ptext3 22EA  
                                     __ptext4 1E36                                       __ptext5 1CD4  
                                     __ptext6 24BA                                       __ptext7 23EE  
                                     __ptext8 250A                                       __ptext9 2558  
             ??_gpio_pin_direction_initialize 0003                                    ??___xxtofl 0005  
                                     _spi_obj 00A9                          ?_gpio_pin_initialize 000B  
            MSSP_I2C_Master_Send_Stop@i2c_obj 0001                                __pintcode_body 1870  
                        end_of_initialization 24B0                                       int_func 1870  
                    ??_MSSP_Bus_Collision_ISR 0001                                       postdec1 0FE5  
                                     postdec2 0FDD                                       postinc0 0FEE  
                                     postinc2 0FDE                         _INT1_InterruptHandler 0057  
                            _InterruptManager 0008                                   ___fladd@grs 0037  
                               ___xxtofl@sign 0009                         ??_gpio_pin_initialize 000D  
                                 ___fldiv@grs 0022                                   ___fldiv@rem 001B  
                     ?_MSSP_I2C_Mode_GPIO_CFG 0001                            relay_turn_on@F3384 006E  
       __end_of_I2C_Slave_Mode_Configurations 260E                 _I2C_Slave_Mode_Configurations 25F2  
               convert_uint32_to_string@F3545 0080                 convert_uint16_to_string@F3538 008B  
                               __pidataCOMRAM 267E                                _timer0_preload 004D  
                              _timer1_preload 004B                                _timer2_preload 0067  
                         start_initialization 2466                                _timer3_preload 0049  
                        _RB4_InterruptHandler 0053         __end_of_gpio_pin_direction_initialize 1E36  
               _gpio_pin_direction_initialize 1CD4                             ??_I2C_Master_Init 0047  
              __end_of_MSSP_I2C_Mode_GPIO_CFG 2646                            I2C_Send_1_byte@add 0007  
                          I2C_Send_1_byte@ack 0008                    _EUSART_FramingErrorHandler 0099  
                                 __pdataBANK0 00AB                  convert_uint8_to_string@F3531 0091  
                                    ?_ADC_ISR 0001                         __end_of_EUSART_RX_ISR 267E  
                       __end_of_EUSART_TX_ISR 266C                  __end_of_ecu_layer_initialize 261C  
                                   ___fladd@a 002C                                     ___fladd@b 0028  
                        MSSP_I2C_Init@i2c_obj 0045                                     ___fldiv@a 0013  
                                   ___fldiv@b 000F                                      ?_RB4_ISR 0001  
                                    ?_RB5_ISR 0001                                      ?_RB6_ISR 0001  
                                    ?_RB7_ISR 0001                             ??_I2C_Send_1_byte 0007  
                                 __pbssCOMRAM 0049                   ?_MSSP_I2C_Master_Send_Start 0001  
                       _INT2_InterruptHandler 0055                gpio_pin_write_logic@pin_config 0001  
                       _TMR0_InterruptHandler 00A3                                 _MSSP_I2C_Init 1F80  
                                   __pintcode 0008                                      ?___fladd 0028  
                                    ?___fldiv 000F                                      ?___fltol 0038  
              ?_I2C_Slave_Mode_Configurations 0001                     gpio_pin_write_logic@logic 0003  
                      _MSSP_Bus_Collision_ISR 267A                                   __smallconst 1000  
                                    _CCP1_ISR 2670                                      _CCP2_ISR 266C  
                          _RB5_pin_init_value 006B                                      _INT0_ISR 2664  
                                    _INT1_ISR 2660                                      _INT2_ISR 265C  
                    __end_of_InterruptManager 1B20                                ?_MSSP_I2C_Init 0045  
                                    i2u700_40 1AF8                                      i2u700_41 1AF4  
                                    i2u701_40 1B0A                          _RB5_InterruptHandler 0051  
                                    i2u701_41 1B06                                      i2u702_40 1B18  
                                    i2u702_41 1B14                                      i2u670_40 18EE  
                                    i2u670_41 18EA                                      i2u671_40 1904  
                                    i2u663_40 1880                                      i2u671_41 1900  
                                    i2u663_41 187C                                      i2u680_40 19B4  
                                    i2u672_40 191A                                      i2u664_40 188E  
                                    i2u680_41 19B0                                      i2u672_41 1916  
                                    i2u664_41 188A                                      i2u681_40 19CA  
                                    i2u673_40 1928                                      i2u665_40 18A0  
                                    i2u681_41 19C6                                      i2u673_41 1924  
                                    i2u665_41 189C                                      i2u690_40 1A58  
                                    i2u682_40 19D8                                      i2u674_40 1940  
                                    i2u666_40 18AE                                      i2u690_41 1A54  
                                    i2u682_41 19D4                                      i2u674_41 193C  
                                    i2u666_41 18AA                                      i2u691_40 1A6A  
                                    i2u683_40 19EA                                      i2u675_40 1956  
                                    i2u667_40 18C0                                      i2u691_41 1A66  
                                    i2u683_41 19E6                                      i2u675_41 1952  
                                    i2u667_41 18BC                                      i2u692_40 1A78  
                                    i2u684_40 19F8                                      i2u676_40 1964  
                                    i2u668_40 18CE                                      i2u692_41 1A74  
                                    i2u684_41 19F4                                      i2u676_41 1960  
                                    i2u668_41 18CA                                      i2u693_40 1A8A  
                                    i2u685_40 1A0A                                      i2u677_40 197C  
                                    i2u669_40 18E0                                      i2u693_41 1A86  
                                    i2u685_41 1A06                                      i2u677_41 1978  
                                    i2u669_41 18DC                                      i2u694_40 1A98  
                                    i2u686_40 1A18                                      i2u678_40 1992  
                                    i2u694_41 1A94                                      i2u686_41 1A14  
                                    i2u678_41 198E                                      i2u695_40 1AAA  
                                    i2u687_40 1A2A                                      i2u679_40 19A0  
                                    i2u695_41 1AA6                                      i2u687_41 1A26  
                                    i2u679_41 199C                                      i2u696_40 1AB8  
                                    i2u688_40 1A38                                      i2u696_41 1AB4  
                                    i2u688_41 1A34                                      i2u697_40 1ACA  
                                    i2u689_40 1A4A                                      i2u697_41 1AC6  
                                    i2u689_41 1A46                                      i2u698_40 1AD8  
                                    i2u698_41 1AD4                                      i2u699_40 1AEA  
                                    i2u699_41 1AE6              gpio_pin_direction_initialize@ret 0009  
                                    _TMR0_ISR 2634                                      _TMR1_ISR 2628  
                                    _TMR2_ISR 2646                                      _MSSP_ISR 2678  
                                    _TMR3_ISR 261C          I2C_Slave_Mode_Configurations@i2c_obj 0001  
     gpio_pin_direction_initialize@pin_config 0001                        gpio_pin_initialize@ret 000E  
                     gpio_pin_write_logic@ret 000A                                     copy_data0 247A  
                        _ecu_layer_initialize 260E                            _RB7_pin_init_value 0069  
                                    __Hrparam 0000                                      __Lrparam 0000  
                       _CCP1_InterruptHandler 0061                   __end_of_gpio_pin_initialize 2374  
                          __end_of_btn_values 1011                    ?_MSSP_I2C_Master_Send_Stop 0001  
                       _TMR1_InterruptHandler 00A1             MSSP_I2C_Master_Send_Start@i2c_obj 0001  
                             _I2C_Master_Init 25A6                                      ___xxtofl 1B20  
                                    __ptext10 25A6                                      __ptext11 1F80  
                                    __ptext20 261C                                      __ptext12 2640  
                                    __ptext21 2646                                      __ptext13 25F2  
                                    __ptext30 265C                                      __ptext22 2628  
                                    __ptext14 21C0                                      __ptext31 2660  
                                    __ptext23 2634                                      __ptext15 1B20  
                                    __ptext32 2664                                      __ptext24 264C  
                                    __ptext16 20BA                                      __ptext33 2668  
                                    __ptext25 2650                                      __ptext17 14D6  
                                    __ptext34 267C                                      __ptext26 2654  
                                    __ptext18 1016                                      __ptext35 266C  
                                    __ptext27 2658                                      __ptext36 2670  
                                    __ptext28 2678                                      __ptext37 2674  
                                    __ptext29 267A   I2C_Master_Mode_Clock_Configurations@i2c_obj 0042  
                       ?_ecu_layer_initialize 0001                               ??_MSSP_I2C_Init 0047  
                  _EUSART_TX_InterruptHandler 009D                                      isa$xinst 0000  
                                    _spi_obj2 00A7                               _I2C_Send_1_byte 24BA  
                                    int$flags 007E             __end_of_MSSP_I2C_Master_Send_Stop 2558  
                        _RB6_InterruptHandler 004F                  __end_of_gpio_pin_write_logic 1F80  
                                    intlevel2 0000                       ?_MSSP_Bus_Collision_ISR 0001  
                     __end_of_I2C_Master_Init 25CE                                _port_registers 00AB  
      __end_of_MSSP_I2C_Master_Write_Blocking 2466                _MSSP_I2C_Master_Write_Blocking 23EE  
                               ___fladd@signs 0034                         _CCP2_InterruptHandler 005F  
                      ??_ecu_layer_initialize 0014                                  ___fladd@aexp 0035  
                                ___fladd@bexp 0036                       __end_of_I2C_Send_1_byte 250A  
                           ?_InterruptManager 0001                                _led_initialize 2374  
