

Microchip MPLAB XC8 Assembler V2.41 build 20230208172133 
                                                                                               Sat Sep 16 12:43:11 2023

Microchip MPLAB XC8 C Compiler v2.41 (Free license) build 20230208172133 Og1 
     1                           	processor	18F4620
     2                           	fnconf	rparam,??,?,0
     3                           	pagewidth 120
     4                           	opt	flic
     5                           	psect	idataCOMRAM,global,class=CODE,delta=1,noexec
     6                           	psect	idataBANK0,global,class=CODE,delta=1,noexec
     7                           	psect	smallconst,global,reloc=2,class=SMALLCONST,delta=1,noexec
     8                           	psect	cinit,global,reloc=2,class=CODE,delta=1
     9                           	psect	bssCOMRAM,global,class=COMRAM,space=1,delta=1,lowdata,noexec
    10                           	psect	dataCOMRAM,global,class=COMRAM,space=1,delta=1,lowdata,noexec
    11                           	psect	dataBANK0,global,class=BANK0,space=1,delta=1,lowdata,noexec
    12                           	psect	cstackBANK0,global,class=BANK0,space=1,delta=1,lowdata,noexec
    13                           	psect	cstackCOMRAM,global,class=COMRAM,space=1,delta=1,lowdata,noexec
    14                           	psect	text0,global,reloc=2,class=CODE,delta=1
    15                           	psect	text1,global,reloc=2,class=CODE,delta=1
    16                           	psect	text2,global,reloc=2,class=CODE,delta=1
    17                           	psect	text3,global,reloc=2,class=CODE,delta=1
    18                           	psect	text4,global,reloc=2,class=CODE,delta=1
    19                           	psect	text5,global,reloc=2,class=CODE,delta=1
    20                           	psect	text6,global,reloc=2,class=CODE,delta=1
    21                           	psect	text7,global,reloc=2,class=CODE,delta=1
    22                           	psect	text8,global,reloc=2,class=CODE,delta=1
    23                           	psect	text9,global,reloc=2,class=CODE,delta=1
    24                           	psect	text10,global,reloc=2,class=CODE,delta=1
    25                           	psect	text11,global,reloc=2,class=CODE,delta=1
    26                           	psect	text12,global,reloc=2,class=CODE,delta=1
    27                           	psect	text13,global,reloc=2,class=CODE,delta=1
    28                           	psect	text14,global,reloc=2,class=CODE,delta=1
    29                           	psect	text15,global,reloc=2,class=CODE,delta=1
    30                           	psect	text16,global,reloc=2,class=CODE,delta=1
    31                           	psect	text17,global,reloc=2,class=CODE,delta=1
    32                           	psect	intcodelo,global,reloc=2,class=CODE,delta=1
    33                           	psect	text19,global,reloc=2,class=CODE,delta=1
    34                           	psect	text20,global,reloc=2,class=CODE,delta=1
    35                           	psect	text21,global,reloc=2,class=CODE,delta=1
    36                           	psect	text22,global,reloc=2,class=CODE,delta=1
    37                           	psect	text23,global,reloc=2,class=CODE,delta=1
    38                           	psect	text24,global,reloc=2,class=CODE,delta=1
    39                           	psect	text25,global,reloc=2,class=CODE,delta=1
    40                           	psect	text26,global,reloc=2,class=CODE,delta=1
    41                           	psect	text27,global,reloc=2,class=CODE,delta=1
    42                           	psect	text28,global,reloc=2,class=CODE,delta=1
    43                           	psect	text29,global,reloc=2,class=CODE,delta=1
    44                           	psect	text30,global,reloc=2,class=CODE,delta=1
    45                           	psect	intcode,global,reloc=2,class=CODE,delta=1
    46                           	psect	intcode_body,global,reloc=2,class=CODE,delta=1
    47                           	psect	text32,global,reloc=2,class=CODE,delta=1
    48                           	psect	text33,global,reloc=2,class=CODE,delta=1
    49                           	psect	text34,global,reloc=2,class=CODE,delta=1
    50                           	psect	text35,global,reloc=2,class=CODE,delta=1
    51                           	psect	text36,global,reloc=2,class=CODE,delta=1
    52                           	psect	text37,global,reloc=2,class=CODE,delta=1
    53                           	psect	text38,global,reloc=2,class=CODE,delta=1
    54                           	psect	text39,global,reloc=2,class=CODE,delta=1
    55                           	psect	text40,global,reloc=2,class=CODE,delta=1
    56                           	psect	text41,global,reloc=2,class=CODE,delta=1
    57                           	psect	text42,global,reloc=2,class=CODE,delta=1
    58                           	psect	text43,global,reloc=2,class=CODE,delta=1
    59                           	psect	text44,global,reloc=2,class=CODE,delta=1
    60                           	psect	intsave_regs,global,class=BIGRAM,space=1,delta=1,noexec
    61                           	psect	text45,global,reloc=2,class=CODE,delta=1
    62                           	psect	rparam,global,class=COMRAM,space=1,delta=1,noexec
    63                           	psect	temp,global,ovrld,common,class=COMRAM,space=1,delta=1
    64                           	psect	config,global,abs,ovrld,class=CONFIG,space=4,delta=1,noexec
    65   000000                     
    66                           ; Generated 23/03/2023 GMT
    67                           ; 
    68                           ; Copyright © 2023, Microchip Technology Inc. and its subsidiaries ("Microchip")
    69                           ; All rights reserved.
    70                           ; 
    71                           ; This software is developed by Microchip Technology Inc. and its subsidiaries ("Microch
      +                          ip").
    72                           ; 
    73                           ; Redistribution and use in source and binary forms, with or without modification, are
    74                           ; permitted provided that the following conditions are met:
    75                           ; 
    76                           ;     1. Redistributions of source code must retain the above copyright notice, this lis
      +                          t of
    77                           ;        conditions and the following disclaimer.
    78                           ; 
    79                           ;     2. Redistributions in binary form must reproduce the above copyright notice, this 
      +                          list
    80                           ;        of conditions and the following disclaimer in the documentation and/or other
    81                           ;        materials provided with the distribution. Publication is not required when
    82                           ;        this file is used in an embedded application.
    83                           ; 
    84                           ;     3. Microchip's name may not be used to endorse or promote products derived from th
      +                          is
    85                           ;        software without specific prior written permission.
    86                           ; 
    87                           ; THIS SOFTWARE IS PROVIDED BY MICROCHIP "AS IS" AND ANY EXPRESS OR IMPLIED WARRANTIES,
    88                           ; INCLUDING, BUT NOT LIMITED TO, THE IMPLIED WARRANTIES OF MERCHANTABILITY AND FITNESS F
      +                          OR
    89                           ; PURPOSE ARE DISCLAIMED.  IN NO EVENT SHALL MICROCHIP BE LIABLE FOR ANY DIRECT, INDIREC
      +                          T,
    90                           ; INCIDENTAL, SPECIAL, EXEMPLARY, OR CONSEQUENTIAL DAMAGES (INCLUDING BUT NOT LIMITED TO
    91                           ; PROCUREMENT OF SUBSTITUTE GOODS OR SERVICES; LOSS OF USE, DATA OR PROFITS; OR BUSINESS
    92                           ; INTERRUPTION) HOWSOEVER CAUSED AND ON ANY THEORY OF LIABILITY, WHETHER IN CONTRACT, ST
      +                          RICT
    93                           ; LIABILITY, OR TORT (INCLUDING NEGLIGENCE OR OTHERWISE) ARISING IN ANY WAY OUT OF THE U
      +                          SE OF
    94                           ; THIS SOFTWARE, EVEN IF ADVISED OF THE POSSIBILITY OF SUCH DAMAGE.
    95                           ; 
    96                           ; 
    97                           ; Code-generator required, PIC18F4620 Definitions
    98                           ; 
    99                           ; SFR Addresses
   100   000000                     
   101                           	psect	idataCOMRAM
   102   001DC0                     __pidataCOMRAM:
   103                           	callstack 0
   104                           
   105                           ;initializer for _lat_registers
   106   001DC0  89                 	db	137
   107   001DC1  0F                 	db	15
   108   001DC2  8A                 	db	138
   109   001DC3  0F                 	db	15
   110   001DC4  8B                 	db	139
   111   001DC5  0F                 	db	15
   112   001DC6  8C                 	db	140
   113   001DC7  0F                 	db	15
   114   001DC8  8D                 	db	141
   115   001DC9  0F                 	db	15
   116                           
   117                           ;initializer for _tris_registers
   118   001DCA  92                 	db	146
   119   001DCB  0F                 	db	15
   120   001DCC  93                 	db	147
   121   001DCD  0F                 	db	15
   122   001DCE  94                 	db	148
   123   001DCF  0F                 	db	15
   124   001DD0  95                 	db	149
   125   001DD1  0F                 	db	15
   126   001DD2  96                 	db	150
   127   001DD3  0F                 	db	15
   128                           
   129                           ;initializer for _RB6_INT
   130   001DD4  34                 	db	low _RB6_INT_HANDLER
   131   001DD5  1E                 	db	high _RB6_INT_HANDLER
   132   001DD6  71                 	db	113
   133   001DD7  00                 	db	0
   134   001DD8  00                 	db	0
   135                           
   136                           ;initializer for _RB5_INT
   137   001DD9  4C                 	db	low _RB5_INT_HANDLER
   138   001DDA  1E                 	db	high _RB5_INT_HANDLER
   139   001DDB  69                 	db	105
   140   001DDC  00                 	db	0
   141   001DDD  00                 	db	0
   142                           
   143                           ;initializer for _RB4_INT
   144   001DDE  64                 	db	low _RB4_INT_HANDLER
   145   001DDF  1E                 	db	high _RB4_INT_HANDLER
   146   001DE0  61                 	db	97
   147   001DE1  00                 	db	0
   148   001DE2  00                 	db	0
   149                           
   150                           ;initializer for _led4
   151   001DE3  33                 	db	51
   152                           
   153                           ;initializer for _led3
   154   001DE4  23                 	db	35
   155                           
   156                           ;initializer for _led2
   157   001DE5  13                 	db	19
   158                           
   159                           ;initializer for _led1
   160   001DE6  03                 	db	3
   161                           
   162                           	psect	idataBANK0
   163   001DE7                     __pidataBANK0:
   164                           	callstack 0
   165                           
   166                           ;initializer for _port_registers
   167   001DE7  80                 	db	128
   168   001DE8  0F                 	db	15
   169   001DE9  81                 	db	129
   170   001DEA  0F                 	db	15
   171   001DEB  82                 	db	130
   172   001DEC  0F                 	db	15
   173   001DED  83                 	db	131
   174   001DEE  0F                 	db	15
   175   001DEF  84                 	db	132
   176   001DF0  0F                 	db	15
   177                           
   178                           ;initializer for _lcd_2
   179   001DF1  32                 	db	50
   180   001DF2  3A                 	db	58
   181   001DF3  03                 	db	3
   182   001DF4  0B                 	db	11
   183   001DF5  13                 	db	19
   184   001DF6  1B                 	db	27
   185   001DF7  23                 	db	35
   186   001DF8  2B                 	db	43
   187   001DF9  33                 	db	51
   188   001DFA  3B                 	db	59
   189                           
   190                           ;initializer for _keypad1
   191   001DFB  02                 	db	2
   192   001DFC  0A                 	db	10
   193   001DFD  12                 	db	18
   194   001DFE  1A                 	db	26
   195   001DFF  62                 	db	98
   196   001E00  6A                 	db	106
   197   001E01  72                 	db	114
   198   001E02  7A                 	db	122
   199                           
   200                           ;initializer for _lcd1
   201   001E03  02                 	db	2
   202   001E04  0A                 	db	10
   203   001E05  12                 	db	18
   204   001E06  1A                 	db	26
   205   001E07  22                 	db	34
   206   001E08  2A                 	db	42
   207                           
   208                           ;initializer for _RB7_INT
   209   001E09  7C                 	db	low _RB7_INT_HANDLER
   210   001E0A  1E                 	db	high _RB7_INT_HANDLER
   211   001E0B  79                 	db	121
   212   001E0C  00                 	db	0
   213   001E0D  00                 	db	0
   214                           
   215                           	psect	smallconst
   216   001000                     __psmallconst:
   217                           	callstack 0
   218   001000  00                 	db	0
   219   001001                     _btn_values:
   220                           	callstack 0
   221   001001  37                 	db	55
   222   001002  38                 	db	56
   223   001003  39                 	db	57
   224   001004  2F                 	db	47
   225   001005  34                 	db	52
   226   001006  35                 	db	53
   227   001007  36                 	db	54
   228   001008  2A                 	db	42
   229   001009  31                 	db	49
   230   00100A  32                 	db	50
   231   00100B  33                 	db	51
   232   00100C  2D                 	db	45
   233   00100D  23                 	db	35
   234   00100E  30                 	db	48
   235   00100F  3D                 	db	61
   236   001010  2B                 	db	43
   237   001011                     __end_of_btn_values:
   238                           	callstack 0
   239   001011                     STR_1:
   240   001011  25                 	db	37
   241   001012  69                 	db	105	;'i'
   242   001013  00                 	db	0
   243   001014  00                 	db	0	; dummy byte at the end
   244   000000                     
   245                           ; #config settings
   246                           
   247                           	psect	cinit
   248   001A98                     __pcinit:
   249                           	callstack 0
   250   001A98                     start_initialization:
   251                           	callstack 0
   252   001A98                     __initialization:
   253                           	callstack 0
   254                           
   255                           ; Initialize objects allocated to BANK0 (39 bytes)
   256                           ; load TBLPTR registers with __pidataBANK0
   257   001A98  0EE7               	movlw	low __pidataBANK0
   258   001A9A  6EF6               	movwf	tblptrl,c
   259   001A9C  0E1D               	movlw	high __pidataBANK0
   260   001A9E  6EF7               	movwf	tblptrh,c
   261   001AA0  0E00               	movlw	low (__pidataBANK0 shr (0+16))
   262   001AA2  6EF8               	movwf	tblptru,c
   263   001AA4  EE00  F080         	lfsr	0,__pdataBANK0
   264   001AA8  EE10 F027          	lfsr	1,39
   265   001AAC                     copy_data0:
   266   001AAC  0009               	tblrd		*+
   267   001AAE  CFF5 FFEE          	movff	tablat,postinc0
   268   001AB2  50E5               	movf	postdec1,w,c
   269   001AB4  50E1               	movf	fsr1l,w,c
   270   001AB6  E1FA               	bnz	copy_data0
   271                           
   272                           ; Initialize objects allocated to COMRAM (39 bytes)
   273                           ; load TBLPTR registers with __pidataCOMRAM
   274   001AB8  0EC0               	movlw	low __pidataCOMRAM
   275   001ABA  6EF6               	movwf	tblptrl,c
   276   001ABC  0E1D               	movlw	high __pidataCOMRAM
   277   001ABE  6EF7               	movwf	tblptrh,c
   278   001AC0  0E00               	movlw	low (__pidataCOMRAM shr (0+16))
   279   001AC2  6EF8               	movwf	tblptru,c
   280   001AC4  EE00  F001         	lfsr	0,__pdataCOMRAM
   281   001AC8  EE10 F027          	lfsr	1,39
   282   001ACC                     copy_data1:
   283   001ACC  0009               	tblrd		*+
   284   001ACE  CFF5 FFEE          	movff	tablat,postinc0
   285   001AD2  50E5               	movf	postdec1,w,c
   286   001AD4  50E1               	movf	fsr1l,w,c
   287   001AD6  E1FA               	bnz	copy_data1
   288                           
   289                           ; Clear objects allocated to COMRAM (26 bytes)
   290   001AD8  EE00  F04F         	lfsr	0,__pbssCOMRAM
   291   001ADC  0E1A               	movlw	26
   292   001ADE                     clear_0:
   293   001ADE  6AEE               	clrf	postinc0,c
   294   001AE0  06E8               	decf	wreg,f,c
   295   001AE2  E1FD               	bnz	clear_0
   296   001AE4                     end_of_initialization:
   297                           	callstack 0
   298   001AE4                     __end_of__initialization:
   299                           	callstack 0
   300   001AE4  9069               	bcf	int$flags,0,c	;clear compiler interrupt flag (level 1)
   301   001AE6  9269               	bcf	int$flags,1,c	;clear compiler interrupt flag (level 2)
   302   001AE8  0100               	movlb	0
   303   001AEA  EF77  F00D         	goto	_main	;jump to C main() function
   304                           
   305                           	psect	bssCOMRAM
   306   00004F                     __pbssCOMRAM:
   307                           	callstack 0
   308   00004F                     _RB7_InterruptHandler:
   309                           	callstack 0
   310   00004F                     	ds	2
   311   000051                     _RB6_InterruptHandler:
   312                           	callstack 0
   313   000051                     	ds	2
   314   000053                     _RB5_InterruptHandler:
   315                           	callstack 0
   316   000053                     	ds	2
   317   000055                     _RB4_InterruptHandler:
   318                           	callstack 0
   319   000055                     	ds	2
   320   000057                     _INT2_InterruptHandler:
   321                           	callstack 0
   322   000057                     	ds	2
   323   000059                     _INT1_InterruptHandler:
   324                           	callstack 0
   325   000059                     	ds	2
   326   00005B                     _INT0_InterruptHandler:
   327                           	callstack 0
   328   00005B                     	ds	2
   329   00005D                     _ret:
   330                           	callstack 0
   331   00005D                     	ds	1
   332   00005E                     _RB7_pin_init_value:
   333                           	callstack 0
   334   00005E                     	ds	1
   335   00005F                     _RB6_pin_init_value:
   336                           	callstack 0
   337   00005F                     	ds	1
   338   000060                     _RB5_pin_init_value:
   339                           	callstack 0
   340   000060                     	ds	1
   341   000061                     _RB4_pin_init_value:
   342                           	callstack 0
   343   000061                     	ds	1
   344   000062                     relay_turn_off@F3159:
   345                           	callstack 0
   346   000062                     	ds	1
   347   000063                     relay_turn_on@F3154:
   348                           	callstack 0
   349   000063                     	ds	1
   350   000064                     relay_initialize@F3149:
   351                           	callstack 0
   352   000064                     	ds	1
   353   000065                     led_toggle@F3170:
   354                           	callstack 0
   355   000065                     	ds	1
   356   000066                     led_turn_off@F3165:
   357                           	callstack 0
   358   000066                     	ds	1
   359   000067                     led_turn_on@F3160:
   360                           	callstack 0
   361   000067                     	ds	1
   362   000068                     led_initialize@F3155:
   363                           	callstack 0
   364   000068                     	ds	1
   365                           
   366                           	psect	dataCOMRAM
   367   000001                     __pdataCOMRAM:
   368                           	callstack 0
   369   000001                     _lat_registers:
   370                           	callstack 0
   371   000001                     	ds	10
   372   00000B                     _tris_registers:
   373                           	callstack 0
   374   00000B                     	ds	10
   375   000015                     _RB6_INT:
   376                           	callstack 0
   377   000015                     	ds	5
   378   00001A                     _RB5_INT:
   379                           	callstack 0
   380   00001A                     	ds	5
   381   00001F                     _RB4_INT:
   382                           	callstack 0
   383   00001F                     	ds	5
   384   000024                     _led4:
   385                           	callstack 0
   386   000024                     	ds	1
   387   000025                     _led3:
   388                           	callstack 0
   389   000025                     	ds	1
   390   000026                     _led2:
   391                           	callstack 0
   392   000026                     	ds	1
   393   000027                     _led1:
   394                           	callstack 0
   395   000027                     	ds	1
   396                           
   397                           	psect	dataBANK0
   398   000080                     __pdataBANK0:
   399                           	callstack 0
   400   000080                     _port_registers:
   401                           	callstack 0
   402   000080                     	ds	10
   403   00008A                     _lcd_2:
   404                           	callstack 0
   405   00008A                     	ds	10
   406   000094                     _keypad1:
   407                           	callstack 0
   408   000094                     	ds	8
   409   00009C                     _lcd1:
   410                           	callstack 0
   411   00009C                     	ds	6
   412   0000A2                     _RB7_INT:
   413                           	callstack 0
   414   0000A2                     	ds	5
   415                           
   416                           	psect	cstackBANK0
   417   0000A7                     __pcstackBANK0:
   418                           	callstack 0
   419   0000A7                     gpio_pin_direction_initialize@pin_config:
   420                           	callstack 0
   421   0000A7                     gpio_pin_write_logic@pin_config:
   422                           	callstack 0
   423   0000A7                     Interrupt_RBx_Enable@int_obj:
   424                           	callstack 0
   425   0000A7                     Interrupt_RBx_Disable@int_obj:
   426                           	callstack 0
   427   0000A7                     Interrupt_RBx_Priority_Init@int_obj:
   428                           	callstack 0
   429   0000A7                     RB4_SetInterruptHandler@InterruptHandler:
   430                           	callstack 0
   431   0000A7                     RB5_SetInterruptHandler@InterruptHandler:
   432                           	callstack 0
   433   0000A7                     RB6_SetInterruptHandler@InterruptHandler:
   434                           	callstack 0
   435   0000A7                     RB7_SetInterruptHandler@InterruptHandler:
   436                           	callstack 0
   437   0000A7                     Interrupt_RBx_set_pin_init_value@int_obj:
   438                           	callstack 0
   439                           
   440                           ; 2 bytes @ 0x0
   441   0000A7                     	ds	2
   442   0000A9                     ??_gpio_pin_direction_initialize:
   443   0000A9                     ??_Interrupt_RBx_set_pin_init_value:
   444   0000A9                     gpio_pin_write_logic@logic:
   445                           	callstack 0
   446   0000A9                     Interrupt_RBx_Disable@ret:
   447                           	callstack 0
   448   0000A9                     RB4_SetInterruptHandler@ret:
   449                           	callstack 0
   450   0000A9                     RB5_SetInterruptHandler@ret:
   451                           	callstack 0
   452   0000A9                     RB6_SetInterruptHandler@ret:
   453                           	callstack 0
   454   0000A9                     RB7_SetInterruptHandler@ret:
   455                           	callstack 0
   456                           
   457                           ; 1 bytes @ 0x2
   458   0000A9                     	ds	1
   459   0000AA                     ??_gpio_pin_write_logic:
   460   0000AA                     Interrupt_RBx_Enable@ret:
   461                           	callstack 0
   462   0000AA                     Interrupt_RBx_Priority_Init@ret:
   463                           	callstack 0
   464   0000AA                     Interrupt_RBx_SetInterruptHandler@int_obj:
   465                           	callstack 0
   466                           
   467                           ; 2 bytes @ 0x3
   468   0000AA                     	ds	1
   469   0000AB                     Interrupt_RBx_set_pin_init_value@ret:
   470                           	callstack 0
   471                           
   472                           ; 1 bytes @ 0x4
   473   0000AB                     	ds	1
   474   0000AC                     ??_Interrupt_RBx_SetInterruptHandler:
   475                           
   476                           ; 1 bytes @ 0x5
   477   0000AC                     	ds	2
   478   0000AE                     Interrupt_RBx_SetInterruptHandler@ret:
   479                           	callstack 0
   480                           
   481                           ; 1 bytes @ 0x7
   482   0000AE                     	ds	1
   483   0000AF                     gpio_pin_direction_initialize@ret:
   484                           	callstack 0
   485                           
   486                           ; 1 bytes @ 0x8
   487   0000AF                     	ds	1
   488   0000B0                     gpio_pin_write_logic@ret:
   489                           	callstack 0
   490   0000B0                     Interrupt_RBx_Pin_Init@int_obj:
   491                           	callstack 0
   492                           
   493                           ; 2 bytes @ 0x9
   494   0000B0                     	ds	1
   495   0000B1                     gpio_pin_initialize@pin_config:
   496                           	callstack 0
   497                           
   498                           ; 2 bytes @ 0xA
   499   0000B1                     	ds	1
   500   0000B2                     Interrupt_RBx_Pin_Init@ret:
   501                           	callstack 0
   502                           
   503                           ; 1 bytes @ 0xB
   504   0000B2                     	ds	1
   505   0000B3                     ??_gpio_pin_initialize:
   506   0000B3                     Interrupt_RBx_Init@int_obj:
   507                           	callstack 0
   508                           
   509                           ; 2 bytes @ 0xC
   510   0000B3                     	ds	1
   511   0000B4                     gpio_pin_initialize@ret:
   512                           	callstack 0
   513                           
   514                           ; 1 bytes @ 0xD
   515   0000B4                     	ds	1
   516   0000B5                     Interrupt_RBx_Init@ret:
   517                           	callstack 0
   518   0000B5                     led_initialize@led:
   519                           	callstack 0
   520                           
   521                           ; 2 bytes @ 0xE
   522   0000B5                     	ds	2
   523   0000B7                     ??_led_initialize:
   524                           
   525                           ; 1 bytes @ 0x10
   526   0000B7                     	ds	1
   527   0000B8                     led_initialize@pin_obj:
   528                           	callstack 0
   529                           
   530                           ; 1 bytes @ 0x11
   531   0000B8                     	ds	1
   532   0000B9                     
   533                           ; 1 bytes @ 0x12
   534                           
   535                           	psect	cstackCOMRAM
   536   000028                     __pcstackCOMRAM:
   537                           	callstack 0
   538   000028                     i2gpio_pin_toggle_logic@pin_config:
   539                           	callstack 0
   540                           
   541                           ; 2 bytes @ 0x0
   542   000028                     	ds	2
   543   00002A                     ??i2_gpio_pin_toggle_logic:
   544                           
   545                           ; 1 bytes @ 0x2
   546   00002A                     	ds	5
   547   00002F                     i2gpio_pin_toggle_logic@ret:
   548                           	callstack 0
   549                           
   550                           ; 1 bytes @ 0x7
   551   00002F                     	ds	1
   552   000030                     i2led_toggle@led:
   553                           	callstack 0
   554                           
   555                           ; 2 bytes @ 0x8
   556   000030                     	ds	2
   557   000032                     ??i2_led_toggle:
   558                           
   559                           ; 1 bytes @ 0xA
   560   000032                     	ds	1
   561   000033                     i2led_toggle@pin_obj:
   562                           	callstack 0
   563                           
   564                           ; 1 bytes @ 0xB
   565   000033                     	ds	1
   566   000034                     ??_InterruptManagerHigh:
   567   000034                     
   568                           ; 1 bytes @ 0xC
   569   000034                     	ds	6
   570   00003A                     gpio_pin_toggle_logic@pin_config:
   571                           	callstack 0
   572                           
   573                           ; 2 bytes @ 0x12
   574   00003A                     	ds	2
   575   00003C                     ??_gpio_pin_toggle_logic:
   576                           
   577                           ; 1 bytes @ 0x14
   578   00003C                     	ds	5
   579   000041                     gpio_pin_toggle_logic@ret:
   580                           	callstack 0
   581                           
   582                           ; 1 bytes @ 0x19
   583   000041                     	ds	1
   584   000042                     led_toggle@led:
   585                           	callstack 0
   586                           
   587                           ; 2 bytes @ 0x1A
   588   000042                     	ds	2
   589   000044                     ??_led_toggle:
   590                           
   591                           ; 1 bytes @ 0x1C
   592   000044                     	ds	1
   593   000045                     led_toggle@pin_obj:
   594                           	callstack 0
   595                           
   596                           ; 1 bytes @ 0x1D
   597   000045                     	ds	1
   598   000046                     ??_InterruptManagerLow:
   599   000046                     
   600                           ; 1 bytes @ 0x1E
   601   000046                     	ds	9
   602                           
   603 ;;
   604 ;;Main: autosize = 0, tempsize = 0, incstack = 0, save=0
   605 ;;
   606 ;; *************** function _main *****************
   607 ;; Defined at:
   608 ;;		line 57 in file "application.c"
   609 ;; Parameters:    Size  Location     Type
   610 ;;		None
   611 ;; Auto vars:     Size  Location     Type
   612 ;;		None
   613 ;; Return value:  Size  Location     Type
   614 ;;                  2  831[None  ] int 
   615 ;; Registers used:
   616 ;;		wreg, fsr2l, fsr2h, status,2, status,0, prodl, prodh, cstack
   617 ;; Tracked objects:
   618 ;;		On entry : 0/0
   619 ;;		On exit  : 0/0
   620 ;;		Unchanged: 0/0
   621 ;; Data sizes:     COMRAM   BANK0   BANK1   BANK2   BANK3   BANK4   BANK5   BANK6   BANK7   BANK8   BANK9  BANK10  BANK1
      +1  BANK12  BANK13  BANK14  BANK15
   622 ;;      Params:         0       0       0       0       0       0       0       0       0       0       0       0       
      +0       0       0       0       0
   623 ;;      Locals:         0       0       0       0       0       0       0       0       0       0       0       0       
      +0       0       0       0       0
   624 ;;      Temps:          0       0       0       0       0       0       0       0       0       0       0       0       
      +0       0       0       0       0
   625 ;;      Totals:         0       0       0       0       0       0       0       0       0       0       0       0       
      +0       0       0       0       0
   626 ;;Total ram usage:        0 bytes
   627 ;; Hardware stack levels required when called: 15
   628 ;; This function calls:
   629 ;;		_Interrupt_RBx_Init
   630 ;;		_application_initialize
   631 ;; This function is called by:
   632 ;;		Startup code after reset
   633 ;; This function uses a non-reentrant model
   634 ;;
   635                           
   636                           	psect	text0
   637   001AEE                     __ptext0:
   638                           	callstack 0
   639   001AEE                     _main:
   640                           	callstack 16
   641   001AEE                     
   642                           ;application.c: 58:     application_initialize();
   643   001AEE  EC66  F00F         	call	_application_initialize	;wreg free
   644                           
   645                           ;application.c: 59:     Interrupt_RBx_Init(&RB4_INT);
   646   001AF2  0E1F               	movlw	low _RB4_INT
   647   001AF4  0100               	movlb	0	; () banked
   648   001AF6  6FB3               	movwf	Interrupt_RBx_Init@int_obj& (0+255),b
   649   001AF8  0E00               	movlw	high _RB4_INT
   650   001AFA  6FB4               	movwf	(Interrupt_RBx_Init@int_obj+1)& (0+255),b
   651   001AFC  ECF7  F00B         	call	_Interrupt_RBx_Init	;wreg free
   652                           
   653                           ;application.c: 60:     Interrupt_RBx_Init(&RB5_INT);
   654   001B00  0E1A               	movlw	low _RB5_INT
   655   001B02  0100               	movlb	0	; () banked
   656   001B04  6FB3               	movwf	Interrupt_RBx_Init@int_obj& (0+255),b
   657   001B06  0E00               	movlw	high _RB5_INT
   658   001B08  6FB4               	movwf	(Interrupt_RBx_Init@int_obj+1)& (0+255),b
   659   001B0A  ECF7  F00B         	call	_Interrupt_RBx_Init	;wreg free
   660                           
   661                           ;application.c: 61:     Interrupt_RBx_Init(&RB6_INT);
   662   001B0E  0E15               	movlw	low _RB6_INT
   663   001B10  0100               	movlb	0	; () banked
   664   001B12  6FB3               	movwf	Interrupt_RBx_Init@int_obj& (0+255),b
   665   001B14  0E00               	movlw	high _RB6_INT
   666   001B16  6FB4               	movwf	(Interrupt_RBx_Init@int_obj+1)& (0+255),b
   667   001B18  ECF7  F00B         	call	_Interrupt_RBx_Init	;wreg free
   668                           
   669                           ;application.c: 62:     Interrupt_RBx_Init(&RB7_INT);
   670   001B1C  0EA2               	movlw	low _RB7_INT
   671   001B1E  0100               	movlb	0	; () banked
   672   001B20  6FB3               	movwf	Interrupt_RBx_Init@int_obj& (0+255),b
   673   001B22  0E00               	movlw	high _RB7_INT
   674   001B24  6FB4               	movwf	(Interrupt_RBx_Init@int_obj+1)& (0+255),b
   675   001B26  ECF7  F00B         	call	_Interrupt_RBx_Init	;wreg free
   676   001B2A                     l832:
   677   001B2A  EF95  F00D         	goto	l832
   678   001B2E  EFC8  F000         	goto	start
   679   001B32                     __end_of_main:
   680                           	callstack 0
   681                           
   682 ;; *************** function _application_initialize *****************
   683 ;; Defined at:
   684 ;;		line 71 in file "application.c"
   685 ;; Parameters:    Size  Location     Type
   686 ;;		None
   687 ;; Auto vars:     Size  Location     Type
   688 ;;  ret             1    0        unsigned char 
   689 ;; Return value:  Size  Location     Type
   690 ;;                  1    wreg      void 
   691 ;; Registers used:
   692 ;;		wreg, fsr2l, fsr2h, status,2, status,0, prodl, prodh, cstack
   693 ;; Tracked objects:
   694 ;;		On entry : 0/0
   695 ;;		On exit  : 0/0
   696 ;;		Unchanged: 0/0
   697 ;; Data sizes:     COMRAM   BANK0   BANK1   BANK2   BANK3   BANK4   BANK5   BANK6   BANK7   BANK8   BANK9  BANK10  BANK1
      +1  BANK12  BANK13  BANK14  BANK15
   698 ;;      Params:         0       0       0       0       0       0       0       0       0       0       0       0       
      +0       0       0       0       0
   699 ;;      Locals:         0       0       0       0       0       0       0       0       0       0       0       0       
      +0       0       0       0       0
   700 ;;      Temps:          0       0       0       0       0       0       0       0       0       0       0       0       
      +0       0       0       0       0
   701 ;;      Totals:         0       0       0       0       0       0       0       0       0       0       0       0       
      +0       0       0       0       0
   702 ;;Total ram usage:        0 bytes
   703 ;; Hardware stack levels used: 1
   704 ;; Hardware stack levels required when called: 14
   705 ;; This function calls:
   706 ;;		_ecu_layer_initialize
   707 ;; This function is called by:
   708 ;;		_main
   709 ;; This function uses a non-reentrant model
   710 ;;
   711                           
   712                           	psect	text1
   713   001ECC                     __ptext1:
   714                           	callstack 0
   715   001ECC                     _application_initialize:
   716                           	callstack 16
   717   001ECC                     
   718                           ;application.c: 73:     ecu_layer_initialize();
   719   001ECC  EC99  F00D         	call	_ecu_layer_initialize	;wreg free
   720   001ED0  0012               	return		;funcret
   721   001ED2                     __end_of_application_initialize:
   722                           	callstack 0
   723                           
   724 ;; *************** function _ecu_layer_initialize *****************
   725 ;; Defined at:
   726 ;;		line 126 in file "ECU_Layer/ecu_layer_init.c"
   727 ;; Parameters:    Size  Location     Type
   728 ;;		None
   729 ;; Auto vars:     Size  Location     Type
   730 ;;  ret             1    0        unsigned char 
   731 ;; Return value:  Size  Location     Type
   732 ;;                  1    wreg      void 
   733 ;; Registers used:
   734 ;;		wreg, fsr2l, fsr2h, status,2, status,0, prodl, prodh, cstack
   735 ;; Tracked objects:
   736 ;;		On entry : 0/0
   737 ;;		On exit  : 0/0
   738 ;;		Unchanged: 0/0
   739 ;; Data sizes:     COMRAM   BANK0   BANK1   BANK2   BANK3   BANK4   BANK5   BANK6   BANK7   BANK8   BANK9  BANK10  BANK1
      +1  BANK12  BANK13  BANK14  BANK15
   740 ;;      Params:         0       0       0       0       0       0       0       0       0       0       0       0       
      +0       0       0       0       0
   741 ;;      Locals:         0       0       0       0       0       0       0       0       0       0       0       0       
      +0       0       0       0       0
   742 ;;      Temps:          0       0       0       0       0       0       0       0       0       0       0       0       
      +0       0       0       0       0
   743 ;;      Totals:         0       0       0       0       0       0       0       0       0       0       0       0       
      +0       0       0       0       0
   744 ;;Total ram usage:        0 bytes
   745 ;; Hardware stack levels used: 1
   746 ;; Hardware stack levels required when called: 13
   747 ;; This function calls:
   748 ;;		_led_initialize
   749 ;; This function is called by:
   750 ;;		_application_initialize
   751 ;; This function uses a non-reentrant model
   752 ;;
   753                           
   754                           	psect	text2
   755   001B32                     __ptext2:
   756                           	callstack 0
   757   001B32                     _ecu_layer_initialize:
   758                           	callstack 16
   759   001B32                     
   760                           ;ECU_Layer/ecu_layer_init.c: 128:      led_initialize(&led1);
   761   001B32  0E27               	movlw	low _led1
   762   001B34  0100               	movlb	0	; () banked
   763   001B36  6FB5               	movwf	led_initialize@led& (0+255),b
   764   001B38  0E00               	movlw	high _led1
   765   001B3A  6FB6               	movwf	(led_initialize@led+1)& (0+255),b
   766   001B3C  EC35  F00C         	call	_led_initialize	;wreg free
   767   001B40                     
   768                           ;ECU_Layer/ecu_layer_init.c: 129:      led_initialize(&led2);
   769   001B40  0E26               	movlw	low _led2
   770   001B42  0100               	movlb	0	; () banked
   771   001B44  6FB5               	movwf	led_initialize@led& (0+255),b
   772   001B46  0E00               	movlw	high _led2
   773   001B48  6FB6               	movwf	(led_initialize@led+1)& (0+255),b
   774   001B4A  EC35  F00C         	call	_led_initialize	;wreg free
   775   001B4E                     
   776                           ;ECU_Layer/ecu_layer_init.c: 130:      led_initialize(&led3);
   777   001B4E  0E25               	movlw	low _led3
   778   001B50  0100               	movlb	0	; () banked
   779   001B52  6FB5               	movwf	led_initialize@led& (0+255),b
   780   001B54  0E00               	movlw	high _led3
   781   001B56  6FB6               	movwf	(led_initialize@led+1)& (0+255),b
   782   001B58  EC35  F00C         	call	_led_initialize	;wreg free
   783   001B5C                     
   784                           ;ECU_Layer/ecu_layer_init.c: 131:      led_initialize(&led4);
   785   001B5C  0E24               	movlw	low _led4
   786   001B5E  0100               	movlb	0	; () banked
   787   001B60  6FB5               	movwf	led_initialize@led& (0+255),b
   788   001B62  0E00               	movlw	high _led4
   789   001B64  6FB6               	movwf	(led_initialize@led+1)& (0+255),b
   790   001B66  EC35  F00C         	call	_led_initialize	;wreg free
   791   001B6A  0012               	return		;funcret
   792   001B6C                     __end_of_ecu_layer_initialize:
   793                           	callstack 0
   794                           
   795 ;; *************** function _led_initialize *****************
   796 ;; Defined at:
   797 ;;		line 7 in file "ECU_Layer/LED/ecu_led.c"
   798 ;; Parameters:    Size  Location     Type
   799 ;;  led             2   14[BANK0 ] PTR const struct .
   800 ;;		 -> led4(1), led3(1), led2(1), led1(1), 
   801 ;; Auto vars:     Size  Location     Type
   802 ;;  pin_obj         1   17[BANK0 ] struct .
   803 ;;  ret             1    0        unsigned char 
   804 ;; Return value:  Size  Location     Type
   805 ;;                  1    wreg      unsigned char 
   806 ;; Registers used:
   807 ;;		wreg, fsr2l, fsr2h, status,2, status,0, prodl, prodh, cstack
   808 ;; Tracked objects:
   809 ;;		On entry : 0/0
   810 ;;		On exit  : 0/0
   811 ;;		Unchanged: 0/0
   812 ;; Data sizes:     COMRAM   BANK0   BANK1   BANK2   BANK3   BANK4   BANK5   BANK6   BANK7   BANK8   BANK9  BANK10  BANK1
      +1  BANK12  BANK13  BANK14  BANK15
   813 ;;      Params:         0       2       0       0       0       0       0       0       0       0       0       0       
      +0       0       0       0       0
   814 ;;      Locals:         0       1       0       0       0       0       0       0       0       0       0       0       
      +0       0       0       0       0
   815 ;;      Temps:          0       1       0       0       0       0       0       0       0       0       0       0       
      +0       0       0       0       0
   816 ;;      Totals:         0       4       0       0       0       0       0       0       0       0       0       0       
      +0       0       0       0       0
   817 ;;Total ram usage:        4 bytes
   818 ;; Hardware stack levels used: 1
   819 ;; Hardware stack levels required when called: 12
   820 ;; This function calls:
   821 ;;		_gpio_pin_initialize
   822 ;; This function is called by:
   823 ;;		_ecu_layer_initialize
   824 ;; This function uses a non-reentrant model
   825 ;;
   826                           
   827                           	psect	text3
   828   00186A                     __ptext3:
   829                           	callstack 0
   830   00186A                     _led_initialize:
   831                           	callstack 16
   832   00186A                     
   833                           ;ECU_Layer/LED/ecu_led.c: 9:     pin_config_t pin_obj={.port = led->port_name,.pin = led
      +                          ->pin,.direction=OUTPUT,.logic=led->led_status };
   834   00186A  C068  F0B8         	movff	led_initialize@F3155,led_initialize@pin_obj
   835   00186E  C0B5  FFD9         	movff	led_initialize@led,fsr2l
   836   001872  C0B6  FFDA         	movff	led_initialize@led+1,fsr2h
   837   001876  50DF               	movf	223,w,c
   838   001878  0B0F               	andlw	15
   839   00187A  0100               	movlb	0	; () banked
   840   00187C  6FB7               	movwf	??_led_initialize& (0+255),b
   841   00187E  51B8               	movf	led_initialize@pin_obj& (0+255),w,b
   842   001880  19B7               	xorwf	??_led_initialize& (0+255),w,b
   843   001882  0BF8               	andlw	-8
   844   001884  19B7               	xorwf	??_led_initialize& (0+255),w,b
   845   001886  6FB8               	movwf	led_initialize@pin_obj& (0+255),b
   846   001888                     
   847                           ; BSR set to: 0
   848   001888  C0B5  FFD9         	movff	led_initialize@led,fsr2l
   849   00188C  C0B6  FFDA         	movff	led_initialize@led+1,fsr2h
   850   001890  38DF               	swapf	223,w,c
   851   001892  0B07               	andlw	7
   852   001894  6FB7               	movwf	??_led_initialize& (0+255),b
   853   001896  47B7               	rlncf	??_led_initialize& (0+255),f,b
   854   001898  47B7               	rlncf	??_led_initialize& (0+255),f,b
   855   00189A  47B7               	rlncf	??_led_initialize& (0+255),f,b
   856   00189C  51B8               	movf	led_initialize@pin_obj& (0+255),w,b
   857   00189E  19B7               	xorwf	??_led_initialize& (0+255),w,b
   858   0018A0  0BC7               	andlw	-57
   859   0018A2  19B7               	xorwf	??_led_initialize& (0+255),w,b
   860   0018A4  6FB8               	movwf	led_initialize@pin_obj& (0+255),b
   861   0018A6                     
   862                           ; BSR set to: 0
   863   0018A6  9DB8               	bcf	led_initialize@pin_obj& (0+255),6,b
   864   0018A8                     
   865                           ; BSR set to: 0
   866   0018A8  C0B5  FFD9         	movff	led_initialize@led,fsr2l
   867   0018AC  C0B6  FFDA         	movff	led_initialize@led+1,fsr2h
   868   0018B0  AEDF               	btfss	indf2,7,c
   869   0018B2  D002               	bra	u3895
   870   0018B4  8FB8               	bsf	led_initialize@pin_obj& (0+255),7,b
   871   0018B6  D002               	bra	u3897
   872   0018B8                     u3895:
   873   0018B8  0100               	movlb	0	; () banked
   874   0018BA  9FB8               	bcf	led_initialize@pin_obj& (0+255),7,b
   875   0018BC                     u3897:
   876   0018BC                     
   877                           ; BSR set to: 0
   878                           ;ECU_Layer/LED/ecu_led.c: 10:     if(led==((void*)0)){
   879   0018BC  51B5               	movf	led_initialize@led& (0+255),w,b
   880   0018BE  11B6               	iorwf	(led_initialize@led+1)& (0+255),w,b
   881   0018C0  A4D8               	btfss	status,2,c
   882   0018C2  EF65  F00C         	goto	u3901
   883   0018C6  EF67  F00C         	goto	u3900
   884   0018CA                     u3901:
   885   0018CA  EF69  F00C         	goto	l4431
   886   0018CE                     u3900:
   887   0018CE                     
   888                           ; BSR set to: 0
   889                           ;ECU_Layer/LED/ecu_led.c: 12:     }
   890   0018CE  EF6F  F00C         	goto	l284
   891   0018D2                     l4431:
   892                           
   893                           ; BSR set to: 0
   894   0018D2  0EB8               	movlw	low led_initialize@pin_obj
   895   0018D4  6FB1               	movwf	gpio_pin_initialize@pin_config& (0+255),b
   896   0018D6  0E00               	movlw	high led_initialize@pin_obj
   897   0018D8  6FB2               	movwf	(gpio_pin_initialize@pin_config+1)& (0+255),b
   898   0018DA  ECAF  F00B         	call	_gpio_pin_initialize	;wreg free
   899   0018DE                     l284:
   900   0018DE  0012               	return		;funcret
   901   0018E0                     __end_of_led_initialize:
   902                           	callstack 0
   903                           
   904 ;; *************** function _gpio_pin_initialize *****************
   905 ;; Defined at:
   906 ;;		line 24 in file "MCAL_Layer/GPIO/hal_gpio.c"
   907 ;; Parameters:    Size  Location     Type
   908 ;;  pin_config      2   10[BANK0 ] PTR const struct .
   909 ;;		 -> relay_initialize@pin_obj(1), led_initialize@pin_obj(1), 
   910 ;; Auto vars:     Size  Location     Type
   911 ;;  ret             1   13[BANK0 ] unsigned char 
   912 ;; Return value:  Size  Location     Type
   913 ;;                  1    wreg      unsigned char 
   914 ;; Registers used:
   915 ;;		wreg, fsr2l, fsr2h, status,2, status,0, prodl, prodh, cstack
   916 ;; Tracked objects:
   917 ;;		On entry : 0/0
   918 ;;		On exit  : 0/0
   919 ;;		Unchanged: 0/0
   920 ;; Data sizes:     COMRAM   BANK0   BANK1   BANK2   BANK3   BANK4   BANK5   BANK6   BANK7   BANK8   BANK9  BANK10  BANK1
      +1  BANK12  BANK13  BANK14  BANK15
   921 ;;      Params:         0       2       0       0       0       0       0       0       0       0       0       0       
      +0       0       0       0       0
   922 ;;      Locals:         0       1       0       0       0       0       0       0       0       0       0       0       
      +0       0       0       0       0
   923 ;;      Temps:          0       1       0       0       0       0       0       0       0       0       0       0       
      +0       0       0       0       0
   924 ;;      Totals:         0       4       0       0       0       0       0       0       0       0       0       0       
      +0       0       0       0       0
   925 ;;Total ram usage:        4 bytes
   926 ;; Hardware stack levels used: 1
   927 ;; Hardware stack levels required when called: 11
   928 ;; This function calls:
   929 ;;		_gpio_pin_direction_initialize
   930 ;;		_gpio_pin_write_logic
   931 ;; This function is called by:
   932 ;;		_led_initialize
   933 ;;		_seven_segment_initialize
   934 ;;		_lcd_4bit_initialize
   935 ;;		_lcd_8bit_initialize
   936 ;;		_dc_motor_initialize
   937 ;;		_keypad_initialize
   938 ;;		_relay_initialize
   939 ;; This function uses a non-reentrant model
   940 ;;
   941                           
   942                           	psect	text4
   943   00175E                     __ptext4:
   944                           	callstack 0
   945   00175E                     _gpio_pin_initialize:
   946                           	callstack 16
   947   00175E                     
   948                           ;MCAL_Layer/GPIO/hal_gpio.c: 26:     if((pin_config==((void*)0))||(pin_config->pin>8 -1)
      +                          ||(pin_config->port>5 -1)){
   949   00175E  0100               	movlb	0	; () banked
   950   001760  51B1               	movf	gpio_pin_initialize@pin_config& (0+255),w,b
   951   001762  11B2               	iorwf	(gpio_pin_initialize@pin_config+1)& (0+255),w,b
   952   001764  B4D8               	btfsc	status,2,c
   953   001766  EFB7  F00B         	goto	u3861
   954   00176A  EFB9  F00B         	goto	u3860
   955   00176E                     u3861:
   956   00176E  EFD9  F00B         	goto	l4407
   957   001772                     u3860:
   958   001772                     
   959                           ; BSR set to: 0
   960   001772  C0B1  FFD9         	movff	gpio_pin_initialize@pin_config,fsr2l
   961   001776  C0B2  FFDA         	movff	gpio_pin_initialize@pin_config+1,fsr2h
   962   00177A  30DF               	rrcf	223,w,c
   963   00177C  32E8               	rrcf	wreg,f,c
   964   00177E  32E8               	rrcf	wreg,f,c
   965   001780  0B07               	andlw	7
   966   001782  6FB3               	movwf	??_gpio_pin_initialize& (0+255),b
   967   001784  0E08               	movlw	8
   968   001786  61B3               	cpfslt	??_gpio_pin_initialize& (0+255),b
   969   001788  EFC8  F00B         	goto	u3871
   970   00178C  EFCA  F00B         	goto	u3870
   971   001790                     u3871:
   972   001790  EFD9  F00B         	goto	l4407
   973   001794                     u3870:
   974   001794                     
   975                           ; BSR set to: 0
   976   001794  C0B1  FFD9         	movff	gpio_pin_initialize@pin_config,fsr2l
   977   001798  C0B2  FFDA         	movff	gpio_pin_initialize@pin_config+1,fsr2h
   978   00179C  50DF               	movf	223,w,c
   979   00179E  0B07               	andlw	7
   980   0017A0  6FB3               	movwf	??_gpio_pin_initialize& (0+255),b
   981   0017A2  0E04               	movlw	4
   982   0017A4  65B3               	cpfsgt	??_gpio_pin_initialize& (0+255),b
   983   0017A6  EFD7  F00B         	goto	u3881
   984   0017AA  EFD9  F00B         	goto	u3880
   985   0017AE                     u3881:
   986   0017AE  EFDD  F00B         	goto	l4409
   987   0017B2                     u3880:
   988   0017B2                     l4407:
   989                           
   990                           ; BSR set to: 0
   991                           ;MCAL_Layer/GPIO/hal_gpio.c: 27:         ret=(Std_ReturnType)0x00;
   992   0017B2  0E00               	movlw	0
   993   0017B4  6FB4               	movwf	gpio_pin_initialize@ret& (0+255),b
   994                           
   995                           ;MCAL_Layer/GPIO/hal_gpio.c: 28:     }
   996   0017B6  EFF5  F00B         	goto	l4411
   997   0017BA                     l4409:
   998                           
   999                           ; BSR set to: 0
  1000                           ;MCAL_Layer/GPIO/hal_gpio.c: 30:         ret=gpio_pin_direction_initialize(pin_config);
  1001   0017BA  C0B1  F0A7         	movff	gpio_pin_initialize@pin_config,gpio_pin_direction_initialize@pin_config
  1002   0017BE  C0B2  F0A8         	movff	gpio_pin_initialize@pin_config+1,gpio_pin_direction_initialize@pin_config+1
  1003   0017C2  ECCB  F008         	call	_gpio_pin_direction_initialize	;wreg free
  1004   0017C6  0100               	movlb	0	; () banked
  1005   0017C8  6FB4               	movwf	gpio_pin_initialize@ret& (0+255),b
  1006                           
  1007                           ;MCAL_Layer/GPIO/hal_gpio.c: 31:         ret=gpio_pin_write_logic(pin_config,pin_config-
      +                          >logic);
  1008   0017CA  C0B1  F0A7         	movff	gpio_pin_initialize@pin_config,gpio_pin_write_logic@pin_config
  1009   0017CE  C0B2  F0A8         	movff	gpio_pin_initialize@pin_config+1,gpio_pin_write_logic@pin_config+1
  1010   0017D2  C0B1  FFD9         	movff	gpio_pin_initialize@pin_config,fsr2l
  1011   0017D6  C0B2  FFDA         	movff	gpio_pin_initialize@pin_config+1,fsr2h
  1012   0017DA  0E00               	movlw	0
  1013   0017DC  BEDF               	btfsc	indf2,7,c
  1014   0017DE  0E01               	movlw	1
  1015   0017E0  6FA9               	movwf	gpio_pin_write_logic@logic& (0+255),b
  1016   0017E2  EC7F  F009         	call	_gpio_pin_write_logic	;wreg free
  1017   0017E6  0100               	movlb	0	; () banked
  1018   0017E8  6FB4               	movwf	gpio_pin_initialize@ret& (0+255),b
  1019   0017EA                     l4411:
  1020                           
  1021                           ; BSR set to: 0
  1022                           ;MCAL_Layer/GPIO/hal_gpio.c: 33:     return ret;
  1023   0017EA  51B4               	movf	gpio_pin_initialize@ret& (0+255),w,b
  1024   0017EC                     
  1025                           ; BSR set to: 0
  1026   0017EC  0012               	return		;funcret
  1027   0017EE                     __end_of_gpio_pin_initialize:
  1028                           	callstack 0
  1029                           
  1030 ;; *************** function _gpio_pin_write_logic *****************
  1031 ;; Defined at:
  1032 ;;		line 94 in file "MCAL_Layer/GPIO/hal_gpio.c"
  1033 ;; Parameters:    Size  Location     Type
  1034 ;;  pin_config      2    0[BANK0 ] PTR const struct .
  1035 ;;		 -> relay_turn_off@pin_obj(1), relay_turn_on@pin_obj(1), relay_initialize@pin_obj(1), led_turn_off@pin_obj(1), 
  1036 ;;		 -> led_turn_on@pin_obj(1), led_initialize@pin_obj(1), 
  1037 ;;  logic           1    2[BANK0 ] enum E3075
  1038 ;; Auto vars:     Size  Location     Type
  1039 ;;  ret             1    9[BANK0 ] unsigned char 
  1040 ;; Return value:  Size  Location     Type
  1041 ;;                  1    wreg      unsigned char 
  1042 ;; Registers used:
  1043 ;;		wreg, fsr2l, fsr2h, status,2, status,0, prodl, prodh
  1044 ;; Tracked objects:
  1045 ;;		On entry : 0/0
  1046 ;;		On exit  : 0/0
  1047 ;;		Unchanged: 0/0
  1048 ;; Data sizes:     COMRAM   BANK0   BANK1   BANK2   BANK3   BANK4   BANK5   BANK6   BANK7   BANK8   BANK9  BANK10  BANK1
      +1  BANK12  BANK13  BANK14  BANK15
  1049 ;;      Params:         0       3       0       0       0       0       0       0       0       0       0       0       
      +0       0       0       0       0
  1050 ;;      Locals:         0       1       0       0       0       0       0       0       0       0       0       0       
      +0       0       0       0       0
  1051 ;;      Temps:          0       6       0       0       0       0       0       0       0       0       0       0       
      +0       0       0       0       0
  1052 ;;      Totals:         0      10       0       0       0       0       0       0       0       0       0       0       
      +0       0       0       0       0
  1053 ;;Total ram usage:       10 bytes
  1054 ;; Hardware stack levels used: 1
  1055 ;; Hardware stack levels required when called: 10
  1056 ;; This function calls:
  1057 ;;		Nothing
  1058 ;; This function is called by:
  1059 ;;		_gpio_pin_initialize
  1060 ;;		_seven_segment_write_number
  1061 ;;		_lcd_4bit_send_command
  1062 ;;		_lcd_4bit_send_char_data
  1063 ;;		_lcd_8bit_send_command
  1064 ;;		_lcd_8bit_send_char_data
  1065 ;;		_lcd_send_4bits
  1066 ;;		_lcd_4bit_send_enable_signal
  1067 ;;		_lcd_8bit_send_enable_signal
  1068 ;;		_dc_motor_move_right
  1069 ;;		_dc_motor_move_left
  1070 ;;		_dc_motor_stop
  1071 ;;		_keypad_get_value
  1072 ;;		_led_turn_on
  1073 ;;		_led_turn_off
  1074 ;;		_relay_turn_on
  1075 ;;		_relay_turn_off
  1076 ;; This function uses a non-reentrant model
  1077 ;;
  1078                           
  1079                           	psect	text5
  1080   0012FE                     __ptext5:
  1081                           	callstack 0
  1082   0012FE                     _gpio_pin_write_logic:
  1083                           	callstack 16
  1084   0012FE                     
  1085                           ;MCAL_Layer/GPIO/hal_gpio.c: 95:       Std_ReturnType ret=(Std_ReturnType)0x01;
  1086   0012FE  0E01               	movlw	1
  1087   001300  0100               	movlb	0	; () banked
  1088   001302  6FB0               	movwf	gpio_pin_write_logic@ret& (0+255),b
  1089   001304                     
  1090                           ; BSR set to: 0
  1091                           ;MCAL_Layer/GPIO/hal_gpio.c: 96:     if((pin_config==((void*)0))||(pin_config->pin>8 -1)
      +                          ||(pin_config->port>5 -1)){
  1092   001304  51A7               	movf	gpio_pin_write_logic@pin_config& (0+255),w,b
  1093   001306  11A8               	iorwf	(gpio_pin_write_logic@pin_config+1)& (0+255),w,b
  1094   001308  B4D8               	btfsc	status,2,c
  1095   00130A  EF89  F009         	goto	u3741
  1096   00130E  EF8B  F009         	goto	u3740
  1097   001312                     u3741:
  1098   001312  EFAB  F009         	goto	l4355
  1099   001316                     u3740:
  1100   001316                     
  1101                           ; BSR set to: 0
  1102   001316  C0A7  FFD9         	movff	gpio_pin_write_logic@pin_config,fsr2l
  1103   00131A  C0A8  FFDA         	movff	gpio_pin_write_logic@pin_config+1,fsr2h
  1104   00131E  30DF               	rrcf	223,w,c
  1105   001320  32E8               	rrcf	wreg,f,c
  1106   001322  32E8               	rrcf	wreg,f,c
  1107   001324  0B07               	andlw	7
  1108   001326  6FAA               	movwf	??_gpio_pin_write_logic& (0+255),b
  1109   001328  0E08               	movlw	8
  1110   00132A  61AA               	cpfslt	??_gpio_pin_write_logic& (0+255),b
  1111   00132C  EF9A  F009         	goto	u3751
  1112   001330  EF9C  F009         	goto	u3750
  1113   001334                     u3751:
  1114   001334  EFAB  F009         	goto	l4355
  1115   001338                     u3750:
  1116   001338                     
  1117                           ; BSR set to: 0
  1118   001338  C0A7  FFD9         	movff	gpio_pin_write_logic@pin_config,fsr2l
  1119   00133C  C0A8  FFDA         	movff	gpio_pin_write_logic@pin_config+1,fsr2h
  1120   001340  50DF               	movf	223,w,c
  1121   001342  0B07               	andlw	7
  1122   001344  6FAA               	movwf	??_gpio_pin_write_logic& (0+255),b
  1123   001346  0E04               	movlw	4
  1124   001348  65AA               	cpfsgt	??_gpio_pin_write_logic& (0+255),b
  1125   00134A  EFA9  F009         	goto	u3761
  1126   00134E  EFAB  F009         	goto	u3760
  1127   001352                     u3761:
  1128   001352  EF10  F00A         	goto	l4363
  1129   001356                     u3760:
  1130   001356                     l4355:
  1131                           
  1132                           ; BSR set to: 0
  1133                           ;MCAL_Layer/GPIO/hal_gpio.c: 97:         ret=(Std_ReturnType)0x00;
  1134   001356  0E00               	movlw	0
  1135   001358  6FB0               	movwf	gpio_pin_write_logic@ret& (0+255),b
  1136                           
  1137                           ;MCAL_Layer/GPIO/hal_gpio.c: 98:     }
  1138   00135A  EF25  F00A         	goto	l4365
  1139   00135E                     l4357:
  1140                           
  1141                           ; BSR set to: 0
  1142                           ;MCAL_Layer/GPIO/hal_gpio.c: 102:                 (*lat_registers[pin_config->port]|=((u
      +                          int8)0x01<<pin_config->pin));
  1143   00135E  C0A7  FFD9         	movff	gpio_pin_write_logic@pin_config,fsr2l
  1144   001362  C0A8  FFDA         	movff	gpio_pin_write_logic@pin_config+1,fsr2h
  1145   001366  30DF               	rrcf	223,w,c
  1146   001368  32E8               	rrcf	wreg,f,c
  1147   00136A  32E8               	rrcf	wreg,f,c
  1148   00136C  0B07               	andlw	7
  1149   00136E  6FAA               	movwf	??_gpio_pin_write_logic& (0+255),b
  1150   001370  0E01               	movlw	1
  1151   001372  6FAB               	movwf	(??_gpio_pin_write_logic+1)& (0+255),b
  1152   001374  2BAA               	incf	??_gpio_pin_write_logic& (0+255),f,b
  1153   001376  EFBF  F009         	goto	u3774
  1154   00137A                     u3775:
  1155   00137A  90D8               	bcf	status,0,c
  1156   00137C  37AB               	rlcf	(??_gpio_pin_write_logic+1)& (0+255),f,b
  1157   00137E                     u3774:
  1158   00137E  2FAA               	decfsz	??_gpio_pin_write_logic& (0+255),f,b
  1159   001380  EFBD  F009         	goto	u3775
  1160   001384  C0A7  FFD9         	movff	gpio_pin_write_logic@pin_config,fsr2l
  1161   001388  C0A8  FFDA         	movff	gpio_pin_write_logic@pin_config+1,fsr2h
  1162   00138C  50DF               	movf	223,w,c
  1163   00138E  0B07               	andlw	7
  1164   001390  0100               	movlb	0	; () banked
  1165   001392  6FAC               	movwf	(??_gpio_pin_write_logic+2)& (0+255),b
  1166   001394  51AC               	movf	(??_gpio_pin_write_logic+2)& (0+255),w,b
  1167   001396  0D02               	mullw	2
  1168   001398  0E01               	movlw	low _lat_registers
  1169   00139A  24F3               	addwf	243,w,c
  1170   00139C  6ED9               	movwf	fsr2l,c
  1171   00139E  0E00               	movlw	high _lat_registers
  1172   0013A0  20F4               	addwfc	prodh,w,c
  1173   0013A2  6EDA               	movwf	fsr2h,c
  1174   0013A4  CFDE F0AD          	movff	postinc2,??_gpio_pin_write_logic+3
  1175   0013A8  CFDD F0AE          	movff	postdec2,??_gpio_pin_write_logic+4
  1176   0013AC  C0AD  FFD9         	movff	??_gpio_pin_write_logic+3,fsr2l
  1177   0013B0  C0AE  FFDA         	movff	??_gpio_pin_write_logic+4,fsr2h
  1178   0013B4  51AB               	movf	(??_gpio_pin_write_logic+1)& (0+255),w,b
  1179   0013B6  12DF               	iorwf	indf2,f,c
  1180                           
  1181                           ;MCAL_Layer/GPIO/hal_gpio.c: 103:                 break;
  1182   0013B8  EF25  F00A         	goto	l4365
  1183   0013BC                     l4359:
  1184                           
  1185                           ; BSR set to: 0
  1186                           ;MCAL_Layer/GPIO/hal_gpio.c: 105:                 (*lat_registers[pin_config->port]&=~((
      +                          uint8)0x01<<pin_config->pin));
  1187   0013BC  C0A7  FFD9         	movff	gpio_pin_write_logic@pin_config,fsr2l
  1188   0013C0  C0A8  FFDA         	movff	gpio_pin_write_logic@pin_config+1,fsr2h
  1189   0013C4  30DF               	rrcf	223,w,c
  1190   0013C6  32E8               	rrcf	wreg,f,c
  1191   0013C8  32E8               	rrcf	wreg,f,c
  1192   0013CA  0B07               	andlw	7
  1193   0013CC  6FAA               	movwf	??_gpio_pin_write_logic& (0+255),b
  1194   0013CE  0E01               	movlw	1
  1195   0013D0  6FAB               	movwf	(??_gpio_pin_write_logic+1)& (0+255),b
  1196   0013D2  2BAA               	incf	??_gpio_pin_write_logic& (0+255),f,b
  1197   0013D4  EFEE  F009         	goto	u3784
  1198   0013D8                     u3785:
  1199   0013D8  90D8               	bcf	status,0,c
  1200   0013DA  37AB               	rlcf	(??_gpio_pin_write_logic+1)& (0+255),f,b
  1201   0013DC                     u3784:
  1202   0013DC  2FAA               	decfsz	??_gpio_pin_write_logic& (0+255),f,b
  1203   0013DE  EFEC  F009         	goto	u3785
  1204   0013E2  0100               	movlb	0	; () banked
  1205   0013E4  51AB               	movf	(??_gpio_pin_write_logic+1)& (0+255),w,b
  1206   0013E6  0AFF               	xorlw	255
  1207   0013E8  6FAC               	movwf	(??_gpio_pin_write_logic+2)& (0+255),b
  1208   0013EA  C0A7  FFD9         	movff	gpio_pin_write_logic@pin_config,fsr2l
  1209   0013EE  C0A8  FFDA         	movff	gpio_pin_write_logic@pin_config+1,fsr2h
  1210   0013F2  50DF               	movf	223,w,c
  1211   0013F4  0B07               	andlw	7
  1212   0013F6  6FAD               	movwf	(??_gpio_pin_write_logic+3)& (0+255),b
  1213   0013F8  51AD               	movf	(??_gpio_pin_write_logic+3)& (0+255),w,b
  1214   0013FA  0D02               	mullw	2
  1215   0013FC  0E01               	movlw	low _lat_registers
  1216   0013FE  24F3               	addwf	243,w,c
  1217   001400  6ED9               	movwf	fsr2l,c
  1218   001402  0E00               	movlw	high _lat_registers
  1219   001404  20F4               	addwfc	prodh,w,c
  1220   001406  6EDA               	movwf	fsr2h,c
  1221   001408  CFDE F0AE          	movff	postinc2,??_gpio_pin_write_logic+4
  1222   00140C  CFDD F0AF          	movff	postdec2,??_gpio_pin_write_logic+5
  1223   001410  C0AE  FFD9         	movff	??_gpio_pin_write_logic+4,fsr2l
  1224   001414  C0AF  FFDA         	movff	??_gpio_pin_write_logic+5,fsr2h
  1225   001418  51AC               	movf	(??_gpio_pin_write_logic+2)& (0+255),w,b
  1226   00141A  16DF               	andwf	indf2,f,c
  1227                           
  1228                           ;MCAL_Layer/GPIO/hal_gpio.c: 106:                 break;
  1229   00141C  EF25  F00A         	goto	l4365
  1230   001420                     l4363:
  1231                           
  1232                           ; BSR set to: 0
  1233   001420  51A9               	movf	gpio_pin_write_logic@logic& (0+255),w,b
  1234   001422  6FAA               	movwf	??_gpio_pin_write_logic& (0+255),b
  1235   001424  6BAB               	clrf	(??_gpio_pin_write_logic+1)& (0+255),b
  1236                           
  1237                           ; Switch on 2 bytes has been partitioned into a top level switch of size 1, and 1 sub-sw
      +                          itches
  1238                           ; Switch size 1, requested type "simple"
  1239                           ; Number of cases is 1, Range of values is 0 to 0
  1240                           ; switch strategies available:
  1241                           ; Name         Instructions Cycles
  1242                           ; simple_byte            4     3 (average)
  1243                           ;	Chosen strategy is simple_byte
  1244   001426  51AB               	movf	(??_gpio_pin_write_logic+1)& (0+255),w,b
  1245   001428  0A00               	xorlw	0	; case 0
  1246   00142A  B4D8               	btfsc	status,2,c
  1247   00142C  EF1A  F00A         	goto	l5369
  1248   001430  EFAB  F009         	goto	l4355
  1249   001434                     l5369:
  1250                           
  1251                           ; BSR set to: 0
  1252                           ; Switch size 1, requested type "simple"
  1253                           ; Number of cases is 2, Range of values is 0 to 1
  1254                           ; switch strategies available:
  1255                           ; Name         Instructions Cycles
  1256                           ; simple_byte            7     4 (average)
  1257                           ;	Chosen strategy is simple_byte
  1258   001434  51AA               	movf	??_gpio_pin_write_logic& (0+255),w,b
  1259   001436  0A00               	xorlw	0	; case 0
  1260   001438  B4D8               	btfsc	status,2,c
  1261   00143A  EFDE  F009         	goto	l4359
  1262   00143E  0A01               	xorlw	1	; case 1
  1263   001440  B4D8               	btfsc	status,2,c
  1264   001442  EFAF  F009         	goto	l4357
  1265   001446  EFAB  F009         	goto	l4355
  1266   00144A                     l4365:
  1267                           
  1268                           ; BSR set to: 0
  1269                           ;MCAL_Layer/GPIO/hal_gpio.c: 110:     return ret;
  1270   00144A  51B0               	movf	gpio_pin_write_logic@ret& (0+255),w,b
  1271   00144C                     
  1272                           ; BSR set to: 0
  1273   00144C  0012               	return		;funcret
  1274   00144E                     __end_of_gpio_pin_write_logic:
  1275                           	callstack 0
  1276                           
  1277 ;; *************** function _Interrupt_RBx_Init *****************
  1278 ;; Defined at:
  1279 ;;		line 91 in file "MCAL_Layer/Interrupt/mcal_external_interrupt.c"
  1280 ;; Parameters:    Size  Location     Type
  1281 ;;  int_obj         2   12[BANK0 ] PTR const struct .
  1282 ;;		 -> RB7_INT(5), RB6_INT(5), RB5_INT(5), RB4_INT(5), 
  1283 ;; Auto vars:     Size  Location     Type
  1284 ;;  ret             1   14[BANK0 ] unsigned char 
  1285 ;; Return value:  Size  Location     Type
  1286 ;;                  1    wreg      unsigned char 
  1287 ;; Registers used:
  1288 ;;		wreg, fsr2l, fsr2h, status,2, status,0, prodl, prodh, cstack
  1289 ;; Tracked objects:
  1290 ;;		On entry : 0/0
  1291 ;;		On exit  : 0/0
  1292 ;;		Unchanged: 0/0
  1293 ;; Data sizes:     COMRAM   BANK0   BANK1   BANK2   BANK3   BANK4   BANK5   BANK6   BANK7   BANK8   BANK9  BANK10  BANK1
      +1  BANK12  BANK13  BANK14  BANK15
  1294 ;;      Params:         0       2       0       0       0       0       0       0       0       0       0       0       
      +0       0       0       0       0
  1295 ;;      Locals:         0       1       0       0       0       0       0       0       0       0       0       0       
      +0       0       0       0       0
  1296 ;;      Temps:          0       0       0       0       0       0       0       0       0       0       0       0       
      +0       0       0       0       0
  1297 ;;      Totals:         0       3       0       0       0       0       0       0       0       0       0       0       
      +0       0       0       0       0
  1298 ;;Total ram usage:        3 bytes
  1299 ;; Hardware stack levels used: 1
  1300 ;; Hardware stack levels required when called: 12
  1301 ;; This function calls:
  1302 ;;		_Interrupt_RBx_Disable
  1303 ;;		_Interrupt_RBx_Enable
  1304 ;;		_Interrupt_RBx_Pin_Init
  1305 ;;		_Interrupt_RBx_Priority_Init
  1306 ;;		_Interrupt_RBx_SetInterruptHandler
  1307 ;;		_Interrupt_RBx_set_pin_init_value
  1308 ;; This function is called by:
  1309 ;;		_main
  1310 ;; This function uses a non-reentrant model
  1311 ;;
  1312                           
  1313                           	psect	text6
  1314   0017EE                     __ptext6:
  1315                           	callstack 0
  1316   0017EE                     _Interrupt_RBx_Init:
  1317                           	callstack 18
  1318   0017EE                     
  1319                           ;MCAL_Layer/Interrupt/mcal_external_interrupt.c: 93:     if(int_obj==((void*)0)){
  1320   0017EE  0100               	movlb	0	; () banked
  1321   0017F0  51B3               	movf	Interrupt_RBx_Init@int_obj& (0+255),w,b
  1322   0017F2  11B4               	iorwf	(Interrupt_RBx_Init@int_obj+1)& (0+255),w,b
  1323   0017F4  A4D8               	btfss	status,2,c
  1324   0017F6  EFFF  F00B         	goto	u4181
  1325   0017FA  EF01  F00C         	goto	u4180
  1326   0017FE                     u4181:
  1327   0017FE  EF03  F00C         	goto	l4749
  1328   001802                     u4180:
  1329   001802                     
  1330                           ; BSR set to: 0
  1331                           ;MCAL_Layer/Interrupt/mcal_external_interrupt.c: 95:     }
  1332   001802  EF34  F00C         	goto	l513
  1333   001806                     l4749:
  1334                           
  1335                           ; BSR set to: 0
  1336                           ;MCAL_Layer/Interrupt/mcal_external_interrupt.c: 98:         ret=Interrupt_RBx_Disable(i
      +                          nt_obj);
  1337   001806  C0B3  F0A7         	movff	Interrupt_RBx_Init@int_obj,Interrupt_RBx_Disable@int_obj
  1338   00180A  C0B4  F0A8         	movff	Interrupt_RBx_Init@int_obj+1,Interrupt_RBx_Disable@int_obj+1
  1339   00180E  EC07  F00F         	call	_Interrupt_RBx_Disable	;wreg free
  1340   001812  0100               	movlb	0	; () banked
  1341   001814  6FB5               	movwf	Interrupt_RBx_Init@ret& (0+255),b
  1342   001816                     
  1343                           ; BSR set to: 0
  1344                           ;MCAL_Layer/Interrupt/mcal_external_interrupt.c: 100:          ((*((volatile INTCON_t *)
      +                          (0xFF2))).RBIF=0);
  1345   001816  90F2               	bcf	242,0,c	;volatile
  1346   001818                     
  1347                           ; BSR set to: 0
  1348                           ;MCAL_Layer/Interrupt/mcal_external_interrupt.c: 103:         ret &= Interrupt_RBx_Prior
      +                          ity_Init(int_obj);
  1349   001818  C0B3  F0A7         	movff	Interrupt_RBx_Init@int_obj,Interrupt_RBx_Priority_Init@int_obj
  1350   00181C  C0B4  F0A8         	movff	Interrupt_RBx_Init@int_obj+1,Interrupt_RBx_Priority_Init@int_obj+1
  1351   001820  EC1A  F00D         	call	_Interrupt_RBx_Priority_Init	;wreg free
  1352   001824  0100               	movlb	0	; () banked
  1353   001826  17B5               	andwf	Interrupt_RBx_Init@ret& (0+255),f,b
  1354   001828                     
  1355                           ; BSR set to: 0
  1356                           ;MCAL_Layer/Interrupt/mcal_external_interrupt.c: 106:         ret &= Interrupt_RBx_Pin_I
      +                          nit(int_obj);
  1357   001828  C0B3  F0B0         	movff	Interrupt_RBx_Init@int_obj,Interrupt_RBx_Pin_Init@int_obj
  1358   00182C  C0B4  F0B1         	movff	Interrupt_RBx_Init@int_obj+1,Interrupt_RBx_Pin_Init@int_obj+1
  1359   001830  ECB6  F00D         	call	_Interrupt_RBx_Pin_Init	;wreg free
  1360   001834  0100               	movlb	0	; () banked
  1361   001836  17B5               	andwf	Interrupt_RBx_Init@ret& (0+255),f,b
  1362   001838                     
  1363                           ; BSR set to: 0
  1364                           ;MCAL_Layer/Interrupt/mcal_external_interrupt.c: 108:         ret &= Interrupt_RBx_SetIn
      +                          terruptHandler(int_obj);
  1365   001838  C0B3  F0AA         	movff	Interrupt_RBx_Init@int_obj,Interrupt_RBx_SetInterruptHandler@int_obj
  1366   00183C  C0B4  F0AB         	movff	Interrupt_RBx_Init@int_obj+1,Interrupt_RBx_SetInterruptHandler@int_obj+1
  1367   001840  EC27  F00A         	call	_Interrupt_RBx_SetInterruptHandler	;wreg free
  1368   001844  0100               	movlb	0	; () banked
  1369   001846  17B5               	andwf	Interrupt_RBx_Init@ret& (0+255),f,b
  1370   001848                     
  1371                           ; BSR set to: 0
  1372                           ;MCAL_Layer/Interrupt/mcal_external_interrupt.c: 110:         ret &= Interrupt_RBx_set_p
      +                          in_init_value(int_obj);
  1373   001848  C0B3  F0A7         	movff	Interrupt_RBx_Init@int_obj,Interrupt_RBx_set_pin_init_value@int_obj
  1374   00184C  C0B4  F0A8         	movff	Interrupt_RBx_Init@int_obj+1,Interrupt_RBx_set_pin_init_value@int_obj+1
  1375   001850  EC95  F00A         	call	_Interrupt_RBx_set_pin_init_value	;wreg free
  1376   001854  0100               	movlb	0	; () banked
  1377   001856  17B5               	andwf	Interrupt_RBx_Init@ret& (0+255),f,b
  1378   001858                     
  1379                           ; BSR set to: 0
  1380                           ;MCAL_Layer/Interrupt/mcal_external_interrupt.c: 112:         ret &= Interrupt_RBx_Enabl
      +                          e(int_obj);
  1381   001858  C0B3  F0A7         	movff	Interrupt_RBx_Init@int_obj,Interrupt_RBx_Enable@int_obj
  1382   00185C  C0B4  F0A8         	movff	Interrupt_RBx_Init@int_obj+1,Interrupt_RBx_Enable@int_obj+1
  1383   001860  ECE2  F00C         	call	_Interrupt_RBx_Enable	;wreg free
  1384   001864  0100               	movlb	0	; () banked
  1385   001866  17B5               	andwf	Interrupt_RBx_Init@ret& (0+255),f,b
  1386   001868                     l513:
  1387                           
  1388                           ; BSR set to: 0
  1389   001868  0012               	return		;funcret
  1390   00186A                     __end_of_Interrupt_RBx_Init:
  1391                           	callstack 0
  1392                           
  1393 ;; *************** function _Interrupt_RBx_set_pin_init_value *****************
  1394 ;; Defined at:
  1395 ;;		line 559 in file "MCAL_Layer/Interrupt/mcal_external_interrupt.c"
  1396 ;; Parameters:    Size  Location     Type
  1397 ;;  int_obj         2    0[BANK0 ] PTR const struct .
  1398 ;;		 -> RB7_INT(5), RB6_INT(5), RB5_INT(5), RB4_INT(5), 
  1399 ;; Auto vars:     Size  Location     Type
  1400 ;;  ret             1    4[BANK0 ] unsigned char 
  1401 ;; Return value:  Size  Location     Type
  1402 ;;                  1    wreg      unsigned char 
  1403 ;; Registers used:
  1404 ;;		wreg, fsr2l, fsr2h, status,2, status,0
  1405 ;; Tracked objects:
  1406 ;;		On entry : 0/0
  1407 ;;		On exit  : 0/0
  1408 ;;		Unchanged: 0/0
  1409 ;; Data sizes:     COMRAM   BANK0   BANK1   BANK2   BANK3   BANK4   BANK5   BANK6   BANK7   BANK8   BANK9  BANK10  BANK1
      +1  BANK12  BANK13  BANK14  BANK15
  1410 ;;      Params:         0       2       0       0       0       0       0       0       0       0       0       0       
      +0       0       0       0       0
  1411 ;;      Locals:         0       1       0       0       0       0       0       0       0       0       0       0       
      +0       0       0       0       0
  1412 ;;      Temps:          0       2       0       0       0       0       0       0       0       0       0       0       
      +0       0       0       0       0
  1413 ;;      Totals:         0       5       0       0       0       0       0       0       0       0       0       0       
      +0       0       0       0       0
  1414 ;;Total ram usage:        5 bytes
  1415 ;; Hardware stack levels used: 1
  1416 ;; Hardware stack levels required when called: 10
  1417 ;; This function calls:
  1418 ;;		Nothing
  1419 ;; This function is called by:
  1420 ;;		_Interrupt_RBx_Init
  1421 ;; This function uses a non-reentrant model
  1422 ;;
  1423                           
  1424                           	psect	text7
  1425   00152A                     __ptext7:
  1426                           	callstack 0
  1427   00152A                     _Interrupt_RBx_set_pin_init_value:
  1428                           	callstack 19
  1429   00152A                     
  1430                           ;MCAL_Layer/Interrupt/mcal_external_interrupt.c: 560:     Std_ReturnType ret=(Std_Return
      +                          Type)0x01;
  1431   00152A  0E01               	movlw	1
  1432   00152C  0100               	movlb	0	; () banked
  1433   00152E  6FAB               	movwf	Interrupt_RBx_set_pin_init_value@ret& (0+255),b
  1434   001530                     
  1435                           ; BSR set to: 0
  1436                           ;MCAL_Layer/Interrupt/mcal_external_interrupt.c: 561:     if(int_obj==((void*)0)){
  1437   001530  51A7               	movf	Interrupt_RBx_set_pin_init_value@int_obj& (0+255),w,b
  1438   001532  11A8               	iorwf	(Interrupt_RBx_set_pin_init_value@int_obj+1)& (0+255),w,b
  1439   001534  A4D8               	btfss	status,2,c
  1440   001536  EF9F  F00A         	goto	u4081
  1441   00153A  EFA1  F00A         	goto	u4080
  1442   00153E                     u4081:
  1443   00153E  EFCD  F00A         	goto	l4651
  1444   001542                     u4080:
  1445   001542                     l4639:
  1446                           
  1447                           ; BSR set to: 0
  1448                           ;MCAL_Layer/Interrupt/mcal_external_interrupt.c: 562:         ret=(Std_ReturnType)0x00;
  1449   001542  0E00               	movlw	0
  1450   001544  6FAB               	movwf	Interrupt_RBx_set_pin_init_value@ret& (0+255),b
  1451                           
  1452                           ;MCAL_Layer/Interrupt/mcal_external_interrupt.c: 563:     }
  1453   001546  EFF3  F00A         	goto	l4653
  1454   00154A                     l4641:
  1455                           
  1456                           ; BSR set to: 0
  1457   00154A  EE20 F004          	lfsr	2,4
  1458   00154E  51A7               	movf	Interrupt_RBx_set_pin_init_value@int_obj& (0+255),w,b
  1459   001550  26D9               	addwf	fsr2l,f,c
  1460   001552  51A8               	movf	(Interrupt_RBx_set_pin_init_value@int_obj+1)& (0+255),w,b
  1461   001554  22DA               	addwfc	fsr2h,f,c
  1462   001556  50DF               	movf	indf2,w,c
  1463   001558  6E61               	movwf	_RB4_pin_init_value^0,c	;volatile
  1464   00155A  EFF3  F00A         	goto	l4653
  1465   00155E                     l4643:
  1466                           
  1467                           ; BSR set to: 0
  1468   00155E  EE20 F004          	lfsr	2,4
  1469   001562  51A7               	movf	Interrupt_RBx_set_pin_init_value@int_obj& (0+255),w,b
  1470   001564  26D9               	addwf	fsr2l,f,c
  1471   001566  51A8               	movf	(Interrupt_RBx_set_pin_init_value@int_obj+1)& (0+255),w,b
  1472   001568  22DA               	addwfc	fsr2h,f,c
  1473   00156A  50DF               	movf	indf2,w,c
  1474   00156C  6E60               	movwf	_RB5_pin_init_value^0,c	;volatile
  1475   00156E  EFF3  F00A         	goto	l4653
  1476   001572                     l4645:
  1477                           
  1478                           ; BSR set to: 0
  1479   001572  EE20 F004          	lfsr	2,4
  1480   001576  51A7               	movf	Interrupt_RBx_set_pin_init_value@int_obj& (0+255),w,b
  1481   001578  26D9               	addwf	fsr2l,f,c
  1482   00157A  51A8               	movf	(Interrupt_RBx_set_pin_init_value@int_obj+1)& (0+255),w,b
  1483   00157C  22DA               	addwfc	fsr2h,f,c
  1484   00157E  50DF               	movf	indf2,w,c
  1485   001580  6E5F               	movwf	_RB6_pin_init_value^0,c	;volatile
  1486   001582  EFF3  F00A         	goto	l4653
  1487   001586                     l4647:
  1488                           
  1489                           ; BSR set to: 0
  1490   001586  EE20 F004          	lfsr	2,4
  1491   00158A  51A7               	movf	Interrupt_RBx_set_pin_init_value@int_obj& (0+255),w,b
  1492   00158C  26D9               	addwf	fsr2l,f,c
  1493   00158E  51A8               	movf	(Interrupt_RBx_set_pin_init_value@int_obj+1)& (0+255),w,b
  1494   001590  22DA               	addwfc	fsr2h,f,c
  1495   001592  50DF               	movf	indf2,w,c
  1496   001594  6E5E               	movwf	_RB7_pin_init_value^0,c	;volatile
  1497   001596  EFF3  F00A         	goto	l4653
  1498   00159A                     l4651:
  1499                           
  1500                           ; BSR set to: 0
  1501   00159A  EE20 F002          	lfsr	2,2
  1502   00159E  51A7               	movf	Interrupt_RBx_set_pin_init_value@int_obj& (0+255),w,b
  1503   0015A0  26D9               	addwf	fsr2l,f,c
  1504   0015A2  51A8               	movf	(Interrupt_RBx_set_pin_init_value@int_obj+1)& (0+255),w,b
  1505   0015A4  22DA               	addwfc	fsr2h,f,c
  1506   0015A6  30DF               	rrcf	223,w,c
  1507   0015A8  32E8               	rrcf	wreg,f,c
  1508   0015AA  32E8               	rrcf	wreg,f,c
  1509   0015AC  0B07               	andlw	7
  1510   0015AE  6FA9               	movwf	??_Interrupt_RBx_set_pin_init_value& (0+255),b
  1511   0015B0  6BAA               	clrf	(??_Interrupt_RBx_set_pin_init_value+1)& (0+255),b
  1512                           
  1513                           ; Switch on 2 bytes has been partitioned into a top level switch of size 1, and 1 sub-sw
      +                          itches
  1514                           ; Switch size 1, requested type "simple"
  1515                           ; Number of cases is 1, Range of values is 0 to 0
  1516                           ; switch strategies available:
  1517                           ; Name         Instructions Cycles
  1518                           ; simple_byte            4     3 (average)
  1519                           ;	Chosen strategy is simple_byte
  1520   0015B2  51AA               	movf	(??_Interrupt_RBx_set_pin_init_value+1)& (0+255),w,b
  1521   0015B4  0A00               	xorlw	0	; case 0
  1522   0015B6  B4D8               	btfsc	status,2,c
  1523   0015B8  EFE0  F00A         	goto	l5371
  1524   0015BC  EFA1  F00A         	goto	l4639
  1525   0015C0                     l5371:
  1526                           
  1527                           ; BSR set to: 0
  1528                           ; Switch size 1, requested type "simple"
  1529                           ; Number of cases is 4, Range of values is 4 to 7
  1530                           ; switch strategies available:
  1531                           ; Name         Instructions Cycles
  1532                           ; simple_byte           13     7 (average)
  1533                           ;	Chosen strategy is simple_byte
  1534   0015C0  51A9               	movf	??_Interrupt_RBx_set_pin_init_value& (0+255),w,b
  1535   0015C2  0A04               	xorlw	4	; case 4
  1536   0015C4  B4D8               	btfsc	status,2,c
  1537   0015C6  EFA5  F00A         	goto	l4641
  1538   0015CA  0A01               	xorlw	1	; case 5
  1539   0015CC  B4D8               	btfsc	status,2,c
  1540   0015CE  EFAF  F00A         	goto	l4643
  1541   0015D2  0A03               	xorlw	3	; case 6
  1542   0015D4  B4D8               	btfsc	status,2,c
  1543   0015D6  EFB9  F00A         	goto	l4645
  1544   0015DA  0A01               	xorlw	1	; case 7
  1545   0015DC  B4D8               	btfsc	status,2,c
  1546   0015DE  EFC3  F00A         	goto	l4647
  1547   0015E2  EFA1  F00A         	goto	l4639
  1548   0015E6                     l4653:
  1549                           
  1550                           ; BSR set to: 0
  1551                           ;MCAL_Layer/Interrupt/mcal_external_interrupt.c: 573:     return ret;
  1552   0015E6  51AB               	movf	Interrupt_RBx_set_pin_init_value@ret& (0+255),w,b
  1553   0015E8                     
  1554                           ; BSR set to: 0
  1555   0015E8  0012               	return		;funcret
  1556   0015EA                     __end_of_Interrupt_RBx_set_pin_init_value:
  1557                           	callstack 0
  1558                           
  1559 ;; *************** function _Interrupt_RBx_SetInterruptHandler *****************
  1560 ;; Defined at:
  1561 ;;		line 488 in file "MCAL_Layer/Interrupt/mcal_external_interrupt.c"
  1562 ;; Parameters:    Size  Location     Type
  1563 ;;  int_obj         2    3[BANK0 ] PTR const struct .
  1564 ;;		 -> RB7_INT(5), RB6_INT(5), RB5_INT(5), RB4_INT(5), 
  1565 ;; Auto vars:     Size  Location     Type
  1566 ;;  ret             1    7[BANK0 ] unsigned char 
  1567 ;; Return value:  Size  Location     Type
  1568 ;;                  1    wreg      unsigned char 
  1569 ;; Registers used:
  1570 ;;		wreg, fsr2l, fsr2h, status,2, status,0, cstack
  1571 ;; Tracked objects:
  1572 ;;		On entry : 0/0
  1573 ;;		On exit  : 0/0
  1574 ;;		Unchanged: 0/0
  1575 ;; Data sizes:     COMRAM   BANK0   BANK1   BANK2   BANK3   BANK4   BANK5   BANK6   BANK7   BANK8   BANK9  BANK10  BANK1
      +1  BANK12  BANK13  BANK14  BANK15
  1576 ;;      Params:         0       2       0       0       0       0       0       0       0       0       0       0       
      +0       0       0       0       0
  1577 ;;      Locals:         0       1       0       0       0       0       0       0       0       0       0       0       
      +0       0       0       0       0
  1578 ;;      Temps:          0       2       0       0       0       0       0       0       0       0       0       0       
      +0       0       0       0       0
  1579 ;;      Totals:         0       5       0       0       0       0       0       0       0       0       0       0       
      +0       0       0       0       0
  1580 ;;Total ram usage:        5 bytes
  1581 ;; Hardware stack levels used: 1
  1582 ;; Hardware stack levels required when called: 11
  1583 ;; This function calls:
  1584 ;;		_RB4_SetInterruptHandler
  1585 ;;		_RB5_SetInterruptHandler
  1586 ;;		_RB6_SetInterruptHandler
  1587 ;;		_RB7_SetInterruptHandler
  1588 ;; This function is called by:
  1589 ;;		_Interrupt_RBx_Init
  1590 ;; This function uses a non-reentrant model
  1591 ;;
  1592                           
  1593                           	psect	text8
  1594   00144E                     __ptext8:
  1595                           	callstack 0
  1596   00144E                     _Interrupt_RBx_SetInterruptHandler:
  1597                           	callstack 18
  1598   00144E                     
  1599                           ;MCAL_Layer/Interrupt/mcal_external_interrupt.c: 490:     if(int_obj==((void*)0)){
  1600   00144E  0100               	movlb	0	; () banked
  1601   001450  51AA               	movf	Interrupt_RBx_SetInterruptHandler@int_obj& (0+255),w,b
  1602   001452  11AB               	iorwf	(Interrupt_RBx_SetInterruptHandler@int_obj+1)& (0+255),w,b
  1603   001454  A4D8               	btfss	status,2,c
  1604   001456  EF2F  F00A         	goto	u4071
  1605   00145A  EF31  F00A         	goto	u4070
  1606   00145E                     u4071:
  1607   00145E  EF6D  F00A         	goto	l4625
  1608   001462                     u4070:
  1609   001462                     l4613:
  1610                           
  1611                           ; BSR set to: 0
  1612                           ;MCAL_Layer/Interrupt/mcal_external_interrupt.c: 491:         ret=(Std_ReturnType)0x00;
  1613   001462  0E00               	movlw	0
  1614   001464  6FAE               	movwf	Interrupt_RBx_SetInterruptHandler@ret& (0+255),b
  1615                           
  1616                           ;MCAL_Layer/Interrupt/mcal_external_interrupt.c: 492:     }
  1617   001466  EF93  F00A         	goto	l4627
  1618   00146A                     l4615:
  1619                           
  1620                           ; BSR set to: 0
  1621   00146A  C0AA  FFD9         	movff	Interrupt_RBx_SetInterruptHandler@int_obj,fsr2l
  1622   00146E  C0AB  FFDA         	movff	Interrupt_RBx_SetInterruptHandler@int_obj+1,fsr2h
  1623   001472  CFDE F0A7          	movff	postinc2,RB4_SetInterruptHandler@InterruptHandler
  1624   001476  CFDD F0A8          	movff	postdec2,RB4_SetInterruptHandler@InterruptHandler+1
  1625   00147A  ECCA  F00E         	call	_RB4_SetInterruptHandler	;wreg free
  1626   00147E  0100               	movlb	0	; () banked
  1627   001480  6FAE               	movwf	Interrupt_RBx_SetInterruptHandler@ret& (0+255),b
  1628   001482  EF93  F00A         	goto	l4627
  1629   001486                     l4617:
  1630                           
  1631                           ; BSR set to: 0
  1632   001486  C0AA  FFD9         	movff	Interrupt_RBx_SetInterruptHandler@int_obj,fsr2l
  1633   00148A  C0AB  FFDA         	movff	Interrupt_RBx_SetInterruptHandler@int_obj+1,fsr2h
  1634   00148E  CFDE F0A7          	movff	postinc2,RB5_SetInterruptHandler@InterruptHandler
  1635   001492  CFDD F0A8          	movff	postdec2,RB5_SetInterruptHandler@InterruptHandler+1
  1636   001496  ECB4  F00E         	call	_RB5_SetInterruptHandler	;wreg free
  1637   00149A  0100               	movlb	0	; () banked
  1638   00149C  6FAE               	movwf	Interrupt_RBx_SetInterruptHandler@ret& (0+255),b
  1639   00149E  EF93  F00A         	goto	l4627
  1640   0014A2                     l4619:
  1641                           
  1642                           ; BSR set to: 0
  1643   0014A2  C0AA  FFD9         	movff	Interrupt_RBx_SetInterruptHandler@int_obj,fsr2l
  1644   0014A6  C0AB  FFDA         	movff	Interrupt_RBx_SetInterruptHandler@int_obj+1,fsr2h
  1645   0014AA  CFDE F0A7          	movff	postinc2,RB6_SetInterruptHandler@InterruptHandler
  1646   0014AE  CFDD F0A8          	movff	postdec2,RB6_SetInterruptHandler@InterruptHandler+1
  1647   0014B2  EC9E  F00E         	call	_RB6_SetInterruptHandler	;wreg free
  1648   0014B6  0100               	movlb	0	; () banked
  1649   0014B8  6FAE               	movwf	Interrupt_RBx_SetInterruptHandler@ret& (0+255),b
  1650   0014BA  EF93  F00A         	goto	l4627
  1651   0014BE                     l4621:
  1652                           
  1653                           ; BSR set to: 0
  1654   0014BE  C0AA  FFD9         	movff	Interrupt_RBx_SetInterruptHandler@int_obj,fsr2l
  1655   0014C2  C0AB  FFDA         	movff	Interrupt_RBx_SetInterruptHandler@int_obj+1,fsr2h
  1656   0014C6  CFDE F0A7          	movff	postinc2,RB7_SetInterruptHandler@InterruptHandler
  1657   0014CA  CFDD F0A8          	movff	postdec2,RB7_SetInterruptHandler@InterruptHandler+1
  1658   0014CE  EC88  F00E         	call	_RB7_SetInterruptHandler	;wreg free
  1659   0014D2  0100               	movlb	0	; () banked
  1660   0014D4  6FAE               	movwf	Interrupt_RBx_SetInterruptHandler@ret& (0+255),b
  1661   0014D6  EF93  F00A         	goto	l4627
  1662   0014DA                     l4625:
  1663                           
  1664                           ; BSR set to: 0
  1665   0014DA  EE20 F002          	lfsr	2,2
  1666   0014DE  51AA               	movf	Interrupt_RBx_SetInterruptHandler@int_obj& (0+255),w,b
  1667   0014E0  26D9               	addwf	fsr2l,f,c
  1668   0014E2  51AB               	movf	(Interrupt_RBx_SetInterruptHandler@int_obj+1)& (0+255),w,b
  1669   0014E4  22DA               	addwfc	fsr2h,f,c
  1670   0014E6  30DF               	rrcf	223,w,c
  1671   0014E8  32E8               	rrcf	wreg,f,c
  1672   0014EA  32E8               	rrcf	wreg,f,c
  1673   0014EC  0B07               	andlw	7
  1674   0014EE  6FAC               	movwf	??_Interrupt_RBx_SetInterruptHandler& (0+255),b
  1675   0014F0  6BAD               	clrf	(??_Interrupt_RBx_SetInterruptHandler+1)& (0+255),b
  1676                           
  1677                           ; Switch on 2 bytes has been partitioned into a top level switch of size 1, and 1 sub-sw
      +                          itches
  1678                           ; Switch size 1, requested type "simple"
  1679                           ; Number of cases is 1, Range of values is 0 to 0
  1680                           ; switch strategies available:
  1681                           ; Name         Instructions Cycles
  1682                           ; simple_byte            4     3 (average)
  1683                           ;	Chosen strategy is simple_byte
  1684   0014F2  51AD               	movf	(??_Interrupt_RBx_SetInterruptHandler+1)& (0+255),w,b
  1685   0014F4  0A00               	xorlw	0	; case 0
  1686   0014F6  B4D8               	btfsc	status,2,c
  1687   0014F8  EF80  F00A         	goto	l5373
  1688   0014FC  EF31  F00A         	goto	l4613
  1689   001500                     l5373:
  1690                           
  1691                           ; BSR set to: 0
  1692                           ; Switch size 1, requested type "simple"
  1693                           ; Number of cases is 4, Range of values is 4 to 7
  1694                           ; switch strategies available:
  1695                           ; Name         Instructions Cycles
  1696                           ; simple_byte           13     7 (average)
  1697                           ;	Chosen strategy is simple_byte
  1698   001500  51AC               	movf	??_Interrupt_RBx_SetInterruptHandler& (0+255),w,b
  1699   001502  0A04               	xorlw	4	; case 4
  1700   001504  B4D8               	btfsc	status,2,c
  1701   001506  EF35  F00A         	goto	l4615
  1702   00150A  0A01               	xorlw	1	; case 5
  1703   00150C  B4D8               	btfsc	status,2,c
  1704   00150E  EF43  F00A         	goto	l4617
  1705   001512  0A03               	xorlw	3	; case 6
  1706   001514  B4D8               	btfsc	status,2,c
  1707   001516  EF51  F00A         	goto	l4619
  1708   00151A  0A01               	xorlw	1	; case 7
  1709   00151C  B4D8               	btfsc	status,2,c
  1710   00151E  EF5F  F00A         	goto	l4621
  1711   001522  EF31  F00A         	goto	l4613
  1712   001526                     l4627:
  1713                           
  1714                           ; BSR set to: 0
  1715                           ;MCAL_Layer/Interrupt/mcal_external_interrupt.c: 502:     return ret;
  1716   001526  51AE               	movf	Interrupt_RBx_SetInterruptHandler@ret& (0+255),w,b
  1717   001528                     
  1718                           ; BSR set to: 0
  1719   001528  0012               	return		;funcret
  1720   00152A                     __end_of_Interrupt_RBx_SetInterruptHandler:
  1721                           	callstack 0
  1722                           
  1723 ;; *************** function _RB7_SetInterruptHandler *****************
  1724 ;; Defined at:
  1725 ;;		line 549 in file "MCAL_Layer/Interrupt/mcal_external_interrupt.c"
  1726 ;; Parameters:    Size  Location     Type
  1727 ;;  InterruptHan    2    0[BANK0 ] PTR FTN()void 
  1728 ;;		 -> i2_RB7_INT_HANDLER(1), i2_RB6_INT_HANDLER(1), i2_RB5_INT_HANDLER(1), i2_RB4_INT_HANDLER(1), 
  1729 ;;		 -> RB7_INT_HANDLER(1), RB6_INT_HANDLER(1), RB5_INT_HANDLER(1), RB4_INT_HANDLER(1), 
  1730 ;; Auto vars:     Size  Location     Type
  1731 ;;  ret             1    2[BANK0 ] unsigned char 
  1732 ;; Return value:  Size  Location     Type
  1733 ;;                  1    wreg      unsigned char 
  1734 ;; Registers used:
  1735 ;;		wreg, status,2, status,0
  1736 ;; Tracked objects:
  1737 ;;		On entry : 0/0
  1738 ;;		On exit  : 0/0
  1739 ;;		Unchanged: 0/0
  1740 ;; Data sizes:     COMRAM   BANK0   BANK1   BANK2   BANK3   BANK4   BANK5   BANK6   BANK7   BANK8   BANK9  BANK10  BANK1
      +1  BANK12  BANK13  BANK14  BANK15
  1741 ;;      Params:         0       2       0       0       0       0       0       0       0       0       0       0       
      +0       0       0       0       0
  1742 ;;      Locals:         0       1       0       0       0       0       0       0       0       0       0       0       
      +0       0       0       0       0
  1743 ;;      Temps:          0       0       0       0       0       0       0       0       0       0       0       0       
      +0       0       0       0       0
  1744 ;;      Totals:         0       3       0       0       0       0       0       0       0       0       0       0       
      +0       0       0       0       0
  1745 ;;Total ram usage:        3 bytes
  1746 ;; Hardware stack levels used: 1
  1747 ;; Hardware stack levels required when called: 10
  1748 ;; This function calls:
  1749 ;;		Nothing
  1750 ;; This function is called by:
  1751 ;;		_Interrupt_RBx_SetInterruptHandler
  1752 ;; This function uses a non-reentrant model
  1753 ;;
  1754                           
  1755                           	psect	text9
  1756   001D10                     __ptext9:
  1757                           	callstack 0
  1758   001D10                     _RB7_SetInterruptHandler:
  1759                           	callstack 18
  1760   001D10                     
  1761                           ;MCAL_Layer/Interrupt/mcal_external_interrupt.c: 550:     Std_ReturnType ret=(Std_Return
      +                          Type)0x01;
  1762   001D10  0E01               	movlw	1
  1763   001D12  0100               	movlb	0	; () banked
  1764   001D14  6FA9               	movwf	RB7_SetInterruptHandler@ret& (0+255),b
  1765   001D16                     
  1766                           ; BSR set to: 0
  1767                           ;MCAL_Layer/Interrupt/mcal_external_interrupt.c: 551:     if(InterruptHandler==((void*)0
      +                          )){
  1768   001D16  51A7               	movf	RB7_SetInterruptHandler@InterruptHandler& (0+255),w,b
  1769   001D18  11A8               	iorwf	(RB7_SetInterruptHandler@InterruptHandler+1)& (0+255),w,b
  1770   001D1A  A4D8               	btfss	status,2,c
  1771   001D1C  EF92  F00E         	goto	u3941
  1772   001D20  EF94  F00E         	goto	u3940
  1773   001D24                     u3941:
  1774   001D24  EF98  F00E         	goto	l4477
  1775   001D28                     u3940:
  1776   001D28                     
  1777                           ; BSR set to: 0
  1778                           ;MCAL_Layer/Interrupt/mcal_external_interrupt.c: 552:         ret=(Std_ReturnType)0x00;
  1779   001D28  0E00               	movlw	0
  1780   001D2A  6FA9               	movwf	RB7_SetInterruptHandler@ret& (0+255),b
  1781                           
  1782                           ;MCAL_Layer/Interrupt/mcal_external_interrupt.c: 553:     }
  1783   001D2C  EF9C  F00E         	goto	l4479
  1784   001D30                     l4477:
  1785                           
  1786                           ; BSR set to: 0
  1787                           ;MCAL_Layer/Interrupt/mcal_external_interrupt.c: 555:           RB7_InterruptHandler = I
      +                          nterruptHandler;
  1788   001D30  C0A7  F04F         	movff	RB7_SetInterruptHandler@InterruptHandler,_RB7_InterruptHandler
  1789   001D34  C0A8  F050         	movff	RB7_SetInterruptHandler@InterruptHandler+1,_RB7_InterruptHandler+1
  1790   001D38                     l4479:
  1791                           
  1792                           ; BSR set to: 0
  1793                           ;MCAL_Layer/Interrupt/mcal_external_interrupt.c: 557:     return ret;
  1794   001D38  51A9               	movf	RB7_SetInterruptHandler@ret& (0+255),w,b
  1795   001D3A                     
  1796                           ; BSR set to: 0
  1797   001D3A  0012               	return		;funcret
  1798   001D3C                     __end_of_RB7_SetInterruptHandler:
  1799                           	callstack 0
  1800                           
  1801 ;; *************** function _RB6_SetInterruptHandler *****************
  1802 ;; Defined at:
  1803 ;;		line 539 in file "MCAL_Layer/Interrupt/mcal_external_interrupt.c"
  1804 ;; Parameters:    Size  Location     Type
  1805 ;;  InterruptHan    2    0[BANK0 ] PTR FTN()void 
  1806 ;;		 -> i2_RB7_INT_HANDLER(1), i2_RB6_INT_HANDLER(1), i2_RB5_INT_HANDLER(1), i2_RB4_INT_HANDLER(1), 
  1807 ;;		 -> RB7_INT_HANDLER(1), RB6_INT_HANDLER(1), RB5_INT_HANDLER(1), RB4_INT_HANDLER(1), 
  1808 ;; Auto vars:     Size  Location     Type
  1809 ;;  ret             1    2[BANK0 ] unsigned char 
  1810 ;; Return value:  Size  Location     Type
  1811 ;;                  1    wreg      unsigned char 
  1812 ;; Registers used:
  1813 ;;		wreg, status,2, status,0
  1814 ;; Tracked objects:
  1815 ;;		On entry : 0/0
  1816 ;;		On exit  : 0/0
  1817 ;;		Unchanged: 0/0
  1818 ;; Data sizes:     COMRAM   BANK0   BANK1   BANK2   BANK3   BANK4   BANK5   BANK6   BANK7   BANK8   BANK9  BANK10  BANK1
      +1  BANK12  BANK13  BANK14  BANK15
  1819 ;;      Params:         0       2       0       0       0       0       0       0       0       0       0       0       
      +0       0       0       0       0
  1820 ;;      Locals:         0       1       0       0       0       0       0       0       0       0       0       0       
      +0       0       0       0       0
  1821 ;;      Temps:          0       0       0       0       0       0       0       0       0       0       0       0       
      +0       0       0       0       0
  1822 ;;      Totals:         0       3       0       0       0       0       0       0       0       0       0       0       
      +0       0       0       0       0
  1823 ;;Total ram usage:        3 bytes
  1824 ;; Hardware stack levels used: 1
  1825 ;; Hardware stack levels required when called: 10
  1826 ;; This function calls:
  1827 ;;		Nothing
  1828 ;; This function is called by:
  1829 ;;		_Interrupt_RBx_SetInterruptHandler
  1830 ;; This function uses a non-reentrant model
  1831 ;;
  1832                           
  1833                           	psect	text10
  1834   001D3C                     __ptext10:
  1835                           	callstack 0
  1836   001D3C                     _RB6_SetInterruptHandler:
  1837                           	callstack 18
  1838   001D3C                     
  1839                           ;MCAL_Layer/Interrupt/mcal_external_interrupt.c: 540:     Std_ReturnType ret=(Std_Return
      +                          Type)0x01;
  1840   001D3C  0E01               	movlw	1
  1841   001D3E  0100               	movlb	0	; () banked
  1842   001D40  6FA9               	movwf	RB6_SetInterruptHandler@ret& (0+255),b
  1843   001D42                     
  1844                           ; BSR set to: 0
  1845                           ;MCAL_Layer/Interrupt/mcal_external_interrupt.c: 541:     if(InterruptHandler==((void*)0
      +                          )){
  1846   001D42  51A7               	movf	RB6_SetInterruptHandler@InterruptHandler& (0+255),w,b
  1847   001D44  11A8               	iorwf	(RB6_SetInterruptHandler@InterruptHandler+1)& (0+255),w,b
  1848   001D46  A4D8               	btfss	status,2,c
  1849   001D48  EFA8  F00E         	goto	u3931
  1850   001D4C  EFAA  F00E         	goto	u3930
  1851   001D50                     u3931:
  1852   001D50  EFAE  F00E         	goto	l4465
  1853   001D54                     u3930:
  1854   001D54                     
  1855                           ; BSR set to: 0
  1856                           ;MCAL_Layer/Interrupt/mcal_external_interrupt.c: 542:         ret=(Std_ReturnType)0x00;
  1857   001D54  0E00               	movlw	0
  1858   001D56  6FA9               	movwf	RB6_SetInterruptHandler@ret& (0+255),b
  1859                           
  1860                           ;MCAL_Layer/Interrupt/mcal_external_interrupt.c: 543:     }
  1861   001D58  EFB2  F00E         	goto	l4467
  1862   001D5C                     l4465:
  1863                           
  1864                           ; BSR set to: 0
  1865                           ;MCAL_Layer/Interrupt/mcal_external_interrupt.c: 545:           RB6_InterruptHandler = I
      +                          nterruptHandler;
  1866   001D5C  C0A7  F051         	movff	RB6_SetInterruptHandler@InterruptHandler,_RB6_InterruptHandler
  1867   001D60  C0A8  F052         	movff	RB6_SetInterruptHandler@InterruptHandler+1,_RB6_InterruptHandler+1
  1868   001D64                     l4467:
  1869                           
  1870                           ; BSR set to: 0
  1871                           ;MCAL_Layer/Interrupt/mcal_external_interrupt.c: 547:     return ret;
  1872   001D64  51A9               	movf	RB6_SetInterruptHandler@ret& (0+255),w,b
  1873   001D66                     
  1874                           ; BSR set to: 0
  1875   001D66  0012               	return		;funcret
  1876   001D68                     __end_of_RB6_SetInterruptHandler:
  1877                           	callstack 0
  1878                           
  1879 ;; *************** function _RB5_SetInterruptHandler *****************
  1880 ;; Defined at:
  1881 ;;		line 524 in file "MCAL_Layer/Interrupt/mcal_external_interrupt.c"
  1882 ;; Parameters:    Size  Location     Type
  1883 ;;  InterruptHan    2    0[BANK0 ] PTR FTN()void 
  1884 ;;		 -> i2_RB7_INT_HANDLER(1), i2_RB6_INT_HANDLER(1), i2_RB5_INT_HANDLER(1), i2_RB4_INT_HANDLER(1), 
  1885 ;;		 -> RB7_INT_HANDLER(1), RB6_INT_HANDLER(1), RB5_INT_HANDLER(1), RB4_INT_HANDLER(1), 
  1886 ;; Auto vars:     Size  Location     Type
  1887 ;;  ret             1    2[BANK0 ] unsigned char 
  1888 ;; Return value:  Size  Location     Type
  1889 ;;                  1    wreg      unsigned char 
  1890 ;; Registers used:
  1891 ;;		wreg, status,2, status,0
  1892 ;; Tracked objects:
  1893 ;;		On entry : 0/0
  1894 ;;		On exit  : 0/0
  1895 ;;		Unchanged: 0/0
  1896 ;; Data sizes:     COMRAM   BANK0   BANK1   BANK2   BANK3   BANK4   BANK5   BANK6   BANK7   BANK8   BANK9  BANK10  BANK1
      +1  BANK12  BANK13  BANK14  BANK15
  1897 ;;      Params:         0       2       0       0       0       0       0       0       0       0       0       0       
      +0       0       0       0       0
  1898 ;;      Locals:         0       1       0       0       0       0       0       0       0       0       0       0       
      +0       0       0       0       0
  1899 ;;      Temps:          0       0       0       0       0       0       0       0       0       0       0       0       
      +0       0       0       0       0
  1900 ;;      Totals:         0       3       0       0       0       0       0       0       0       0       0       0       
      +0       0       0       0       0
  1901 ;;Total ram usage:        3 bytes
  1902 ;; Hardware stack levels used: 1
  1903 ;; Hardware stack levels required when called: 10
  1904 ;; This function calls:
  1905 ;;		Nothing
  1906 ;; This function is called by:
  1907 ;;		_Interrupt_RBx_SetInterruptHandler
  1908 ;; This function uses a non-reentrant model
  1909 ;;
  1910                           
  1911                           	psect	text11
  1912   001D68                     __ptext11:
  1913                           	callstack 0
  1914   001D68                     _RB5_SetInterruptHandler:
  1915                           	callstack 18
  1916   001D68                     
  1917                           ;MCAL_Layer/Interrupt/mcal_external_interrupt.c: 525:     Std_ReturnType ret=(Std_Return
      +                          Type)0x01;
  1918   001D68  0E01               	movlw	1
  1919   001D6A  0100               	movlb	0	; () banked
  1920   001D6C  6FA9               	movwf	RB5_SetInterruptHandler@ret& (0+255),b
  1921   001D6E                     
  1922                           ; BSR set to: 0
  1923                           ;MCAL_Layer/Interrupt/mcal_external_interrupt.c: 526:     if(InterruptHandler==((void*)0
      +                          )){
  1924   001D6E  51A7               	movf	RB5_SetInterruptHandler@InterruptHandler& (0+255),w,b
  1925   001D70  11A8               	iorwf	(RB5_SetInterruptHandler@InterruptHandler+1)& (0+255),w,b
  1926   001D72  A4D8               	btfss	status,2,c
  1927   001D74  EFBE  F00E         	goto	u3921
  1928   001D78  EFC0  F00E         	goto	u3920
  1929   001D7C                     u3921:
  1930   001D7C  EFC4  F00E         	goto	l4453
  1931   001D80                     u3920:
  1932   001D80                     
  1933                           ; BSR set to: 0
  1934                           ;MCAL_Layer/Interrupt/mcal_external_interrupt.c: 527:         ret=(Std_ReturnType)0x00;
  1935   001D80  0E00               	movlw	0
  1936   001D82  6FA9               	movwf	RB5_SetInterruptHandler@ret& (0+255),b
  1937                           
  1938                           ;MCAL_Layer/Interrupt/mcal_external_interrupt.c: 528:     }
  1939   001D84  EFC8  F00E         	goto	l4455
  1940   001D88                     l4453:
  1941                           
  1942                           ; BSR set to: 0
  1943                           ;MCAL_Layer/Interrupt/mcal_external_interrupt.c: 530:           RB5_InterruptHandler = I
      +                          nterruptHandler;
  1944   001D88  C0A7  F053         	movff	RB5_SetInterruptHandler@InterruptHandler,_RB5_InterruptHandler
  1945   001D8C  C0A8  F054         	movff	RB5_SetInterruptHandler@InterruptHandler+1,_RB5_InterruptHandler+1
  1946   001D90                     l4455:
  1947                           
  1948                           ; BSR set to: 0
  1949                           ;MCAL_Layer/Interrupt/mcal_external_interrupt.c: 532:     return ret;
  1950   001D90  51A9               	movf	RB5_SetInterruptHandler@ret& (0+255),w,b
  1951   001D92                     
  1952                           ; BSR set to: 0
  1953   001D92  0012               	return		;funcret
  1954   001D94                     __end_of_RB5_SetInterruptHandler:
  1955                           	callstack 0
  1956                           
  1957 ;; *************** function _RB4_SetInterruptHandler *****************
  1958 ;; Defined at:
  1959 ;;		line 509 in file "MCAL_Layer/Interrupt/mcal_external_interrupt.c"
  1960 ;; Parameters:    Size  Location     Type
  1961 ;;  InterruptHan    2    0[BANK0 ] PTR FTN()void 
  1962 ;;		 -> i2_RB7_INT_HANDLER(1), i2_RB6_INT_HANDLER(1), i2_RB5_INT_HANDLER(1), i2_RB4_INT_HANDLER(1), 
  1963 ;;		 -> RB7_INT_HANDLER(1), RB6_INT_HANDLER(1), RB5_INT_HANDLER(1), RB4_INT_HANDLER(1), 
  1964 ;; Auto vars:     Size  Location     Type
  1965 ;;  ret             1    2[BANK0 ] unsigned char 
  1966 ;; Return value:  Size  Location     Type
  1967 ;;                  1    wreg      unsigned char 
  1968 ;; Registers used:
  1969 ;;		wreg, status,2, status,0
  1970 ;; Tracked objects:
  1971 ;;		On entry : 0/0
  1972 ;;		On exit  : 0/0
  1973 ;;		Unchanged: 0/0
  1974 ;; Data sizes:     COMRAM   BANK0   BANK1   BANK2   BANK3   BANK4   BANK5   BANK6   BANK7   BANK8   BANK9  BANK10  BANK1
      +1  BANK12  BANK13  BANK14  BANK15
  1975 ;;      Params:         0       2       0       0       0       0       0       0       0       0       0       0       
      +0       0       0       0       0
  1976 ;;      Locals:         0       1       0       0       0       0       0       0       0       0       0       0       
      +0       0       0       0       0
  1977 ;;      Temps:          0       0       0       0       0       0       0       0       0       0       0       0       
      +0       0       0       0       0
  1978 ;;      Totals:         0       3       0       0       0       0       0       0       0       0       0       0       
      +0       0       0       0       0
  1979 ;;Total ram usage:        3 bytes
  1980 ;; Hardware stack levels used: 1
  1981 ;; Hardware stack levels required when called: 10
  1982 ;; This function calls:
  1983 ;;		Nothing
  1984 ;; This function is called by:
  1985 ;;		_Interrupt_RBx_SetInterruptHandler
  1986 ;; This function uses a non-reentrant model
  1987 ;;
  1988                           
  1989                           	psect	text12
  1990   001D94                     __ptext12:
  1991                           	callstack 0
  1992   001D94                     _RB4_SetInterruptHandler:
  1993                           	callstack 18
  1994   001D94                     
  1995                           ;MCAL_Layer/Interrupt/mcal_external_interrupt.c: 510:     Std_ReturnType ret=(Std_Return
      +                          Type)0x01;
  1996   001D94  0E01               	movlw	1
  1997   001D96  0100               	movlb	0	; () banked
  1998   001D98  6FA9               	movwf	RB4_SetInterruptHandler@ret& (0+255),b
  1999   001D9A                     
  2000                           ; BSR set to: 0
  2001                           ;MCAL_Layer/Interrupt/mcal_external_interrupt.c: 511:     if(InterruptHandler==((void*)0
      +                          )){
  2002   001D9A  51A7               	movf	RB4_SetInterruptHandler@InterruptHandler& (0+255),w,b
  2003   001D9C  11A8               	iorwf	(RB4_SetInterruptHandler@InterruptHandler+1)& (0+255),w,b
  2004   001D9E  A4D8               	btfss	status,2,c
  2005   001DA0  EFD4  F00E         	goto	u3911
  2006   001DA4  EFD6  F00E         	goto	u3910
  2007   001DA8                     u3911:
  2008   001DA8  EFDA  F00E         	goto	l4441
  2009   001DAC                     u3910:
  2010   001DAC                     
  2011                           ; BSR set to: 0
  2012                           ;MCAL_Layer/Interrupt/mcal_external_interrupt.c: 512:         ret=(Std_ReturnType)0x00;
  2013   001DAC  0E00               	movlw	0
  2014   001DAE  6FA9               	movwf	RB4_SetInterruptHandler@ret& (0+255),b
  2015                           
  2016                           ;MCAL_Layer/Interrupt/mcal_external_interrupt.c: 513:     }
  2017   001DB0  EFDE  F00E         	goto	l4443
  2018   001DB4                     l4441:
  2019                           
  2020                           ; BSR set to: 0
  2021                           ;MCAL_Layer/Interrupt/mcal_external_interrupt.c: 515:         RB4_InterruptHandler = Int
      +                          erruptHandler;
  2022   001DB4  C0A7  F055         	movff	RB4_SetInterruptHandler@InterruptHandler,_RB4_InterruptHandler
  2023   001DB8  C0A8  F056         	movff	RB4_SetInterruptHandler@InterruptHandler+1,_RB4_InterruptHandler+1
  2024   001DBC                     l4443:
  2025                           
  2026                           ; BSR set to: 0
  2027                           ;MCAL_Layer/Interrupt/mcal_external_interrupt.c: 517:     return ret;
  2028   001DBC  51A9               	movf	RB4_SetInterruptHandler@ret& (0+255),w,b
  2029   001DBE                     
  2030                           ; BSR set to: 0
  2031   001DBE  0012               	return		;funcret
  2032   001DC0                     __end_of_RB4_SetInterruptHandler:
  2033                           	callstack 0
  2034                           
  2035 ;; *************** function _Interrupt_RBx_Priority_Init *****************
  2036 ;; Defined at:
  2037 ;;		line 465 in file "MCAL_Layer/Interrupt/mcal_external_interrupt.c"
  2038 ;; Parameters:    Size  Location     Type
  2039 ;;  int_obj         2    0[BANK0 ] PTR const struct .
  2040 ;;		 -> RB7_INT(5), RB6_INT(5), RB5_INT(5), RB4_INT(5), 
  2041 ;; Auto vars:     Size  Location     Type
  2042 ;;  ret             1    3[BANK0 ] unsigned char 
  2043 ;; Return value:  Size  Location     Type
  2044 ;;                  1    wreg      unsigned char 
  2045 ;; Registers used:
  2046 ;;		wreg, fsr2l, fsr2h, status,2, status,0
  2047 ;; Tracked objects:
  2048 ;;		On entry : 0/0
  2049 ;;		On exit  : 0/0
  2050 ;;		Unchanged: 0/0
  2051 ;; Data sizes:     COMRAM   BANK0   BANK1   BANK2   BANK3   BANK4   BANK5   BANK6   BANK7   BANK8   BANK9  BANK10  BANK1
      +1  BANK12  BANK13  BANK14  BANK15
  2052 ;;      Params:         0       2       0       0       0       0       0       0       0       0       0       0       
      +0       0       0       0       0
  2053 ;;      Locals:         0       1       0       0       0       0       0       0       0       0       0       0       
      +0       0       0       0       0
  2054 ;;      Temps:          0       1       0       0       0       0       0       0       0       0       0       0       
      +0       0       0       0       0
  2055 ;;      Totals:         0       4       0       0       0       0       0       0       0       0       0       0       
      +0       0       0       0       0
  2056 ;;Total ram usage:        4 bytes
  2057 ;; Hardware stack levels used: 1
  2058 ;; Hardware stack levels required when called: 10
  2059 ;; This function calls:
  2060 ;;		Nothing
  2061 ;; This function is called by:
  2062 ;;		_Interrupt_RBx_Init
  2063 ;; This function uses a non-reentrant model
  2064 ;;
  2065                           
  2066                           	psect	text13
  2067   001A34                     __ptext13:
  2068                           	callstack 0
  2069   001A34                     _Interrupt_RBx_Priority_Init:
  2070                           	callstack 19
  2071   001A34                     
  2072                           ;MCAL_Layer/Interrupt/mcal_external_interrupt.c: 466:  Std_ReturnType ret=(Std_ReturnTyp
      +                          e)0x01;
  2073   001A34  0E01               	movlw	1
  2074   001A36  0100               	movlb	0	; () banked
  2075   001A38  6FAA               	movwf	Interrupt_RBx_Priority_Init@ret& (0+255),b
  2076   001A3A                     
  2077                           ; BSR set to: 0
  2078                           ;MCAL_Layer/Interrupt/mcal_external_interrupt.c: 467:     if(int_obj==((void*)0)){
  2079   001A3A  51A7               	movf	Interrupt_RBx_Priority_Init@int_obj& (0+255),w,b
  2080   001A3C  11A8               	iorwf	(Interrupt_RBx_Priority_Init@int_obj+1)& (0+255),w,b
  2081   001A3E  A4D8               	btfss	status,2,c
  2082   001A40  EF24  F00D         	goto	u4031
  2083   001A44  EF26  F00D         	goto	u4030
  2084   001A48                     u4031:
  2085   001A48  EF2A  F00D         	goto	l4585
  2086   001A4C                     u4030:
  2087   001A4C                     l4583:
  2088                           
  2089                           ; BSR set to: 0
  2090                           ;MCAL_Layer/Interrupt/mcal_external_interrupt.c: 468:         ret=(Std_ReturnType)0x00;
  2091   001A4C  0E00               	movlw	0
  2092   001A4E  6FAA               	movwf	Interrupt_RBx_Priority_Init@ret& (0+255),b
  2093                           
  2094                           ;MCAL_Layer/Interrupt/mcal_external_interrupt.c: 469:     }
  2095   001A50  EF4A  F00D         	goto	l677
  2096   001A54                     l4585:
  2097                           
  2098                           ; BSR set to: 0
  2099                           ;MCAL_Layer/Interrupt/mcal_external_interrupt.c: 471:        if (INTERRUPT_LOW_PRIORITY 
      +                          == int_obj->priority){ ((*((volatile INTCON2_t *)(0xFF1))).RBIP=0); }
  2100   001A54  EE20 F003          	lfsr	2,3
  2101   001A58  51A7               	movf	Interrupt_RBx_Priority_Init@int_obj& (0+255),w,b
  2102   001A5A  26D9               	addwf	fsr2l,f,c
  2103   001A5C  51A8               	movf	(Interrupt_RBx_Priority_Init@int_obj+1)& (0+255),w,b
  2104   001A5E  22DA               	addwfc	fsr2h,f,c
  2105   001A60  50DF               	movf	indf2,w,c
  2106   001A62  A4D8               	btfss	status,2,c
  2107   001A64  EF36  F00D         	goto	u4041
  2108   001A68  EF38  F00D         	goto	u4040
  2109   001A6C                     u4041:
  2110   001A6C  EF3B  F00D         	goto	l4589
  2111   001A70                     u4040:
  2112   001A70                     
  2113                           ; BSR set to: 0
  2114   001A70  90F1               	bcf	241,0,c	;volatile
  2115   001A72  EF4A  F00D         	goto	l677
  2116   001A76                     l4589:
  2117                           
  2118                           ; BSR set to: 0
  2119   001A76  EE20 F003          	lfsr	2,3
  2120   001A7A  51A7               	movf	Interrupt_RBx_Priority_Init@int_obj& (0+255),w,b
  2121   001A7C  26D9               	addwf	fsr2l,f,c
  2122   001A7E  51A8               	movf	(Interrupt_RBx_Priority_Init@int_obj+1)& (0+255),w,b
  2123   001A80  22DA               	addwfc	fsr2h,f,c
  2124   001A82  04DE               	decf	postinc2,w,c
  2125   001A84  A4D8               	btfss	status,2,c
  2126   001A86  EF47  F00D         	goto	u4051
  2127   001A8A  EF49  F00D         	goto	u4050
  2128   001A8E                     u4051:
  2129   001A8E  EF26  F00D         	goto	l4583
  2130   001A92                     u4050:
  2131   001A92                     
  2132                           ; BSR set to: 0
  2133   001A92  80F1               	bsf	241,0,c	;volatile
  2134   001A94                     l677:
  2135                           
  2136                           ; BSR set to: 0
  2137                           ;MCAL_Layer/Interrupt/mcal_external_interrupt.c: 475:     return ret;
  2138   001A94  51AA               	movf	Interrupt_RBx_Priority_Init@ret& (0+255),w,b
  2139   001A96                     
  2140                           ; BSR set to: 0
  2141   001A96  0012               	return		;funcret
  2142   001A98                     __end_of_Interrupt_RBx_Priority_Init:
  2143                           	callstack 0
  2144                           
  2145 ;; *************** function _Interrupt_RBx_Pin_Init *****************
  2146 ;; Defined at:
  2147 ;;		line 478 in file "MCAL_Layer/Interrupt/mcal_external_interrupt.c"
  2148 ;; Parameters:    Size  Location     Type
  2149 ;;  int_obj         2    9[BANK0 ] PTR const struct .
  2150 ;;		 -> RB7_INT(5), RB6_INT(5), RB5_INT(5), RB4_INT(5), 
  2151 ;; Auto vars:     Size  Location     Type
  2152 ;;  ret             1   11[BANK0 ] unsigned char 
  2153 ;; Return value:  Size  Location     Type
  2154 ;;                  1    wreg      unsigned char 
  2155 ;; Registers used:
  2156 ;;		wreg, fsr2l, fsr2h, status,2, status,0, prodl, prodh, cstack
  2157 ;; Tracked objects:
  2158 ;;		On entry : 0/0
  2159 ;;		On exit  : 0/0
  2160 ;;		Unchanged: 0/0
  2161 ;; Data sizes:     COMRAM   BANK0   BANK1   BANK2   BANK3   BANK4   BANK5   BANK6   BANK7   BANK8   BANK9  BANK10  BANK1
      +1  BANK12  BANK13  BANK14  BANK15
  2162 ;;      Params:         0       2       0       0       0       0       0       0       0       0       0       0       
      +0       0       0       0       0
  2163 ;;      Locals:         0       1       0       0       0       0       0       0       0       0       0       0       
      +0       0       0       0       0
  2164 ;;      Temps:          0       0       0       0       0       0       0       0       0       0       0       0       
      +0       0       0       0       0
  2165 ;;      Totals:         0       3       0       0       0       0       0       0       0       0       0       0       
      +0       0       0       0       0
  2166 ;;Total ram usage:        3 bytes
  2167 ;; Hardware stack levels used: 1
  2168 ;; Hardware stack levels required when called: 11
  2169 ;; This function calls:
  2170 ;;		_gpio_pin_direction_initialize
  2171 ;; This function is called by:
  2172 ;;		_Interrupt_RBx_Init
  2173 ;; This function uses a non-reentrant model
  2174 ;;
  2175                           
  2176                           	psect	text14
  2177   001B6C                     __ptext14:
  2178                           	callstack 0
  2179   001B6C                     _Interrupt_RBx_Pin_Init:
  2180                           	callstack 18
  2181   001B6C                     
  2182                           ;MCAL_Layer/Interrupt/mcal_external_interrupt.c: 480:     if(int_obj==((void*)0)){
  2183   001B6C  0100               	movlb	0	; () banked
  2184   001B6E  51B0               	movf	Interrupt_RBx_Pin_Init@int_obj& (0+255),w,b
  2185   001B70  11B1               	iorwf	(Interrupt_RBx_Pin_Init@int_obj+1)& (0+255),w,b
  2186   001B72  A4D8               	btfss	status,2,c
  2187   001B74  EFBE  F00D         	goto	u4061
  2188   001B78  EFC0  F00D         	goto	u4060
  2189   001B7C                     u4061:
  2190   001B7C  EFC4  F00D         	goto	l4603
  2191   001B80                     u4060:
  2192   001B80                     
  2193                           ; BSR set to: 0
  2194                           ;MCAL_Layer/Interrupt/mcal_external_interrupt.c: 481:         ret=(Std_ReturnType)0x00;
  2195   001B80  0E00               	movlw	0
  2196   001B82  6FB2               	movwf	Interrupt_RBx_Pin_Init@ret& (0+255),b
  2197                           
  2198                           ;MCAL_Layer/Interrupt/mcal_external_interrupt.c: 482:     }
  2199   001B84  EFCE  F00D         	goto	l4605
  2200   001B88                     l4603:
  2201                           
  2202                           ; BSR set to: 0
  2203                           ;MCAL_Layer/Interrupt/mcal_external_interrupt.c: 484:         ret=gpio_pin_direction_ini
      +                          tialize(&(int_obj->mcu_pin));
  2204   001B88  0E02               	movlw	2
  2205   001B8A  25B0               	addwf	Interrupt_RBx_Pin_Init@int_obj& (0+255),w,b
  2206   001B8C  6FA7               	movwf	gpio_pin_direction_initialize@pin_config& (0+255),b
  2207   001B8E  0E00               	movlw	0
  2208   001B90  21B1               	addwfc	(Interrupt_RBx_Pin_Init@int_obj+1)& (0+255),w,b
  2209   001B92  6FA8               	movwf	(gpio_pin_direction_initialize@pin_config+1)& (0+255),b
  2210   001B94  ECCB  F008         	call	_gpio_pin_direction_initialize	;wreg free
  2211   001B98  0100               	movlb	0	; () banked
  2212   001B9A  6FB2               	movwf	Interrupt_RBx_Pin_Init@ret& (0+255),b
  2213   001B9C                     l4605:
  2214                           
  2215                           ; BSR set to: 0
  2216                           ;MCAL_Layer/Interrupt/mcal_external_interrupt.c: 486:     return ret;
  2217   001B9C  51B2               	movf	Interrupt_RBx_Pin_Init@ret& (0+255),w,b
  2218   001B9E                     
  2219                           ; BSR set to: 0
  2220   001B9E  0012               	return		;funcret
  2221   001BA0                     __end_of_Interrupt_RBx_Pin_Init:
  2222                           	callstack 0
  2223                           
  2224 ;; *************** function _gpio_pin_direction_initialize *****************
  2225 ;; Defined at:
  2226 ;;		line 44 in file "MCAL_Layer/GPIO/hal_gpio.c"
  2227 ;; Parameters:    Size  Location     Type
  2228 ;;  pin_config      2    0[BANK0 ] PTR const struct .
  2229 ;;		 -> RB7_INT(5), RB6_INT(5), RB5_INT(5), RB4_INT(5), 
  2230 ;;		 -> relay_initialize@pin_obj(1), led_initialize@pin_obj(1), 
  2231 ;; Auto vars:     Size  Location     Type
  2232 ;;  ret             1    8[BANK0 ] unsigned char 
  2233 ;; Return value:  Size  Location     Type
  2234 ;;                  1    wreg      unsigned char 
  2235 ;; Registers used:
  2236 ;;		wreg, fsr2l, fsr2h, status,2, status,0, prodl, prodh
  2237 ;; Tracked objects:
  2238 ;;		On entry : 0/0
  2239 ;;		On exit  : 0/0
  2240 ;;		Unchanged: 0/0
  2241 ;; Data sizes:     COMRAM   BANK0   BANK1   BANK2   BANK3   BANK4   BANK5   BANK6   BANK7   BANK8   BANK9  BANK10  BANK1
      +1  BANK12  BANK13  BANK14  BANK15
  2242 ;;      Params:         0       2       0       0       0       0       0       0       0       0       0       0       
      +0       0       0       0       0
  2243 ;;      Locals:         0       1       0       0       0       0       0       0       0       0       0       0       
      +0       0       0       0       0
  2244 ;;      Temps:          0       6       0       0       0       0       0       0       0       0       0       0       
      +0       0       0       0       0
  2245 ;;      Totals:         0       9       0       0       0       0       0       0       0       0       0       0       
      +0       0       0       0       0
  2246 ;;Total ram usage:        9 bytes
  2247 ;; Hardware stack levels used: 1
  2248 ;; Hardware stack levels required when called: 10
  2249 ;; This function calls:
  2250 ;;		Nothing
  2251 ;; This function is called by:
  2252 ;;		_gpio_pin_initialize
  2253 ;;		_Interrupt_RBx_Pin_Init
  2254 ;;		_button_initialize
  2255 ;;		_keypad_initialize
  2256 ;;		_Interrupt_INTx_Pin_Init
  2257 ;; This function uses a non-reentrant model
  2258 ;;
  2259                           
  2260                           	psect	text15
  2261   001196                     __ptext15:
  2262                           	callstack 0
  2263   001196                     _gpio_pin_direction_initialize:
  2264                           	callstack 16
  2265   001196                     
  2266                           ;MCAL_Layer/GPIO/hal_gpio.c: 45:     Std_ReturnType ret=(Std_ReturnType)0x01;
  2267   001196  0E01               	movlw	1
  2268   001198  0100               	movlb	0	; () banked
  2269   00119A  6FAF               	movwf	gpio_pin_direction_initialize@ret& (0+255),b
  2270   00119C                     
  2271                           ; BSR set to: 0
  2272                           ;MCAL_Layer/GPIO/hal_gpio.c: 46:     if((pin_config==((void*)0))||(pin_config->pin>8 -1)
      +                          ||(pin_config->port>5 -1)){
  2273   00119C  51A7               	movf	gpio_pin_direction_initialize@pin_config& (0+255),w,b
  2274   00119E  11A8               	iorwf	(gpio_pin_direction_initialize@pin_config+1)& (0+255),w,b
  2275   0011A0  B4D8               	btfsc	status,2,c
  2276   0011A2  EFD5  F008         	goto	u3791
  2277   0011A6  EFD7  F008         	goto	u3790
  2278   0011AA                     u3791:
  2279   0011AA  EFF7  F008         	goto	l4381
  2280   0011AE                     u3790:
  2281   0011AE                     
  2282                           ; BSR set to: 0
  2283   0011AE  C0A7  FFD9         	movff	gpio_pin_direction_initialize@pin_config,fsr2l
  2284   0011B2  C0A8  FFDA         	movff	gpio_pin_direction_initialize@pin_config+1,fsr2h
  2285   0011B6  30DF               	rrcf	223,w,c
  2286   0011B8  32E8               	rrcf	wreg,f,c
  2287   0011BA  32E8               	rrcf	wreg,f,c
  2288   0011BC  0B07               	andlw	7
  2289   0011BE  6FA9               	movwf	??_gpio_pin_direction_initialize& (0+255),b
  2290   0011C0  0E08               	movlw	8
  2291   0011C2  61A9               	cpfslt	??_gpio_pin_direction_initialize& (0+255),b
  2292   0011C4  EFE6  F008         	goto	u3801
  2293   0011C8  EFE8  F008         	goto	u3800
  2294   0011CC                     u3801:
  2295   0011CC  EFF7  F008         	goto	l4381
  2296   0011D0                     u3800:
  2297   0011D0                     
  2298                           ; BSR set to: 0
  2299   0011D0  C0A7  FFD9         	movff	gpio_pin_direction_initialize@pin_config,fsr2l
  2300   0011D4  C0A8  FFDA         	movff	gpio_pin_direction_initialize@pin_config+1,fsr2h
  2301   0011D8  50DF               	movf	223,w,c
  2302   0011DA  0B07               	andlw	7
  2303   0011DC  6FA9               	movwf	??_gpio_pin_direction_initialize& (0+255),b
  2304   0011DE  0E04               	movlw	4
  2305   0011E0  65A9               	cpfsgt	??_gpio_pin_direction_initialize& (0+255),b
  2306   0011E2  EFF5  F008         	goto	u3811
  2307   0011E6  EFF7  F008         	goto	u3810
  2308   0011EA                     u3811:
  2309   0011EA  EF5C  F009         	goto	l4389
  2310   0011EE                     u3810:
  2311   0011EE                     l4381:
  2312                           
  2313                           ; BSR set to: 0
  2314                           ;MCAL_Layer/GPIO/hal_gpio.c: 47:         ret=(Std_ReturnType)0x00;
  2315   0011EE  0E00               	movlw	0
  2316   0011F0  6FAF               	movwf	gpio_pin_direction_initialize@ret& (0+255),b
  2317                           
  2318                           ;MCAL_Layer/GPIO/hal_gpio.c: 48:     }
  2319   0011F2  EF7D  F009         	goto	l4391
  2320   0011F6                     l4383:
  2321                           
  2322                           ; BSR set to: 0
  2323                           ;MCAL_Layer/GPIO/hal_gpio.c: 52:                 (*tris_registers[pin_config->port]&=~((
      +                          uint8)0x01<<pin_config->pin));
  2324   0011F6  C0A7  FFD9         	movff	gpio_pin_direction_initialize@pin_config,fsr2l
  2325   0011FA  C0A8  FFDA         	movff	gpio_pin_direction_initialize@pin_config+1,fsr2h
  2326   0011FE  30DF               	rrcf	223,w,c
  2327   001200  32E8               	rrcf	wreg,f,c
  2328   001202  32E8               	rrcf	wreg,f,c
  2329   001204  0B07               	andlw	7
  2330   001206  6FA9               	movwf	??_gpio_pin_direction_initialize& (0+255),b
  2331   001208  0E01               	movlw	1
  2332   00120A  6FAA               	movwf	(??_gpio_pin_direction_initialize+1)& (0+255),b
  2333   00120C  2BA9               	incf	??_gpio_pin_direction_initialize& (0+255),f,b
  2334   00120E  EF0B  F009         	goto	u3824
  2335   001212                     u3825:
  2336   001212  90D8               	bcf	status,0,c
  2337   001214  37AA               	rlcf	(??_gpio_pin_direction_initialize+1)& (0+255),f,b
  2338   001216                     u3824:
  2339   001216  2FA9               	decfsz	??_gpio_pin_direction_initialize& (0+255),f,b
  2340   001218  EF09  F009         	goto	u3825
  2341   00121C  0100               	movlb	0	; () banked
  2342   00121E  51AA               	movf	(??_gpio_pin_direction_initialize+1)& (0+255),w,b
  2343   001220  0AFF               	xorlw	255
  2344   001222  6FAB               	movwf	(??_gpio_pin_direction_initialize+2)& (0+255),b
  2345   001224  C0A7  FFD9         	movff	gpio_pin_direction_initialize@pin_config,fsr2l
  2346   001228  C0A8  FFDA         	movff	gpio_pin_direction_initialize@pin_config+1,fsr2h
  2347   00122C  50DF               	movf	223,w,c
  2348   00122E  0B07               	andlw	7
  2349   001230  6FAC               	movwf	(??_gpio_pin_direction_initialize+3)& (0+255),b
  2350   001232  51AC               	movf	(??_gpio_pin_direction_initialize+3)& (0+255),w,b
  2351   001234  0D02               	mullw	2
  2352   001236  0E0B               	movlw	low _tris_registers
  2353   001238  24F3               	addwf	243,w,c
  2354   00123A  6ED9               	movwf	fsr2l,c
  2355   00123C  0E00               	movlw	high _tris_registers
  2356   00123E  20F4               	addwfc	prodh,w,c
  2357   001240  6EDA               	movwf	fsr2h,c
  2358   001242  CFDE F0AD          	movff	postinc2,??_gpio_pin_direction_initialize+4
  2359   001246  CFDD F0AE          	movff	postdec2,??_gpio_pin_direction_initialize+5
  2360   00124A  C0AD  FFD9         	movff	??_gpio_pin_direction_initialize+4,fsr2l
  2361   00124E  C0AE  FFDA         	movff	??_gpio_pin_direction_initialize+5,fsr2h
  2362   001252  51AB               	movf	(??_gpio_pin_direction_initialize+2)& (0+255),w,b
  2363   001254  16DF               	andwf	indf2,f,c
  2364                           
  2365                           ;MCAL_Layer/GPIO/hal_gpio.c: 53:                 break;
  2366   001256  EF7D  F009         	goto	l4391
  2367   00125A                     l4385:
  2368                           
  2369                           ; BSR set to: 0
  2370                           ;MCAL_Layer/GPIO/hal_gpio.c: 55:                 (*tris_registers[pin_config->port]|=((u
      +                          int8)0x01<<pin_config->pin));
  2371   00125A  C0A7  FFD9         	movff	gpio_pin_direction_initialize@pin_config,fsr2l
  2372   00125E  C0A8  FFDA         	movff	gpio_pin_direction_initialize@pin_config+1,fsr2h
  2373   001262  30DF               	rrcf	223,w,c
  2374   001264  32E8               	rrcf	wreg,f,c
  2375   001266  32E8               	rrcf	wreg,f,c
  2376   001268  0B07               	andlw	7
  2377   00126A  6FA9               	movwf	??_gpio_pin_direction_initialize& (0+255),b
  2378   00126C  0E01               	movlw	1
  2379   00126E  6FAA               	movwf	(??_gpio_pin_direction_initialize+1)& (0+255),b
  2380   001270  2BA9               	incf	??_gpio_pin_direction_initialize& (0+255),f,b
  2381   001272  EF3D  F009         	goto	u3834
  2382   001276                     u3835:
  2383   001276  90D8               	bcf	status,0,c
  2384   001278  37AA               	rlcf	(??_gpio_pin_direction_initialize+1)& (0+255),f,b
  2385   00127A                     u3834:
  2386   00127A  2FA9               	decfsz	??_gpio_pin_direction_initialize& (0+255),f,b
  2387   00127C  EF3B  F009         	goto	u3835
  2388   001280  C0A7  FFD9         	movff	gpio_pin_direction_initialize@pin_config,fsr2l
  2389   001284  C0A8  FFDA         	movff	gpio_pin_direction_initialize@pin_config+1,fsr2h
  2390   001288  50DF               	movf	223,w,c
  2391   00128A  0B07               	andlw	7
  2392   00128C  0100               	movlb	0	; () banked
  2393   00128E  6FAB               	movwf	(??_gpio_pin_direction_initialize+2)& (0+255),b
  2394   001290  51AB               	movf	(??_gpio_pin_direction_initialize+2)& (0+255),w,b
  2395   001292  0D02               	mullw	2
  2396   001294  0E0B               	movlw	low _tris_registers
  2397   001296  24F3               	addwf	243,w,c
  2398   001298  6ED9               	movwf	fsr2l,c
  2399   00129A  0E00               	movlw	high _tris_registers
  2400   00129C  20F4               	addwfc	prodh,w,c
  2401   00129E  6EDA               	movwf	fsr2h,c
  2402   0012A0  CFDE F0AC          	movff	postinc2,??_gpio_pin_direction_initialize+3
  2403   0012A4  CFDD F0AD          	movff	postdec2,??_gpio_pin_direction_initialize+4
  2404   0012A8  C0AC  FFD9         	movff	??_gpio_pin_direction_initialize+3,fsr2l
  2405   0012AC  C0AD  FFDA         	movff	??_gpio_pin_direction_initialize+4,fsr2h
  2406   0012B0  51AA               	movf	(??_gpio_pin_direction_initialize+1)& (0+255),w,b
  2407   0012B2  12DF               	iorwf	indf2,f,c
  2408                           
  2409                           ;MCAL_Layer/GPIO/hal_gpio.c: 56:                 break;
  2410   0012B4  EF7D  F009         	goto	l4391
  2411   0012B8                     l4389:
  2412                           
  2413                           ; BSR set to: 0
  2414   0012B8  C0A7  FFD9         	movff	gpio_pin_direction_initialize@pin_config,fsr2l
  2415   0012BC  C0A8  FFDA         	movff	gpio_pin_direction_initialize@pin_config+1,fsr2h
  2416   0012C0  BCDF               	btfsc	indf2,6,c
  2417   0012C2  EF65  F009         	goto	u3841
  2418   0012C6  EF68  F009         	goto	u3840
  2419   0012CA                     u3841:
  2420   0012CA  0E01               	movlw	1
  2421   0012CC  EF69  F009         	goto	u3850
  2422   0012D0                     u3840:
  2423   0012D0  0E00               	movlw	0
  2424   0012D2                     u3850:
  2425   0012D2  6FA9               	movwf	??_gpio_pin_direction_initialize& (0+255),b
  2426   0012D4  6BAA               	clrf	(??_gpio_pin_direction_initialize+1)& (0+255),b
  2427                           
  2428                           ; Switch on 2 bytes has been partitioned into a top level switch of size 1, and 1 sub-sw
      +                          itches
  2429                           ; Switch size 1, requested type "simple"
  2430                           ; Number of cases is 1, Range of values is 0 to 0
  2431                           ; switch strategies available:
  2432                           ; Name         Instructions Cycles
  2433                           ; simple_byte            4     3 (average)
  2434                           ;	Chosen strategy is simple_byte
  2435   0012D6  51AA               	movf	(??_gpio_pin_direction_initialize+1)& (0+255),w,b
  2436   0012D8  0A00               	xorlw	0	; case 0
  2437   0012DA  B4D8               	btfsc	status,2,c
  2438   0012DC  EF72  F009         	goto	l5375
  2439   0012E0  EFF7  F008         	goto	l4381
  2440   0012E4                     l5375:
  2441                           
  2442                           ; BSR set to: 0
  2443                           ; Switch size 1, requested type "simple"
  2444                           ; Number of cases is 2, Range of values is 0 to 1
  2445                           ; switch strategies available:
  2446                           ; Name         Instructions Cycles
  2447                           ; simple_byte            7     4 (average)
  2448                           ;	Chosen strategy is simple_byte
  2449   0012E4  51A9               	movf	??_gpio_pin_direction_initialize& (0+255),w,b
  2450   0012E6  0A00               	xorlw	0	; case 0
  2451   0012E8  B4D8               	btfsc	status,2,c
  2452   0012EA  EFFB  F008         	goto	l4383
  2453   0012EE  0A01               	xorlw	1	; case 1
  2454   0012F0  B4D8               	btfsc	status,2,c
  2455   0012F2  EF2D  F009         	goto	l4385
  2456   0012F6  EFF7  F008         	goto	l4381
  2457   0012FA                     l4391:
  2458                           
  2459                           ; BSR set to: 0
  2460                           ;MCAL_Layer/GPIO/hal_gpio.c: 61:     return ret;
  2461   0012FA  51AF               	movf	gpio_pin_direction_initialize@ret& (0+255),w,b
  2462   0012FC                     
  2463                           ; BSR set to: 0
  2464   0012FC  0012               	return		;funcret
  2465   0012FE                     __end_of_gpio_pin_direction_initialize:
  2466                           	callstack 0
  2467                           
  2468 ;; *************** function _Interrupt_RBx_Enable *****************
  2469 ;; Defined at:
  2470 ;;		line 426 in file "MCAL_Layer/Interrupt/mcal_external_interrupt.c"
  2471 ;; Parameters:    Size  Location     Type
  2472 ;;  int_obj         2    0[BANK0 ] PTR const struct .
  2473 ;;		 -> RB7_INT(5), RB6_INT(5), RB5_INT(5), RB4_INT(5), 
  2474 ;; Auto vars:     Size  Location     Type
  2475 ;;  ret             1    3[BANK0 ] unsigned char 
  2476 ;; Return value:  Size  Location     Type
  2477 ;;                  1    wreg      unsigned char 
  2478 ;; Registers used:
  2479 ;;		wreg, fsr2l, fsr2h, status,2, status,0
  2480 ;; Tracked objects:
  2481 ;;		On entry : 0/0
  2482 ;;		On exit  : 0/0
  2483 ;;		Unchanged: 0/0
  2484 ;; Data sizes:     COMRAM   BANK0   BANK1   BANK2   BANK3   BANK4   BANK5   BANK6   BANK7   BANK8   BANK9  BANK10  BANK1
      +1  BANK12  BANK13  BANK14  BANK15
  2485 ;;      Params:         0       2       0       0       0       0       0       0       0       0       0       0       
      +0       0       0       0       0
  2486 ;;      Locals:         0       1       0       0       0       0       0       0       0       0       0       0       
      +0       0       0       0       0
  2487 ;;      Temps:          0       1       0       0       0       0       0       0       0       0       0       0       
      +0       0       0       0       0
  2488 ;;      Totals:         0       4       0       0       0       0       0       0       0       0       0       0       
      +0       0       0       0       0
  2489 ;;Total ram usage:        4 bytes
  2490 ;; Hardware stack levels used: 1
  2491 ;; Hardware stack levels required when called: 10
  2492 ;; This function calls:
  2493 ;;		Nothing
  2494 ;; This function is called by:
  2495 ;;		_Interrupt_RBx_Init
  2496 ;; This function uses a non-reentrant model
  2497 ;;
  2498                           
  2499                           	psect	text16
  2500   0019C4                     __ptext16:
  2501                           	callstack 0
  2502   0019C4                     _Interrupt_RBx_Enable:
  2503                           	callstack 19
  2504   0019C4                     
  2505                           ;MCAL_Layer/Interrupt/mcal_external_interrupt.c: 427:  Std_ReturnType ret=(Std_ReturnTyp
      +                          e)0x01;
  2506   0019C4  0E01               	movlw	1
  2507   0019C6  0100               	movlb	0	; () banked
  2508   0019C8  6FAA               	movwf	Interrupt_RBx_Enable@ret& (0+255),b
  2509   0019CA                     
  2510                           ; BSR set to: 0
  2511                           ;MCAL_Layer/Interrupt/mcal_external_interrupt.c: 428:     if(int_obj==((void*)0)){
  2512   0019CA  51A7               	movf	Interrupt_RBx_Enable@int_obj& (0+255),w,b
  2513   0019CC  11A8               	iorwf	(Interrupt_RBx_Enable@int_obj+1)& (0+255),w,b
  2514   0019CE  A4D8               	btfss	status,2,c
  2515   0019D0  EFEC  F00C         	goto	u4091
  2516   0019D4  EFEE  F00C         	goto	u4090
  2517   0019D8                     u4091:
  2518   0019D8  EFF2  F00C         	goto	l662
  2519   0019DC                     u4090:
  2520   0019DC                     
  2521                           ; BSR set to: 0
  2522                           ;MCAL_Layer/Interrupt/mcal_external_interrupt.c: 429:         ret=(Std_ReturnType)0x00;
  2523   0019DC  0E00               	movlw	0
  2524   0019DE  6FAA               	movwf	Interrupt_RBx_Enable@ret& (0+255),b
  2525                           
  2526                           ;MCAL_Layer/Interrupt/mcal_external_interrupt.c: 430:     }
  2527   0019E0  EF18  F00D         	goto	l663
  2528   0019E4                     l662:
  2529                           
  2530                           ; BSR set to: 0
  2531                           ;MCAL_Layer/Interrupt/mcal_external_interrupt.c: 433:                     ((*((volatile 
      +                          RCON_t *)(0xFD0))).IPEN=1);
  2532   0019E4  8ED0               	bsf	208,7,c	;volatile
  2533   0019E6                     
  2534                           ; BSR set to: 0
  2535                           ;MCAL_Layer/Interrupt/mcal_external_interrupt.c: 434:                     if (INTERRUPT_
      +                          LOW_PRIORITY == int_obj->priority){ ((*((volatile INTCON_t *)(0xFF2))).GIEL = 1); }
  2536   0019E6  EE20 F003          	lfsr	2,3
  2537   0019EA  51A7               	movf	Interrupt_RBx_Enable@int_obj& (0+255),w,b
  2538   0019EC  26D9               	addwf	fsr2l,f,c
  2539   0019EE  51A8               	movf	(Interrupt_RBx_Enable@int_obj+1)& (0+255),w,b
  2540   0019F0  22DA               	addwfc	fsr2h,f,c
  2541   0019F2  50DF               	movf	indf2,w,c
  2542   0019F4  A4D8               	btfss	status,2,c
  2543   0019F6  EFFF  F00C         	goto	u4101
  2544   0019FA  EF01  F00D         	goto	u4100
  2545   0019FE                     u4101:
  2546   0019FE  EF04  F00D         	goto	l4671
  2547   001A02                     u4100:
  2548   001A02                     
  2549                           ; BSR set to: 0
  2550   001A02  8CF2               	bsf	242,6,c	;volatile
  2551   001A04  EF17  F00D         	goto	l4677
  2552   001A08                     l4671:
  2553                           
  2554                           ; BSR set to: 0
  2555   001A08  EE20 F003          	lfsr	2,3
  2556   001A0C  51A7               	movf	Interrupt_RBx_Enable@int_obj& (0+255),w,b
  2557   001A0E  26D9               	addwf	fsr2l,f,c
  2558   001A10  51A8               	movf	(Interrupt_RBx_Enable@int_obj+1)& (0+255),w,b
  2559   001A12  22DA               	addwfc	fsr2h,f,c
  2560   001A14  04DE               	decf	postinc2,w,c
  2561   001A16  A4D8               	btfss	status,2,c
  2562   001A18  EF10  F00D         	goto	u4111
  2563   001A1C  EF12  F00D         	goto	u4110
  2564   001A20                     u4111:
  2565   001A20  EF15  F00D         	goto	l4675
  2566   001A24                     u4110:
  2567   001A24                     
  2568                           ; BSR set to: 0
  2569   001A24  8EF2               	bsf	242,7,c	;volatile
  2570   001A26  EF17  F00D         	goto	l4677
  2571   001A2A                     l4675:
  2572                           
  2573                           ; BSR set to: 0
  2574   001A2A  0E00               	movlw	0
  2575   001A2C  6FAA               	movwf	Interrupt_RBx_Enable@ret& (0+255),b
  2576   001A2E                     l4677:
  2577                           
  2578                           ; BSR set to: 0
  2579                           ;MCAL_Layer/Interrupt/mcal_external_interrupt.c: 440:                 ((*((volatile INTC
      +                          ON_t *)(0xFF2))).RBIE=1);
  2580   001A2E  86F2               	bsf	242,3,c	;volatile
  2581   001A30                     l663:
  2582                           
  2583                           ; BSR set to: 0
  2584                           ;MCAL_Layer/Interrupt/mcal_external_interrupt.c: 442:     return ret;
  2585   001A30  51AA               	movf	Interrupt_RBx_Enable@ret& (0+255),w,b
  2586   001A32                     
  2587                           ; BSR set to: 0
  2588   001A32  0012               	return		;funcret
  2589   001A34                     __end_of_Interrupt_RBx_Enable:
  2590                           	callstack 0
  2591                           
  2592 ;; *************** function _Interrupt_RBx_Disable *****************
  2593 ;; Defined at:
  2594 ;;		line 449 in file "MCAL_Layer/Interrupt/mcal_external_interrupt.c"
  2595 ;; Parameters:    Size  Location     Type
  2596 ;;  int_obj         2    0[BANK0 ] PTR const struct .
  2597 ;;		 -> RB7_INT(5), RB6_INT(5), RB5_INT(5), RB4_INT(5), 
  2598 ;; Auto vars:     Size  Location     Type
  2599 ;;  ret             1    2[BANK0 ] unsigned char 
  2600 ;; Return value:  Size  Location     Type
  2601 ;;                  1    wreg      unsigned char 
  2602 ;; Registers used:
  2603 ;;		wreg, status,2, status,0
  2604 ;; Tracked objects:
  2605 ;;		On entry : 0/0
  2606 ;;		On exit  : 0/0
  2607 ;;		Unchanged: 0/0
  2608 ;; Data sizes:     COMRAM   BANK0   BANK1   BANK2   BANK3   BANK4   BANK5   BANK6   BANK7   BANK8   BANK9  BANK10  BANK1
      +1  BANK12  BANK13  BANK14  BANK15
  2609 ;;      Params:         0       2       0       0       0       0       0       0       0       0       0       0       
      +0       0       0       0       0
  2610 ;;      Locals:         0       1       0       0       0       0       0       0       0       0       0       0       
      +0       0       0       0       0
  2611 ;;      Temps:          0       0       0       0       0       0       0       0       0       0       0       0       
      +0       0       0       0       0
  2612 ;;      Totals:         0       3       0       0       0       0       0       0       0       0       0       0       
      +0       0       0       0       0
  2613 ;;Total ram usage:        3 bytes
  2614 ;; Hardware stack levels used: 1
  2615 ;; Hardware stack levels required when called: 10
  2616 ;; This function calls:
  2617 ;;		Nothing
  2618 ;; This function is called by:
  2619 ;;		_Interrupt_RBx_Init
  2620 ;;		_Interrupt_RBx_DeInit
  2621 ;; This function uses a non-reentrant model
  2622 ;;
  2623                           
  2624                           	psect	text17
  2625   001E0E                     __ptext17:
  2626                           	callstack 0
  2627   001E0E                     _Interrupt_RBx_Disable:
  2628                           	callstack 19
  2629   001E0E                     
  2630                           ;MCAL_Layer/Interrupt/mcal_external_interrupt.c: 450:  Std_ReturnType ret=(Std_ReturnTyp
      +                          e)0x01;
  2631   001E0E  0E01               	movlw	1
  2632   001E10  0100               	movlb	0	; () banked
  2633   001E12  6FA9               	movwf	Interrupt_RBx_Disable@ret& (0+255),b
  2634   001E14                     
  2635                           ; BSR set to: 0
  2636                           ;MCAL_Layer/Interrupt/mcal_external_interrupt.c: 451:     if(int_obj==((void*)0)){
  2637   001E14  51A7               	movf	Interrupt_RBx_Disable@int_obj& (0+255),w,b
  2638   001E16  11A8               	iorwf	(Interrupt_RBx_Disable@int_obj+1)& (0+255),w,b
  2639   001E18  A4D8               	btfss	status,2,c
  2640   001E1A  EF11  F00F         	goto	u4021
  2641   001E1E  EF13  F00F         	goto	u4020
  2642   001E22                     u4021:
  2643   001E22  EF17  F00F         	goto	l671
  2644   001E26                     u4020:
  2645   001E26                     
  2646                           ; BSR set to: 0
  2647                           ;MCAL_Layer/Interrupt/mcal_external_interrupt.c: 452:         ret=(Std_ReturnType)0x00;
  2648   001E26  0E00               	movlw	0
  2649   001E28  6FA9               	movwf	Interrupt_RBx_Disable@ret& (0+255),b
  2650                           
  2651                           ;MCAL_Layer/Interrupt/mcal_external_interrupt.c: 453:     }
  2652   001E2A  EF18  F00F         	goto	l4575
  2653   001E2E                     l671:
  2654                           
  2655                           ; BSR set to: 0
  2656                           ;MCAL_Layer/Interrupt/mcal_external_interrupt.c: 455:                 ((*((volatile INTC
      +                          ON_t *)(0xFF2))).RBIE=0);
  2657   001E2E  96F2               	bcf	242,3,c	;volatile
  2658   001E30                     l4575:
  2659                           
  2660                           ; BSR set to: 0
  2661                           ;MCAL_Layer/Interrupt/mcal_external_interrupt.c: 457:     return ret;
  2662   001E30  51A9               	movf	Interrupt_RBx_Disable@ret& (0+255),w,b
  2663   001E32                     
  2664                           ; BSR set to: 0
  2665   001E32  0012               	return		;funcret
  2666   001E34                     __end_of_Interrupt_RBx_Disable:
  2667                           	callstack 0
  2668                           
  2669 ;; *************** function _InterruptManagerLow *****************
  2670 ;; Defined at:
  2671 ;;		line 38 in file "MCAL_Layer/Interrupt/mcal_interrupt_manager.c"
  2672 ;; Parameters:    Size  Location     Type
  2673 ;;		None
  2674 ;; Auto vars:     Size  Location     Type
  2675 ;;		None
  2676 ;; Return value:  Size  Location     Type
  2677 ;;                  1    wreg      void 
  2678 ;; Registers used:
  2679 ;;		wreg, fsr2l, fsr2h, status,2, status,0, pcl, pclath, pclatu, tosl, prodl, prodh, cstack
  2680 ;; Tracked objects:
  2681 ;;		On entry : 0/0
  2682 ;;		On exit  : 0/0
  2683 ;;		Unchanged: 0/0
  2684 ;; Data sizes:     COMRAM   BANK0   BANK1   BANK2   BANK3   BANK4   BANK5   BANK6   BANK7   BANK8   BANK9  BANK10  BANK1
      +1  BANK12  BANK13  BANK14  BANK15
  2685 ;;      Params:         0       0       0       0       0       0       0       0       0       0       0       0       
      +0       0       0       0       0
  2686 ;;      Locals:         0       0       0       0       0       0       0       0       0       0       0       0       
      +0       0       0       0       0
  2687 ;;      Temps:          9       0       0       0       0       0       0       0       0       0       0       0       
      +0       0       0       0       0
  2688 ;;      Totals:         9       0       0       0       0       0       0       0       0       0       0       0       
      +0       0       0       0       0
  2689 ;;Total ram usage:        9 bytes
  2690 ;; Hardware stack levels used: 1
  2691 ;; Hardware stack levels required when called: 9
  2692 ;; This function calls:
  2693 ;;		_INT1_ISR
  2694 ;;		_INT2_ISR
  2695 ;;		_RB4_ISR
  2696 ;;		_RB5_ISR
  2697 ;;		_RB6_ISR
  2698 ;;		_RB7_ISR
  2699 ;; This function is called by:
  2700 ;;		Interrupt level 1
  2701 ;; This function uses a non-reentrant model
  2702 ;;
  2703                           
  2704                           	psect	intcodelo
  2705   000018                     __pintcodelo:
  2706                           	callstack 0
  2707   000018                     _InterruptManagerLow:
  2708                           	callstack 16
  2709                           
  2710                           ; BSR set to: 0
  2711                           ;incstack = 0
  2712   000018  8069               	bsf	int$flags,0,c	;set compiler interrupt flag (level 1)
  2713   00001A  CFD8 F046          	movff	status,??_InterruptManagerLow
  2714   00001E  CFE8 F047          	movff	wreg,??_InterruptManagerLow+1
  2715   000022  CFE0 F048          	movff	bsr,??_InterruptManagerLow+2
  2716   000026  CFFA F049          	movff	pclath,??_InterruptManagerLow+3
  2717   00002A  CFFB F04A          	movff	pclatu,??_InterruptManagerLow+4
  2718   00002E  CFD9 F04B          	movff	fsr2l,??_InterruptManagerLow+5
  2719   000032  CFDA F04C          	movff	fsr2h,??_InterruptManagerLow+6
  2720   000036  CFF3 F04D          	movff	prodl,??_InterruptManagerLow+7
  2721   00003A  CFF4 F04E          	movff	prodh,??_InterruptManagerLow+8
  2722   00003E                     
  2723                           ;MCAL_Layer/Interrupt/mcal_interrupt_manager.c: 39:       if((0 == (*((volatile INTCON3_
      +                          t *)(0xFF0))).INT1IP)&&(1 == (*((volatile INTCON3_t *)(0xFF0))).INT1IF)){
  2724   00003E  BCF0               	btfsc	240,6,c	;volatile
  2725   000040  EF24  F000         	goto	i1u358_21
  2726   000044  EF26  F000         	goto	i1u358_20
  2727   000048                     i1u358_21:
  2728   000048  EF2F  F000         	goto	i1l778
  2729   00004C                     i1u358_20:
  2730   00004C  A0F0               	btfss	240,0,c	;volatile
  2731   00004E  EF2B  F000         	goto	i1u359_21
  2732   000052  EF2D  F000         	goto	i1u359_20
  2733   000056                     i1u359_21:
  2734   000056  EF2F  F000         	goto	i1l778
  2735   00005A                     i1u359_20:
  2736   00005A                     
  2737                           ;MCAL_Layer/Interrupt/mcal_interrupt_manager.c: 40:         INT1_ISR();
  2738   00005A  EC6B  F00F         	call	_INT1_ISR	;wreg free
  2739   00005E                     i1l778:
  2740                           
  2741                           ;MCAL_Layer/Interrupt/mcal_interrupt_manager.c: 43:     if((0 == (*((volatile INTCON3_t 
      +                          *)(0xFF0))).INT2IP)&&(1 == (*((volatile INTCON3_t *)(0xFF0))).INT2IF)){
  2742   00005E  BEF0               	btfsc	240,7,c	;volatile
  2743   000060  EF34  F000         	goto	i1u360_21
  2744   000064  EF36  F000         	goto	i1u360_20
  2745   000068                     i1u360_21:
  2746   000068  EF3F  F000         	goto	i1l780
  2747   00006C                     i1u360_20:
  2748   00006C  A2F0               	btfss	240,1,c	;volatile
  2749   00006E  EF3B  F000         	goto	i1u361_21
  2750   000072  EF3D  F000         	goto	i1u361_20
  2751   000076                     i1u361_21:
  2752   000076  EF3F  F000         	goto	i1l780
  2753   00007A                     i1u361_20:
  2754   00007A                     
  2755                           ;MCAL_Layer/Interrupt/mcal_interrupt_manager.c: 44:         INT2_ISR();
  2756   00007A  EC69  F00F         	call	_INT2_ISR	;wreg free
  2757   00007E                     i1l780:
  2758                           
  2759                           ;MCAL_Layer/Interrupt/mcal_interrupt_manager.c: 47:      if((0 == (*((volatile INTCON2_t
      +                           *)(0xFF1))).RBIP)&&(1 == (*((volatile INTCON_t *)(0xFF2))).RBIF) && (((((*((volatile ui
      +                          nt8*)(0xF81)))>>4)&((uint8)0x01)))!=RB4_pin_init_value)){
  2760   00007E  B0F1               	btfsc	241,0,c	;volatile
  2761   000080  EF44  F000         	goto	i1u362_21
  2762   000084  EF46  F000         	goto	i1u362_20
  2763   000088                     i1u362_21:
  2764   000088  EF5C  F000         	goto	i1l782
  2765   00008C                     i1u362_20:
  2766   00008C  A0F2               	btfss	242,0,c	;volatile
  2767   00008E  EF4B  F000         	goto	i1u363_21
  2768   000092  EF4D  F000         	goto	i1u363_20
  2769   000096                     i1u363_21:
  2770   000096  EF5C  F000         	goto	i1l782
  2771   00009A                     i1u363_20:
  2772   00009A  3881               	swapf	129,w,c	;volatile
  2773   00009C  0B0F               	andlw	15
  2774   00009E  0B01               	andlw	1
  2775   0000A0  1861               	xorwf	_RB4_pin_init_value^0,w,c	;volatile
  2776   0000A2  B4D8               	btfsc	status,2,c
  2777   0000A4  EF56  F000         	goto	i1u364_21
  2778   0000A8  EF58  F000         	goto	i1u364_20
  2779   0000AC                     i1u364_21:
  2780   0000AC  EF5C  F000         	goto	i1l782
  2781   0000B0                     i1u364_20:
  2782   0000B0                     
  2783                           ;MCAL_Layer/Interrupt/mcal_interrupt_manager.c: 48:         RB4_pin_init_value^=1;
  2784   0000B0  0E01               	movlw	1
  2785   0000B2  1A61               	xorwf	_RB4_pin_init_value^0,f,c	;volatile
  2786   0000B4                     
  2787                           ;MCAL_Layer/Interrupt/mcal_interrupt_manager.c: 49:         RB4_ISR();
  2788   0000B4  EC15  F00E         	call	_RB4_ISR	;wreg free
  2789   0000B8                     i1l782:
  2790                           
  2791                           ;MCAL_Layer/Interrupt/mcal_interrupt_manager.c: 52:        if((0 == (*((volatile INTCON2
      +                          _t *)(0xFF1))).RBIP)&&(1 == (*((volatile INTCON_t *)(0xFF2))).RBIF) && (((((*((volatile 
      +                          uint8*)(0xF81)))>>5)&((uint8)0x01)))!=RB5_pin_init_value)){
  2792   0000B8  B0F1               	btfsc	241,0,c	;volatile
  2793   0000BA  EF61  F000         	goto	i1u365_21
  2794   0000BE  EF63  F000         	goto	i1u365_20
  2795   0000C2                     i1u365_21:
  2796   0000C2  EF7A  F000         	goto	i1l784
  2797   0000C6                     i1u365_20:
  2798   0000C6  A0F2               	btfss	242,0,c	;volatile
  2799   0000C8  EF68  F000         	goto	i1u366_21
  2800   0000CC  EF6A  F000         	goto	i1u366_20
  2801   0000D0                     i1u366_21:
  2802   0000D0  EF7A  F000         	goto	i1l784
  2803   0000D4                     i1u366_20:
  2804   0000D4  3881               	swapf	129,w,c	;volatile
  2805   0000D6  42E8               	rrncf	wreg,f,c
  2806   0000D8  0B07               	andlw	7
  2807   0000DA  0B01               	andlw	1
  2808   0000DC  1860               	xorwf	_RB5_pin_init_value^0,w,c	;volatile
  2809   0000DE  B4D8               	btfsc	status,2,c
  2810   0000E0  EF74  F000         	goto	i1u367_21
  2811   0000E4  EF76  F000         	goto	i1u367_20
  2812   0000E8                     i1u367_21:
  2813   0000E8  EF7A  F000         	goto	i1l784
  2814   0000EC                     i1u367_20:
  2815   0000EC                     
  2816                           ;MCAL_Layer/Interrupt/mcal_interrupt_manager.c: 53:         RB5_pin_init_value^=1;
  2817   0000EC  0E01               	movlw	1
  2818   0000EE  1A60               	xorwf	_RB5_pin_init_value^0,f,c	;volatile
  2819   0000F0                     
  2820                           ;MCAL_Layer/Interrupt/mcal_interrupt_manager.c: 54:         RB5_ISR();
  2821   0000F0  ECFE  F00D         	call	_RB5_ISR	;wreg free
  2822   0000F4                     i1l784:
  2823                           
  2824                           ;MCAL_Layer/Interrupt/mcal_interrupt_manager.c: 57:        if((0 == (*((volatile INTCON2
      +                          _t *)(0xFF1))).RBIP)&&(1 == (*((volatile INTCON_t *)(0xFF2))).RBIF) && (((((*((volatile 
      +                          uint8*)(0xF81)))>>6)&((uint8)0x01)))!=RB6_pin_init_value)){
  2825   0000F4  B0F1               	btfsc	241,0,c	;volatile
  2826   0000F6  EF7F  F000         	goto	i1u368_21
  2827   0000FA  EF81  F000         	goto	i1u368_20
  2828   0000FE                     i1u368_21:
  2829   0000FE  EF98  F000         	goto	i1l786
  2830   000102                     i1u368_20:
  2831   000102  A0F2               	btfss	242,0,c	;volatile
  2832   000104  EF86  F000         	goto	i1u369_21
  2833   000108  EF88  F000         	goto	i1u369_20
  2834   00010C                     i1u369_21:
  2835   00010C  EF98  F000         	goto	i1l786
  2836   000110                     i1u369_20:
  2837   000110  4481               	rlncf	129,w,c	;volatile
  2838   000112  46E8               	rlncf	wreg,f,c
  2839   000114  0B03               	andlw	3
  2840   000116  0B01               	andlw	1
  2841   000118  185F               	xorwf	_RB6_pin_init_value^0,w,c	;volatile
  2842   00011A  B4D8               	btfsc	status,2,c
  2843   00011C  EF92  F000         	goto	i1u370_21
  2844   000120  EF94  F000         	goto	i1u370_20
  2845   000124                     i1u370_21:
  2846   000124  EF98  F000         	goto	i1l786
  2847   000128                     i1u370_20:
  2848   000128                     
  2849                           ;MCAL_Layer/Interrupt/mcal_interrupt_manager.c: 58:         RB6_pin_init_value^=1;
  2850   000128  0E01               	movlw	1
  2851   00012A  1A5F               	xorwf	_RB6_pin_init_value^0,f,c	;volatile
  2852   00012C                     
  2853                           ;MCAL_Layer/Interrupt/mcal_interrupt_manager.c: 59:         RB6_ISR();
  2854   00012C  ECE7  F00D         	call	_RB6_ISR	;wreg free
  2855   000130                     i1l786:
  2856                           
  2857                           ;MCAL_Layer/Interrupt/mcal_interrupt_manager.c: 62:        if((0 == (*((volatile INTCON2
      +                          _t *)(0xFF1))).RBIP)&&(1 == (*((volatile INTCON_t *)(0xFF2))).RBIF) && (((((*((volatile 
      +                          uint8*)(0xF81)))>>7)&((uint8)0x01)))!=RB7_pin_init_value)){
  2858   000130  B0F1               	btfsc	241,0,c	;volatile
  2859   000132  EF9D  F000         	goto	i1u371_21
  2860   000136  EF9F  F000         	goto	i1u371_20
  2861   00013A                     i1u371_21:
  2862   00013A  EFB4  F000         	goto	i1l789
  2863   00013E                     i1u371_20:
  2864   00013E  A0F2               	btfss	242,0,c	;volatile
  2865   000140  EFA4  F000         	goto	i1u372_21
  2866   000144  EFA6  F000         	goto	i1u372_20
  2867   000148                     i1u372_21:
  2868   000148  EFB4  F000         	goto	i1l789
  2869   00014C                     i1u372_20:
  2870   00014C  4481               	rlncf	129,w,c	;volatile
  2871   00014E  0B01               	andlw	1
  2872   000150  185E               	xorwf	_RB7_pin_init_value^0,w,c	;volatile
  2873   000152  B4D8               	btfsc	status,2,c
  2874   000154  EFAE  F000         	goto	i1u373_21
  2875   000158  EFB0  F000         	goto	i1u373_20
  2876   00015C                     i1u373_21:
  2877   00015C  EFB4  F000         	goto	i1l789
  2878   000160                     i1u373_20:
  2879   000160                     
  2880                           ;MCAL_Layer/Interrupt/mcal_interrupt_manager.c: 63:         RB7_pin_init_value^=1;
  2881   000160  0E01               	movlw	1
  2882   000162  1A5E               	xorwf	_RB7_pin_init_value^0,f,c	;volatile
  2883   000164                     
  2884                           ;MCAL_Layer/Interrupt/mcal_interrupt_manager.c: 64:         RB7_ISR();
  2885   000164  ECD0  F00D         	call	_RB7_ISR	;wreg free
  2886   000168                     i1l789:
  2887   000168  C04E  FFF4         	movff	??_InterruptManagerLow+8,prodh
  2888   00016C  C04D  FFF3         	movff	??_InterruptManagerLow+7,prodl
  2889   000170  C04C  FFDA         	movff	??_InterruptManagerLow+6,fsr2h
  2890   000174  C04B  FFD9         	movff	??_InterruptManagerLow+5,fsr2l
  2891   000178  C04A  FFFB         	movff	??_InterruptManagerLow+4,pclatu
  2892   00017C  C049  FFFA         	movff	??_InterruptManagerLow+3,pclath
  2893   000180  C048  FFE0         	movff	??_InterruptManagerLow+2,bsr
  2894   000184  C047  FFE8         	movff	??_InterruptManagerLow+1,wreg
  2895   000188  C046  FFD8         	movff	??_InterruptManagerLow,status
  2896   00018C  9069               	bcf	int$flags,0,c	;clear compiler interrupt flag (level 1)
  2897   00018E  0010               	retfie	
  2898   000190                     __end_of_InterruptManagerLow:
  2899                           	callstack 0
  2900                           
  2901 ;; *************** function _RB7_ISR *****************
  2902 ;; Defined at:
  2903 ;;		line 180 in file "MCAL_Layer/Interrupt/mcal_external_interrupt.c"
  2904 ;; Parameters:    Size  Location     Type
  2905 ;;		None
  2906 ;; Auto vars:     Size  Location     Type
  2907 ;;		None
  2908 ;; Return value:  Size  Location     Type
  2909 ;;                  1    wreg      void 
  2910 ;; Registers used:
  2911 ;;		wreg, fsr2l, fsr2h, status,2, status,0, pcl, pclath, pclatu, tosl, prodl, prodh, cstack
  2912 ;; Tracked objects:
  2913 ;;		On entry : 0/0
  2914 ;;		On exit  : 0/0
  2915 ;;		Unchanged: 0/0
  2916 ;; Data sizes:     COMRAM   BANK0   BANK1   BANK2   BANK3   BANK4   BANK5   BANK6   BANK7   BANK8   BANK9  BANK10  BANK1
      +1  BANK12  BANK13  BANK14  BANK15
  2917 ;;      Params:         0       0       0       0       0       0       0       0       0       0       0       0       
      +0       0       0       0       0
  2918 ;;      Locals:         0       0       0       0       0       0       0       0       0       0       0       0       
      +0       0       0       0       0
  2919 ;;      Temps:          0       0       0       0       0       0       0       0       0       0       0       0       
      +0       0       0       0       0
  2920 ;;      Totals:         0       0       0       0       0       0       0       0       0       0       0       0       
      +0       0       0       0       0
  2921 ;;Total ram usage:        0 bytes
  2922 ;; Hardware stack levels used: 1
  2923 ;; Hardware stack levels required when called: 8
  2924 ;; This function calls:
  2925 ;;		NULL
  2926 ;;		_RB4_INT_HANDLER
  2927 ;;		_RB5_INT_HANDLER
  2928 ;;		_RB6_INT_HANDLER
  2929 ;;		_RB7_INT_HANDLER
  2930 ;; This function is called by:
  2931 ;;		_InterruptManagerLow
  2932 ;; This function uses a non-reentrant model
  2933 ;;
  2934                           
  2935                           	psect	text19
  2936   001BA0                     __ptext19:
  2937                           	callstack 0
  2938   001BA0                     _RB7_ISR:
  2939                           	callstack 16
  2940   001BA0                     
  2941                           ;MCAL_Layer/Interrupt/mcal_external_interrupt.c: 182:     ((*((volatile INTCON_t *)(0xFF
      +                          2))).RBIF=0);
  2942   001BA0  90F2               	bcf	242,0,c	;volatile
  2943   001BA2                     
  2944                           ;MCAL_Layer/Interrupt/mcal_external_interrupt.c: 186:     if(RB7_InterruptHandler){RB7_I
      +                          nterruptHandler();}
  2945   001BA2  504F               	movf	_RB7_InterruptHandler^0,w,c
  2946   001BA4  1050               	iorwf	(_RB7_InterruptHandler+1)^0,w,c
  2947   001BA6  B4D8               	btfsc	status,2,c
  2948   001BA8  EFD8  F00D         	goto	i1u269_21
  2949   001BAC  EFDA  F00D         	goto	i1u269_20
  2950   001BB0                     i1u269_21:
  2951   001BB0  EFE6  F00D         	goto	i1l546
  2952   001BB4                     i1u269_20:
  2953   001BB4  D802               	call	i1u270_28
  2954   001BB6  EFE6  F00D         	goto	i1u270_29
  2955   001BBA                     i1u270_28:
  2956   001BBA  0005               	push	
  2957   001BBC  6EFA               	movwf	pclath,c
  2958   001BBE  504F               	movf	_RB7_InterruptHandler^0,w,c
  2959   001BC0  6EFD               	movwf	tosl,c
  2960   001BC2  5050               	movf	(_RB7_InterruptHandler+1)^0,w,c
  2961   001BC4  6EFE               	movwf	tosh,c
  2962   001BC6  6AFF               	clrf	tosu,c
  2963   001BC8  50FA               	movf	pclath,w,c
  2964   001BCA  0012               	return		;indir
  2965   001BCC                     i1u270_29:
  2966   001BCC                     i1l546:
  2967   001BCC  0012               	return		;funcret
  2968   001BCE                     __end_of_RB7_ISR:
  2969                           	callstack 0
  2970                           
  2971 ;; *************** function _RB6_ISR *****************
  2972 ;; Defined at:
  2973 ;;		line 172 in file "MCAL_Layer/Interrupt/mcal_external_interrupt.c"
  2974 ;; Parameters:    Size  Location     Type
  2975 ;;		None
  2976 ;; Auto vars:     Size  Location     Type
  2977 ;;		None
  2978 ;; Return value:  Size  Location     Type
  2979 ;;                  1    wreg      void 
  2980 ;; Registers used:
  2981 ;;		wreg, fsr2l, fsr2h, status,2, status,0, pcl, pclath, pclatu, tosl, prodl, prodh, cstack
  2982 ;; Tracked objects:
  2983 ;;		On entry : 0/0
  2984 ;;		On exit  : 0/0
  2985 ;;		Unchanged: 0/0
  2986 ;; Data sizes:     COMRAM   BANK0   BANK1   BANK2   BANK3   BANK4   BANK5   BANK6   BANK7   BANK8   BANK9  BANK10  BANK1
      +1  BANK12  BANK13  BANK14  BANK15
  2987 ;;      Params:         0       0       0       0       0       0       0       0       0       0       0       0       
      +0       0       0       0       0
  2988 ;;      Locals:         0       0       0       0       0       0       0       0       0       0       0       0       
      +0       0       0       0       0
  2989 ;;      Temps:          0       0       0       0       0       0       0       0       0       0       0       0       
      +0       0       0       0       0
  2990 ;;      Totals:         0       0       0       0       0       0       0       0       0       0       0       0       
      +0       0       0       0       0
  2991 ;;Total ram usage:        0 bytes
  2992 ;; Hardware stack levels used: 1
  2993 ;; Hardware stack levels required when called: 8
  2994 ;; This function calls:
  2995 ;;		NULL
  2996 ;;		_RB4_INT_HANDLER
  2997 ;;		_RB5_INT_HANDLER
  2998 ;;		_RB6_INT_HANDLER
  2999 ;;		_RB7_INT_HANDLER
  3000 ;; This function is called by:
  3001 ;;		_InterruptManagerLow
  3002 ;; This function uses a non-reentrant model
  3003 ;;
  3004                           
  3005                           	psect	text20
  3006   001BCE                     __ptext20:
  3007                           	callstack 0
  3008   001BCE                     _RB6_ISR:
  3009                           	callstack 16
  3010   001BCE                     
  3011                           ;MCAL_Layer/Interrupt/mcal_external_interrupt.c: 174:     ((*((volatile INTCON_t *)(0xFF
      +                          2))).RBIF=0);
  3012   001BCE  90F2               	bcf	242,0,c	;volatile
  3013   001BD0                     
  3014                           ;MCAL_Layer/Interrupt/mcal_external_interrupt.c: 178:     if(RB6_InterruptHandler){RB6_I
      +                          nterruptHandler();}
  3015   001BD0  5051               	movf	_RB6_InterruptHandler^0,w,c
  3016   001BD2  1052               	iorwf	(_RB6_InterruptHandler+1)^0,w,c
  3017   001BD4  B4D8               	btfsc	status,2,c
  3018   001BD6  EFEF  F00D         	goto	i1u267_21
  3019   001BDA  EFF1  F00D         	goto	i1u267_20
  3020   001BDE                     i1u267_21:
  3021   001BDE  EFFD  F00D         	goto	i1l542
  3022   001BE2                     i1u267_20:
  3023   001BE2  D802               	call	i1u268_28
  3024   001BE4  EFFD  F00D         	goto	i1u268_29
  3025   001BE8                     i1u268_28:
  3026   001BE8  0005               	push	
  3027   001BEA  6EFA               	movwf	pclath,c
  3028   001BEC  5051               	movf	_RB6_InterruptHandler^0,w,c
  3029   001BEE  6EFD               	movwf	tosl,c
  3030   001BF0  5052               	movf	(_RB6_InterruptHandler+1)^0,w,c
  3031   001BF2  6EFE               	movwf	tosh,c
  3032   001BF4  6AFF               	clrf	tosu,c
  3033   001BF6  50FA               	movf	pclath,w,c
  3034   001BF8  0012               	return		;indir
  3035   001BFA                     i1u268_29:
  3036   001BFA                     i1l542:
  3037   001BFA  0012               	return		;funcret
  3038   001BFC                     __end_of_RB6_ISR:
  3039                           	callstack 0
  3040                           
  3041 ;; *************** function _RB5_ISR *****************
  3042 ;; Defined at:
  3043 ;;		line 164 in file "MCAL_Layer/Interrupt/mcal_external_interrupt.c"
  3044 ;; Parameters:    Size  Location     Type
  3045 ;;		None
  3046 ;; Auto vars:     Size  Location     Type
  3047 ;;		None
  3048 ;; Return value:  Size  Location     Type
  3049 ;;                  1    wreg      void 
  3050 ;; Registers used:
  3051 ;;		wreg, fsr2l, fsr2h, status,2, status,0, pcl, pclath, pclatu, tosl, prodl, prodh, cstack
  3052 ;; Tracked objects:
  3053 ;;		On entry : 0/0
  3054 ;;		On exit  : 0/0
  3055 ;;		Unchanged: 0/0
  3056 ;; Data sizes:     COMRAM   BANK0   BANK1   BANK2   BANK3   BANK4   BANK5   BANK6   BANK7   BANK8   BANK9  BANK10  BANK1
      +1  BANK12  BANK13  BANK14  BANK15
  3057 ;;      Params:         0       0       0       0       0       0       0       0       0       0       0       0       
      +0       0       0       0       0
  3058 ;;      Locals:         0       0       0       0       0       0       0       0       0       0       0       0       
      +0       0       0       0       0
  3059 ;;      Temps:          0       0       0       0       0       0       0       0       0       0       0       0       
      +0       0       0       0       0
  3060 ;;      Totals:         0       0       0       0       0       0       0       0       0       0       0       0       
      +0       0       0       0       0
  3061 ;;Total ram usage:        0 bytes
  3062 ;; Hardware stack levels used: 1
  3063 ;; Hardware stack levels required when called: 8
  3064 ;; This function calls:
  3065 ;;		NULL
  3066 ;;		_RB4_INT_HANDLER
  3067 ;;		_RB5_INT_HANDLER
  3068 ;;		_RB6_INT_HANDLER
  3069 ;;		_RB7_INT_HANDLER
  3070 ;; This function is called by:
  3071 ;;		_InterruptManagerLow
  3072 ;; This function uses a non-reentrant model
  3073 ;;
  3074                           
  3075                           	psect	text21
  3076   001BFC                     __ptext21:
  3077                           	callstack 0
  3078   001BFC                     _RB5_ISR:
  3079                           	callstack 16
  3080   001BFC                     
  3081                           ;MCAL_Layer/Interrupt/mcal_external_interrupt.c: 166:     ((*((volatile INTCON_t *)(0xFF
      +                          2))).RBIF=0);
  3082   001BFC  90F2               	bcf	242,0,c	;volatile
  3083   001BFE                     
  3084                           ;MCAL_Layer/Interrupt/mcal_external_interrupt.c: 170:     if(RB5_InterruptHandler){RB5_I
      +                          nterruptHandler();}
  3085   001BFE  5053               	movf	_RB5_InterruptHandler^0,w,c
  3086   001C00  1054               	iorwf	(_RB5_InterruptHandler+1)^0,w,c
  3087   001C02  B4D8               	btfsc	status,2,c
  3088   001C04  EF06  F00E         	goto	i1u265_21
  3089   001C08  EF08  F00E         	goto	i1u265_20
  3090   001C0C                     i1u265_21:
  3091   001C0C  EF14  F00E         	goto	i1l538
  3092   001C10                     i1u265_20:
  3093   001C10  D802               	call	i1u266_28
  3094   001C12  EF14  F00E         	goto	i1u266_29
  3095   001C16                     i1u266_28:
  3096   001C16  0005               	push	
  3097   001C18  6EFA               	movwf	pclath,c
  3098   001C1A  5053               	movf	_RB5_InterruptHandler^0,w,c
  3099   001C1C  6EFD               	movwf	tosl,c
  3100   001C1E  5054               	movf	(_RB5_InterruptHandler+1)^0,w,c
  3101   001C20  6EFE               	movwf	tosh,c
  3102   001C22  6AFF               	clrf	tosu,c
  3103   001C24  50FA               	movf	pclath,w,c
  3104   001C26  0012               	return		;indir
  3105   001C28                     i1u266_29:
  3106   001C28                     i1l538:
  3107   001C28  0012               	return		;funcret
  3108   001C2A                     __end_of_RB5_ISR:
  3109                           	callstack 0
  3110                           
  3111 ;; *************** function _RB4_ISR *****************
  3112 ;; Defined at:
  3113 ;;		line 156 in file "MCAL_Layer/Interrupt/mcal_external_interrupt.c"
  3114 ;; Parameters:    Size  Location     Type
  3115 ;;		None
  3116 ;; Auto vars:     Size  Location     Type
  3117 ;;		None
  3118 ;; Return value:  Size  Location     Type
  3119 ;;                  1    wreg      void 
  3120 ;; Registers used:
  3121 ;;		wreg, fsr2l, fsr2h, status,2, status,0, pcl, pclath, pclatu, tosl, prodl, prodh, cstack
  3122 ;; Tracked objects:
  3123 ;;		On entry : 0/0
  3124 ;;		On exit  : 0/0
  3125 ;;		Unchanged: 0/0
  3126 ;; Data sizes:     COMRAM   BANK0   BANK1   BANK2   BANK3   BANK4   BANK5   BANK6   BANK7   BANK8   BANK9  BANK10  BANK1
      +1  BANK12  BANK13  BANK14  BANK15
  3127 ;;      Params:         0       0       0       0       0       0       0       0       0       0       0       0       
      +0       0       0       0       0
  3128 ;;      Locals:         0       0       0       0       0       0       0       0       0       0       0       0       
      +0       0       0       0       0
  3129 ;;      Temps:          0       0       0       0       0       0       0       0       0       0       0       0       
      +0       0       0       0       0
  3130 ;;      Totals:         0       0       0       0       0       0       0       0       0       0       0       0       
      +0       0       0       0       0
  3131 ;;Total ram usage:        0 bytes
  3132 ;; Hardware stack levels used: 1
  3133 ;; Hardware stack levels required when called: 8
  3134 ;; This function calls:
  3135 ;;		NULL
  3136 ;;		_RB4_INT_HANDLER
  3137 ;;		_RB5_INT_HANDLER
  3138 ;;		_RB6_INT_HANDLER
  3139 ;;		_RB7_INT_HANDLER
  3140 ;; This function is called by:
  3141 ;;		_InterruptManagerLow
  3142 ;; This function uses a non-reentrant model
  3143 ;;
  3144                           
  3145                           	psect	text22
  3146   001C2A                     __ptext22:
  3147                           	callstack 0
  3148   001C2A                     _RB4_ISR:
  3149                           	callstack 16
  3150   001C2A                     
  3151                           ;MCAL_Layer/Interrupt/mcal_external_interrupt.c: 158:     ((*((volatile INTCON_t *)(0xFF
      +                          2))).RBIF=0);
  3152   001C2A  90F2               	bcf	242,0,c	;volatile
  3153   001C2C                     
  3154                           ;MCAL_Layer/Interrupt/mcal_external_interrupt.c: 162:     if(RB4_InterruptHandler){RB4_I
      +                          nterruptHandler();}
  3155   001C2C  5055               	movf	_RB4_InterruptHandler^0,w,c
  3156   001C2E  1056               	iorwf	(_RB4_InterruptHandler+1)^0,w,c
  3157   001C30  B4D8               	btfsc	status,2,c
  3158   001C32  EF1D  F00E         	goto	i1u263_21
  3159   001C36  EF1F  F00E         	goto	i1u263_20
  3160   001C3A                     i1u263_21:
  3161   001C3A  EF2B  F00E         	goto	i1l534
  3162   001C3E                     i1u263_20:
  3163   001C3E  D802               	call	i1u264_28
  3164   001C40  EF2B  F00E         	goto	i1u264_29
  3165   001C44                     i1u264_28:
  3166   001C44  0005               	push	
  3167   001C46  6EFA               	movwf	pclath,c
  3168   001C48  5055               	movf	_RB4_InterruptHandler^0,w,c
  3169   001C4A  6EFD               	movwf	tosl,c
  3170   001C4C  5056               	movf	(_RB4_InterruptHandler+1)^0,w,c
  3171   001C4E  6EFE               	movwf	tosh,c
  3172   001C50  6AFF               	clrf	tosu,c
  3173   001C52  50FA               	movf	pclath,w,c
  3174   001C54  0012               	return		;indir
  3175   001C56                     i1u264_29:
  3176   001C56                     i1l534:
  3177   001C56  0012               	return		;funcret
  3178   001C58                     __end_of_RB4_ISR:
  3179                           	callstack 0
  3180                           
  3181 ;; *************** function _RB6_INT_HANDLER *****************
  3182 ;; Defined at:
  3183 ;;		line 19 in file "application.c"
  3184 ;; Parameters:    Size  Location     Type
  3185 ;;		None
  3186 ;; Auto vars:     Size  Location     Type
  3187 ;;		None
  3188 ;; Return value:  Size  Location     Type
  3189 ;;                  1    wreg      void 
  3190 ;; Registers used:
  3191 ;;		wreg, fsr2l, fsr2h, status,2, status,0, prodl, prodh, cstack
  3192 ;; Tracked objects:
  3193 ;;		On entry : 0/0
  3194 ;;		On exit  : 0/0
  3195 ;;		Unchanged: 0/0
  3196 ;; Data sizes:     COMRAM   BANK0   BANK1   BANK2   BANK3   BANK4   BANK5   BANK6   BANK7   BANK8   BANK9  BANK10  BANK1
      +1  BANK12  BANK13  BANK14  BANK15
  3197 ;;      Params:         0       0       0       0       0       0       0       0       0       0       0       0       
      +0       0       0       0       0
  3198 ;;      Locals:         0       0       0       0       0       0       0       0       0       0       0       0       
      +0       0       0       0       0
  3199 ;;      Temps:          0       0       0       0       0       0       0       0       0       0       0       0       
      +0       0       0       0       0
  3200 ;;      Totals:         0       0       0       0       0       0       0       0       0       0       0       0       
      +0       0       0       0       0
  3201 ;;Total ram usage:        0 bytes
  3202 ;; Hardware stack levels used: 1
  3203 ;; Hardware stack levels required when called: 7
  3204 ;; This function calls:
  3205 ;;		_led_toggle
  3206 ;; This function is called by:
  3207 ;;		_RB4_ISR
  3208 ;;		_RB5_ISR
  3209 ;;		_RB6_ISR
  3210 ;;		_RB7_ISR
  3211 ;;		i2_RB4_ISR
  3212 ;;		i2_RB5_ISR
  3213 ;;		i2_RB6_ISR
  3214 ;;		i2_RB7_ISR
  3215 ;; This function uses a non-reentrant model
  3216 ;;
  3217                           
  3218                           	psect	text23
  3219   001E34                     __ptext23:
  3220                           	callstack 0
  3221   001E34                     _RB6_INT_HANDLER:
  3222                           	callstack 0
  3223                           
  3224                           ;Skip over the trampoline to the duplicate function for level 2
  3225   001E34  A269               	btfss	int$flags,1,c
  3226   001E36  EF1F  F00F         	goto	_RB6_INT_HANDLER$intlevel1
  3227   001E3A  EF4A  F00F         	goto	i2_RB6_INT_HANDLER
  3228   001E3E                     _RB6_INT_HANDLER$intlevel1:
  3229                           	callstack 16
  3230   001E3E                     
  3231                           ;application.c: 20:     led_toggle(&led3);
  3232   001E3E  0E25               	movlw	low _led3
  3233   001E40  6E42               	movwf	led_toggle@led^0,c
  3234   001E42  0E00               	movlw	high _led3
  3235   001E44  6E43               	movwf	(led_toggle@led+1)^0,c
  3236   001E46  EC70  F00C         	call	_led_toggle	;wreg free
  3237   001E4A  0012               	return		;funcret
  3238   001E4C                     __end_of_RB6_INT_HANDLER:
  3239                           	callstack 0
  3240                           
  3241 ;; *************** function _RB5_INT_HANDLER *****************
  3242 ;; Defined at:
  3243 ;;		line 16 in file "application.c"
  3244 ;; Parameters:    Size  Location     Type
  3245 ;;		None
  3246 ;; Auto vars:     Size  Location     Type
  3247 ;;		None
  3248 ;; Return value:  Size  Location     Type
  3249 ;;                  1    wreg      void 
  3250 ;; Registers used:
  3251 ;;		wreg, fsr2l, fsr2h, status,2, status,0, prodl, prodh, cstack
  3252 ;; Tracked objects:
  3253 ;;		On entry : 0/0
  3254 ;;		On exit  : 0/0
  3255 ;;		Unchanged: 0/0
  3256 ;; Data sizes:     COMRAM   BANK0   BANK1   BANK2   BANK3   BANK4   BANK5   BANK6   BANK7   BANK8   BANK9  BANK10  BANK1
      +1  BANK12  BANK13  BANK14  BANK15
  3257 ;;      Params:         0       0       0       0       0       0       0       0       0       0       0       0       
      +0       0       0       0       0
  3258 ;;      Locals:         0       0       0       0       0       0       0       0       0       0       0       0       
      +0       0       0       0       0
  3259 ;;      Temps:          0       0       0       0       0       0       0       0       0       0       0       0       
      +0       0       0       0       0
  3260 ;;      Totals:         0       0       0       0       0       0       0       0       0       0       0       0       
      +0       0       0       0       0
  3261 ;;Total ram usage:        0 bytes
  3262 ;; Hardware stack levels used: 1
  3263 ;; Hardware stack levels required when called: 7
  3264 ;; This function calls:
  3265 ;;		_led_toggle
  3266 ;; This function is called by:
  3267 ;;		_RB4_ISR
  3268 ;;		_RB5_ISR
  3269 ;;		_RB6_ISR
  3270 ;;		_RB7_ISR
  3271 ;;		i2_RB4_ISR
  3272 ;;		i2_RB5_ISR
  3273 ;;		i2_RB6_ISR
  3274 ;;		i2_RB7_ISR
  3275 ;; This function uses a non-reentrant model
  3276 ;;
  3277                           
  3278                           	psect	text24
  3279   001E4C                     __ptext24:
  3280                           	callstack 0
  3281   001E4C                     _RB5_INT_HANDLER:
  3282                           	callstack 0
  3283                           
  3284                           ;Skip over the trampoline to the duplicate function for level 2
  3285   001E4C  A269               	btfss	int$flags,1,c
  3286   001E4E  EF2B  F00F         	goto	_RB5_INT_HANDLER$intlevel1
  3287   001E52  EF51  F00F         	goto	i2_RB5_INT_HANDLER
  3288   001E56                     _RB5_INT_HANDLER$intlevel1:
  3289                           	callstack 16
  3290   001E56                     
  3291                           ;application.c: 17:     led_toggle(&led2);
  3292   001E56  0E26               	movlw	low _led2
  3293   001E58  6E42               	movwf	led_toggle@led^0,c
  3294   001E5A  0E00               	movlw	high _led2
  3295   001E5C  6E43               	movwf	(led_toggle@led+1)^0,c
  3296   001E5E  EC70  F00C         	call	_led_toggle	;wreg free
  3297   001E62  0012               	return		;funcret
  3298   001E64                     __end_of_RB5_INT_HANDLER:
  3299                           	callstack 0
  3300                           
  3301 ;; *************** function _RB4_INT_HANDLER *****************
  3302 ;; Defined at:
  3303 ;;		line 13 in file "application.c"
  3304 ;; Parameters:    Size  Location     Type
  3305 ;;		None
  3306 ;; Auto vars:     Size  Location     Type
  3307 ;;		None
  3308 ;; Return value:  Size  Location     Type
  3309 ;;                  1    wreg      void 
  3310 ;; Registers used:
  3311 ;;		wreg, fsr2l, fsr2h, status,2, status,0, prodl, prodh, cstack
  3312 ;; Tracked objects:
  3313 ;;		On entry : 0/0
  3314 ;;		On exit  : 0/0
  3315 ;;		Unchanged: 0/0
  3316 ;; Data sizes:     COMRAM   BANK0   BANK1   BANK2   BANK3   BANK4   BANK5   BANK6   BANK7   BANK8   BANK9  BANK10  BANK1
      +1  BANK12  BANK13  BANK14  BANK15
  3317 ;;      Params:         0       0       0       0       0       0       0       0       0       0       0       0       
      +0       0       0       0       0
  3318 ;;      Locals:         0       0       0       0       0       0       0       0       0       0       0       0       
      +0       0       0       0       0
  3319 ;;      Temps:          0       0       0       0       0       0       0       0       0       0       0       0       
      +0       0       0       0       0
  3320 ;;      Totals:         0       0       0       0       0       0       0       0       0       0       0       0       
      +0       0       0       0       0
  3321 ;;Total ram usage:        0 bytes
  3322 ;; Hardware stack levels used: 1
  3323 ;; Hardware stack levels required when called: 7
  3324 ;; This function calls:
  3325 ;;		_led_toggle
  3326 ;; This function is called by:
  3327 ;;		_RB4_ISR
  3328 ;;		_RB5_ISR
  3329 ;;		_RB6_ISR
  3330 ;;		_RB7_ISR
  3331 ;;		i2_RB4_ISR
  3332 ;;		i2_RB5_ISR
  3333 ;;		i2_RB6_ISR
  3334 ;;		i2_RB7_ISR
  3335 ;; This function uses a non-reentrant model
  3336 ;;
  3337                           
  3338                           	psect	text25
  3339   001E64                     __ptext25:
  3340                           	callstack 0
  3341   001E64                     _RB4_INT_HANDLER:
  3342                           	callstack 0
  3343                           
  3344                           ;Skip over the trampoline to the duplicate function for level 2
  3345   001E64  A269               	btfss	int$flags,1,c
  3346   001E66  EF37  F00F         	goto	_RB4_INT_HANDLER$intlevel1
  3347   001E6A  EF58  F00F         	goto	i2_RB4_INT_HANDLER
  3348   001E6E                     _RB4_INT_HANDLER$intlevel1:
  3349                           	callstack 16
  3350   001E6E                     
  3351                           ;application.c: 14:     led_toggle(&led1);
  3352   001E6E  0E27               	movlw	low _led1
  3353   001E70  6E42               	movwf	led_toggle@led^0,c
  3354   001E72  0E00               	movlw	high _led1
  3355   001E74  6E43               	movwf	(led_toggle@led+1)^0,c
  3356   001E76  EC70  F00C         	call	_led_toggle	;wreg free
  3357   001E7A  0012               	return		;funcret
  3358   001E7C                     __end_of_RB4_INT_HANDLER:
  3359                           	callstack 0
  3360                           
  3361 ;; *************** function _RB7_INT_HANDLER *****************
  3362 ;; Defined at:
  3363 ;;		line 22 in file "application.c"
  3364 ;; Parameters:    Size  Location     Type
  3365 ;;		None
  3366 ;; Auto vars:     Size  Location     Type
  3367 ;;		None
  3368 ;; Return value:  Size  Location     Type
  3369 ;;                  1    wreg      void 
  3370 ;; Registers used:
  3371 ;;		wreg, fsr2l, fsr2h, status,2, status,0, prodl, prodh, cstack
  3372 ;; Tracked objects:
  3373 ;;		On entry : 0/0
  3374 ;;		On exit  : 0/0
  3375 ;;		Unchanged: 0/0
  3376 ;; Data sizes:     COMRAM   BANK0   BANK1   BANK2   BANK3   BANK4   BANK5   BANK6   BANK7   BANK8   BANK9  BANK10  BANK1
      +1  BANK12  BANK13  BANK14  BANK15
  3377 ;;      Params:         0       0       0       0       0       0       0       0       0       0       0       0       
      +0       0       0       0       0
  3378 ;;      Locals:         0       0       0       0       0       0       0       0       0       0       0       0       
      +0       0       0       0       0
  3379 ;;      Temps:          0       0       0       0       0       0       0       0       0       0       0       0       
      +0       0       0       0       0
  3380 ;;      Totals:         0       0       0       0       0       0       0       0       0       0       0       0       
      +0       0       0       0       0
  3381 ;;Total ram usage:        0 bytes
  3382 ;; Hardware stack levels used: 1
  3383 ;; Hardware stack levels required when called: 7
  3384 ;; This function calls:
  3385 ;;		_led_toggle
  3386 ;; This function is called by:
  3387 ;;		_RB4_ISR
  3388 ;;		_RB5_ISR
  3389 ;;		_RB6_ISR
  3390 ;;		_RB7_ISR
  3391 ;;		i2_RB4_ISR
  3392 ;;		i2_RB5_ISR
  3393 ;;		i2_RB6_ISR
  3394 ;;		i2_RB7_ISR
  3395 ;; This function uses a non-reentrant model
  3396 ;;
  3397                           
  3398                           	psect	text26
  3399   001E7C                     __ptext26:
  3400                           	callstack 0
  3401   001E7C                     _RB7_INT_HANDLER:
  3402                           	callstack 0
  3403                           
  3404                           ;Skip over the trampoline to the duplicate function for level 2
  3405   001E7C  A269               	btfss	int$flags,1,c
  3406   001E7E  EF43  F00F         	goto	_RB7_INT_HANDLER$intlevel1
  3407   001E82  EF5F  F00F         	goto	i2_RB7_INT_HANDLER
  3408   001E86                     _RB7_INT_HANDLER$intlevel1:
  3409                           	callstack 16
  3410   001E86                     
  3411                           ;application.c: 23:     led_toggle(&led4);
  3412   001E86  0E24               	movlw	low _led4
  3413   001E88  6E42               	movwf	led_toggle@led^0,c
  3414   001E8A  0E00               	movlw	high _led4
  3415   001E8C  6E43               	movwf	(led_toggle@led+1)^0,c
  3416   001E8E  EC70  F00C         	call	_led_toggle	;wreg free
  3417   001E92  0012               	return		;funcret
  3418   001E94                     __end_of_RB7_INT_HANDLER:
  3419                           	callstack 0
  3420                           
  3421 ;; *************** function _led_toggle *****************
  3422 ;; Defined at:
  3423 ;;		line 55 in file "ECU_Layer/LED/ecu_led.c"
  3424 ;; Parameters:    Size  Location     Type
  3425 ;;  led             2   26[COMRAM] PTR const struct .
  3426 ;;		 -> led4(1), led3(1), led2(1), led1(1), 
  3427 ;; Auto vars:     Size  Location     Type
  3428 ;;  pin_obj         1   29[COMRAM] struct .
  3429 ;;  ret             1    0        unsigned char 
  3430 ;; Return value:  Size  Location     Type
  3431 ;;                  1    wreg      unsigned char 
  3432 ;; Registers used:
  3433 ;;		wreg, fsr2l, fsr2h, status,2, status,0, prodl, prodh, cstack
  3434 ;; Tracked objects:
  3435 ;;		On entry : 0/0
  3436 ;;		On exit  : 0/0
  3437 ;;		Unchanged: 0/0
  3438 ;; Data sizes:     COMRAM   BANK0   BANK1   BANK2   BANK3   BANK4   BANK5   BANK6   BANK7   BANK8   BANK9  BANK10  BANK1
      +1  BANK12  BANK13  BANK14  BANK15
  3439 ;;      Params:         2       0       0       0       0       0       0       0       0       0       0       0       
      +0       0       0       0       0
  3440 ;;      Locals:         1       0       0       0       0       0       0       0       0       0       0       0       
      +0       0       0       0       0
  3441 ;;      Temps:          1       0       0       0       0       0       0       0       0       0       0       0       
      +0       0       0       0       0
  3442 ;;      Totals:         4       0       0       0       0       0       0       0       0       0       0       0       
      +0       0       0       0       0
  3443 ;;Total ram usage:        4 bytes
  3444 ;; Hardware stack levels used: 1
  3445 ;; Hardware stack levels required when called: 6
  3446 ;; This function calls:
  3447 ;;		_gpio_pin_toggle_logic
  3448 ;; This function is called by:
  3449 ;;		_RB4_INT_HANDLER
  3450 ;;		_RB5_INT_HANDLER
  3451 ;;		_RB6_INT_HANDLER
  3452 ;;		_RB7_INT_HANDLER
  3453 ;; This function uses a non-reentrant model
  3454 ;;
  3455                           
  3456                           	psect	text27
  3457   0018E0                     __ptext27:
  3458                           	callstack 0
  3459   0018E0                     _led_toggle:
  3460                           	callstack 16
  3461   0018E0                     
  3462                           ;ECU_Layer/LED/ecu_led.c: 57:     pin_config_t pin_obj={.port = led->port_name,.pin = le
      +                          d->pin,.direction=OUTPUT,.logic=led->led_status };
  3463   0018E0  C065  F045         	movff	led_toggle@F3170,led_toggle@pin_obj
  3464   0018E4  C042  FFD9         	movff	led_toggle@led,fsr2l
  3465   0018E8  C043  FFDA         	movff	led_toggle@led+1,fsr2h
  3466   0018EC  50DF               	movf	223,w,c
  3467   0018EE  0B0F               	andlw	15
  3468   0018F0  6E44               	movwf	??_led_toggle^0,c
  3469   0018F2  5045               	movf	led_toggle@pin_obj^0,w,c
  3470   0018F4  1844               	xorwf	??_led_toggle^0,w,c
  3471   0018F6  0BF8               	andlw	-8
  3472   0018F8  1844               	xorwf	??_led_toggle^0,w,c
  3473   0018FA  6E45               	movwf	led_toggle@pin_obj^0,c
  3474   0018FC  C042  FFD9         	movff	led_toggle@led,fsr2l
  3475   001900  C043  FFDA         	movff	led_toggle@led+1,fsr2h
  3476   001904  38DF               	swapf	223,w,c
  3477   001906  0B07               	andlw	7
  3478   001908  6E44               	movwf	??_led_toggle^0,c
  3479   00190A  4644               	rlncf	??_led_toggle^0,f,c
  3480   00190C  4644               	rlncf	??_led_toggle^0,f,c
  3481   00190E  4644               	rlncf	??_led_toggle^0,f,c
  3482   001910  5045               	movf	led_toggle@pin_obj^0,w,c
  3483   001912  1844               	xorwf	??_led_toggle^0,w,c
  3484   001914  0BC7               	andlw	-57
  3485   001916  1844               	xorwf	??_led_toggle^0,w,c
  3486   001918  6E45               	movwf	led_toggle@pin_obj^0,c
  3487   00191A  9C45               	bcf	led_toggle@pin_obj^0,6,c
  3488   00191C  C042  FFD9         	movff	led_toggle@led,fsr2l
  3489   001920  C043  FFDA         	movff	led_toggle@led+1,fsr2h
  3490   001924  AEDF               	btfss	indf2,7,c
  3491   001926  D002               	bra	i1u231_25
  3492   001928  8E45               	bsf	led_toggle@pin_obj^0,7,c
  3493   00192A  D001               	bra	i1u231_27
  3494   00192C                     i1u231_25:
  3495   00192C  9E45               	bcf	led_toggle@pin_obj^0,7,c
  3496   00192E                     i1u231_27:
  3497   00192E                     
  3498                           ;ECU_Layer/LED/ecu_led.c: 58:     if(led==((void*)0)){
  3499   00192E  5042               	movf	led_toggle@led^0,w,c
  3500   001930  1043               	iorwf	(led_toggle@led+1)^0,w,c
  3501   001932  A4D8               	btfss	status,2,c
  3502   001934  EF9E  F00C         	goto	i1u232_21
  3503   001938  EFA0  F00C         	goto	i1u232_20
  3504   00193C                     i1u232_21:
  3505   00193C  EFA2  F00C         	goto	i1l3245
  3506   001940                     i1u232_20:
  3507   001940                     
  3508                           ;ECU_Layer/LED/ecu_led.c: 60:     }
  3509   001940  EFA8  F00C         	goto	i1l305
  3510   001944                     i1l3245:
  3511   001944  0E45               	movlw	low led_toggle@pin_obj
  3512   001946  6E3A               	movwf	gpio_pin_toggle_logic@pin_config^0,c
  3513   001948  0E00               	movlw	high led_toggle@pin_obj
  3514   00194A  6E3B               	movwf	(gpio_pin_toggle_logic@pin_config+1)^0,c
  3515   00194C  ECF5  F00A         	call	_gpio_pin_toggle_logic	;wreg free
  3516   001950                     i1l305:
  3517   001950  0012               	return		;funcret
  3518   001952                     __end_of_led_toggle:
  3519                           	callstack 0
  3520                           
  3521 ;; *************** function _gpio_pin_toggle_logic *****************
  3522 ;; Defined at:
  3523 ;;		line 141 in file "MCAL_Layer/GPIO/hal_gpio.c"
  3524 ;; Parameters:    Size  Location     Type
  3525 ;;  pin_config      2   18[COMRAM] PTR const struct .
  3526 ;;		 -> led_toggle@pin_obj(1), 
  3527 ;; Auto vars:     Size  Location     Type
  3528 ;;  ret             1   25[COMRAM] unsigned char 
  3529 ;; Return value:  Size  Location     Type
  3530 ;;                  1    wreg      unsigned char 
  3531 ;; Registers used:
  3532 ;;		wreg, fsr2l, fsr2h, status,2, status,0, prodl, prodh
  3533 ;; Tracked objects:
  3534 ;;		On entry : 0/0
  3535 ;;		On exit  : 0/0
  3536 ;;		Unchanged: 0/0
  3537 ;; Data sizes:     COMRAM   BANK0   BANK1   BANK2   BANK3   BANK4   BANK5   BANK6   BANK7   BANK8   BANK9  BANK10  BANK1
      +1  BANK12  BANK13  BANK14  BANK15
  3538 ;;      Params:         2       0       0       0       0       0       0       0       0       0       0       0       
      +0       0       0       0       0
  3539 ;;      Locals:         1       0       0       0       0       0       0       0       0       0       0       0       
      +0       0       0       0       0
  3540 ;;      Temps:          5       0       0       0       0       0       0       0       0       0       0       0       
      +0       0       0       0       0
  3541 ;;      Totals:         8       0       0       0       0       0       0       0       0       0       0       0       
      +0       0       0       0       0
  3542 ;;Total ram usage:        8 bytes
  3543 ;; Hardware stack levels used: 1
  3544 ;; Hardware stack levels required when called: 5
  3545 ;; This function calls:
  3546 ;;		Nothing
  3547 ;; This function is called by:
  3548 ;;		_led_toggle
  3549 ;; This function uses a non-reentrant model
  3550 ;;
  3551                           
  3552                           	psect	text28
  3553   0015EA                     __ptext28:
  3554                           	callstack 0
  3555   0015EA                     _gpio_pin_toggle_logic:
  3556                           	callstack 16
  3557   0015EA                     
  3558                           ;MCAL_Layer/GPIO/hal_gpio.c: 142:       Std_ReturnType ret=(Std_ReturnType)0x01;
  3559   0015EA  0E01               	movlw	1
  3560   0015EC  6E41               	movwf	gpio_pin_toggle_logic@ret^0,c
  3561   0015EE                     
  3562                           ;MCAL_Layer/GPIO/hal_gpio.c: 143:     if((pin_config==((void*)0))||(pin_config->pin>8 -1
      +                          )||(pin_config->port>5 -1)){
  3563   0015EE  503A               	movf	gpio_pin_toggle_logic@pin_config^0,w,c
  3564   0015F0  103B               	iorwf	(gpio_pin_toggle_logic@pin_config+1)^0,w,c
  3565   0015F2  B4D8               	btfsc	status,2,c
  3566   0015F4  EFFE  F00A         	goto	i1u221_21
  3567   0015F8  EF00  F00B         	goto	i1u221_20
  3568   0015FC                     i1u221_21:
  3569   0015FC  EF20  F00B         	goto	i1l3185
  3570   001600                     i1u221_20:
  3571   001600  C03A  FFD9         	movff	gpio_pin_toggle_logic@pin_config,fsr2l
  3572   001604  C03B  FFDA         	movff	gpio_pin_toggle_logic@pin_config+1,fsr2h
  3573   001608  30DF               	rrcf	223,w,c
  3574   00160A  32E8               	rrcf	wreg,f,c
  3575   00160C  32E8               	rrcf	wreg,f,c
  3576   00160E  0B07               	andlw	7
  3577   001610  6E3C               	movwf	??_gpio_pin_toggle_logic^0,c
  3578   001612  0E08               	movlw	8
  3579   001614  603C               	cpfslt	??_gpio_pin_toggle_logic^0,c
  3580   001616  EF0F  F00B         	goto	i1u222_21
  3581   00161A  EF11  F00B         	goto	i1u222_20
  3582   00161E                     i1u222_21:
  3583   00161E  EF20  F00B         	goto	i1l3185
  3584   001622                     i1u222_20:
  3585   001622  C03A  FFD9         	movff	gpio_pin_toggle_logic@pin_config,fsr2l
  3586   001626  C03B  FFDA         	movff	gpio_pin_toggle_logic@pin_config+1,fsr2h
  3587   00162A  50DF               	movf	223,w,c
  3588   00162C  0B07               	andlw	7
  3589   00162E  6E3C               	movwf	??_gpio_pin_toggle_logic^0,c
  3590   001630  0E04               	movlw	4
  3591   001632  643C               	cpfsgt	??_gpio_pin_toggle_logic^0,c
  3592   001634  EF1E  F00B         	goto	i1u223_21
  3593   001638  EF20  F00B         	goto	i1u223_20
  3594   00163C                     i1u223_21:
  3595   00163C  EF24  F00B         	goto	i1l3187
  3596   001640                     i1u223_20:
  3597   001640                     i1l3185:
  3598                           
  3599                           ;MCAL_Layer/GPIO/hal_gpio.c: 144:         ret=(Std_ReturnType)0x00;
  3600   001640  0E00               	movlw	0
  3601   001642  6E41               	movwf	gpio_pin_toggle_logic@ret^0,c
  3602                           
  3603                           ;MCAL_Layer/GPIO/hal_gpio.c: 145:     }
  3604   001644  EF50  F00B         	goto	i1l3189
  3605   001648                     i1l3187:
  3606                           
  3607                           ;MCAL_Layer/GPIO/hal_gpio.c: 147:         (*(lat_registers[pin_config->port])^=((uint8)0
      +                          x01<<pin_config->pin));
  3608   001648  C03A  FFD9         	movff	gpio_pin_toggle_logic@pin_config,fsr2l
  3609   00164C  C03B  FFDA         	movff	gpio_pin_toggle_logic@pin_config+1,fsr2h
  3610   001650  30DF               	rrcf	223,w,c
  3611   001652  32E8               	rrcf	wreg,f,c
  3612   001654  32E8               	rrcf	wreg,f,c
  3613   001656  0B07               	andlw	7
  3614   001658  6E3C               	movwf	??_gpio_pin_toggle_logic^0,c
  3615   00165A  0E01               	movlw	1
  3616   00165C  6E3D               	movwf	(??_gpio_pin_toggle_logic+1)^0,c
  3617   00165E  2A3C               	incf	??_gpio_pin_toggle_logic^0,f,c
  3618   001660  EF34  F00B         	goto	i1u224_24
  3619   001664                     i1u224_25:
  3620   001664  90D8               	bcf	status,0,c
  3621   001666  363D               	rlcf	(??_gpio_pin_toggle_logic+1)^0,f,c
  3622   001668                     i1u224_24:
  3623   001668  2E3C               	decfsz	??_gpio_pin_toggle_logic^0,f,c
  3624   00166A  EF32  F00B         	goto	i1u224_25
  3625   00166E  C03A  FFD9         	movff	gpio_pin_toggle_logic@pin_config,fsr2l
  3626   001672  C03B  FFDA         	movff	gpio_pin_toggle_logic@pin_config+1,fsr2h
  3627   001676  50DF               	movf	223,w,c
  3628   001678  0B07               	andlw	7
  3629   00167A  6E3E               	movwf	(??_gpio_pin_toggle_logic+2)^0,c
  3630   00167C  503E               	movf	(??_gpio_pin_toggle_logic+2)^0,w,c
  3631   00167E  0D02               	mullw	2
  3632   001680  0E01               	movlw	low _lat_registers
  3633   001682  24F3               	addwf	243,w,c
  3634   001684  6ED9               	movwf	fsr2l,c
  3635   001686  0E00               	movlw	high _lat_registers
  3636   001688  20F4               	addwfc	prodh,w,c
  3637   00168A  6EDA               	movwf	fsr2h,c
  3638   00168C  CFDE F03F          	movff	postinc2,??_gpio_pin_toggle_logic+3
  3639   001690  CFDD F040          	movff	postdec2,??_gpio_pin_toggle_logic+4
  3640   001694  C03F  FFD9         	movff	??_gpio_pin_toggle_logic+3,fsr2l
  3641   001698  C040  FFDA         	movff	??_gpio_pin_toggle_logic+4,fsr2h
  3642   00169C  503D               	movf	(??_gpio_pin_toggle_logic+1)^0,w,c
  3643   00169E  1ADF               	xorwf	indf2,f,c
  3644   0016A0                     i1l3189:
  3645                           
  3646                           ;MCAL_Layer/GPIO/hal_gpio.c: 149:     return ret;
  3647   0016A0  5041               	movf	gpio_pin_toggle_logic@ret^0,w,c
  3648   0016A2  0012               	return		;funcret
  3649   0016A4                     __end_of_gpio_pin_toggle_logic:
  3650                           	callstack 0
  3651                           
  3652 ;; *************** function _INT2_ISR *****************
  3653 ;; Defined at:
  3654 ;;		line 148 in file "MCAL_Layer/Interrupt/mcal_external_interrupt.c"
  3655 ;; Parameters:    Size  Location     Type
  3656 ;;		None
  3657 ;; Auto vars:     Size  Location     Type
  3658 ;;		None
  3659 ;; Return value:  Size  Location     Type
  3660 ;;                  1    wreg      void 
  3661 ;; Registers used:
  3662 ;;		None
  3663 ;; Tracked objects:
  3664 ;;		On entry : 0/0
  3665 ;;		On exit  : 0/0
  3666 ;;		Unchanged: 0/0
  3667 ;; Data sizes:     COMRAM   BANK0   BANK1   BANK2   BANK3   BANK4   BANK5   BANK6   BANK7   BANK8   BANK9  BANK10  BANK1
      +1  BANK12  BANK13  BANK14  BANK15
  3668 ;;      Params:         0       0       0       0       0       0       0       0       0       0       0       0       
      +0       0       0       0       0
  3669 ;;      Locals:         0       0       0       0       0       0       0       0       0       0       0       0       
      +0       0       0       0       0
  3670 ;;      Temps:          0       0       0       0       0       0       0       0       0       0       0       0       
      +0       0       0       0       0
  3671 ;;      Totals:         0       0       0       0       0       0       0       0       0       0       0       0       
      +0       0       0       0       0
  3672 ;;Total ram usage:        0 bytes
  3673 ;; Hardware stack levels used: 1
  3674 ;; Hardware stack levels required when called: 5
  3675 ;; This function calls:
  3676 ;;		Nothing
  3677 ;; This function is called by:
  3678 ;;		_InterruptManagerLow
  3679 ;; This function uses a non-reentrant model
  3680 ;;
  3681                           
  3682                           	psect	text29
  3683   001ED2                     __ptext29:
  3684                           	callstack 0
  3685   001ED2                     _INT2_ISR:
  3686                           	callstack 19
  3687   001ED2                     
  3688                           ;MCAL_Layer/Interrupt/mcal_external_interrupt.c: 150:     ((*((volatile INTCON3_t *)(0xF
      +                          F0))).INT2IF=0);
  3689   001ED2  92F0               	bcf	240,1,c	;volatile
  3690   001ED4  0012               	return		;funcret
  3691   001ED6                     __end_of_INT2_ISR:
  3692                           	callstack 0
  3693                           
  3694 ;; *************** function _INT1_ISR *****************
  3695 ;; Defined at:
  3696 ;;		line 140 in file "MCAL_Layer/Interrupt/mcal_external_interrupt.c"
  3697 ;; Parameters:    Size  Location     Type
  3698 ;;		None
  3699 ;; Auto vars:     Size  Location     Type
  3700 ;;		None
  3701 ;; Return value:  Size  Location     Type
  3702 ;;                  1    wreg      void 
  3703 ;; Registers used:
  3704 ;;		None
  3705 ;; Tracked objects:
  3706 ;;		On entry : 0/0
  3707 ;;		On exit  : 0/0
  3708 ;;		Unchanged: 0/0
  3709 ;; Data sizes:     COMRAM   BANK0   BANK1   BANK2   BANK3   BANK4   BANK5   BANK6   BANK7   BANK8   BANK9  BANK10  BANK1
      +1  BANK12  BANK13  BANK14  BANK15
  3710 ;;      Params:         0       0       0       0       0       0       0       0       0       0       0       0       
      +0       0       0       0       0
  3711 ;;      Locals:         0       0       0       0       0       0       0       0       0       0       0       0       
      +0       0       0       0       0
  3712 ;;      Temps:          0       0       0       0       0       0       0       0       0       0       0       0       
      +0       0       0       0       0
  3713 ;;      Totals:         0       0       0       0       0       0       0       0       0       0       0       0       
      +0       0       0       0       0
  3714 ;;Total ram usage:        0 bytes
  3715 ;; Hardware stack levels used: 1
  3716 ;; Hardware stack levels required when called: 5
  3717 ;; This function calls:
  3718 ;;		Nothing
  3719 ;; This function is called by:
  3720 ;;		_InterruptManagerLow
  3721 ;; This function uses a non-reentrant model
  3722 ;;
  3723                           
  3724                           	psect	text30
  3725   001ED6                     __ptext30:
  3726                           	callstack 0
  3727   001ED6                     _INT1_ISR:
  3728                           	callstack 19
  3729   001ED6                     
  3730                           ;MCAL_Layer/Interrupt/mcal_external_interrupt.c: 142:     ((*((volatile INTCON3_t *)(0xF
      +                          F0))).INT1IF=0);
  3731   001ED6  90F0               	bcf	240,0,c	;volatile
  3732   001ED8  0012               	return		;funcret
  3733   001EDA                     __end_of_INT1_ISR:
  3734                           	callstack 0
  3735                           
  3736 ;; *************** function _InterruptManagerHigh *****************
  3737 ;; Defined at:
  3738 ;;		line 3 in file "MCAL_Layer/Interrupt/mcal_interrupt_manager.c"
  3739 ;; Parameters:    Size  Location     Type
  3740 ;;		None
  3741 ;; Auto vars:     Size  Location     Type
  3742 ;;		None
  3743 ;; Return value:  Size  Location     Type
  3744 ;;                  1    wreg      void 
  3745 ;; Registers used:
  3746 ;;		wreg, fsr2l, fsr2h, status,2, status,0, pcl, pclath, pclatu, tosl, prodl, prodh, cstack
  3747 ;; Tracked objects:
  3748 ;;		On entry : 0/0
  3749 ;;		On exit  : 0/0
  3750 ;;		Unchanged: 0/0
  3751 ;; Data sizes:     COMRAM   BANK0   BANK1   BANK2   BANK3   BANK4   BANK5   BANK6   BANK7   BANK8   BANK9  BANK10  BANK1
      +1  BANK12  BANK13  BANK14  BANK15
  3752 ;;      Params:         0       0       0       0       0       0       0       0       0       0       0       0       
      +0       0       0       0       0
  3753 ;;      Locals:         0       0       0       0       0       0       0       0       0       0       0       0       
      +0       0       0       0       0
  3754 ;;      Temps:          6       0       0       0       0       0       0       0       0       0       0       0       
      +0       0       0       0       0
  3755 ;;      Totals:         6       0       0       0       0       0       0       0       0       0       0       0       
      +0       0       0       0       0
  3756 ;;Total ram usage:        6 bytes
  3757 ;; Hardware stack levels used: 1
  3758 ;; Hardware stack levels required when called: 4
  3759 ;; This function calls:
  3760 ;;		_INT0_ISR
  3761 ;;		i2_INT1_ISR
  3762 ;;		i2_INT2_ISR
  3763 ;;		i2_RB4_ISR
  3764 ;;		i2_RB5_ISR
  3765 ;;		i2_RB6_ISR
  3766 ;;		i2_RB7_ISR
  3767 ;; This function is called by:
  3768 ;;		Interrupt level 2
  3769 ;; This function uses a non-reentrant model
  3770 ;;
  3771                           
  3772                           	psect	intcode
  3773   000008                     __pintcode:
  3774                           	callstack 0
  3775   000008                     _InterruptManagerHigh:
  3776                           	callstack 16
  3777                           
  3778                           ;incstack = 0
  3779   000008  8269               	bsf	int$flags,1,c	;set compiler interrupt flag (level 2)
  3780   00000A  ED0B  F008         	call	int_func,f	;refresh shadow registers
  3781                           
  3782                           	psect	intcode_body
  3783   001016                     __pintcode_body:
  3784                           	callstack 16
  3785   001016                     int_func:
  3786                           	callstack 16
  3787   001016  0006               	pop		; remove dummy address from shadow register refresh
  3788   001018  CFFA F034          	movff	pclath,??_InterruptManagerHigh
  3789   00101C  CFFB F035          	movff	pclatu,??_InterruptManagerHigh+1
  3790   001020  CFD9 F036          	movff	fsr2l,??_InterruptManagerHigh+2
  3791   001024  CFDA F037          	movff	fsr2h,??_InterruptManagerHigh+3
  3792   001028  CFF3 F038          	movff	prodl,??_InterruptManagerHigh+4
  3793   00102C  CFF4 F039          	movff	prodh,??_InterruptManagerHigh+5
  3794   001030                     
  3795                           ;MCAL_Layer/Interrupt/mcal_interrupt_manager.c: 4:     if((1 == (*((volatile INTCON_t *)
      +                          (0xFF2))).INT0IE)&&(1 == (*((volatile INTCON_t *)(0xFF2))).INT0IF)){
  3796   001030  A8F2               	btfss	242,4,c	;volatile
  3797   001032  EF1D  F008         	goto	i2u340_41
  3798   001036  EF1F  F008         	goto	i2u340_40
  3799   00103A                     i2u340_41:
  3800   00103A  EF28  F008         	goto	i2l759
  3801   00103E                     i2u340_40:
  3802   00103E  A2F2               	btfss	242,1,c	;volatile
  3803   001040  EF24  F008         	goto	i2u341_41
  3804   001044  EF26  F008         	goto	i2u341_40
  3805   001048                     i2u341_41:
  3806   001048  EF28  F008         	goto	i2l759
  3807   00104C                     i2u341_40:
  3808   00104C                     
  3809                           ;MCAL_Layer/Interrupt/mcal_interrupt_manager.c: 5:         INT0_ISR();
  3810   00104C  EC71  F00F         	call	_INT0_ISR	;wreg free
  3811   001050                     i2l759:
  3812                           
  3813                           ;MCAL_Layer/Interrupt/mcal_interrupt_manager.c: 8:      if((1 == (*((volatile INTCON3_t 
      +                          *)(0xFF0))).INT1IP)&&(1 == (*((volatile INTCON3_t *)(0xFF0))).INT1IF)){
  3814   001050  ACF0               	btfss	240,6,c	;volatile
  3815   001052  EF2D  F008         	goto	i2u342_41
  3816   001056  EF2F  F008         	goto	i2u342_40
  3817   00105A                     i2u342_41:
  3818   00105A  EF38  F008         	goto	i2l761
  3819   00105E                     i2u342_40:
  3820   00105E  A0F0               	btfss	240,0,c	;volatile
  3821   001060  EF34  F008         	goto	i2u343_41
  3822   001064  EF36  F008         	goto	i2u343_40
  3823   001068                     i2u343_41:
  3824   001068  EF38  F008         	goto	i2l761
  3825   00106C                     i2u343_40:
  3826   00106C                     
  3827                           ;MCAL_Layer/Interrupt/mcal_interrupt_manager.c: 9:         INT1_ISR();
  3828   00106C  EC6F  F00F         	call	i2_INT1_ISR	;wreg free
  3829   001070                     i2l761:
  3830                           
  3831                           ;MCAL_Layer/Interrupt/mcal_interrupt_manager.c: 12:     if((1 == (*((volatile INTCON3_t 
      +                          *)(0xFF0))).INT2IP)&&(1 == (*((volatile INTCON3_t *)(0xFF0))).INT2IF)){
  3832   001070  AEF0               	btfss	240,7,c	;volatile
  3833   001072  EF3D  F008         	goto	i2u344_41
  3834   001076  EF3F  F008         	goto	i2u344_40
  3835   00107A                     i2u344_41:
  3836   00107A  EF48  F008         	goto	i2l763
  3837   00107E                     i2u344_40:
  3838   00107E  A2F0               	btfss	240,1,c	;volatile
  3839   001080  EF44  F008         	goto	i2u345_41
  3840   001084  EF46  F008         	goto	i2u345_40
  3841   001088                     i2u345_41:
  3842   001088  EF48  F008         	goto	i2l763
  3843   00108C                     i2u345_40:
  3844   00108C                     
  3845                           ;MCAL_Layer/Interrupt/mcal_interrupt_manager.c: 13:         INT2_ISR();
  3846   00108C  EC6D  F00F         	call	i2_INT2_ISR	;wreg free
  3847   001090                     i2l763:
  3848                           
  3849                           ;MCAL_Layer/Interrupt/mcal_interrupt_manager.c: 16:      if((1 == (*((volatile INTCON2_t
      +                           *)(0xFF1))).RBIP)&&(1 == (*((volatile INTCON_t *)(0xFF2))).RBIF) && (((((*((volatile ui
      +                          nt8*)(0xF81)))>>4)&((uint8)0x01)))!=RB4_pin_init_value)){
  3850   001090  A0F1               	btfss	241,0,c	;volatile
  3851   001092  EF4D  F008         	goto	i2u346_41
  3852   001096  EF4F  F008         	goto	i2u346_40
  3853   00109A                     i2u346_41:
  3854   00109A  EF65  F008         	goto	i2l765
  3855   00109E                     i2u346_40:
  3856   00109E  A0F2               	btfss	242,0,c	;volatile
  3857   0010A0  EF54  F008         	goto	i2u347_41
  3858   0010A4  EF56  F008         	goto	i2u347_40
  3859   0010A8                     i2u347_41:
  3860   0010A8  EF65  F008         	goto	i2l765
  3861   0010AC                     i2u347_40:
  3862   0010AC  3881               	swapf	129,w,c	;volatile
  3863   0010AE  0B0F               	andlw	15
  3864   0010B0  0B01               	andlw	1
  3865   0010B2  1861               	xorwf	_RB4_pin_init_value^0,w,c	;volatile
  3866   0010B4  B4D8               	btfsc	status,2,c
  3867   0010B6  EF5F  F008         	goto	i2u348_41
  3868   0010BA  EF61  F008         	goto	i2u348_40
  3869   0010BE                     i2u348_41:
  3870   0010BE  EF65  F008         	goto	i2l765
  3871   0010C2                     i2u348_40:
  3872   0010C2                     
  3873                           ;MCAL_Layer/Interrupt/mcal_interrupt_manager.c: 17:         RB4_pin_init_value^=1;
  3874   0010C2  0E01               	movlw	1
  3875   0010C4  1A61               	xorwf	_RB4_pin_init_value^0,f,c	;volatile
  3876   0010C6                     
  3877                           ;MCAL_Layer/Interrupt/mcal_interrupt_manager.c: 18:         RB4_ISR();
  3878   0010C6  EC71  F00E         	call	i2_RB4_ISR	;wreg free
  3879   0010CA                     i2l765:
  3880                           
  3881                           ;MCAL_Layer/Interrupt/mcal_interrupt_manager.c: 21:        if((1 == (*((volatile INTCON2
      +                          _t *)(0xFF1))).RBIP)&&(1 == (*((volatile INTCON_t *)(0xFF2))).RBIF) && (((((*((volatile 
      +                          uint8*)(0xF81)))>>5)&((uint8)0x01)))!=RB5_pin_init_value)){
  3882   0010CA  A0F1               	btfss	241,0,c	;volatile
  3883   0010CC  EF6A  F008         	goto	i2u349_41
  3884   0010D0  EF6C  F008         	goto	i2u349_40
  3885   0010D4                     i2u349_41:
  3886   0010D4  EF83  F008         	goto	i2l767
  3887   0010D8                     i2u349_40:
  3888   0010D8  A0F2               	btfss	242,0,c	;volatile
  3889   0010DA  EF71  F008         	goto	i2u350_41
  3890   0010DE  EF73  F008         	goto	i2u350_40
  3891   0010E2                     i2u350_41:
  3892   0010E2  EF83  F008         	goto	i2l767
  3893   0010E6                     i2u350_40:
  3894   0010E6  3881               	swapf	129,w,c	;volatile
  3895   0010E8  42E8               	rrncf	wreg,f,c
  3896   0010EA  0B07               	andlw	7
  3897   0010EC  0B01               	andlw	1
  3898   0010EE  1860               	xorwf	_RB5_pin_init_value^0,w,c	;volatile
  3899   0010F0  B4D8               	btfsc	status,2,c
  3900   0010F2  EF7D  F008         	goto	i2u351_41
  3901   0010F6  EF7F  F008         	goto	i2u351_40
  3902   0010FA                     i2u351_41:
  3903   0010FA  EF83  F008         	goto	i2l767
  3904   0010FE                     i2u351_40:
  3905   0010FE                     
  3906                           ;MCAL_Layer/Interrupt/mcal_interrupt_manager.c: 22:         RB5_pin_init_value^=1;
  3907   0010FE  0E01               	movlw	1
  3908   001100  1A60               	xorwf	_RB5_pin_init_value^0,f,c	;volatile
  3909   001102                     
  3910                           ;MCAL_Layer/Interrupt/mcal_interrupt_manager.c: 23:         RB5_ISR();
  3911   001102  EC5A  F00E         	call	i2_RB5_ISR	;wreg free
  3912   001106                     i2l767:
  3913                           
  3914                           ;MCAL_Layer/Interrupt/mcal_interrupt_manager.c: 26:        if((1 == (*((volatile INTCON2
      +                          _t *)(0xFF1))).RBIP)&&(1 == (*((volatile INTCON_t *)(0xFF2))).RBIF) && (((((*((volatile 
      +                          uint8*)(0xF81)))>>6)&((uint8)0x01)))!=RB6_pin_init_value)){
  3915   001106  A0F1               	btfss	241,0,c	;volatile
  3916   001108  EF88  F008         	goto	i2u352_41
  3917   00110C  EF8A  F008         	goto	i2u352_40
  3918   001110                     i2u352_41:
  3919   001110  EFA1  F008         	goto	i2l769
  3920   001114                     i2u352_40:
  3921   001114  A0F2               	btfss	242,0,c	;volatile
  3922   001116  EF8F  F008         	goto	i2u353_41
  3923   00111A  EF91  F008         	goto	i2u353_40
  3924   00111E                     i2u353_41:
  3925   00111E  EFA1  F008         	goto	i2l769
  3926   001122                     i2u353_40:
  3927   001122  4481               	rlncf	129,w,c	;volatile
  3928   001124  46E8               	rlncf	wreg,f,c
  3929   001126  0B03               	andlw	3
  3930   001128  0B01               	andlw	1
  3931   00112A  185F               	xorwf	_RB6_pin_init_value^0,w,c	;volatile
  3932   00112C  B4D8               	btfsc	status,2,c
  3933   00112E  EF9B  F008         	goto	i2u354_41
  3934   001132  EF9D  F008         	goto	i2u354_40
  3935   001136                     i2u354_41:
  3936   001136  EFA1  F008         	goto	i2l769
  3937   00113A                     i2u354_40:
  3938   00113A                     
  3939                           ;MCAL_Layer/Interrupt/mcal_interrupt_manager.c: 27:         RB6_pin_init_value^=1;
  3940   00113A  0E01               	movlw	1
  3941   00113C  1A5F               	xorwf	_RB6_pin_init_value^0,f,c	;volatile
  3942   00113E                     
  3943                           ;MCAL_Layer/Interrupt/mcal_interrupt_manager.c: 28:         RB6_ISR();
  3944   00113E  EC43  F00E         	call	i2_RB6_ISR	;wreg free
  3945   001142                     i2l769:
  3946                           
  3947                           ;MCAL_Layer/Interrupt/mcal_interrupt_manager.c: 31:        if((1 == (*((volatile INTCON2
      +                          _t *)(0xFF1))).RBIP)&&(1 == (*((volatile INTCON_t *)(0xFF2))).RBIF) && (((((*((volatile 
      +                          uint8*)(0xF81)))>>7)&((uint8)0x01)))!=RB7_pin_init_value)){
  3948   001142  A0F1               	btfss	241,0,c	;volatile
  3949   001144  EFA6  F008         	goto	i2u355_41
  3950   001148  EFA8  F008         	goto	i2u355_40
  3951   00114C                     i2u355_41:
  3952   00114C  EFBD  F008         	goto	i2l772
  3953   001150                     i2u355_40:
  3954   001150  A0F2               	btfss	242,0,c	;volatile
  3955   001152  EFAD  F008         	goto	i2u356_41
  3956   001156  EFAF  F008         	goto	i2u356_40
  3957   00115A                     i2u356_41:
  3958   00115A  EFBD  F008         	goto	i2l772
  3959   00115E                     i2u356_40:
  3960   00115E  4481               	rlncf	129,w,c	;volatile
  3961   001160  0B01               	andlw	1
  3962   001162  185E               	xorwf	_RB7_pin_init_value^0,w,c	;volatile
  3963   001164  B4D8               	btfsc	status,2,c
  3964   001166  EFB7  F008         	goto	i2u357_41
  3965   00116A  EFB9  F008         	goto	i2u357_40
  3966   00116E                     i2u357_41:
  3967   00116E  EFBD  F008         	goto	i2l772
  3968   001172                     i2u357_40:
  3969   001172                     
  3970                           ;MCAL_Layer/Interrupt/mcal_interrupt_manager.c: 32:         RB7_pin_init_value^=1;
  3971   001172  0E01               	movlw	1
  3972   001174  1A5E               	xorwf	_RB7_pin_init_value^0,f,c	;volatile
  3973   001176                     
  3974                           ;MCAL_Layer/Interrupt/mcal_interrupt_manager.c: 33:         RB7_ISR();
  3975   001176  EC2C  F00E         	call	i2_RB7_ISR	;wreg free
  3976   00117A                     i2l772:
  3977   00117A  C039  FFF4         	movff	??_InterruptManagerHigh+5,prodh
  3978   00117E  C038  FFF3         	movff	??_InterruptManagerHigh+4,prodl
  3979   001182  C037  FFDA         	movff	??_InterruptManagerHigh+3,fsr2h
  3980   001186  C036  FFD9         	movff	??_InterruptManagerHigh+2,fsr2l
  3981   00118A  C035  FFFB         	movff	??_InterruptManagerHigh+1,pclatu
  3982   00118E  C034  FFFA         	movff	??_InterruptManagerHigh,pclath
  3983   001192  9269               	bcf	int$flags,1,c	;clear compiler interrupt flag (level 2)
  3984   001194  0011               	retfie		f
  3985   001196                     __end_of_InterruptManagerHigh:
  3986                           	callstack 0
  3987                           
  3988 ;; *************** function i2_RB7_ISR *****************
  3989 ;; Defined at:
  3990 ;;		line 180 in file "MCAL_Layer/Interrupt/mcal_external_interrupt.c"
  3991 ;; Parameters:    Size  Location     Type
  3992 ;;		None
  3993 ;; Auto vars:     Size  Location     Type
  3994 ;;		None
  3995 ;; Return value:  Size  Location     Type
  3996 ;;                  1    wreg      void 
  3997 ;; Registers used:
  3998 ;;		wreg, fsr2l, fsr2h, status,2, status,0, pcl, pclath, pclatu, tosl, prodl, prodh, cstack
  3999 ;; Tracked objects:
  4000 ;;		On entry : 0/0
  4001 ;;		On exit  : 0/0
  4002 ;;		Unchanged: 0/0
  4003 ;; Data sizes:     COMRAM   BANK0   BANK1   BANK2   BANK3   BANK4   BANK5   BANK6   BANK7   BANK8   BANK9  BANK10  BANK1
      +1  BANK12  BANK13  BANK14  BANK15
  4004 ;;      Params:         0       0       0       0       0       0       0       0       0       0       0       0       
      +0       0       0       0       0
  4005 ;;      Locals:         0       0       0       0       0       0       0       0       0       0       0       0       
      +0       0       0       0       0
  4006 ;;      Temps:          0       0       0       0       0       0       0       0       0       0       0       0       
      +0       0       0       0       0
  4007 ;;      Totals:         0       0       0       0       0       0       0       0       0       0       0       0       
      +0       0       0       0       0
  4008 ;;Total ram usage:        0 bytes
  4009 ;; Hardware stack levels used: 1
  4010 ;; Hardware stack levels required when called: 3
  4011 ;; This function calls:
  4012 ;;		NULL
  4013 ;;		i2_RB4_INT_HANDLER
  4014 ;;		i2_RB5_INT_HANDLER
  4015 ;;		i2_RB6_INT_HANDLER
  4016 ;;		i2_RB7_INT_HANDLER
  4017 ;; This function is called by:
  4018 ;;		_InterruptManagerHigh
  4019 ;; This function uses a non-reentrant model
  4020 ;;
  4021                           
  4022                           	psect	text32
  4023   001C58                     __ptext32:
  4024                           	callstack 0
  4025   001C58                     i2_RB7_ISR:
  4026                           	callstack 16
  4027   001C58                     
  4028                           ;MCAL_Layer/Interrupt/mcal_external_interrupt.c: 182:     ((*((volatile INTCON_t *)(0xFF
      +                          2))).RBIF=0);
  4029   001C58  90F2               	bcf	242,0,c	;volatile
  4030   001C5A                     
  4031                           ;MCAL_Layer/Interrupt/mcal_external_interrupt.c: 186:     if(RB7_InterruptHandler){RB7_I
      +                          nterruptHandler();}
  4032   001C5A  504F               	movf	_RB7_InterruptHandler^0,w,c
  4033   001C5C  1050               	iorwf	(_RB7_InterruptHandler+1)^0,w,c
  4034   001C5E  B4D8               	btfsc	status,2,c
  4035   001C60  EF34  F00E         	goto	i2u277_41
  4036   001C64  EF36  F00E         	goto	i2u277_40
  4037   001C68                     i2u277_41:
  4038   001C68  EF42  F00E         	goto	i2l546
  4039   001C6C                     i2u277_40:
  4040   001C6C  D802               	call	i2u278_48
  4041   001C6E  EF42  F00E         	goto	i2u278_49
  4042   001C72                     i2u278_48:
  4043   001C72  0005               	push	
  4044   001C74  6EFA               	movwf	pclath,c
  4045   001C76  504F               	movf	_RB7_InterruptHandler^0,w,c
  4046   001C78  6EFD               	movwf	tosl,c
  4047   001C7A  5050               	movf	(_RB7_InterruptHandler+1)^0,w,c
  4048   001C7C  6EFE               	movwf	tosh,c
  4049   001C7E  6AFF               	clrf	tosu,c
  4050   001C80  50FA               	movf	pclath,w,c
  4051   001C82  0012               	return		;indir
  4052   001C84                     i2u278_49:
  4053   001C84                     i2l546:
  4054   001C84  0012               	return		;funcret
  4055   001C86                     __end_ofi2_RB7_ISR:
  4056                           	callstack 0
  4057                           
  4058 ;; *************** function i2_RB6_ISR *****************
  4059 ;; Defined at:
  4060 ;;		line 172 in file "MCAL_Layer/Interrupt/mcal_external_interrupt.c"
  4061 ;; Parameters:    Size  Location     Type
  4062 ;;		None
  4063 ;; Auto vars:     Size  Location     Type
  4064 ;;		None
  4065 ;; Return value:  Size  Location     Type
  4066 ;;                  1    wreg      void 
  4067 ;; Registers used:
  4068 ;;		wreg, fsr2l, fsr2h, status,2, status,0, pcl, pclath, pclatu, tosl, prodl, prodh, cstack
  4069 ;; Tracked objects:
  4070 ;;		On entry : 0/0
  4071 ;;		On exit  : 0/0
  4072 ;;		Unchanged: 0/0
  4073 ;; Data sizes:     COMRAM   BANK0   BANK1   BANK2   BANK3   BANK4   BANK5   BANK6   BANK7   BANK8   BANK9  BANK10  BANK1
      +1  BANK12  BANK13  BANK14  BANK15
  4074 ;;      Params:         0       0       0       0       0       0       0       0       0       0       0       0       
      +0       0       0       0       0
  4075 ;;      Locals:         0       0       0       0       0       0       0       0       0       0       0       0       
      +0       0       0       0       0
  4076 ;;      Temps:          0       0       0       0       0       0       0       0       0       0       0       0       
      +0       0       0       0       0
  4077 ;;      Totals:         0       0       0       0       0       0       0       0       0       0       0       0       
      +0       0       0       0       0
  4078 ;;Total ram usage:        0 bytes
  4079 ;; Hardware stack levels used: 1
  4080 ;; Hardware stack levels required when called: 3
  4081 ;; This function calls:
  4082 ;;		NULL
  4083 ;;		i2_RB4_INT_HANDLER
  4084 ;;		i2_RB5_INT_HANDLER
  4085 ;;		i2_RB6_INT_HANDLER
  4086 ;;		i2_RB7_INT_HANDLER
  4087 ;; This function is called by:
  4088 ;;		_InterruptManagerHigh
  4089 ;; This function uses a non-reentrant model
  4090 ;;
  4091                           
  4092                           	psect	text33
  4093   001C86                     __ptext33:
  4094                           	callstack 0
  4095   001C86                     i2_RB6_ISR:
  4096                           	callstack 16
  4097   001C86                     
  4098                           ;MCAL_Layer/Interrupt/mcal_external_interrupt.c: 174:     ((*((volatile INTCON_t *)(0xFF
      +                          2))).RBIF=0);
  4099   001C86  90F2               	bcf	242,0,c	;volatile
  4100   001C88                     
  4101                           ;MCAL_Layer/Interrupt/mcal_external_interrupt.c: 178:     if(RB6_InterruptHandler){RB6_I
      +                          nterruptHandler();}
  4102   001C88  5051               	movf	_RB6_InterruptHandler^0,w,c
  4103   001C8A  1052               	iorwf	(_RB6_InterruptHandler+1)^0,w,c
  4104   001C8C  B4D8               	btfsc	status,2,c
  4105   001C8E  EF4B  F00E         	goto	i2u275_41
  4106   001C92  EF4D  F00E         	goto	i2u275_40
  4107   001C96                     i2u275_41:
  4108   001C96  EF59  F00E         	goto	i2l542
  4109   001C9A                     i2u275_40:
  4110   001C9A  D802               	call	i2u276_48
  4111   001C9C  EF59  F00E         	goto	i2u276_49
  4112   001CA0                     i2u276_48:
  4113   001CA0  0005               	push	
  4114   001CA2  6EFA               	movwf	pclath,c
  4115   001CA4  5051               	movf	_RB6_InterruptHandler^0,w,c
  4116   001CA6  6EFD               	movwf	tosl,c
  4117   001CA8  5052               	movf	(_RB6_InterruptHandler+1)^0,w,c
  4118   001CAA  6EFE               	movwf	tosh,c
  4119   001CAC  6AFF               	clrf	tosu,c
  4120   001CAE  50FA               	movf	pclath,w,c
  4121   001CB0  0012               	return		;indir
  4122   001CB2                     i2u276_49:
  4123   001CB2                     i2l542:
  4124   001CB2  0012               	return		;funcret
  4125   001CB4                     __end_ofi2_RB6_ISR:
  4126                           	callstack 0
  4127                           
  4128 ;; *************** function i2_RB5_ISR *****************
  4129 ;; Defined at:
  4130 ;;		line 164 in file "MCAL_Layer/Interrupt/mcal_external_interrupt.c"
  4131 ;; Parameters:    Size  Location     Type
  4132 ;;		None
  4133 ;; Auto vars:     Size  Location     Type
  4134 ;;		None
  4135 ;; Return value:  Size  Location     Type
  4136 ;;                  1    wreg      void 
  4137 ;; Registers used:
  4138 ;;		wreg, fsr2l, fsr2h, status,2, status,0, pcl, pclath, pclatu, tosl, prodl, prodh, cstack
  4139 ;; Tracked objects:
  4140 ;;		On entry : 0/0
  4141 ;;		On exit  : 0/0
  4142 ;;		Unchanged: 0/0
  4143 ;; Data sizes:     COMRAM   BANK0   BANK1   BANK2   BANK3   BANK4   BANK5   BANK6   BANK7   BANK8   BANK9  BANK10  BANK1
      +1  BANK12  BANK13  BANK14  BANK15
  4144 ;;      Params:         0       0       0       0       0       0       0       0       0       0       0       0       
      +0       0       0       0       0
  4145 ;;      Locals:         0       0       0       0       0       0       0       0       0       0       0       0       
      +0       0       0       0       0
  4146 ;;      Temps:          0       0       0       0       0       0       0       0       0       0       0       0       
      +0       0       0       0       0
  4147 ;;      Totals:         0       0       0       0       0       0       0       0       0       0       0       0       
      +0       0       0       0       0
  4148 ;;Total ram usage:        0 bytes
  4149 ;; Hardware stack levels used: 1
  4150 ;; Hardware stack levels required when called: 3
  4151 ;; This function calls:
  4152 ;;		NULL
  4153 ;;		i2_RB4_INT_HANDLER
  4154 ;;		i2_RB5_INT_HANDLER
  4155 ;;		i2_RB6_INT_HANDLER
  4156 ;;		i2_RB7_INT_HANDLER
  4157 ;; This function is called by:
  4158 ;;		_InterruptManagerHigh
  4159 ;; This function uses a non-reentrant model
  4160 ;;
  4161                           
  4162                           	psect	text34
  4163   001CB4                     __ptext34:
  4164                           	callstack 0
  4165   001CB4                     i2_RB5_ISR:
  4166                           	callstack 16
  4167   001CB4                     
  4168                           ;MCAL_Layer/Interrupt/mcal_external_interrupt.c: 166:     ((*((volatile INTCON_t *)(0xFF
      +                          2))).RBIF=0);
  4169   001CB4  90F2               	bcf	242,0,c	;volatile
  4170   001CB6                     
  4171                           ;MCAL_Layer/Interrupt/mcal_external_interrupt.c: 170:     if(RB5_InterruptHandler){RB5_I
      +                          nterruptHandler();}
  4172   001CB6  5053               	movf	_RB5_InterruptHandler^0,w,c
  4173   001CB8  1054               	iorwf	(_RB5_InterruptHandler+1)^0,w,c
  4174   001CBA  B4D8               	btfsc	status,2,c
  4175   001CBC  EF62  F00E         	goto	i2u273_41
  4176   001CC0  EF64  F00E         	goto	i2u273_40
  4177   001CC4                     i2u273_41:
  4178   001CC4  EF70  F00E         	goto	i2l538
  4179   001CC8                     i2u273_40:
  4180   001CC8  D802               	call	i2u274_48
  4181   001CCA  EF70  F00E         	goto	i2u274_49
  4182   001CCE                     i2u274_48:
  4183   001CCE  0005               	push	
  4184   001CD0  6EFA               	movwf	pclath,c
  4185   001CD2  5053               	movf	_RB5_InterruptHandler^0,w,c
  4186   001CD4  6EFD               	movwf	tosl,c
  4187   001CD6  5054               	movf	(_RB5_InterruptHandler+1)^0,w,c
  4188   001CD8  6EFE               	movwf	tosh,c
  4189   001CDA  6AFF               	clrf	tosu,c
  4190   001CDC  50FA               	movf	pclath,w,c
  4191   001CDE  0012               	return		;indir
  4192   001CE0                     i2u274_49:
  4193   001CE0                     i2l538:
  4194   001CE0  0012               	return		;funcret
  4195   001CE2                     __end_ofi2_RB5_ISR:
  4196                           	callstack 0
  4197                           
  4198 ;; *************** function i2_RB4_ISR *****************
  4199 ;; Defined at:
  4200 ;;		line 156 in file "MCAL_Layer/Interrupt/mcal_external_interrupt.c"
  4201 ;; Parameters:    Size  Location     Type
  4202 ;;		None
  4203 ;; Auto vars:     Size  Location     Type
  4204 ;;		None
  4205 ;; Return value:  Size  Location     Type
  4206 ;;                  1    wreg      void 
  4207 ;; Registers used:
  4208 ;;		wreg, fsr2l, fsr2h, status,2, status,0, pcl, pclath, pclatu, tosl, prodl, prodh, cstack
  4209 ;; Tracked objects:
  4210 ;;		On entry : 0/0
  4211 ;;		On exit  : 0/0
  4212 ;;		Unchanged: 0/0
  4213 ;; Data sizes:     COMRAM   BANK0   BANK1   BANK2   BANK3   BANK4   BANK5   BANK6   BANK7   BANK8   BANK9  BANK10  BANK1
      +1  BANK12  BANK13  BANK14  BANK15
  4214 ;;      Params:         0       0       0       0       0       0       0       0       0       0       0       0       
      +0       0       0       0       0
  4215 ;;      Locals:         0       0       0       0       0       0       0       0       0       0       0       0       
      +0       0       0       0       0
  4216 ;;      Temps:          0       0       0       0       0       0       0       0       0       0       0       0       
      +0       0       0       0       0
  4217 ;;      Totals:         0       0       0       0       0       0       0       0       0       0       0       0       
      +0       0       0       0       0
  4218 ;;Total ram usage:        0 bytes
  4219 ;; Hardware stack levels used: 1
  4220 ;; Hardware stack levels required when called: 3
  4221 ;; This function calls:
  4222 ;;		NULL
  4223 ;;		i2_RB4_INT_HANDLER
  4224 ;;		i2_RB5_INT_HANDLER
  4225 ;;		i2_RB6_INT_HANDLER
  4226 ;;		i2_RB7_INT_HANDLER
  4227 ;; This function is called by:
  4228 ;;		_InterruptManagerHigh
  4229 ;; This function uses a non-reentrant model
  4230 ;;
  4231                           
  4232                           	psect	text35
  4233   001CE2                     __ptext35:
  4234                           	callstack 0
  4235   001CE2                     i2_RB4_ISR:
  4236                           	callstack 16
  4237   001CE2                     
  4238                           ;MCAL_Layer/Interrupt/mcal_external_interrupt.c: 158:     ((*((volatile INTCON_t *)(0xFF
      +                          2))).RBIF=0);
  4239   001CE2  90F2               	bcf	242,0,c	;volatile
  4240   001CE4                     
  4241                           ;MCAL_Layer/Interrupt/mcal_external_interrupt.c: 162:     if(RB4_InterruptHandler){RB4_I
      +                          nterruptHandler();}
  4242   001CE4  5055               	movf	_RB4_InterruptHandler^0,w,c
  4243   001CE6  1056               	iorwf	(_RB4_InterruptHandler+1)^0,w,c
  4244   001CE8  B4D8               	btfsc	status,2,c
  4245   001CEA  EF79  F00E         	goto	i2u271_41
  4246   001CEE  EF7B  F00E         	goto	i2u271_40
  4247   001CF2                     i2u271_41:
  4248   001CF2  EF87  F00E         	goto	i2l534
  4249   001CF6                     i2u271_40:
  4250   001CF6  D802               	call	i2u272_48
  4251   001CF8  EF87  F00E         	goto	i2u272_49
  4252   001CFC                     i2u272_48:
  4253   001CFC  0005               	push	
  4254   001CFE  6EFA               	movwf	pclath,c
  4255   001D00  5055               	movf	_RB4_InterruptHandler^0,w,c
  4256   001D02  6EFD               	movwf	tosl,c
  4257   001D04  5056               	movf	(_RB4_InterruptHandler+1)^0,w,c
  4258   001D06  6EFE               	movwf	tosh,c
  4259   001D08  6AFF               	clrf	tosu,c
  4260   001D0A  50FA               	movf	pclath,w,c
  4261   001D0C  0012               	return		;indir
  4262   001D0E                     i2u272_49:
  4263   001D0E                     i2l534:
  4264   001D0E  0012               	return		;funcret
  4265   001D10                     __end_ofi2_RB4_ISR:
  4266                           	callstack 0
  4267                           
  4268 ;; *************** function i2_RB6_INT_HANDLER *****************
  4269 ;; Defined at:
  4270 ;;		line 19 in file "application.c"
  4271 ;; Parameters:    Size  Location     Type
  4272 ;;		None
  4273 ;; Auto vars:     Size  Location     Type
  4274 ;;		None
  4275 ;; Return value:  Size  Location     Type
  4276 ;;                  1    wreg      void 
  4277 ;; Registers used:
  4278 ;;		wreg, fsr2l, fsr2h, status,2, status,0, prodl, prodh, cstack
  4279 ;; Tracked objects:
  4280 ;;		On entry : 0/0
  4281 ;;		On exit  : 0/0
  4282 ;;		Unchanged: 0/0
  4283 ;; Data sizes:     COMRAM   BANK0   BANK1   BANK2   BANK3   BANK4   BANK5   BANK6   BANK7   BANK8   BANK9  BANK10  BANK1
      +1  BANK12  BANK13  BANK14  BANK15
  4284 ;;      Params:         0       0       0       0       0       0       0       0       0       0       0       0       
      +0       0       0       0       0
  4285 ;;      Locals:         0       0       0       0       0       0       0       0       0       0       0       0       
      +0       0       0       0       0
  4286 ;;      Temps:          0       0       0       0       0       0       0       0       0       0       0       0       
      +0       0       0       0       0
  4287 ;;      Totals:         0       0       0       0       0       0       0       0       0       0       0       0       
      +0       0       0       0       0
  4288 ;;Total ram usage:        0 bytes
  4289 ;; Hardware stack levels used: 1
  4290 ;; Hardware stack levels required when called: 2
  4291 ;; This function calls:
  4292 ;;		i2_led_toggle
  4293 ;; This function is called by:
  4294 ;;		_RB4_ISR
  4295 ;;		_RB5_ISR
  4296 ;;		_RB6_ISR
  4297 ;;		_RB7_ISR
  4298 ;;		i2_RB4_ISR
  4299 ;;		i2_RB5_ISR
  4300 ;;		i2_RB6_ISR
  4301 ;;		i2_RB7_ISR
  4302 ;; This function uses a non-reentrant model
  4303 ;;
  4304                           
  4305                           	psect	text36
  4306   001E94                     __ptext36:
  4307                           	callstack 0
  4308   001E94                     i2_RB6_INT_HANDLER:
  4309                           	callstack 16
  4310   001E94                     
  4311                           ;application.c: 20:     led_toggle(&led3);
  4312   001E94  0E25               	movlw	low _led3
  4313   001E96  6E30               	movwf	i2led_toggle@led^0,c
  4314   001E98  0E00               	movlw	high _led3
  4315   001E9A  6E31               	movwf	(i2led_toggle@led+1)^0,c
  4316   001E9C  ECA9  F00C         	call	i2_led_toggle	;wreg free
  4317   001EA0  0012               	return		;funcret
  4318   001EA2                     __end_ofi2_RB6_INT_HANDLER:
  4319                           	callstack 0
  4320                           
  4321 ;; *************** function i2_RB5_INT_HANDLER *****************
  4322 ;; Defined at:
  4323 ;;		line 16 in file "application.c"
  4324 ;; Parameters:    Size  Location     Type
  4325 ;;		None
  4326 ;; Auto vars:     Size  Location     Type
  4327 ;;		None
  4328 ;; Return value:  Size  Location     Type
  4329 ;;                  1    wreg      void 
  4330 ;; Registers used:
  4331 ;;		wreg, fsr2l, fsr2h, status,2, status,0, prodl, prodh, cstack
  4332 ;; Tracked objects:
  4333 ;;		On entry : 0/0
  4334 ;;		On exit  : 0/0
  4335 ;;		Unchanged: 0/0
  4336 ;; Data sizes:     COMRAM   BANK0   BANK1   BANK2   BANK3   BANK4   BANK5   BANK6   BANK7   BANK8   BANK9  BANK10  BANK1
      +1  BANK12  BANK13  BANK14  BANK15
  4337 ;;      Params:         0       0       0       0       0       0       0       0       0       0       0       0       
      +0       0       0       0       0
  4338 ;;      Locals:         0       0       0       0       0       0       0       0       0       0       0       0       
      +0       0       0       0       0
  4339 ;;      Temps:          0       0       0       0       0       0       0       0       0       0       0       0       
      +0       0       0       0       0
  4340 ;;      Totals:         0       0       0       0       0       0       0       0       0       0       0       0       
      +0       0       0       0       0
  4341 ;;Total ram usage:        0 bytes
  4342 ;; Hardware stack levels used: 1
  4343 ;; Hardware stack levels required when called: 2
  4344 ;; This function calls:
  4345 ;;		i2_led_toggle
  4346 ;; This function is called by:
  4347 ;;		_RB4_ISR
  4348 ;;		_RB5_ISR
  4349 ;;		_RB6_ISR
  4350 ;;		_RB7_ISR
  4351 ;;		i2_RB4_ISR
  4352 ;;		i2_RB5_ISR
  4353 ;;		i2_RB6_ISR
  4354 ;;		i2_RB7_ISR
  4355 ;; This function uses a non-reentrant model
  4356 ;;
  4357                           
  4358                           	psect	text37
  4359   001EA2                     __ptext37:
  4360                           	callstack 0
  4361   001EA2                     i2_RB5_INT_HANDLER:
  4362                           	callstack 16
  4363   001EA2                     
  4364                           ;application.c: 17:     led_toggle(&led2);
  4365   001EA2  0E26               	movlw	low _led2
  4366   001EA4  6E30               	movwf	i2led_toggle@led^0,c
  4367   001EA6  0E00               	movlw	high _led2
  4368   001EA8  6E31               	movwf	(i2led_toggle@led+1)^0,c
  4369   001EAA  ECA9  F00C         	call	i2_led_toggle	;wreg free
  4370   001EAE  0012               	return		;funcret
  4371   001EB0                     __end_ofi2_RB5_INT_HANDLER:
  4372                           	callstack 0
  4373                           
  4374 ;; *************** function i2_RB4_INT_HANDLER *****************
  4375 ;; Defined at:
  4376 ;;		line 13 in file "application.c"
  4377 ;; Parameters:    Size  Location     Type
  4378 ;;		None
  4379 ;; Auto vars:     Size  Location     Type
  4380 ;;		None
  4381 ;; Return value:  Size  Location     Type
  4382 ;;                  1    wreg      void 
  4383 ;; Registers used:
  4384 ;;		wreg, fsr2l, fsr2h, status,2, status,0, prodl, prodh, cstack
  4385 ;; Tracked objects:
  4386 ;;		On entry : 0/0
  4387 ;;		On exit  : 0/0
  4388 ;;		Unchanged: 0/0
  4389 ;; Data sizes:     COMRAM   BANK0   BANK1   BANK2   BANK3   BANK4   BANK5   BANK6   BANK7   BANK8   BANK9  BANK10  BANK1
      +1  BANK12  BANK13  BANK14  BANK15
  4390 ;;      Params:         0       0       0       0       0       0       0       0       0       0       0       0       
      +0       0       0       0       0
  4391 ;;      Locals:         0       0       0       0       0       0       0       0       0       0       0       0       
      +0       0       0       0       0
  4392 ;;      Temps:          0       0       0       0       0       0       0       0       0       0       0       0       
      +0       0       0       0       0
  4393 ;;      Totals:         0       0       0       0       0       0       0       0       0       0       0       0       
      +0       0       0       0       0
  4394 ;;Total ram usage:        0 bytes
  4395 ;; Hardware stack levels used: 1
  4396 ;; Hardware stack levels required when called: 2
  4397 ;; This function calls:
  4398 ;;		i2_led_toggle
  4399 ;; This function is called by:
  4400 ;;		_RB4_ISR
  4401 ;;		_RB5_ISR
  4402 ;;		_RB6_ISR
  4403 ;;		_RB7_ISR
  4404 ;;		i2_RB4_ISR
  4405 ;;		i2_RB5_ISR
  4406 ;;		i2_RB6_ISR
  4407 ;;		i2_RB7_ISR
  4408 ;; This function uses a non-reentrant model
  4409 ;;
  4410                           
  4411                           	psect	text38
  4412   001EB0                     __ptext38:
  4413                           	callstack 0
  4414   001EB0                     i2_RB4_INT_HANDLER:
  4415                           	callstack 16
  4416   001EB0                     
  4417                           ;application.c: 14:     led_toggle(&led1);
  4418   001EB0  0E27               	movlw	low _led1
  4419   001EB2  6E30               	movwf	i2led_toggle@led^0,c
  4420   001EB4  0E00               	movlw	high _led1
  4421   001EB6  6E31               	movwf	(i2led_toggle@led+1)^0,c
  4422   001EB8  ECA9  F00C         	call	i2_led_toggle	;wreg free
  4423   001EBC  0012               	return		;funcret
  4424   001EBE                     __end_ofi2_RB4_INT_HANDLER:
  4425                           	callstack 0
  4426                           
  4427 ;; *************** function i2_RB7_INT_HANDLER *****************
  4428 ;; Defined at:
  4429 ;;		line 22 in file "application.c"
  4430 ;; Parameters:    Size  Location     Type
  4431 ;;		None
  4432 ;; Auto vars:     Size  Location     Type
  4433 ;;		None
  4434 ;; Return value:  Size  Location     Type
  4435 ;;                  1    wreg      void 
  4436 ;; Registers used:
  4437 ;;		wreg, fsr2l, fsr2h, status,2, status,0, prodl, prodh, cstack
  4438 ;; Tracked objects:
  4439 ;;		On entry : 0/0
  4440 ;;		On exit  : 0/0
  4441 ;;		Unchanged: 0/0
  4442 ;; Data sizes:     COMRAM   BANK0   BANK1   BANK2   BANK3   BANK4   BANK5   BANK6   BANK7   BANK8   BANK9  BANK10  BANK1
      +1  BANK12  BANK13  BANK14  BANK15
  4443 ;;      Params:         0       0       0       0       0       0       0       0       0       0       0       0       
      +0       0       0       0       0
  4444 ;;      Locals:         0       0       0       0       0       0       0       0       0       0       0       0       
      +0       0       0       0       0
  4445 ;;      Temps:          0       0       0       0       0       0       0       0       0       0       0       0       
      +0       0       0       0       0
  4446 ;;      Totals:         0       0       0       0       0       0       0       0       0       0       0       0       
      +0       0       0       0       0
  4447 ;;Total ram usage:        0 bytes
  4448 ;; Hardware stack levels used: 1
  4449 ;; Hardware stack levels required when called: 2
  4450 ;; This function calls:
  4451 ;;		i2_led_toggle
  4452 ;; This function is called by:
  4453 ;;		_RB4_ISR
  4454 ;;		_RB5_ISR
  4455 ;;		_RB6_ISR
  4456 ;;		_RB7_ISR
  4457 ;;		i2_RB4_ISR
  4458 ;;		i2_RB5_ISR
  4459 ;;		i2_RB6_ISR
  4460 ;;		i2_RB7_ISR
  4461 ;; This function uses a non-reentrant model
  4462 ;;
  4463                           
  4464                           	psect	text39
  4465   001EBE                     __ptext39:
  4466                           	callstack 0
  4467   001EBE                     i2_RB7_INT_HANDLER:
  4468                           	callstack 16
  4469   001EBE                     
  4470                           ;application.c: 23:     led_toggle(&led4);
  4471   001EBE  0E24               	movlw	low _led4
  4472   001EC0  6E30               	movwf	i2led_toggle@led^0,c
  4473   001EC2  0E00               	movlw	high _led4
  4474   001EC4  6E31               	movwf	(i2led_toggle@led+1)^0,c
  4475   001EC6  ECA9  F00C         	call	i2_led_toggle	;wreg free
  4476   001ECA  0012               	return		;funcret
  4477   001ECC                     __end_ofi2_RB7_INT_HANDLER:
  4478                           	callstack 0
  4479                           
  4480 ;; *************** function i2_led_toggle *****************
  4481 ;; Defined at:
  4482 ;;		line 55 in file "ECU_Layer/LED/ecu_led.c"
  4483 ;; Parameters:    Size  Location     Type
  4484 ;;  led             2    8[COMRAM] PTR const struct .
  4485 ;;		 -> led4(1), led3(1), led2(1), led1(1), 
  4486 ;; Auto vars:     Size  Location     Type
  4487 ;;  pin_obj         1   11[COMRAM] struct .
  4488 ;;  ret             1    0        unsigned char 
  4489 ;; Return value:  Size  Location     Type
  4490 ;;                  1    wreg      unsigned char 
  4491 ;; Registers used:
  4492 ;;		wreg, fsr2l, fsr2h, status,2, status,0, prodl, prodh, cstack
  4493 ;; Tracked objects:
  4494 ;;		On entry : 0/0
  4495 ;;		On exit  : 0/0
  4496 ;;		Unchanged: 0/0
  4497 ;; Data sizes:     COMRAM   BANK0   BANK1   BANK2   BANK3   BANK4   BANK5   BANK6   BANK7   BANK8   BANK9  BANK10  BANK1
      +1  BANK12  BANK13  BANK14  BANK15
  4498 ;;      Params:         2       0       0       0       0       0       0       0       0       0       0       0       
      +0       0       0       0       0
  4499 ;;      Locals:         1       0       0       0       0       0       0       0       0       0       0       0       
      +0       0       0       0       0
  4500 ;;      Temps:          1       0       0       0       0       0       0       0       0       0       0       0       
      +0       0       0       0       0
  4501 ;;      Totals:         4       0       0       0       0       0       0       0       0       0       0       0       
      +0       0       0       0       0
  4502 ;;Total ram usage:        4 bytes
  4503 ;; Hardware stack levels used: 1
  4504 ;; Hardware stack levels required when called: 1
  4505 ;; This function calls:
  4506 ;;		i2_gpio_pin_toggle_logic
  4507 ;; This function is called by:
  4508 ;;		i2_RB4_INT_HANDLER
  4509 ;;		i2_RB5_INT_HANDLER
  4510 ;;		i2_RB6_INT_HANDLER
  4511 ;;		i2_RB7_INT_HANDLER
  4512 ;; This function uses a non-reentrant model
  4513 ;;
  4514                           
  4515                           	psect	text40
  4516   001952                     __ptext40:
  4517                           	callstack 0
  4518   001952                     i2_led_toggle:
  4519                           	callstack 16
  4520   001952                     
  4521                           ;ECU_Layer/LED/ecu_led.c: 57:     pin_config_t pin_obj={.port = led->port_name,.pin = le
      +                          d->pin,.direction=OUTPUT,.logic=led->led_status };
  4522   001952  C065  F033         	movff	led_toggle@F3170,i2led_toggle@pin_obj
  4523   001956  C030  FFD9         	movff	i2led_toggle@led,fsr2l
  4524   00195A  C031  FFDA         	movff	i2led_toggle@led+1,fsr2h
  4525   00195E  50DF               	movf	223,w,c
  4526   001960  0B0F               	andlw	15
  4527   001962  6E32               	movwf	??i2_led_toggle^0,c
  4528   001964  5033               	movf	i2led_toggle@pin_obj^0,w,c
  4529   001966  1832               	xorwf	??i2_led_toggle^0,w,c
  4530   001968  0BF8               	andlw	-8
  4531   00196A  1832               	xorwf	??i2_led_toggle^0,w,c
  4532   00196C  6E33               	movwf	i2led_toggle@pin_obj^0,c
  4533   00196E  C030  FFD9         	movff	i2led_toggle@led,fsr2l
  4534   001972  C031  FFDA         	movff	i2led_toggle@led+1,fsr2h
  4535   001976  38DF               	swapf	223,w,c
  4536   001978  0B07               	andlw	7
  4537   00197A  6E32               	movwf	??i2_led_toggle^0,c
  4538   00197C  4632               	rlncf	??i2_led_toggle^0,f,c
  4539   00197E  4632               	rlncf	??i2_led_toggle^0,f,c
  4540   001980  4632               	rlncf	??i2_led_toggle^0,f,c
  4541   001982  5033               	movf	i2led_toggle@pin_obj^0,w,c
  4542   001984  1832               	xorwf	??i2_led_toggle^0,w,c
  4543   001986  0BC7               	andlw	-57
  4544   001988  1832               	xorwf	??i2_led_toggle^0,w,c
  4545   00198A  6E33               	movwf	i2led_toggle@pin_obj^0,c
  4546   00198C  9C33               	bcf	i2led_toggle@pin_obj^0,6,c
  4547   00198E  C030  FFD9         	movff	i2led_toggle@led,fsr2l
  4548   001992  C031  FFDA         	movff	i2led_toggle@led+1,fsr2h
  4549   001996  AEDF               	btfss	indf2,7,c
  4550   001998  D002               	bra	i2u237_45
  4551   00199A  8E33               	bsf	i2led_toggle@pin_obj^0,7,c
  4552   00199C  D001               	bra	i2u237_47
  4553   00199E                     i2u237_45:
  4554   00199E  9E33               	bcf	i2led_toggle@pin_obj^0,7,c
  4555   0019A0                     i2u237_47:
  4556   0019A0                     
  4557                           ;ECU_Layer/LED/ecu_led.c: 58:     if(led==((void*)0)){
  4558   0019A0  5030               	movf	i2led_toggle@led^0,w,c
  4559   0019A2  1031               	iorwf	(i2led_toggle@led+1)^0,w,c
  4560   0019A4  A4D8               	btfss	status,2,c
  4561   0019A6  EFD7  F00C         	goto	i2u238_41
  4562   0019AA  EFD9  F00C         	goto	i2u238_40
  4563   0019AE                     i2u238_41:
  4564   0019AE  EFDB  F00C         	goto	i2l3313
  4565   0019B2                     i2u238_40:
  4566   0019B2                     
  4567                           ;ECU_Layer/LED/ecu_led.c: 60:     }
  4568   0019B2  EFE1  F00C         	goto	i2l305
  4569   0019B6                     i2l3313:
  4570   0019B6  0E33               	movlw	low i2led_toggle@pin_obj
  4571   0019B8  6E28               	movwf	i2gpio_pin_toggle_logic@pin_config^0,c
  4572   0019BA  0E00               	movlw	high i2led_toggle@pin_obj
  4573   0019BC  6E29               	movwf	(i2gpio_pin_toggle_logic@pin_config+1)^0,c
  4574   0019BE  EC52  F00B         	call	i2_gpio_pin_toggle_logic	;wreg free
  4575   0019C2                     i2l305:
  4576   0019C2  0012               	return		;funcret
  4577   0019C4                     __end_ofi2_led_toggle:
  4578                           	callstack 0
  4579                           
  4580 ;; *************** function i2_gpio_pin_toggle_logic *****************
  4581 ;; Defined at:
  4582 ;;		line 141 in file "MCAL_Layer/GPIO/hal_gpio.c"
  4583 ;; Parameters:    Size  Location     Type
  4584 ;;  pin_config      2    0[COMRAM] PTR const struct .
  4585 ;;		 -> i2led_toggle@pin_obj(1), led_toggle@pin_obj(1), 
  4586 ;; Auto vars:     Size  Location     Type
  4587 ;;  ret             1    7[COMRAM] unsigned char 
  4588 ;; Return value:  Size  Location     Type
  4589 ;;                  1    wreg      unsigned char 
  4590 ;; Registers used:
  4591 ;;		wreg, fsr2l, fsr2h, status,2, status,0, prodl, prodh
  4592 ;; Tracked objects:
  4593 ;;		On entry : 0/0
  4594 ;;		On exit  : 0/0
  4595 ;;		Unchanged: 0/0
  4596 ;; Data sizes:     COMRAM   BANK0   BANK1   BANK2   BANK3   BANK4   BANK5   BANK6   BANK7   BANK8   BANK9  BANK10  BANK1
      +1  BANK12  BANK13  BANK14  BANK15
  4597 ;;      Params:         2       0       0       0       0       0       0       0       0       0       0       0       
      +0       0       0       0       0
  4598 ;;      Locals:         1       0       0       0       0       0       0       0       0       0       0       0       
      +0       0       0       0       0
  4599 ;;      Temps:          5       0       0       0       0       0       0       0       0       0       0       0       
      +0       0       0       0       0
  4600 ;;      Totals:         8       0       0       0       0       0       0       0       0       0       0       0       
      +0       0       0       0       0
  4601 ;;Total ram usage:        8 bytes
  4602 ;; Hardware stack levels used: 1
  4603 ;; This function calls:
  4604 ;;		Nothing
  4605 ;; This function is called by:
  4606 ;;		i2_led_toggle
  4607 ;; This function uses a non-reentrant model
  4608 ;;
  4609                           
  4610                           	psect	text41
  4611   0016A4                     __ptext41:
  4612                           	callstack 0
  4613   0016A4                     i2_gpio_pin_toggle_logic:
  4614                           	callstack 16
  4615   0016A4                     
  4616                           ;MCAL_Layer/GPIO/hal_gpio.c: 142:       Std_ReturnType ret=(Std_ReturnType)0x01;
  4617   0016A4  0E01               	movlw	1
  4618   0016A6  6E2F               	movwf	i2gpio_pin_toggle_logic@ret^0,c
  4619   0016A8                     
  4620                           ;MCAL_Layer/GPIO/hal_gpio.c: 143:     if((pin_config==((void*)0))||(pin_config->pin>8 -1
      +                          )||(pin_config->port>5 -1)){
  4621   0016A8  5028               	movf	i2gpio_pin_toggle_logic@pin_config^0,w,c
  4622   0016AA  1029               	iorwf	(i2gpio_pin_toggle_logic@pin_config+1)^0,w,c
  4623   0016AC  B4D8               	btfsc	status,2,c
  4624   0016AE  EF5B  F00B         	goto	i2u225_41
  4625   0016B2  EF5D  F00B         	goto	i2u225_40
  4626   0016B6                     i2u225_41:
  4627   0016B6  EF7D  F00B         	goto	i2l3201
  4628   0016BA                     i2u225_40:
  4629   0016BA  C028  FFD9         	movff	i2gpio_pin_toggle_logic@pin_config,fsr2l
  4630   0016BE  C029  FFDA         	movff	i2gpio_pin_toggle_logic@pin_config+1,fsr2h
  4631   0016C2  30DF               	rrcf	223,w,c
  4632   0016C4  32E8               	rrcf	wreg,f,c
  4633   0016C6  32E8               	rrcf	wreg,f,c
  4634   0016C8  0B07               	andlw	7
  4635   0016CA  6E2A               	movwf	??i2_gpio_pin_toggle_logic^0,c
  4636   0016CC  0E08               	movlw	8
  4637   0016CE  602A               	cpfslt	??i2_gpio_pin_toggle_logic^0,c
  4638   0016D0  EF6C  F00B         	goto	i2u226_41
  4639   0016D4  EF6E  F00B         	goto	i2u226_40
  4640   0016D8                     i2u226_41:
  4641   0016D8  EF7D  F00B         	goto	i2l3201
  4642   0016DC                     i2u226_40:
  4643   0016DC  C028  FFD9         	movff	i2gpio_pin_toggle_logic@pin_config,fsr2l
  4644   0016E0  C029  FFDA         	movff	i2gpio_pin_toggle_logic@pin_config+1,fsr2h
  4645   0016E4  50DF               	movf	223,w,c
  4646   0016E6  0B07               	andlw	7
  4647   0016E8  6E2A               	movwf	??i2_gpio_pin_toggle_logic^0,c
  4648   0016EA  0E04               	movlw	4
  4649   0016EC  642A               	cpfsgt	??i2_gpio_pin_toggle_logic^0,c
  4650   0016EE  EF7B  F00B         	goto	i2u227_41
  4651   0016F2  EF7D  F00B         	goto	i2u227_40
  4652   0016F6                     i2u227_41:
  4653   0016F6  EF81  F00B         	goto	i2l3203
  4654   0016FA                     i2u227_40:
  4655   0016FA                     i2l3201:
  4656                           
  4657                           ;MCAL_Layer/GPIO/hal_gpio.c: 144:         ret=(Std_ReturnType)0x00;
  4658   0016FA  0E00               	movlw	0
  4659   0016FC  6E2F               	movwf	i2gpio_pin_toggle_logic@ret^0,c
  4660                           
  4661                           ;MCAL_Layer/GPIO/hal_gpio.c: 145:     }
  4662   0016FE  EFAD  F00B         	goto	i2l3205
  4663   001702                     i2l3203:
  4664                           
  4665                           ;MCAL_Layer/GPIO/hal_gpio.c: 147:         (*(lat_registers[pin_config->port])^=((uint8)0
      +                          x01<<pin_config->pin));
  4666   001702  C028  FFD9         	movff	i2gpio_pin_toggle_logic@pin_config,fsr2l
  4667   001706  C029  FFDA         	movff	i2gpio_pin_toggle_logic@pin_config+1,fsr2h
  4668   00170A  30DF               	rrcf	223,w,c
  4669   00170C  32E8               	rrcf	wreg,f,c
  4670   00170E  32E8               	rrcf	wreg,f,c
  4671   001710  0B07               	andlw	7
  4672   001712  6E2A               	movwf	??i2_gpio_pin_toggle_logic^0,c
  4673   001714  0E01               	movlw	1
  4674   001716  6E2B               	movwf	(??i2_gpio_pin_toggle_logic+1)^0,c
  4675   001718  2A2A               	incf	??i2_gpio_pin_toggle_logic^0,f,c
  4676   00171A  EF91  F00B         	goto	i2u228_44
  4677   00171E                     i2u228_45:
  4678   00171E  90D8               	bcf	status,0,c
  4679   001720  362B               	rlcf	(??i2_gpio_pin_toggle_logic+1)^0,f,c
  4680   001722                     i2u228_44:
  4681   001722  2E2A               	decfsz	??i2_gpio_pin_toggle_logic^0,f,c
  4682   001724  EF8F  F00B         	goto	i2u228_45
  4683   001728  C028  FFD9         	movff	i2gpio_pin_toggle_logic@pin_config,fsr2l
  4684   00172C  C029  FFDA         	movff	i2gpio_pin_toggle_logic@pin_config+1,fsr2h
  4685   001730  50DF               	movf	223,w,c
  4686   001732  0B07               	andlw	7
  4687   001734  6E2C               	movwf	(??i2_gpio_pin_toggle_logic+2)^0,c
  4688   001736  502C               	movf	(??i2_gpio_pin_toggle_logic+2)^0,w,c
  4689   001738  0D02               	mullw	2
  4690   00173A  0E01               	movlw	low _lat_registers
  4691   00173C  24F3               	addwf	243,w,c
  4692   00173E  6ED9               	movwf	fsr2l,c
  4693   001740  0E00               	movlw	high _lat_registers
  4694   001742  20F4               	addwfc	prodh,w,c
  4695   001744  6EDA               	movwf	fsr2h,c
  4696   001746  CFDE F02D          	movff	postinc2,??i2_gpio_pin_toggle_logic+3
  4697   00174A  CFDD F02E          	movff	postdec2,??i2_gpio_pin_toggle_logic+4
  4698   00174E  C02D  FFD9         	movff	??i2_gpio_pin_toggle_logic+3,fsr2l
  4699   001752  C02E  FFDA         	movff	??i2_gpio_pin_toggle_logic+4,fsr2h
  4700   001756  502B               	movf	(??i2_gpio_pin_toggle_logic+1)^0,w,c
  4701   001758  1ADF               	xorwf	indf2,f,c
  4702   00175A                     i2l3205:
  4703                           
  4704                           ;MCAL_Layer/GPIO/hal_gpio.c: 149:     return ret;
  4705   00175A  502F               	movf	i2gpio_pin_toggle_logic@ret^0,w,c
  4706   00175C  0012               	return		;funcret
  4707   00175E                     __end_ofi2_gpio_pin_toggle_logic:
  4708                           	callstack 0
  4709                           
  4710 ;; *************** function i2_INT2_ISR *****************
  4711 ;; Defined at:
  4712 ;;		line 148 in file "MCAL_Layer/Interrupt/mcal_external_interrupt.c"
  4713 ;; Parameters:    Size  Location     Type
  4714 ;;		None
  4715 ;; Auto vars:     Size  Location     Type
  4716 ;;		None
  4717 ;; Return value:  Size  Location     Type
  4718 ;;                  1    wreg      void 
  4719 ;; Registers used:
  4720 ;;		None
  4721 ;; Tracked objects:
  4722 ;;		On entry : 0/0
  4723 ;;		On exit  : 0/0
  4724 ;;		Unchanged: 0/0
  4725 ;; Data sizes:     COMRAM   BANK0   BANK1   BANK2   BANK3   BANK4   BANK5   BANK6   BANK7   BANK8   BANK9  BANK10  BANK1
      +1  BANK12  BANK13  BANK14  BANK15
  4726 ;;      Params:         0       0       0       0       0       0       0       0       0       0       0       0       
      +0       0       0       0       0
  4727 ;;      Locals:         0       0       0       0       0       0       0       0       0       0       0       0       
      +0       0       0       0       0
  4728 ;;      Temps:          0       0       0       0       0       0       0       0       0       0       0       0       
      +0       0       0       0       0
  4729 ;;      Totals:         0       0       0       0       0       0       0       0       0       0       0       0       
      +0       0       0       0       0
  4730 ;;Total ram usage:        0 bytes
  4731 ;; Hardware stack levels used: 1
  4732 ;; This function calls:
  4733 ;;		Nothing
  4734 ;; This function is called by:
  4735 ;;		_InterruptManagerHigh
  4736 ;; This function uses a non-reentrant model
  4737 ;;
  4738                           
  4739                           	psect	text42
  4740   001EDA                     __ptext42:
  4741                           	callstack 0
  4742   001EDA                     i2_INT2_ISR:
  4743                           	callstack 19
  4744   001EDA                     
  4745                           ;MCAL_Layer/Interrupt/mcal_external_interrupt.c: 150:     ((*((volatile INTCON3_t *)(0xF
      +                          F0))).INT2IF=0);
  4746   001EDA  92F0               	bcf	240,1,c	;volatile
  4747   001EDC  0012               	return		;funcret
  4748   001EDE                     __end_ofi2_INT2_ISR:
  4749                           	callstack 0
  4750                           
  4751 ;; *************** function i2_INT1_ISR *****************
  4752 ;; Defined at:
  4753 ;;		line 140 in file "MCAL_Layer/Interrupt/mcal_external_interrupt.c"
  4754 ;; Parameters:    Size  Location     Type
  4755 ;;		None
  4756 ;; Auto vars:     Size  Location     Type
  4757 ;;		None
  4758 ;; Return value:  Size  Location     Type
  4759 ;;                  1    wreg      void 
  4760 ;; Registers used:
  4761 ;;		None
  4762 ;; Tracked objects:
  4763 ;;		On entry : 0/0
  4764 ;;		On exit  : 0/0
  4765 ;;		Unchanged: 0/0
  4766 ;; Data sizes:     COMRAM   BANK0   BANK1   BANK2   BANK3   BANK4   BANK5   BANK6   BANK7   BANK8   BANK9  BANK10  BANK1
      +1  BANK12  BANK13  BANK14  BANK15
  4767 ;;      Params:         0       0       0       0       0       0       0       0       0       0       0       0       
      +0       0       0       0       0
  4768 ;;      Locals:         0       0       0       0       0       0       0       0       0       0       0       0       
      +0       0       0       0       0
  4769 ;;      Temps:          0       0       0       0       0       0       0       0       0       0       0       0       
      +0       0       0       0       0
  4770 ;;      Totals:         0       0       0       0       0       0       0       0       0       0       0       0       
      +0       0       0       0       0
  4771 ;;Total ram usage:        0 bytes
  4772 ;; Hardware stack levels used: 1
  4773 ;; This function calls:
  4774 ;;		Nothing
  4775 ;; This function is called by:
  4776 ;;		_InterruptManagerHigh
  4777 ;; This function uses a non-reentrant model
  4778 ;;
  4779                           
  4780                           	psect	text43
  4781   001EDE                     __ptext43:
  4782                           	callstack 0
  4783   001EDE                     i2_INT1_ISR:
  4784                           	callstack 19
  4785   001EDE                     
  4786                           ;MCAL_Layer/Interrupt/mcal_external_interrupt.c: 142:     ((*((volatile INTCON3_t *)(0xF
      +                          F0))).INT1IF=0);
  4787   001EDE  90F0               	bcf	240,0,c	;volatile
  4788   001EE0  0012               	return		;funcret
  4789   001EE2                     __end_ofi2_INT1_ISR:
  4790                           	callstack 0
  4791                           
  4792 ;; *************** function _INT0_ISR *****************
  4793 ;; Defined at:
  4794 ;;		line 132 in file "MCAL_Layer/Interrupt/mcal_external_interrupt.c"
  4795 ;; Parameters:    Size  Location     Type
  4796 ;;		None
  4797 ;; Auto vars:     Size  Location     Type
  4798 ;;		None
  4799 ;; Return value:  Size  Location     Type
  4800 ;;                  1    wreg      void 
  4801 ;; Registers used:
  4802 ;;		None
  4803 ;; Tracked objects:
  4804 ;;		On entry : 0/0
  4805 ;;		On exit  : 0/0
  4806 ;;		Unchanged: 0/0
  4807 ;; Data sizes:     COMRAM   BANK0   BANK1   BANK2   BANK3   BANK4   BANK5   BANK6   BANK7   BANK8   BANK9  BANK10  BANK1
      +1  BANK12  BANK13  BANK14  BANK15
  4808 ;;      Params:         0       0       0       0       0       0       0       0       0       0       0       0       
      +0       0       0       0       0
  4809 ;;      Locals:         0       0       0       0       0       0       0       0       0       0       0       0       
      +0       0       0       0       0
  4810 ;;      Temps:          0       0       0       0       0       0       0       0       0       0       0       0       
      +0       0       0       0       0
  4811 ;;      Totals:         0       0       0       0       0       0       0       0       0       0       0       0       
      +0       0       0       0       0
  4812 ;;Total ram usage:        0 bytes
  4813 ;; Hardware stack levels used: 1
  4814 ;; This function calls:
  4815 ;;		Nothing
  4816 ;; This function is called by:
  4817 ;;		_InterruptManagerHigh
  4818 ;; This function uses a non-reentrant model
  4819 ;;
  4820                           
  4821                           	psect	text44
  4822   001EE2                     __ptext44:
  4823                           	callstack 0
  4824   001EE2                     _INT0_ISR:
  4825                           	callstack 19
  4826   001EE2                     
  4827                           ;MCAL_Layer/Interrupt/mcal_external_interrupt.c: 134:     ((*((volatile INTCON_t *)(0xFF
      +                          2))).INT0IF=0);
  4828   001EE2  92F2               	bcf	242,1,c	;volatile
  4829   001EE4  0012               	return		;funcret
  4830   001EE6                     __end_of_INT0_ISR:
  4831                           	callstack 0
  4832                           
  4833                           	psect	text45
  4834   000000                     __ptext45:
  4835                           	callstack 0
  4836   000000                     
  4837                           	psect	rparam
  4838   000000                     
  4839                           	psect	temp
  4840   000069                     btemp:
  4841                           	callstack 0
  4842   000069                     	ds	1
  4843   000000                     int$flags	set	btemp
  4844   000000                     wtemp8	set	btemp+1
  4845   000000                     ttemp5	set	btemp+1
  4846   000000                     ttemp6	set	btemp+4
  4847   000000                     ttemp7	set	btemp+8
  4848                           
  4849                           	psect	config
  4850                           
  4851                           ; Padding undefined space
  4852   300000                     	org	3145728
  4853   300000  FF                 	db	255
  4854                           
  4855                           ;Config register CONFIG1H @ 0x300001
  4856                           ;	Oscillator Selection bits
  4857                           ;	OSC = HS, HS oscillator
  4858                           ;	Fail-Safe Clock Monitor Enable bit
  4859                           ;	FCMEN = OFF, Fail-Safe Clock Monitor disabled
  4860                           ;	Internal/External Oscillator Switchover bit
  4861                           ;	IESO = OFF, Oscillator Switchover mode disabled
  4862   300001                     	org	3145729
  4863   300001  02                 	db	2
  4864                           
  4865                           ;Config register CONFIG2L @ 0x300002
  4866                           ;	Power-up Timer Enable bit
  4867                           ;	PWRT = OFF, PWRT disabled
  4868                           ;	Brown-out Reset Enable bits
  4869                           ;	BOREN = OFF, Brown-out Reset disabled in hardware and software
  4870                           ;	Brown Out Reset Voltage bits
  4871                           ;	BORV = 1, 
  4872   300002                     	org	3145730
  4873   300002  09                 	db	9
  4874                           
  4875                           ;Config register CONFIG2H @ 0x300003
  4876                           ;	Watchdog Timer Enable bit
  4877                           ;	WDT = OFF, WDT disabled (control is placed on the SWDTEN bit)
  4878                           ;	Watchdog Timer Postscale Select bits
  4879                           ;	WDTPS = 32768, 1:32768
  4880   300003                     	org	3145731
  4881   300003  1E                 	db	30
  4882                           
  4883                           ; Padding undefined space
  4884   300004                     	org	3145732
  4885   300004  FF                 	db	255
  4886                           
  4887                           ;Config register CONFIG3H @ 0x300005
  4888                           ;	CCP2 MUX bit
  4889                           ;	CCP2MX = PORTC, CCP2 input/output is multiplexed with RC1
  4890                           ;	PORTB A/D Enable bit
  4891                           ;	PBADEN = OFF, PORTB<4:0> pins are configured as digital I/O on Reset
  4892                           ;	Low-Power Timer1 Oscillator Enable bit
  4893                           ;	LPT1OSC = OFF, Timer1 configured for higher power operation
  4894                           ;	MCLR Pin Enable bit
  4895                           ;	MCLRE = ON, MCLR pin enabled; RE3 input pin disabled
  4896   300005                     	org	3145733
  4897   300005  81                 	db	129
  4898                           
  4899                           ;Config register CONFIG4L @ 0x300006
  4900                           ;	Stack Full/Underflow Reset Enable bit
  4901                           ;	STVREN = ON, Stack full/underflow will cause Reset
  4902                           ;	Single-Supply ICSP Enable bit
  4903                           ;	LVP = OFF, Single-Supply ICSP disabled
  4904                           ;	Extended Instruction Set Enable bit
  4905                           ;	XINST = OFF, Instruction set extension and Indexed Addressing mode disabled (Legacy mo
      +                          de)
  4906                           ;	Background Debugger Enable bit
  4907                           ;	DEBUG = 0x1, unprogrammed default
  4908   300006                     	org	3145734
  4909   300006  81                 	db	129
  4910                           
  4911                           ; Padding undefined space
  4912   300007                     	org	3145735
  4913   300007  FF                 	db	255
  4914                           
  4915                           ;Config register CONFIG5L @ 0x300008
  4916                           ;	Code Protection bit
  4917                           ;	CP0 = OFF, Block 0 (000800-003FFFh) not code-protected
  4918                           ;	Code Protection bit
  4919                           ;	CP1 = OFF, Block 1 (004000-007FFFh) not code-protected
  4920                           ;	Code Protection bit
  4921                           ;	CP2 = OFF, Block 2 (008000-00BFFFh) not code-protected
  4922                           ;	Code Protection bit
  4923                           ;	CP3 = OFF, Block 3 (00C000-00FFFFh) not code-protected
  4924   300008                     	org	3145736
  4925   300008  0F                 	db	15
  4926                           
  4927                           ;Config register CONFIG5H @ 0x300009
  4928                           ;	Boot Block Code Protection bit
  4929                           ;	CPB = OFF, Boot block (000000-0007FFh) not code-protected
  4930                           ;	Data EEPROM Code Protection bit
  4931                           ;	CPD = OFF, Data EEPROM not code-protected
  4932   300009                     	org	3145737
  4933   300009  C0                 	db	192
  4934                           
  4935                           ;Config register CONFIG6L @ 0x30000A
  4936                           ;	Write Protection bit
  4937                           ;	WRT0 = OFF, Block 0 (000800-003FFFh) not write-protected
  4938                           ;	Write Protection bit
  4939                           ;	WRT1 = OFF, Block 1 (004000-007FFFh) not write-protected
  4940                           ;	Write Protection bit
  4941                           ;	WRT2 = OFF, Block 2 (008000-00BFFFh) not write-protected
  4942                           ;	Write Protection bit
  4943                           ;	WRT3 = OFF, Block 3 (00C000-00FFFFh) not write-protected
  4944   30000A                     	org	3145738
  4945   30000A  0F                 	db	15
  4946                           
  4947                           ;Config register CONFIG6H @ 0x30000B
  4948                           ;	Configuration Register Write Protection bit
  4949                           ;	WRTC = OFF, Configuration registers (300000-3000FFh) not write-protected
  4950                           ;	Boot Block Write Protection bit
  4951                           ;	WRTB = OFF, Boot Block (000000-0007FFh) not write-protected
  4952                           ;	Data EEPROM Write Protection bit
  4953                           ;	WRTD = OFF, Data EEPROM not write-protected
  4954   30000B                     	org	3145739
  4955   30000B  E0                 	db	224
  4956                           
  4957                           ;Config register CONFIG7L @ 0x30000C
  4958                           ;	Table Read Protection bit
  4959                           ;	EBTR0 = OFF, Block 0 (000800-003FFFh) not protected from table reads executed in other
      +                           blocks
  4960                           ;	Table Read Protection bit
  4961                           ;	EBTR1 = OFF, Block 1 (004000-007FFFh) not protected from table reads executed in other
      +                           blocks
  4962                           ;	Table Read Protection bit
  4963                           ;	EBTR2 = OFF, Block 2 (008000-00BFFFh) not protected from table reads executed in other
      +                           blocks
  4964                           ;	Table Read Protection bit
  4965                           ;	EBTR3 = OFF, Block 3 (00C000-00FFFFh) not protected from table reads executed in other
      +                           blocks
  4966   30000C                     	org	3145740
  4967   30000C  0F                 	db	15
  4968                           
  4969                           ;Config register CONFIG7H @ 0x30000D
  4970                           ;	Boot Block Table Read Protection bit
  4971                           ;	EBTRB = OFF, Boot Block (000000-0007FFh) not protected from table reads executed in ot
      +                          her blocks
  4972   30000D                     	org	3145741
  4973   30000D  40                 	db	64
  4974                           tosu	equ	0xFFF
  4975                           tosh	equ	0xFFE
  4976                           tosl	equ	0xFFD
  4977                           stkptr	equ	0xFFC
  4978                           pclatu	equ	0xFFB
  4979                           pclath	equ	0xFFA
  4980                           pcl	equ	0xFF9
  4981                           tblptru	equ	0xFF8
  4982                           tblptrh	equ	0xFF7
  4983                           tblptrl	equ	0xFF6
  4984                           tablat	equ	0xFF5
  4985                           prodh	equ	0xFF4
  4986                           prodl	equ	0xFF3
  4987                           indf0	equ	0xFEF
  4988                           postinc0	equ	0xFEE
  4989                           postdec0	equ	0xFED
  4990                           preinc0	equ	0xFEC
  4991                           plusw0	equ	0xFEB
  4992                           fsr0h	equ	0xFEA
  4993                           fsr0l	equ	0xFE9
  4994                           wreg	equ	0xFE8
  4995                           indf1	equ	0xFE7
  4996                           postinc1	equ	0xFE6
  4997                           postdec1	equ	0xFE5
  4998                           preinc1	equ	0xFE4
  4999                           plusw1	equ	0xFE3
  5000                           fsr1h	equ	0xFE2
  5001                           fsr1l	equ	0xFE1
  5002                           bsr	equ	0xFE0
  5003                           indf2	equ	0xFDF
  5004                           postinc2	equ	0xFDE
  5005                           postdec2	equ	0xFDD
  5006                           preinc2	equ	0xFDC
  5007                           plusw2	equ	0xFDB
  5008                           fsr2h	equ	0xFDA
  5009                           fsr2l	equ	0xFD9
  5010                           status	equ	0xFD8

Data Sizes:
    Strings     3
    Constant    16
    Data        78
    BSS         26
    Persistent  0
    Stack       0

Auto Spaces:
    Space          Size  Autos    Used
    COMRAM          126     39     104
    BANK0           128     18      57
    BANK1           256      0       0
    BANK2           256      0       0
    BANK3           256      0       0
    BANK4           256      0       0
    BANK5           256      0       0
    BANK6           256      0       0
    BANK7           256      0       0
    BANK8           256      0       0
    BANK9           256      0       0
    BANK10          256      0       0
    BANK11          256      0       0
    BANK12          256      0       0
    BANK13          256      0       0
    BANK14          256      0       0
    BANK15          128      0       0

Pointer List with Targets:

    vfprintf$2	PTR PTR void  size(2) Largest target is 2
		 -> sprintf@ap(COMRAM[2]), 

    vfprintf$1	PTR const unsigned char  size(2) Largest target is 3
		 -> STR_3(CODE[3]), STR_2(CODE[3]), STR_1(CODE[3]), 

    vfprintf$0	PTR struct _IO_FILE size(2) Largest target is 12
		 -> sprintf@f(COMRAM[12]), 

    S1815$source	PTR const unsigned char  size(2) Largest target is 0

    f...source	PTR const unsigned char  size(2) Largest target is 0

    S1815$buffer	PTR unsigned char  size(2) Largest target is 0

    f...buffer	PTR unsigned char  size(2) Largest target is 0

    RB7_INT.EXT_InterruptHandler	PTR FTN()void  size(2) Largest target is 1
		 -> i2_RB7_INT_HANDLER(), RB7_INT_HANDLER(), RB6_INT_HANDLER(), RB5_INT_HANDLER(), 
		 -> RB4_INT_HANDLER(), 

    RB6_INT.EXT_InterruptHandler	PTR FTN()void  size(2) Largest target is 1
		 -> i2_RB6_INT_HANDLER(), RB7_INT_HANDLER(), RB6_INT_HANDLER(), RB5_INT_HANDLER(), 
		 -> RB4_INT_HANDLER(), 

    RB5_INT.EXT_InterruptHandler	PTR FTN()void  size(2) Largest target is 1
		 -> i2_RB5_INT_HANDLER(), RB7_INT_HANDLER(), RB6_INT_HANDLER(), RB5_INT_HANDLER(), 
		 -> RB4_INT_HANDLER(), 

    RB4_INT.EXT_InterruptHandler	PTR FTN()void  size(2) Largest target is 1
		 -> i2_RB4_INT_HANDLER(), RB7_INT_HANDLER(), RB6_INT_HANDLER(), RB5_INT_HANDLER(), 
		 -> RB4_INT_HANDLER(), 

    Interrupt_RBx_set_pin_init_value@int_obj.EXT_InterruptHandler	PTR FTN()void  size(2) Largest target is 1
		 -> RB7_INT_HANDLER(), RB6_INT_HANDLER(), RB5_INT_HANDLER(), RB4_INT_HANDLER(), 

    Interrupt_RBx_set_pin_init_value@int_obj	PTR const struct . size(2) Largest target is 5
		 -> RB7_INT(BANK0[5]), RB6_INT(COMRAM[5]), RB5_INT(COMRAM[5]), RB4_INT(COMRAM[5]), 

    RB7_SetInterruptHandler@InterruptHandler	PTR FTN()void  size(2) Largest target is 1
		 -> i2_RB7_INT_HANDLER(), i2_RB6_INT_HANDLER(), i2_RB5_INT_HANDLER(), i2_RB4_INT_HANDLER(), 
		 -> RB7_INT_HANDLER(), RB6_INT_HANDLER(), RB5_INT_HANDLER(), RB4_INT_HANDLER(), 

    RB6_SetInterruptHandler@InterruptHandler	PTR FTN()void  size(2) Largest target is 1
		 -> i2_RB7_INT_HANDLER(), i2_RB6_INT_HANDLER(), i2_RB5_INT_HANDLER(), i2_RB4_INT_HANDLER(), 
		 -> RB7_INT_HANDLER(), RB6_INT_HANDLER(), RB5_INT_HANDLER(), RB4_INT_HANDLER(), 

    RB5_SetInterruptHandler@InterruptHandler	PTR FTN()void  size(2) Largest target is 1
		 -> i2_RB7_INT_HANDLER(), i2_RB6_INT_HANDLER(), i2_RB5_INT_HANDLER(), i2_RB4_INT_HANDLER(), 
		 -> RB7_INT_HANDLER(), RB6_INT_HANDLER(), RB5_INT_HANDLER(), RB4_INT_HANDLER(), 

    RB4_SetInterruptHandler@InterruptHandler	PTR FTN()void  size(2) Largest target is 1
		 -> i2_RB7_INT_HANDLER(), i2_RB6_INT_HANDLER(), i2_RB5_INT_HANDLER(), i2_RB4_INT_HANDLER(), 
		 -> RB7_INT_HANDLER(), RB6_INT_HANDLER(), RB5_INT_HANDLER(), RB4_INT_HANDLER(), 

    Interrupt_RBx_SetInterruptHandler@int_obj.EXT_InterruptHandler	PTR FTN()void  size(2) Largest target is 1
		 -> RB7_INT_HANDLER(), RB6_INT_HANDLER(), RB5_INT_HANDLER(), RB4_INT_HANDLER(), 

    Interrupt_RBx_SetInterruptHandler@int_obj	PTR const struct . size(2) Largest target is 5
		 -> RB7_INT(BANK0[5]), RB6_INT(COMRAM[5]), RB5_INT(COMRAM[5]), RB4_INT(COMRAM[5]), 

    Interrupt_RBx_Pin_Init@int_obj.EXT_InterruptHandler	PTR FTN()void  size(2) Largest target is 1
		 -> RB7_INT_HANDLER(), RB6_INT_HANDLER(), RB5_INT_HANDLER(), RB4_INT_HANDLER(), 

    Interrupt_RBx_Pin_Init@int_obj	PTR const struct . size(2) Largest target is 5
		 -> RB7_INT(BANK0[5]), RB6_INT(COMRAM[5]), RB5_INT(COMRAM[5]), RB4_INT(COMRAM[5]), 

    Interrupt_RBx_Priority_Init@int_obj.EXT_InterruptHandler	PTR FTN()void  size(2) Largest target is 1
		 -> RB7_INT_HANDLER(), RB6_INT_HANDLER(), RB5_INT_HANDLER(), RB4_INT_HANDLER(), 

    Interrupt_RBx_Priority_Init@int_obj	PTR const struct . size(2) Largest target is 5
		 -> RB7_INT(BANK0[5]), RB6_INT(COMRAM[5]), RB5_INT(COMRAM[5]), RB4_INT(COMRAM[5]), 

    Interrupt_RBx_Disable@int_obj	PTR const struct . size(2) Largest target is 5
		 -> RB7_INT(BANK0[5]), RB6_INT(COMRAM[5]), RB5_INT(COMRAM[5]), RB4_INT(COMRAM[5]), 

    S865$EXT_InterruptHandler	PTR FTN()void  size(2) Largest target is 1
		 -> RB7_INT_HANDLER(), RB6_INT_HANDLER(), RB5_INT_HANDLER(), RB4_INT_HANDLER(), 

    Interrupt_RBx_Enable@int_obj.EXT_InterruptHandler	PTR FTN()void  size(2) Largest target is 1
		 -> RB7_INT_HANDLER(), RB6_INT_HANDLER(), RB5_INT_HANDLER(), RB4_INT_HANDLER(), 

    Interrupt_RBx_Enable@int_obj	PTR const struct . size(2) Largest target is 5
		 -> RB7_INT(BANK0[5]), RB6_INT(COMRAM[5]), RB5_INT(COMRAM[5]), RB4_INT(COMRAM[5]), 

    Interrupt_INTx_SetInterruptHandler@int_obj.EXT_InterruptHandler	PTR FTN()void  size(2) Largest target is 0

    Interrupt_INTx_Clear_Flag@int_obj.EXT_InterruptHandler	PTR FTN()void  size(2) Largest target is 0

    Interrupt_INTx_Pin_Init@int_obj.EXT_InterruptHandler	PTR FTN()void  size(2) Largest target is 0

    Interrupt_INTx_Edge_Init@int_obj.EXT_InterruptHandler	PTR FTN()void  size(2) Largest target is 0

    Interrupt_INTx_Priority_Init@int_obj.EXT_InterruptHandler	PTR FTN()void  size(2) Largest target is 0

    Interrupt_INTx_Disable@int_obj.EXT_InterruptHandler	PTR FTN()void  size(2) Largest target is 0

    S823$EXT_InterruptHandler	PTR FTN()void  size(2) Largest target is 0

    Interrupt_INTx_Enable@int_obj.EXT_InterruptHandler	PTR FTN()void  size(2) Largest target is 0

    RB7_InterruptHandler	PTR FTN()void  size(2) Largest target is 1
		 -> i2_RB7_INT_HANDLER(), i2_RB6_INT_HANDLER(), i2_RB5_INT_HANDLER(), i2_RB4_INT_HANDLER(), 
		 -> RB7_INT_HANDLER(), RB6_INT_HANDLER(), RB5_INT_HANDLER(), RB4_INT_HANDLER(), 
		 -> NULL(), 

    RB6_InterruptHandler	PTR FTN()void  size(2) Largest target is 1
		 -> i2_RB7_INT_HANDLER(), i2_RB6_INT_HANDLER(), i2_RB5_INT_HANDLER(), i2_RB4_INT_HANDLER(), 
		 -> RB7_INT_HANDLER(), RB6_INT_HANDLER(), RB5_INT_HANDLER(), RB4_INT_HANDLER(), 
		 -> NULL(), 

    RB5_InterruptHandler	PTR FTN()void  size(2) Largest target is 1
		 -> i2_RB7_INT_HANDLER(), i2_RB6_INT_HANDLER(), i2_RB5_INT_HANDLER(), i2_RB4_INT_HANDLER(), 
		 -> RB7_INT_HANDLER(), RB6_INT_HANDLER(), RB5_INT_HANDLER(), RB4_INT_HANDLER(), 
		 -> NULL(), 

    RB4_InterruptHandler	PTR FTN()void  size(2) Largest target is 1
		 -> i2_RB7_INT_HANDLER(), i2_RB6_INT_HANDLER(), i2_RB5_INT_HANDLER(), i2_RB4_INT_HANDLER(), 
		 -> RB7_INT_HANDLER(), RB6_INT_HANDLER(), RB5_INT_HANDLER(), RB4_INT_HANDLER(), 
		 -> NULL(), 

    INT2_InterruptHandler	PTR FTN()void  size(2) Largest target is 1
		 -> NULL(), 

    INT1_InterruptHandler	PTR FTN()void  size(2) Largest target is 1
		 -> NULL(), 

    INT0_InterruptHandler	PTR FTN()void  size(2) Largest target is 1
		 -> NULL(), 

    Interrupt_RBx_Init@int_obj	PTR const struct . size(2) Largest target is 5
		 -> RB7_INT(BANK0[5]), RB6_INT(COMRAM[5]), RB5_INT(COMRAM[5]), RB4_INT(COMRAM[5]), 

    gpio_pin_toggle_logic@pin_config	PTR const struct . size(2) Largest target is 1
		 -> led_toggle@pin_obj(COMRAM[1]), 

    gpio_pin_write_logic@pin_config	PTR const struct . size(2) Largest target is 1
		 -> relay_turn_off@pin_obj(COMRAM[1]), relay_turn_on@pin_obj(COMRAM[1]), relay_initialize@pin_obj(COMRAM[1]), led_turn_off@pin_obj(COMRAM[1]), 
		 -> led_turn_on@pin_obj(COMRAM[1]), led_initialize@pin_obj(BANK0[1]), 

    gpio_pin_direction_initialize@pin_config	PTR const struct . size(2) Largest target is 5
		 -> RB7_INT(BANK0[5]), RB6_INT(COMRAM[5]), RB5_INT(COMRAM[5]), RB4_INT(COMRAM[5]), 
		 -> relay_initialize@pin_obj(COMRAM[1]), led_initialize@pin_obj(BANK0[1]), 

    gpio_pin_initialize@pin_config	PTR const struct . size(2) Largest target is 1
		 -> relay_initialize@pin_obj(COMRAM[1]), led_initialize@pin_obj(BANK0[1]), 

    port_registers	PTR volatile unsigned char [5] size(2) Largest target is 3967
		 -> RAM(DATA[3967]), 

    lat_registers	PTR volatile unsigned char [5] size(2) Largest target is 3967
		 -> RAM(DATA[3967]), 

    tris_registers	PTR volatile unsigned char [5] size(2) Largest target is 3967
		 -> RAM(DATA[3967]), 

    led_toggle@led	PTR const struct . size(2) Largest target is 1
		 -> led4(COMRAM[1]), led3(COMRAM[1]), led2(COMRAM[1]), led1(COMRAM[1]), 

    led_initialize@led	PTR const struct . size(2) Largest target is 1
		 -> led4(COMRAM[1]), led3(COMRAM[1]), led2(COMRAM[1]), led1(COMRAM[1]), 

    sp__memset	PTR void  size(2) Largest target is 0


Critical Paths under _main in COMRAM

    None.

Critical Paths under _InterruptManagerLow in COMRAM

    _RB7_INT_HANDLER->_led_toggle
    _RB6_INT_HANDLER->_led_toggle
    _RB5_INT_HANDLER->_led_toggle
    _RB4_INT_HANDLER->_led_toggle
    _led_toggle->_gpio_pin_toggle_logic

Critical Paths under _InterruptManagerHigh in COMRAM

    i2_RB7_INT_HANDLER->i2_led_toggle
    i2_RB6_INT_HANDLER->i2_led_toggle
    i2_RB5_INT_HANDLER->i2_led_toggle
    i2_RB4_INT_HANDLER->i2_led_toggle
    i2_led_toggle->i2_gpio_pin_toggle_logic

Critical Paths under _main in BANK0

    _ecu_layer_initialize->_led_initialize
    _led_initialize->_gpio_pin_initialize
    _gpio_pin_initialize->_gpio_pin_write_logic
    _Interrupt_RBx_Init->_Interrupt_RBx_Pin_Init
    _Interrupt_RBx_SetInterruptHandler->_RB4_SetInterruptHandler
    _Interrupt_RBx_SetInterruptHandler->_RB5_SetInterruptHandler
    _Interrupt_RBx_SetInterruptHandler->_RB6_SetInterruptHandler
    _Interrupt_RBx_SetInterruptHandler->_RB7_SetInterruptHandler
    _Interrupt_RBx_Pin_Init->_gpio_pin_direction_initialize

Critical Paths under _InterruptManagerLow in BANK0

    None.

Critical Paths under _InterruptManagerHigh in BANK0

    None.

Critical Paths under _main in BANK1

    None.

Critical Paths under _InterruptManagerLow in BANK1

    None.

Critical Paths under _InterruptManagerHigh in BANK1

    None.

Critical Paths under _main in BANK2

    None.

Critical Paths under _InterruptManagerLow in BANK2

    None.

Critical Paths under _InterruptManagerHigh in BANK2

    None.

Critical Paths under _main in BANK3

    None.

Critical Paths under _InterruptManagerLow in BANK3

    None.

Critical Paths under _InterruptManagerHigh in BANK3

    None.

Critical Paths under _main in BANK4

    None.

Critical Paths under _InterruptManagerLow in BANK4

    None.

Critical Paths under _InterruptManagerHigh in BANK4

    None.

Critical Paths under _main in BANK5

    None.

Critical Paths under _InterruptManagerLow in BANK5

    None.

Critical Paths under _InterruptManagerHigh in BANK5

    None.

Critical Paths under _main in BANK6

    None.

Critical Paths under _InterruptManagerLow in BANK6

    None.

Critical Paths under _InterruptManagerHigh in BANK6

    None.

Critical Paths under _main in BANK7

    None.

Critical Paths under _InterruptManagerLow in BANK7

    None.

Critical Paths under _InterruptManagerHigh in BANK7

    None.

Critical Paths under _main in BANK8

    None.

Critical Paths under _InterruptManagerLow in BANK8

    None.

Critical Paths under _InterruptManagerHigh in BANK8

    None.

Critical Paths under _main in BANK9

    None.

Critical Paths under _InterruptManagerLow in BANK9

    None.

Critical Paths under _InterruptManagerHigh in BANK9

    None.

Critical Paths under _main in BANK10

    None.

Critical Paths under _InterruptManagerLow in BANK10

    None.

Critical Paths under _InterruptManagerHigh in BANK10

    None.

Critical Paths under _main in BANK11

    None.

Critical Paths under _InterruptManagerLow in BANK11

    None.

Critical Paths under _InterruptManagerHigh in BANK11

    None.

Critical Paths under _main in BANK12

    None.

Critical Paths under _InterruptManagerLow in BANK12

    None.

Critical Paths under _InterruptManagerHigh in BANK12

    None.

Critical Paths under _main in BANK13

    None.

Critical Paths under _InterruptManagerLow in BANK13

    None.

Critical Paths under _InterruptManagerHigh in BANK13

    None.

Critical Paths under _main in BANK14

    None.

Critical Paths under _InterruptManagerLow in BANK14

    None.

Critical Paths under _InterruptManagerHigh in BANK14

    None.

Critical Paths under _main in BANK15

    None.

Critical Paths under _InterruptManagerLow in BANK15

    None.

Critical Paths under _InterruptManagerHigh in BANK15

    None.

Call Graph Tables:

 ---------------------------------------------------------------------------------
 (Depth) Function   	        Calls       Base Space   Used Autos Params    Refs
 ---------------------------------------------------------------------------------
 (0) _main                                                 0     0      0   12417
                 _Interrupt_RBx_Init
             _application_initialize
 ---------------------------------------------------------------------------------
 (1) _application_initialize                               1     1      0    8785
               _ecu_layer_initialize
 ---------------------------------------------------------------------------------
 (2) _ecu_layer_initialize                                 1     1      0    8782
                     _led_initialize
 ---------------------------------------------------------------------------------
 (3) _led_initialize                                       5     3      2    8779
                                             14 BANK0      4     2      2
                _gpio_pin_initialize
 ---------------------------------------------------------------------------------
 (4) _gpio_pin_initialize                                  4     2      2    8185
                                             10 BANK0      4     2      2
      _gpio_pin_direction_initialize
               _gpio_pin_write_logic
 ---------------------------------------------------------------------------------
 (5) _gpio_pin_write_logic                                10     7      3    5868
                                              0 BANK0     10     7      3
 ---------------------------------------------------------------------------------
 (1) _Interrupt_RBx_Init                                   3     1      2    3632
                                             12 BANK0      3     1      2
              _Interrupt_RBx_Disable
               _Interrupt_RBx_Enable
             _Interrupt_RBx_Pin_Init
        _Interrupt_RBx_Priority_Init
  _Interrupt_RBx_SetInterruptHandler
   _Interrupt_RBx_set_pin_init_value
 ---------------------------------------------------------------------------------
 (2) _Interrupt_RBx_set_pin_init_value                     5     3      2     316
                                              0 BANK0      5     3      2
 ---------------------------------------------------------------------------------
 (2) _Interrupt_RBx_SetInterruptHandler                    5     3      2    1084
                                              3 BANK0      5     3      2
            _RB4_SetInterruptHandler
            _RB5_SetInterruptHandler
            _RB6_SetInterruptHandler
            _RB7_SetInterruptHandler
 ---------------------------------------------------------------------------------
 (3) _RB7_SetInterruptHandler                              3     1      2     189
                                              0 BANK0      3     1      2
 ---------------------------------------------------------------------------------
 (3) _RB6_SetInterruptHandler                              3     1      2     189
                                              0 BANK0      3     1      2
 ---------------------------------------------------------------------------------
 (3) _RB5_SetInterruptHandler                              3     1      2     189
                                              0 BANK0      3     1      2
 ---------------------------------------------------------------------------------
 (3) _RB4_SetInterruptHandler                              3     1      2     189
                                              0 BANK0      3     1      2
 ---------------------------------------------------------------------------------
 (2) _Interrupt_RBx_Priority_Init                          4     2      2     223
                                              0 BANK0      4     2      2
 ---------------------------------------------------------------------------------
 (2) _Interrupt_RBx_Pin_Init                               3     1      2     930
                                              9 BANK0      3     1      2
      _gpio_pin_direction_initialize
 ---------------------------------------------------------------------------------
 (5) _gpio_pin_direction_initialize                        9     7      2     738
                                              0 BANK0      9     7      2
 ---------------------------------------------------------------------------------
 (2) _Interrupt_RBx_Enable                                 4     2      2     223
                                              0 BANK0      4     2      2
 ---------------------------------------------------------------------------------
 (2) _Interrupt_RBx_Disable                                3     1      2     248
                                              0 BANK0      3     1      2
 ---------------------------------------------------------------------------------
 Estimated maximum stack depth 5
 ---------------------------------------------------------------------------------
 (Depth) Function   	        Calls       Base Space   Used Autos Params    Refs
 ---------------------------------------------------------------------------------
 (6) _InterruptManagerLow                                  9     9      0   10336
                                             30 COMRAM     9     9      0
                           _INT1_ISR
                           _INT2_ISR
                            _RB4_ISR
                            _RB5_ISR
                            _RB6_ISR
                            _RB7_ISR
 ---------------------------------------------------------------------------------
 (7) _RB7_ISR                                              0     0      0    2584
                                NULL *
                    _RB4_INT_HANDLER *
                    _RB5_INT_HANDLER *
                    _RB6_INT_HANDLER *
                    _RB7_INT_HANDLER *
 ---------------------------------------------------------------------------------
 (7) _RB6_ISR                                              0     0      0    2584
                                NULL *
                    _RB4_INT_HANDLER *
                    _RB5_INT_HANDLER *
                    _RB6_INT_HANDLER *
                    _RB7_INT_HANDLER *
 ---------------------------------------------------------------------------------
 (7) _RB5_ISR                                              0     0      0    2584
                                NULL *
                    _RB4_INT_HANDLER *
                    _RB5_INT_HANDLER *
                    _RB6_INT_HANDLER *
                    _RB7_INT_HANDLER *
 ---------------------------------------------------------------------------------
 (7) _RB4_ISR                                              0     0      0    2584
                                NULL *
                    _RB4_INT_HANDLER *
                    _RB5_INT_HANDLER *
                    _RB6_INT_HANDLER *
                    _RB7_INT_HANDLER *
 ---------------------------------------------------------------------------------
 (8) _RB7_INT_HANDLER                                      0     0      0     646
                         _led_toggle
 ---------------------------------------------------------------------------------
 (8) _RB6_INT_HANDLER                                      0     0      0     646
                         _led_toggle
 ---------------------------------------------------------------------------------
 (8) _RB5_INT_HANDLER                                      0     0      0     646
                         _led_toggle
 ---------------------------------------------------------------------------------
 (8) _RB4_INT_HANDLER                                      0     0      0     646
                         _led_toggle
 ---------------------------------------------------------------------------------
 (9) _led_toggle                                           5     3      2     646
                                             26 COMRAM     4     2      2
              _gpio_pin_toggle_logic
 ---------------------------------------------------------------------------------
 (10) _gpio_pin_toggle_logic                               8     6      2     210
                                             18 COMRAM     8     6      2
 ---------------------------------------------------------------------------------
 (13) NULL(Fake)                                           0     0      0       0
 ---------------------------------------------------------------------------------
 (7) _INT2_ISR                                             0     0      0       0
 ---------------------------------------------------------------------------------
 (7) _INT1_ISR                                             0     0      0       0
 ---------------------------------------------------------------------------------
 Estimated maximum stack depth 13
 ---------------------------------------------------------------------------------
 (Depth) Function   	        Calls       Base Space   Used Autos Params    Refs
 ---------------------------------------------------------------------------------
 (11) _InterruptManagerHigh                                6     6      0    6272
                                             12 COMRAM     6     6      0
                           _INT0_ISR
                         i2_INT1_ISR
                         i2_INT2_ISR
                          i2_RB4_ISR
                          i2_RB5_ISR
                          i2_RB6_ISR
                          i2_RB7_ISR
 ---------------------------------------------------------------------------------
 (12) i2_RB7_ISR                                           0     0      0    1568
                                NULL *
                  i2_RB4_INT_HANDLER *
                  i2_RB5_INT_HANDLER *
                  i2_RB6_INT_HANDLER *
                  i2_RB7_INT_HANDLER *
 ---------------------------------------------------------------------------------
 (12) i2_RB6_ISR                                           0     0      0    1568
                                NULL *
                  i2_RB4_INT_HANDLER *
                  i2_RB5_INT_HANDLER *
                  i2_RB6_INT_HANDLER *
                  i2_RB7_INT_HANDLER *
 ---------------------------------------------------------------------------------
 (12) i2_RB5_ISR                                           0     0      0    1568
                                NULL *
                  i2_RB4_INT_HANDLER *
                  i2_RB5_INT_HANDLER *
                  i2_RB6_INT_HANDLER *
                  i2_RB7_INT_HANDLER *
 ---------------------------------------------------------------------------------
 (12) i2_RB4_ISR                                           0     0      0    1568
                                NULL *
                  i2_RB4_INT_HANDLER *
                  i2_RB5_INT_HANDLER *
                  i2_RB6_INT_HANDLER *
                  i2_RB7_INT_HANDLER *
 ---------------------------------------------------------------------------------
 (13) i2_RB7_INT_HANDLER                                   0     0      0     392
                       i2_led_toggle
 ---------------------------------------------------------------------------------
 (13) i2_RB6_INT_HANDLER                                   0     0      0     392
                       i2_led_toggle
 ---------------------------------------------------------------------------------
 (13) i2_RB5_INT_HANDLER                                   0     0      0     392
                       i2_led_toggle
 ---------------------------------------------------------------------------------
 (13) i2_RB4_INT_HANDLER                                   0     0      0     392
                       i2_led_toggle
 ---------------------------------------------------------------------------------
 (14) i2_led_toggle                                        5     3      2     392
                                              8 COMRAM     4     2      2
            i2_gpio_pin_toggle_logic
 ---------------------------------------------------------------------------------
 (15) i2_gpio_pin_toggle_logic                             8     6      2     160
                                              0 COMRAM     8     6      2
 ---------------------------------------------------------------------------------
 (13) NULL(Fake)                                           0     0      0       0
 ---------------------------------------------------------------------------------
 (12) i2_INT2_ISR                                          0     0      0       0
 ---------------------------------------------------------------------------------
 (12) i2_INT1_ISR                                          0     0      0       0
 ---------------------------------------------------------------------------------
 (12) _INT0_ISR                                            0     0      0       0
 ---------------------------------------------------------------------------------
 Estimated maximum stack depth 15
 ---------------------------------------------------------------------------------

 Call Graph Graphs:

 _main (ROOT)
   _Interrupt_RBx_Init
     _Interrupt_RBx_Disable
     _Interrupt_RBx_Enable
     _Interrupt_RBx_Pin_Init
       _gpio_pin_direction_initialize
     _Interrupt_RBx_Priority_Init
     _Interrupt_RBx_SetInterruptHandler
       _RB4_SetInterruptHandler
       _RB5_SetInterruptHandler
       _RB6_SetInterruptHandler
       _RB7_SetInterruptHandler
     _Interrupt_RBx_set_pin_init_value
   _application_initialize
     _ecu_layer_initialize
       _led_initialize
         _gpio_pin_initialize
           _gpio_pin_direction_initialize
           _gpio_pin_write_logic

 _InterruptManagerLow (ROOT)
   _INT1_ISR
   _INT2_ISR
   _RB4_ISR
     NULL(Fake) *
     _RB4_INT_HANDLER *
       _led_toggle
         _gpio_pin_toggle_logic
     _RB5_INT_HANDLER *
       _led_toggle
     _RB6_INT_HANDLER *
       _led_toggle
     _RB7_INT_HANDLER *
       _led_toggle
   _RB5_ISR
     NULL(Fake) *
     _RB4_INT_HANDLER *
     _RB5_INT_HANDLER *
     _RB6_INT_HANDLER *
     _RB7_INT_HANDLER *
   _RB6_ISR
     NULL(Fake) *
     _RB4_INT_HANDLER *
     _RB5_INT_HANDLER *
     _RB6_INT_HANDLER *
     _RB7_INT_HANDLER *
   _RB7_ISR
     NULL(Fake) *
     _RB4_INT_HANDLER *
     _RB5_INT_HANDLER *
     _RB6_INT_HANDLER *
     _RB7_INT_HANDLER *

 _InterruptManagerHigh (ROOT)
   _INT0_ISR
   i2_INT1_ISR
   i2_INT2_ISR
   i2_RB4_ISR
     NULL(Fake) *
     i2_RB4_INT_HANDLER *
       i2_led_toggle
         i2_gpio_pin_toggle_logic
     i2_RB5_INT_HANDLER *
       i2_led_toggle
     i2_RB6_INT_HANDLER *
       i2_led_toggle
     i2_RB7_INT_HANDLER *
       i2_led_toggle
   i2_RB5_ISR
     NULL(Fake) *
     i2_RB4_INT_HANDLER *
     i2_RB5_INT_HANDLER *
     i2_RB6_INT_HANDLER *
     i2_RB7_INT_HANDLER *
   i2_RB6_ISR
     NULL(Fake) *
     i2_RB4_INT_HANDLER *
     i2_RB5_INT_HANDLER *
     i2_RB6_INT_HANDLER *
     i2_RB7_INT_HANDLER *
   i2_RB7_ISR
     NULL(Fake) *
     i2_RB4_INT_HANDLER *
     i2_RB5_INT_HANDLER *
     i2_RB6_INT_HANDLER *
     i2_RB7_INT_HANDLER *

 Address spaces:
Name               Size   Autos  Total    Cost      Usage
BIGRAM             F7F      0       0      38        0.0%
EEDATA             400      0       0       0        0.0%
BITBANK14          100      0       0      33        0.0%
BANK14             100      0       0      34        0.0%
BITBANK13          100      0       0      31        0.0%
BANK13             100      0       0      32        0.0%
BITBANK12          100      0       0      29        0.0%
BANK12             100      0       0      30        0.0%
BITBANK11          100      0       0      27        0.0%
BANK11             100      0       0      28        0.0%
BITBANK10          100      0       0      25        0.0%
BANK10             100      0       0      26        0.0%
BITBANK9           100      0       0      23        0.0%
BANK9              100      0       0      24        0.0%
BITBANK8           100      0       0      21        0.0%
BANK8              100      0       0      22        0.0%
BITBANK7           100      0       0      19        0.0%
BANK7              100      0       0      20        0.0%
BITBANK6           100      0       0      17        0.0%
BANK6              100      0       0      18        0.0%
BITBANK5           100      0       0      15        0.0%
BANK5              100      0       0      16        0.0%
BITBANK4           100      0       0      13        0.0%
BANK4              100      0       0      14        0.0%
BITBANK3           100      0       0      10        0.0%
BANK3              100      0       0      11        0.0%
BITBANK2           100      0       0       8        0.0%
BANK2              100      0       0       9        0.0%
BITBANK1           100      0       0       6        0.0%
BANK1              100      0       0       7        0.0%
BITBIGSFR           80      0       0      37        0.0%
BITBANK15           80      0       0      35        0.0%
BANK15              80      0       0      36        0.0%
BITBANK0            80      0       0       4        0.0%
BANK0               80     12      39       5       44.5%
BITCOMRAM           7E      0       0       0        0.0%
COMRAM              7E     27      68       1       82.5%
BIGSFR               0      0       0     200        0.0%
BITSFR               0      0       0     200        0.0%
SFR                  0      0       0     200        0.0%
STACK                0      0       0       2        0.0%
NULL                 0      0       0       0        0.0%
ABS                  0      0      A1      12        0.0%
DATA                 0      0      A1       3        0.0%
CODE                 0      0       0       0        0.0%


Microchip Technology PIC18 Macro Assembler V2.41 build 20230208172133 
Symbol Table                                                                                   Sat Sep 16 12:43:11 2023

                     ??_Interrupt_RBx_Init 00B5                                         bsr 0FE0  
                    ??_InterruptManagerLow 0046                            _RB5_INT_HANDLER 1E4C  
                                      l513 1868                                        l284 18DE  
                                      l349 1B6A                                        l366 17EC  
                                      l704 1DBE                                        l378 12FC  
                                      l714 1D66                                        l731 15E8  
                                      l709 1D92                                        l397 144C  
                                      l662 19E4                                        l671 1E2E  
                                      l663 1A30                                        l719 1D3A  
                                      l832 1B2A                                        l673 1E32  
                                      l833 1B2A                                        l682 1A96  
                                      l668 1A32                                        l677 1A94  
                                      l838 1ED0                                        l687 1B9E  
                                      l699 1528              gpio_pin_initialize@pin_config 00B1  
                   ??_InterruptManagerHigh 0034                                        _ret 005D  
                      led_initialize@F3155 0068                                        prod 0FF3  
                                      tosl 0FFD                                        wreg 0FE8  
                    relay_initialize@F3149 0064                            __end_of_RB4_ISR 1C58  
                          __end_of_RB5_ISR 1C2A                            __end_of_RB6_ISR 1BFC  
                          __end_of_RB7_ISR 1BCE                                       l4401 175E  
                                     l4411 17EA                                       l4403 1772  
                                     l4405 1794                                       l4421 1888  
                                     l4351 1316                                       l4407 17B2  
                                     l4431 18D2                                       l4423 18A6  
                                     l4415 186A                                       l4601 1B80  
                                     l4441 1DB4                                       l4353 1338  
                                     l4409 17BA                                       l4425 18A8  
                                     l4417 186A                                       l4603 1B88  
                                     l4443 1DBC                                       l4435 1D94  
                                     l4451 1D80                                       l4611 144E  
                                     l4363 1420                                       l4355 1356  
                                     l4347 12FE                                       l4427 18BC  
                                     l4419 186E                                       l4381 11EE  
                                     l4373 1196                                       l4605 1B9C  
                                     l4437 1D9A                                       l4453 1D88  
                                     l4461 1D42                                       l4621 14BE  
                                     l4613 1462                                       l4357 135E  
                                     l4365 144A                                       l4349 1304  
                                     l4429 18CE                     ??_Interrupt_RBx_Enable 00A9  
                                     l4383 11F6                                       l4391 12FA  
                                     l4375 119C                                       l4439 1DAC  
                                     l4455 1D90                                       l4447 1D68  
                                     l4463 1D54                                       l4471 1D10  
                                     l4615 146A                                       l4359 13BC  
                                     l4385 125A                                       l4377 11AE  
                                     l4449 1D6E                                       l4465 1D5C  
                                     l4473 1D16                                       l4617 1486  
                                     l4625 14DA                                       l4609 144E  
                                     l4641 154A                                       l4561 1B32  
                                     l4571 1E14                                       l4379 11D0  
                                     l4467 1D64                                       l4459 1D3C  
                                     l4475 1D28                                       l4619 14A2  
                                     l4627 1526                                       l5371 15C0  
                                     l4643 155E                                       l4651 159A  
                                     l4635 152A                                       l4563 1B40  
                                     l4573 1E26                                       l4661 19C4  
                                     l4389 12B8                                       l4581 1A3A  
                                     l4477 1D30                                       l5373 1500  
                                     l4645 1572                                       l4653 15E6  
                                     l4637 1530                                       l4565 1B4E  
                                     l4575 1E30                                       l4671 1A08  
                                     l4663 19CA                                       l5375 12E4  
                                     l4591 1A92                                       l4583 1A4C  
                                     l4479 1D38                                       l4647 1586  
                                     l4639 1542                                       l4751 1816  
                                     l4743 17EE                                       l4399 175E  
                                     l4567 1B5C                                       l4559 1B32  
                                     l5287 1AEE                                       l4569 1E0E  
                                     l4673 1A24                                       l4665 19DC  
                                     l4585 1A54                                       l4761 1858  
                                     l4753 1818                                       l4745 17EE  
                                     l5369 1434                                       l4675 1A2A  
                                     l4667 19E6                                       l4587 1A70  
                                     l4579 1A34                                       l4755 1828  
                                     l4747 1802                                       l4677 1A2E  
                                     l4669 1A02                                       l4597 1B6C  
                                     l4589 1A76                                       l4757 1838  
                                     l4749 1806                                       l4765 1ECC  
                                     l4599 1B6C                                       l4759 1848  
                                     l4767 1ECC                                       STR_1 1011  
                                     u4020 1E26                                       u4100 1A02  
                                     u4021 1E22                                       u4101 19FE  
                                     u4110 1A24                                       u4030 1A4C  
                                     u4111 1A20                                       u4031 1A48  
                                     u4040 1A70                                       u4041 1A6C  
                                     u4050 1A92                                       u4051 1A8E  
                                     u4060 1B80                                       u4061 1B7C  
                                     u4070 1462                                       u4071 145E  
                                     u4080 1542                                       u4081 153E  
                                     u4090 19DC                                       u4091 19D8  
                                     u4180 1802                                       u4181 17FE  
                                     u3800 11D0                                       u3801 11CC  
                                     u3810 11EE                                       u3811 11EA  
                                     u3740 1316                                       u3900 18CE  
                                     u3741 1312                                       u3901 18CA  
                                     u3910 1DAC                                       u3750 1338  
                                     u3911 1DA8                                       u3751 1334  
                                     u3840 12D0                                       u3824 1216  
                                     u3920 1D80                                       u3760 1356  
                                     u3841 12CA                                       u3825 1212  
                                     u3921 1D7C                                       u3761 1352  
                                     u3850 12D2                                       u3834 127A  
                                     u3930 1D54                                       u3835 1276  
                                     u3931 1D50                                       u3940 1D28  
                                     u3860 1772                                       u3941 1D24  
                                     u3861 176E                                       u3790 11AE  
                                     u3774 137E                                       u3870 1794  
                                     u3791 11AA                                       u3775 137A  
                                     u3871 1790                                       u3784 13DC  
                                     u3880 17B2                                       u3785 13D8  
                                     u3881 17AE                                       u3895 18B8  
                                     u3897 18BC                       fp_i2_RB4_INT_HANDLER 0000  
                                     _lcd1 009C                                       _led1 0027  
                                     _led2 0026                                       _led3 0025  
                                     _led4 0024                                       _main 1AEE  
                              ?i2_INT1_ISR 0028                                ?i2_INT2_ISR 0028  
          __end_of_RB6_SetInterruptHandler 1D68                                       fsr2h 0FDA  
                                     indf2 0FDF                                       fsr1l 0FE1  
                                     fsr2l 0FD9                                       btemp 0069  
                   __end_of_led_initialize 18E0                                       prodh 0FF4  
                                     prodl 0FF3                                       start 0190  
                  __end_of_RB4_INT_HANDLER 1E7C                       _RB7_InterruptHandler 004F  
                             ___param_bank 0000                     ?_gpio_pin_toggle_logic 003A  
                     _gpio_pin_write_logic 12FE                           __end_of_INT0_ISR 1EE6  
                         __end_of_INT1_ISR 1EDA                           __end_of_INT2_ISR 1ED6  
                          _RB6_INT_HANDLER 1E34                                      ?_main 0028  
                 ??_application_initialize 00B9                    ??_Interrupt_RBx_Disable 00A9  
                  _RB5_SetInterruptHandler 1D68                                      i1l305 1950  
                                    i1l411 16A2                                      i1l530 1ED4  
                                    i1l526 1ED8                                      i1l534 1C56  
                                    i1l542 1BFA                                      i2l305 19C2  
                                    i1l538 1C28                                      i1l546 1BCC  
                                    i2l411 175C                                      i1l811 1E62  
                                    i1l814 1E4A                                      i1l808 1E7A  
                                    i1l817 1E92                                      i2l522 1EE4  
                                    i2l530 1EDC                                      i1l780 007E  
                                    i2l526 1EE0                                      i2l534 1D0E  
                                    i2l542 1CB2                                      i1l782 00B8  
                                    i1l784 00F4                                      i2l538 1CE0  
                                    i2l546 1C84                                      i1l786 0130  
                                    i1l778 005E                                      i2l811 1EAE  
                                    i1l789 0168                                      i2l814 1EA0  
                                    i2l808 1EBC                                      i2l817 1ECA  
                                    i2l761 1070                                      i2l763 1090  
                                    i2l772 117A                                      i2l765 10CA  
                                    i2l767 1106                                      i2l759 1050  
                                    i2l769 1142                        relay_turn_off@F3159 0062  
               RB5_SetInterruptHandler@ret 00A9                                      _lcd_2 008A  
                                    pclath 0FFA                                      pclatu 0FFB  
                                    tablat 0FF5                       fp_i2_RB5_INT_HANDLER 0000  
 __end_of_Interrupt_RBx_set_pin_init_value 15EA         ??_Interrupt_RBx_set_pin_init_value 00A9  
        ?_Interrupt_RBx_set_pin_init_value 00A7           _Interrupt_RBx_set_pin_init_value 152A  
                                    ttemp5 006A                                      ttemp6 006D  
                                    ttemp7 0071                                      status 0FD8  
            Interrupt_RBx_Pin_Init@int_obj 00B0                                      wtemp8 006A  
                          ?_led_initialize 00B5        __end_of_Interrupt_RBx_Priority_Init 1A98  
              _Interrupt_RBx_Priority_Init 1A34             ?_gpio_pin_direction_initialize 00A7  
                  __end_of_RB5_INT_HANDLER 1E64                            __initialization 1A98  
                  i2_gpio_pin_toggle_logic 16A4                               __end_of_main 1B32  
                    ?_gpio_pin_write_logic 00A7                  _RB6_INT_HANDLER$intlevel1 1E3E  
                            _lat_registers 0001                            _RB7_INT_HANDLER 1E7C  
                                   ??_main 00B9                              __activetblptr 0003  
                         led_turn_on@F3160 0067                                  ??_RB4_ISR 0046  
                                ??_RB5_ISR 0046        Interrupt_RBx_set_pin_init_value@ret 00AB  
                                ??_RB6_ISR 0046                                  ??_RB7_ISR 0046  
                       _RB4_pin_init_value 0061                                     i1l2045 1ED6  
                                   i1l2049 1ED2                                     i1l3231 18E0  
                                   i1l3241 192E                                     i1l3233 18E4  
                                   i1l3243 1940                                     i1l3235 18FC  
                                   i1l3181 1600                                     i1l3245 1944  
                                   i1l3237 191A                                     i1l3229 18E0  
                                   i1l4301 00B0                                     i1l3183 1622  
                                   i1l3239 191C                                     i1l4311 00F0  
                                   i1l4303 00B4                                     i1l3185 1640  
                                   i1l3177 15EA                                     i1l3521 1E86  
                                   i1l4321 013E                                     i1l4313 0102  
                                   i1l4305 00C6                                     i1l3187 1648  
                                   i1l3179 15EE                                     i1l3515 1E6E  
                                   i1l4323 014C                                     i1l4315 0110  
                                   i1l4307 00D4                                     i1l3189 16A0  
                                   i1l3517 1E56                                     i1l3621 1BFC  
                                   i1l4325 0160                                     i1l4317 0128  
                                   i1l4309 00EC                                     i1l3519 1E3E  
                                   i1l3615 1C2A                                     i1l3623 1BFE  
                                   i1l3631 1BE2                                     i1l4327 0164  
                                   i1l4319 012C                                     i2l2041 1EE2  
                                   i2l2121 1EDA                                     i1l3617 1C2C  
                                   i1l3625 1C10                                     i1l3633 1BA0  
                                   i1l3619 1C3E                                     i1l3627 1BCE  
                                   i1l3635 1BA2                                     i1l4291 005A  
                                   i2l2117 1EDE                                     i1l3629 1BD0  
                                   i1l3637 1BB4                                     i1l4293 006C  
                                   i1l4295 007A                                     i1l4287 003E  
                                   i2l3201 16FA                                     i1l4297 008C  
                                   i1l4289 004C                                     i2l3203 1702  
                                   i1l4299 009A                                     i2l3205 175A  
                                   i2l3301 1956                                     i2l3311 19B2  
                                   i2l3303 196E                                     i2l3313 19B6  
                                   i2l3305 198C                                     i2l3307 198E  
                                   i2l3309 19A0                          __end_ofi2_RB4_ISR 1D10  
                                   i2l3193 16A4                                     i2l4241 1030  
                                   i2l3195 16A8                                     i2l3523 1EB0  
                                   i2l4251 107E                                     i2l4243 103E  
                                   i2l3197 16BA                                     i2l3525 1EA2  
                                   i2l4261 10C6                                     i2l4253 108C  
                                   i2l4245 104C                                     i2l3199 16DC  
                                   i2l3527 1E94                                     i2l4271 1114  
                                   i2l4263 10D8                                     i2l4255 109E  
                                   i2l4247 105E                                     i2l3297 1952  
                                   i2l3529 1EBE                                     i2l4281 115E  
                                   i2l4273 1122                                     i2l4265 10E6  
                                   i2l4257 10AC                                     i2l4249 106C  
                                   i2l3299 1952                                     i2l3643 1CE2  
                                   i2l3651 1CB6                                     i2l4283 1172  
                                   i2l4275 113A                                     i2l4267 10FE  
                                   i2l4259 10C2                                     i2l3645 1CE4  
                                   i2l3653 1CC8                                     i2l3661 1C58  
                                   i2l4285 1176                                     i2l4277 113E  
                                   i2l4269 1102                                     i2l3647 1CF6  
                                   i2l3655 1C86                                     i2l3663 1C5A  
                                   i2l4279 1150                          __end_ofi2_RB5_ISR 1CE2  
                                   i2l3649 1CB4                                     i2l3657 1C88  
                                   i2l3665 1C6C                                     i2l3659 1C9A  
                        __end_ofi2_RB6_ISR 1CB4                          __end_ofi2_RB7_ISR 1C86  
                             i2_led_toggle 1952                       fp_i2_RB6_INT_HANDLER 0000  
                  Interrupt_RBx_Enable@ret 00AA                        i2led_toggle@pin_obj 0033  
                 ??_Interrupt_RBx_Pin_Init 00B2                   gpio_pin_toggle_logic@ret 0041  
                         ?_RB4_INT_HANDLER 0028                    __end_of_RB6_INT_HANDLER 1E4C  
                ??_RB5_SetInterruptHandler 00A9                                     clear_0 1ADE  
                    led_initialize@pin_obj 00B8                                     isa$std 0001  
                             __pdataCOMRAM 0001                               __mediumconst 0000  
                                   tblptrh 0FF7                                     tblptrl 0FF6  
                                   tblptru 0FF8    RB7_SetInterruptHandler@InterruptHandler 00A7  
  RB6_SetInterruptHandler@InterruptHandler 00A7    RB5_SetInterruptHandler@InterruptHandler 00A7  
  RB4_SetInterruptHandler@InterruptHandler 00A7                         _RB6_pin_init_value 005F  
                     fp_i2_RB7_INT_HANDLER 0000                                 __accesstop 0080  
                  __end_of__initialization 1AE4                                  ?_INT0_ISR 0028  
                                ?_INT1_ISR 0028                                  ?_INT2_ISR 0028  
                            ___rparam_used 0001                  ??i2_gpio_pin_toggle_logic 002A  
                        led_initialize@led 00B5                   ?_RB4_SetInterruptHandler 00A7  
                         ?_RB5_INT_HANDLER 0028                    __end_of_RB7_INT_HANDLER 1E94  
                   ??_gpio_pin_write_logic 00AA                   ?_RB7_SetInterruptHandler 00A7  
                           __pcstackCOMRAM 0028                               __pidataBANK0 1DE7  
 Interrupt_RBx_SetInterruptHandler@int_obj 00AA                               ??i2_INT1_ISR 0028  
                    _INT0_InterruptHandler 005B                                 ??_INT0_ISR 0028  
                             ??i2_INT2_ISR 0028                                 ??_INT1_ISR 003A  
                               ??_INT2_ISR 003A                     _application_initialize 1ECC  
                  ??_gpio_pin_toggle_logic 003C                __end_of_InterruptManagerLow 0190  
                         ?_RB6_INT_HANDLER 0028                          led_turn_off@F3165 0066  
                            led_toggle@led 0042                            led_toggle@F3170 0065  
                                  _RB4_INT 001F                                    _RB4_ISR 1C2A  
                                  _RB5_INT 001A                                    _RB5_ISR 1BFC  
                                  _RB6_INT 0015                                    _RB6_ISR 1BCE  
                                  _RB7_INT 00A2                                    _RB7_ISR 1BA0  
                       __end_ofi2_INT1_ISR 1EE2              __end_of_Interrupt_RBx_Disable 1E34  
                       __end_ofi2_INT2_ISR 1EDE                           ??_led_initialize 00B7  
                 Interrupt_RBx_Disable@ret 00A9                                 _btn_values 1001  
                               _led_toggle 18E0                             _tris_registers 000B  
          __end_of_RB4_SetInterruptHandler 1DC0            __end_of_RB7_SetInterruptHandler 1D3C  
                                  __Hparam 0000                                    __Lparam 0000  
                         ?_RB7_INT_HANDLER 0028                        _gpio_pin_initialize 175E  
           Interrupt_RBx_Priority_Init@ret 00AA                               __psmallconst 1000  
                                  __pcinit 1A98                                    __ramtop 1000  
                                  __ptext0 1AEE                                    __ptext1 1ECC  
                                  __ptext2 1B32                                    __ptext3 186A  
                                  __ptext4 175E                                    __ptext5 12FE  
                                  __ptext6 17EE                                    __ptext7 152A  
                                  __ptext8 144E                                    __ptext9 1D10  
                  _RB6_SetInterruptHandler 1D3C            ??_gpio_pin_direction_initialize 00A9  
       Interrupt_RBx_Priority_Init@int_obj 00A7                     _Interrupt_RBx_Pin_Init 1B6C  
                                  _keypad1 0094  __end_of_Interrupt_RBx_SetInterruptHandler 152A  
      ??_Interrupt_RBx_SetInterruptHandler 00AC         ?_Interrupt_RBx_SetInterruptHandler 00AA  
        _Interrupt_RBx_SetInterruptHandler 144E                       ?_gpio_pin_initialize 00B1  
                           __pintcode_body 1016                       end_of_initialization 1AE4  
               RB6_SetInterruptHandler@ret 00A9                                    int_func 1016  
                                i2_RB4_ISR 1CE2                                  i2_RB5_ISR 1CB4  
                                i2_RB6_ISR 1C86                                  i2_RB7_ISR 1C58  
                                  postdec1 0FE5                                    postdec2 0FDD  
                _RB4_INT_HANDLER$intlevel1 1E6E                                    postinc0 0FEE  
                                  postinc2 0FDE                  _RB7_INT_HANDLER$intlevel1 1E86  
                    _INT1_InterruptHandler 0059                          led_toggle@pin_obj 0045  
                    ??_gpio_pin_initialize 00B3                                ?_led_toggle 0042  
                               ?i2_RB4_ISR 0028                                 ?i2_RB5_ISR 0028  
                               ?i2_RB6_ISR 0028                                 ?i2_RB7_ISR 0028  
                       relay_turn_on@F3154 0063                  Interrupt_RBx_Init@int_obj 00B3  
             Interrupt_RBx_Disable@int_obj 00A7       Interrupt_RBx_SetInterruptHandler@ret 00AE  
                ??_RB6_SetInterruptHandler 00A9                              __pidataCOMRAM 1DC0  
                       fp__RB4_INT_HANDLER 0000                      Interrupt_RBx_Init@ret 00B5  
                      start_initialization 1A98                       _RB4_InterruptHandler 0055  
    __end_of_gpio_pin_direction_initialize 12FE              _gpio_pin_direction_initialize 1196  
                  ?_application_initialize 0028              __end_of_gpio_pin_toggle_logic 16A4  
                 ?_RB5_SetInterruptHandler 00A7                                __pdataBANK0 0080  
             __end_of_ecu_layer_initialize 1B6C                         fp__RB5_INT_HANDLER 0000  
                        i2_RB4_INT_HANDLER 1EB0                                   ?_RB4_ISR 0028  
                                 ?_RB5_ISR 0028                                   ?_RB6_ISR 0028  
                                 ?_RB7_ISR 0028                                __pbssCOMRAM 004F  
                       ?i2_RB4_INT_HANDLER 0028                              __pcstackBANK0 00A7  
           __end_of_application_initialize 1ED2                        ??i2_RB4_INT_HANDLER 0034  
                 ?i2_gpio_pin_toggle_logic 0028                      _INT2_InterruptHandler 0057  
           gpio_pin_write_logic@pin_config 00A7                                ??i2_RB4_ISR 0034  
                              ??i2_RB5_ISR 0034                                ??i2_RB6_ISR 0034  
                              ??i2_RB7_ISR 0034                  Interrupt_RBx_Pin_Init@ret 00B2  
             __end_of_InterruptManagerHigh 1196               ?_Interrupt_RBx_Priority_Init 00A7  
                                __pintcode 0008                 __end_of_Interrupt_RBx_Init 186A  
                __end_ofi2_RB4_INT_HANDLER 1EBE               __end_of_Interrupt_RBx_Enable 1A34  
                              __pintcodelo 0018                    ?_Interrupt_RBx_Pin_Init 00B0  
                gpio_pin_write_logic@logic 00A9                         fp__RB6_INT_HANDLER 0000  
                        i2_RB5_INT_HANDLER 1EA2                                __smallconst 1000  
                       ?i2_RB5_INT_HANDLER 0028                          ??_RB4_INT_HANDLER 0046  
                    _Interrupt_RBx_Disable 1E0E                         _RB5_pin_init_value 0060  
                      ??i2_RB5_INT_HANDLER 0034                              ?i2_led_toggle 0030  
                                 _INT0_ISR 1EE2                                   _INT1_ISR 1ED6  
                                 _INT2_ISR 1ED2            __end_of_RB5_SetInterruptHandler 1D94  
                                 i1u221_20 1600                                   i1u221_21 15FC  
                                 i1u222_20 1622                                   i1u222_21 161E  
                                 i1u223_20 1640                                   i1u223_21 163C  
                                 i1u231_25 192C                                   i1u231_27 192E  
                                 i1u232_20 1940                                   i1u232_21 193C  
                                 i1u224_24 1668                                   i1u224_25 1664  
                                 i1u263_20 1C3E                                   i1u270_28 1BBA  
                                 i1u263_21 1C3A                                   i1u270_29 1BCC  
                                 i1u360_20 006C                                   i1u360_21 0068  
                                 i1u264_28 1C44                                   i1u265_20 1C10  
                                 i1u361_20 007A                                   i1u264_29 1C56  
                                 i1u265_21 1C0C                                   i1u361_21 0076  
                                 i1u370_20 0128                                   i1u362_20 008C  
                                 i1u370_21 0124                                   i1u362_21 0088  
                                 i1u266_28 1C16                                   i1u267_20 1BE2  
                                 i1u371_20 013E                                   i1u363_20 009A  
                                 i1u266_29 1C28                                   i1u267_21 1BDE  
                                 i1u371_21 013A                                   i1u363_21 0096  
                                 i1u372_20 014C                                   i1u364_20 00B0  
                                 i1u372_21 0148                                   i1u364_21 00AC  
                                 i1u268_28 1BE8                                   i1u269_20 1BB4  
                                 i1u373_20 0160                                   i1u365_20 00C6  
                                 i1u268_29 1BFA                                   i1u269_21 1BB0  
                                 i1u373_21 015C                                   i1u365_21 00C2  
                                 i1u366_20 00D4                                   i1u358_20 004C  
                                 i1u366_21 00D0                                   i1u358_21 0048  
                                 i1u367_20 00EC                                   i1u359_20 005A  
                                 i1u367_21 00E8                                   i1u359_21 0056  
                                 i1u368_20 0102                                   i1u368_21 00FE  
                                 i1u369_20 0110                                   i1u369_21 010C  
                                 i2u225_40 16BA                                   i2u225_41 16B6  
                                 i2u226_40 16DC                                   i2u226_41 16D8  
                                 i2u227_40 16FA                                   i2u227_41 16F6  
                                 i2u340_40 103E                                   i2u340_41 103A  
                                 i2u228_44 1722                                   i2u228_45 171E  
                                 i2u341_40 104C                                   i2u341_41 1048  
                                 i2u237_45 199E                                   i2u237_47 19A0  
                                 i2u238_40 19B2                                   i2u350_40 10E6  
                                 i2u342_40 105E                                   i2u238_41 19AE  
                                 i2u350_41 10E2                                   i2u342_41 105A  
                                 i2u271_40 1CF6                                   i2u351_40 10FE  
                                 i2u343_40 106C                                   i2u271_41 1CF2  
                                 i2u351_41 10FA                                   i2u343_41 1068  
                                 i2u352_40 1114                                   i2u344_40 107E  
                                 i2u352_41 1110                                   i2u344_41 107A  
                                 i2u272_48 1CFC                                   i2u273_40 1CC8  
                                 i2u353_40 1122                                   i2u345_40 108C  
                                 i2u272_49 1D0E                                   i2u273_41 1CC4  
                                 i2u353_41 111E                                   i2u345_41 1088  
                                 i2u354_40 113A                                   i2u346_40 109E  
                                 i2u354_41 1136                                   i2u346_41 109A  
                                 i2u274_48 1CCE                                   i2u275_40 1C9A  
                                 i2u355_40 1150                                   i2u347_40 10AC  
                                 i2u274_49 1CE0                                   i2u275_41 1C96  
                                 i2u355_41 114C                                   i2u347_41 10A8  
                                 i2u356_40 115E                                   i2u348_40 10C2  
                                 i2u356_41 115A                                   i2u348_41 10BE  
                                 i2u276_48 1CA0                                   i2u277_40 1C6C  
                                 i2u357_40 1172                                   i2u349_40 10D8  
                     _RB5_InterruptHandler 0053                                   i2u276_49 1CB2  
                                 i2u277_41 1C68                                   i2u357_41 116E  
                                 i2u349_41 10D4                                   i2u278_48 1C72  
                                 i2u278_49 1C84              ??_Interrupt_RBx_Priority_Init 00A9  
         gpio_pin_direction_initialize@ret 00AF             __end_of_Interrupt_RBx_Pin_Init 1BA0  
                __end_ofi2_RB5_INT_HANDLER 1EB0                    _RB4_SetInterruptHandler 1D94  
                       fp__RB7_INT_HANDLER 0000                    _RB7_SetInterruptHandler 1D10  
                        i2_RB6_INT_HANDLER 1E94    gpio_pin_direction_initialize@pin_config 00A7  
                          i2led_toggle@led 0030                 RB4_SetInterruptHandler@ret 00A9  
                   gpio_pin_initialize@ret 00B4                         ?i2_RB6_INT_HANDLER 0028  
          __end_ofi2_gpio_pin_toggle_logic 175E                          ??_RB5_INT_HANDLER 0046  
                  gpio_pin_write_logic@ret 00B0                                  copy_data0 1AAC  
                                copy_data1 1ACC                             ??i2_led_toggle 0032  
                             ??_led_toggle 0044                        ??i2_RB6_INT_HANDLER 0034  
               RB7_SetInterruptHandler@ret 00A9                       _ecu_layer_initialize 1B32  
                       _RB7_pin_init_value 005E                                   __Hrparam 0000  
                                 __Lrparam 0000                  _RB5_INT_HANDLER$intlevel1 1E56  
                __end_ofi2_RB6_INT_HANDLER 1EA2                __end_of_gpio_pin_initialize 17EE  
                       __end_of_btn_values 1011                         __end_of_led_toggle 1952  
                        i2_RB7_INT_HANDLER 1EBE                     ?_Interrupt_RBx_Disable 00A7  
                       ?i2_RB7_INT_HANDLER 0028                       _InterruptManagerHigh 0008  
                                 __ptext10 1D3C                                   __ptext11 1D68  
                                 __ptext20 1BCE                                   __ptext12 1D94  
                                 __ptext21 1BFC                                   __ptext13 1A34  
                                 __ptext30 1ED6                                   __ptext22 1C2A  
                                 __ptext14 1B6C                                   __ptext23 1E34  
                                 __ptext15 1196                                   __ptext40 1952  
                                 __ptext32 1C58                                   __ptext24 1E4C  
                                 __ptext16 19C4                                   __ptext41 16A4  
                                 __ptext33 1C86                                   __ptext25 1E64  
                                 __ptext17 1E0E                                   __ptext42 1EDA  
                                 __ptext34 1CB4                                   __ptext26 1E7C  
                                 __ptext43 1EDE                                   __ptext35 1CE2  
                                 __ptext27 18E0                                   __ptext19 1BA0  
                                 __ptext44 1EE2                                   __ptext36 1E94  
                                 __ptext28 15EA                                   __ptext45 0000  
                                 __ptext37 1EA2                                   __ptext29 1ED2  
                                 __ptext38 1EB0                                   __ptext39 1EBE  
                        ??_RB6_INT_HANDLER 0046                        ??i2_RB7_INT_HANDLER 0034  
                     _Interrupt_RBx_Enable 19C4                      ?_ecu_layer_initialize 0028  
  Interrupt_RBx_set_pin_init_value@int_obj 00A7                                   isa$xinst 0000  
                                 int$flags 0069                  ??_RB4_SetInterruptHandler 00A9  
              Interrupt_RBx_Enable@int_obj 00A7                  ??_RB7_SetInterruptHandler 00A9  
                __end_ofi2_RB7_INT_HANDLER 1ECC                      ?_InterruptManagerHigh 0028  
                     _RB6_InterruptHandler 0051               __end_of_gpio_pin_write_logic 144E  
                        ??_RB7_INT_HANDLER 0046                                   intlevel1 0000  
                                 intlevel2 0000            gpio_pin_toggle_logic@pin_config 003A  
        i2gpio_pin_toggle_logic@pin_config 0028                      ?_Interrupt_RBx_Enable 00A7  
                      _InterruptManagerLow 0018                                 i2_INT1_ISR 1EDE  
                               i2_INT2_ISR 1EDA                 i2gpio_pin_toggle_logic@ret 002F  
                 ?_RB6_SetInterruptHandler 00A7                      _gpio_pin_toggle_logic 15EA  
                          _RB4_INT_HANDLER 1E64                       __end_ofi2_led_toggle 19C4  
                     ?_InterruptManagerLow 0028                             _port_registers 0080  
                       _Interrupt_RBx_Init 17EE                     ??_ecu_layer_initialize 00B9  
                      ?_Interrupt_RBx_Init 00B3                             _led_initialize 186A  
