

Microchip MPLAB XC8 Assembler V2.41 build 20230208172133 
                                                                                               Sun Sep 24 18:05:19 2023

Microchip MPLAB XC8 C Compiler v2.41 (Free license) build 20230208172133 Og1 
     1                           	processor	18F4620
     2                           	fnconf	rparam,??,?,0
     3                           	pagewidth 120
     4                           	opt	flic
     5                           	psect	idataCOMRAM,global,class=CODE,delta=1,noexec
     6                           	psect	smallconst,global,reloc=2,class=SMALLCONST,delta=1,noexec
     7                           	psect	cinit,global,reloc=2,class=CODE,delta=1
     8                           	psect	bssCOMRAM,global,class=COMRAM,space=1,delta=1,lowdata,noexec
     9                           	psect	dataCOMRAM,global,class=COMRAM,space=1,delta=1,lowdata,noexec
    10                           	psect	cstackCOMRAM,global,class=COMRAM,space=1,delta=1,lowdata,noexec
    11                           	psect	text0,global,reloc=2,class=CODE,delta=1
    12                           	psect	text1,global,reloc=2,class=CODE,delta=1
    13                           	psect	text2,global,reloc=2,class=CODE,delta=1
    14                           	psect	text3,global,reloc=2,class=CODE,delta=1
    15                           	psect	text4,global,reloc=2,class=CODE,delta=1
    16                           	psect	text5,global,reloc=2,class=CODE,delta=1
    17                           	psect	text6,global,reloc=2,class=CODE,delta=1
    18                           	psect	text7,global,reloc=2,class=CODE,delta=1
    19                           	psect	intcodelo,global,reloc=2,class=CODE,delta=1
    20                           	psect	text9,global,reloc=2,class=CODE,delta=1
    21                           	psect	text10,global,reloc=2,class=CODE,delta=1
    22                           	psect	text11,global,reloc=2,class=CODE,delta=1
    23                           	psect	text12,global,reloc=2,class=CODE,delta=1
    24                           	psect	text13,global,reloc=2,class=CODE,delta=1
    25                           	psect	text14,global,reloc=2,class=CODE,delta=1
    26                           	psect	intcode,global,reloc=2,class=CODE,delta=1
    27                           	psect	intcode_body,global,reloc=2,class=CODE,delta=1
    28                           	psect	text16,global,reloc=2,class=CODE,delta=1
    29                           	psect	text17,global,reloc=2,class=CODE,delta=1
    30                           	psect	text18,global,reloc=2,class=CODE,delta=1
    31                           	psect	text19,global,reloc=2,class=CODE,delta=1
    32                           	psect	text20,global,reloc=2,class=CODE,delta=1
    33                           	psect	text21,global,reloc=2,class=CODE,delta=1
    34                           	psect	text22,global,reloc=2,class=CODE,delta=1
    35                           	psect	intsave_regs,global,class=BIGRAM,space=1,delta=1,noexec
    36                           	psect	rparam,global,class=COMRAM,space=1,delta=1,noexec
    37                           	psect	temp,global,ovrld,common,class=COMRAM,space=1,delta=1
    38                           	psect	config,global,abs,ovrld,class=CONFIG,space=4,delta=1,noexec
    39   000000                     
    40                           ; Generated 23/03/2023 GMT
    41                           ; 
    42                           ; Copyright © 2023, Microchip Technology Inc. and its subsidiaries ("Microchip")
    43                           ; All rights reserved.
    44                           ; 
    45                           ; This software is developed by Microchip Technology Inc. and its subsidiaries ("Microch
      +                          ip").
    46                           ; 
    47                           ; Redistribution and use in source and binary forms, with or without modification, are
    48                           ; permitted provided that the following conditions are met:
    49                           ; 
    50                           ;     1. Redistributions of source code must retain the above copyright notice, this lis
      +                          t of
    51                           ;        conditions and the following disclaimer.
    52                           ; 
    53                           ;     2. Redistributions in binary form must reproduce the above copyright notice, this 
      +                          list
    54                           ;        of conditions and the following disclaimer in the documentation and/or other
    55                           ;        materials provided with the distribution. Publication is not required when
    56                           ;        this file is used in an embedded application.
    57                           ; 
    58                           ;     3. Microchip's name may not be used to endorse or promote products derived from th
      +                          is
    59                           ;        software without specific prior written permission.
    60                           ; 
    61                           ; THIS SOFTWARE IS PROVIDED BY MICROCHIP "AS IS" AND ANY EXPRESS OR IMPLIED WARRANTIES,
    62                           ; INCLUDING, BUT NOT LIMITED TO, THE IMPLIED WARRANTIES OF MERCHANTABILITY AND FITNESS F
      +                          OR
    63                           ; PURPOSE ARE DISCLAIMED.  IN NO EVENT SHALL MICROCHIP BE LIABLE FOR ANY DIRECT, INDIREC
      +                          T,
    64                           ; INCIDENTAL, SPECIAL, EXEMPLARY, OR CONSEQUENTIAL DAMAGES (INCLUDING BUT NOT LIMITED TO
    65                           ; PROCUREMENT OF SUBSTITUTE GOODS OR SERVICES; LOSS OF USE, DATA OR PROFITS; OR BUSINESS
    66                           ; INTERRUPTION) HOWSOEVER CAUSED AND ON ANY THEORY OF LIABILITY, WHETHER IN CONTRACT, ST
      +                          RICT
    67                           ; LIABILITY, OR TORT (INCLUDING NEGLIGENCE OR OTHERWISE) ARISING IN ANY WAY OUT OF THE U
      +                          SE OF
    68                           ; THIS SOFTWARE, EVEN IF ADVISED OF THE POSSIBILITY OF SUCH DAMAGE.
    69                           ; 
    70                           ; 
    71                           ; Code-generator required, PIC18F4620 Definitions
    72                           ; 
    73                           ; SFR Addresses
    74   000000                     
    75                           	psect	idataCOMRAM
    76   0011B8                     __pidataCOMRAM:
    77                           	callstack 0
    78                           
    79                           ;initializer for _port_registers
    80   0011B8  80                 	db	128
    81   0011B9  0F                 	db	15
    82   0011BA  81                 	db	129
    83   0011BB  0F                 	db	15
    84   0011BC  82                 	db	130
    85   0011BD  0F                 	db	15
    86   0011BE  83                 	db	131
    87   0011BF  0F                 	db	15
    88   0011C0  84                 	db	132
    89   0011C1  0F                 	db	15
    90                           
    91                           ;initializer for _lat_registers
    92   0011C2  89                 	db	137
    93   0011C3  0F                 	db	15
    94   0011C4  8A                 	db	138
    95   0011C5  0F                 	db	15
    96   0011C6  8B                 	db	139
    97   0011C7  0F                 	db	15
    98   0011C8  8C                 	db	140
    99   0011C9  0F                 	db	15
   100   0011CA  8D                 	db	141
   101   0011CB  0F                 	db	15
   102                           
   103                           ;initializer for _tris_registers
   104   0011CC  92                 	db	146
   105   0011CD  0F                 	db	15
   106   0011CE  93                 	db	147
   107   0011CF  0F                 	db	15
   108   0011D0  94                 	db	148
   109   0011D1  0F                 	db	15
   110   0011D2  95                 	db	149
   111   0011D3  0F                 	db	15
   112   0011D4  96                 	db	150
   113   0011D5  0F                 	db	15
   114                           
   115                           ;initializer for _lcd_2
   116   0011D6  32                 	db	50
   117   0011D7  3A                 	db	58
   118   0011D8  03                 	db	3
   119   0011D9  0B                 	db	11
   120   0011DA  13                 	db	19
   121   0011DB  1B                 	db	27
   122   0011DC  23                 	db	35
   123   0011DD  2B                 	db	43
   124   0011DE  33                 	db	51
   125   0011DF  3B                 	db	59
   126                           
   127                           ;initializer for _keypad1
   128   0011E0  02                 	db	2
   129   0011E1  0A                 	db	10
   130   0011E2  12                 	db	18
   131   0011E3  1A                 	db	26
   132   0011E4  62                 	db	98
   133   0011E5  6A                 	db	106
   134   0011E6  72                 	db	114
   135   0011E7  7A                 	db	122
   136                           
   137                           ;initializer for _lcd1
   138   0011E8  02                 	db	2
   139   0011E9  0A                 	db	10
   140   0011EA  12                 	db	18
   141   0011EB  1A                 	db	26
   142   0011EC  22                 	db	34
   143   0011ED  2A                 	db	42
   144                           
   145                           ;initializer for _led4
   146   0011EE  33                 	db	51
   147                           
   148                           ;initializer for _led3
   149   0011EF  23                 	db	35
   150                           
   151                           ;initializer for _led2
   152   0011F0  13                 	db	19
   153                           
   154                           ;initializer for _led1
   155   0011F1  03                 	db	3
   156                           
   157                           	psect	smallconst
   158   001000                     __psmallconst:
   159                           	callstack 0
   160   001000  00                 	db	0
   161   001001                     _btn_values:
   162                           	callstack 0
   163   001001  37                 	db	55
   164   001002  38                 	db	56
   165   001003  39                 	db	57
   166   001004  2F                 	db	47
   167   001005  34                 	db	52
   168   001006  35                 	db	53
   169   001007  36                 	db	54
   170   001008  2A                 	db	42
   171   001009  31                 	db	49
   172   00100A  32                 	db	50
   173   00100B  33                 	db	51
   174   00100C  2D                 	db	45
   175   00100D  23                 	db	35
   176   00100E  30                 	db	48
   177   00100F  3D                 	db	61
   178   001010  2B                 	db	43
   179   001011                     __end_of_btn_values:
   180                           	callstack 0
   181   001011                     STR_1:
   182   001011  25                 	db	37
   183   001012  69                 	db	105	;'i'
   184   001013  00                 	db	0
   185   001014  00                 	db	0	; dummy byte at the end
   186   000000                     
   187                           ; #config settings
   188                           
   189                           	psect	cinit
   190   00122C                     __pcinit:
   191                           	callstack 0
   192   00122C                     start_initialization:
   193                           	callstack 0
   194   00122C                     __initialization:
   195                           	callstack 0
   196                           
   197                           ; Initialize objects allocated to COMRAM (58 bytes)
   198                           ; load TBLPTR registers with __pidataCOMRAM
   199   00122C  0EB8               	movlw	low __pidataCOMRAM
   200   00122E  6EF6               	movwf	tblptrl,c
   201   001230  0E11               	movlw	high __pidataCOMRAM
   202   001232  6EF7               	movwf	tblptrh,c
   203   001234  0E00               	movlw	low (__pidataCOMRAM shr (0+16))
   204   001236  6EF8               	movwf	tblptru,c
   205   001238  EE00  F001         	lfsr	0,__pdataCOMRAM
   206   00123C  EE10 F03A          	lfsr	1,58
   207   001240                     copy_data0:
   208   001240  0009               	tblrd		*+
   209   001242  CFF5 FFEE          	movff	tablat,postinc0
   210   001246  50E5               	movf	postdec1,w,c
   211   001248  50E1               	movf	fsr1l,w,c
   212   00124A  E1FA               	bnz	copy_data0
   213                           
   214                           ; Clear objects allocated to COMRAM (26 bytes)
   215   00124C  EE00  F03B         	lfsr	0,__pbssCOMRAM
   216   001250  0E1A               	movlw	26
   217   001252                     clear_0:
   218   001252  6AEE               	clrf	postinc0,c
   219   001254  06E8               	decf	wreg,f,c
   220   001256  E1FD               	bnz	clear_0
   221   001258                     end_of_initialization:
   222                           	callstack 0
   223   001258                     __end_of__initialization:
   224                           	callstack 0
   225   001258  905F               	bcf	int$flags,0,c	;clear compiler interrupt flag (level 1)
   226   00125A  925F               	bcf	int$flags,1,c	;clear compiler interrupt flag (level 2)
   227   00125C  0100               	movlb	0
   228   00125E  EF31  F009         	goto	_main	;jump to C main() function
   229                           
   230                           	psect	bssCOMRAM
   231   00003B                     __pbssCOMRAM:
   232                           	callstack 0
   233   00003B                     _RB7_InterruptHandler:
   234                           	callstack 0
   235   00003B                     	ds	2
   236   00003D                     _RB6_InterruptHandler:
   237                           	callstack 0
   238   00003D                     	ds	2
   239   00003F                     _RB5_InterruptHandler:
   240                           	callstack 0
   241   00003F                     	ds	2
   242   000041                     _RB4_InterruptHandler:
   243                           	callstack 0
   244   000041                     	ds	2
   245   000043                     _INT2_InterruptHandler:
   246                           	callstack 0
   247   000043                     	ds	2
   248   000045                     _INT1_InterruptHandler:
   249                           	callstack 0
   250   000045                     	ds	2
   251   000047                     _INT0_InterruptHandler:
   252                           	callstack 0
   253   000047                     	ds	2
   254   000049                     _RB7_pin_init_value:
   255                           	callstack 0
   256   000049                     	ds	1
   257   00004A                     _RB6_pin_init_value:
   258                           	callstack 0
   259   00004A                     	ds	1
   260   00004B                     _RB5_pin_init_value:
   261                           	callstack 0
   262   00004B                     	ds	1
   263   00004C                     _RB4_pin_init_value:
   264                           	callstack 0
   265   00004C                     	ds	1
   266   00004D                     relay_turn_off@F3169:
   267                           	callstack 0
   268   00004D                     	ds	1
   269   00004E                     relay_turn_on@F3164:
   270                           	callstack 0
   271   00004E                     	ds	1
   272   00004F                     relay_initialize@F3159:
   273                           	callstack 0
   274   00004F                     	ds	1
   275   000050                     led_toggle@F3180:
   276                           	callstack 0
   277   000050                     	ds	1
   278   000051                     led_turn_off@F3175:
   279                           	callstack 0
   280   000051                     	ds	1
   281   000052                     led_turn_on@F3170:
   282                           	callstack 0
   283   000052                     	ds	1
   284   000053                     led_initialize@F3165:
   285                           	callstack 0
   286   000053                     	ds	1
   287   000054                     _EEPROM_READ_VALUE:
   288                           	callstack 0
   289   000054                     	ds	1
   290                           
   291                           	psect	dataCOMRAM
   292   000001                     __pdataCOMRAM:
   293                           	callstack 0
   294   000001                     _port_registers:
   295                           	callstack 0
   296   000001                     	ds	10
   297   00000B                     _lat_registers:
   298                           	callstack 0
   299   00000B                     	ds	10
   300   000015                     _tris_registers:
   301                           	callstack 0
   302   000015                     	ds	10
   303   00001F                     _lcd_2:
   304                           	callstack 0
   305   00001F                     	ds	10
   306   000029                     _keypad1:
   307                           	callstack 0
   308   000029                     	ds	8
   309   000031                     _lcd1:
   310                           	callstack 0
   311   000031                     	ds	6
   312   000037                     _led4:
   313                           	callstack 0
   314   000037                     	ds	1
   315   000038                     _led3:
   316                           	callstack 0
   317   000038                     	ds	1
   318   000039                     _led2:
   319                           	callstack 0
   320   000039                     	ds	1
   321   00003A                     _led1:
   322                           	callstack 0
   323   00003A                     	ds	1
   324                           
   325                           	psect	cstackCOMRAM
   326   000055                     __pcstackCOMRAM:
   327                           	callstack 0
   328   000055                     ??_InterruptManagerLow:
   329   000055                     
   330                           ; 2 bytes @ 0x0
   331   000055                     	ds	3
   332   000058                     EEPROM_UPDATE_DATA_REG@DATA:
   333                           	callstack 0
   334   000058                     EEPROM_UPDATE_ADDRESS_REG@ADD:
   335                           	callstack 0
   336   000058                     EEPROM_READ_GLOBAL_INTERRUPT_STATUS@Global_Interrupt_Status:
   337                           	callstack 0
   338   000058                     EEPROM_RESTORE_GLOBAL_INTERRUPT_STATUS@Global_Interrupt_Status:
   339                           	callstack 0
   340   000058                     EEPROM_READ_DATA_REG@DATA:
   341                           	callstack 0
   342                           
   343                           ; 2 bytes @ 0x3
   344   000058                     	ds	2
   345   00005A                     ??_EEPROM_RESTORE_GLOBAL_INTERRUPT_STATUS:
   346   00005A                     Data_EEPROM_ReadByte@bAdd:
   347                           	callstack 0
   348                           
   349                           ; 2 bytes @ 0x5
   350   00005A                     	ds	1
   351   00005B                     Data_EEPROM_WriteByte@bAdd:
   352                           	callstack 0
   353                           
   354                           ; 2 bytes @ 0x6
   355   00005B                     	ds	1
   356   00005C                     Data_EEPROM_ReadByte@bData:
   357                           	callstack 0
   358                           
   359                           ; 2 bytes @ 0x7
   360   00005C                     	ds	1
   361   00005D                     Data_EEPROM_WriteByte@bData:
   362                           	callstack 0
   363                           
   364                           ; 1 bytes @ 0x8
   365   00005D                     	ds	1
   366   00005E                     Data_EEPROM_WriteByte@Global_Interrupt_Status:
   367                           	callstack 0
   368                           
   369                           ; 1 bytes @ 0x9
   370   00005E                     	ds	1
   371   00005F                     
   372                           ; 1 bytes @ 0xA
   373 ;;
   374 ;;Main: autosize = 0, tempsize = 0, incstack = 0, save=0
   375 ;;
   376 ;; *************** function _main *****************
   377 ;; Defined at:
   378 ;;		line 15 in file "application.c"
   379 ;; Parameters:    Size  Location     Type
   380 ;;		None
   381 ;; Auto vars:     Size  Location     Type
   382 ;;		None
   383 ;; Return value:  Size  Location     Type
   384 ;;                  2  801[None  ] int 
   385 ;; Registers used:
   386 ;;		wreg, fsr2l, fsr2h, status,2, status,0, cstack
   387 ;; Tracked objects:
   388 ;;		On entry : 0/0
   389 ;;		On exit  : 0/0
   390 ;;		Unchanged: 0/0
   391 ;; Data sizes:     COMRAM   BANK0   BANK1   BANK2   BANK3   BANK4   BANK5   BANK6   BANK7   BANK8   BANK9  BANK10  BANK1
      +1  BANK12  BANK13  BANK14  BANK15
   392 ;;      Params:         0       0       0       0       0       0       0       0       0       0       0       0       
      +0       0       0       0       0
   393 ;;      Locals:         0       0       0       0       0       0       0       0       0       0       0       0       
      +0       0       0       0       0
   394 ;;      Temps:          0       0       0       0       0       0       0       0       0       0       0       0       
      +0       0       0       0       0
   395 ;;      Totals:         0       0       0       0       0       0       0       0       0       0       0       0       
      +0       0       0       0       0
   396 ;;Total ram usage:        0 bytes
   397 ;; Hardware stack levels required when called: 6
   398 ;; This function calls:
   399 ;;		_Data_EEPROM_ReadByte
   400 ;;		_Data_EEPROM_WriteByte
   401 ;; This function is called by:
   402 ;;		Startup code after reset
   403 ;; This function uses a non-reentrant model
   404 ;;
   405                           
   406                           	psect	text0
   407   001262                     __ptext0:
   408                           	callstack 0
   409   001262                     _main:
   410                           	callstack 25
   411   001262                     
   412                           ;application.c: 17:     Data_EEPROM_WriteByte(0X3FF ,0x33);
   413   001262  0E03               	movlw	3
   414   001264  6E5C               	movwf	(Data_EEPROM_WriteByte@bAdd+1)^0,c
   415   001266  685B               	setf	Data_EEPROM_WriteByte@bAdd^0,c
   416   001268  0E33               	movlw	51
   417   00126A  6E5D               	movwf	Data_EEPROM_WriteByte@bData^0,c
   418   00126C  ECB3  F008         	call	_Data_EEPROM_WriteByte	;wreg free
   419                           
   420                           ;application.c: 18:     Data_EEPROM_ReadByte(0x3ff,&EEPROM_READ_VALUE);
   421   001270  0E03               	movlw	3
   422   001272  6E5B               	movwf	(Data_EEPROM_ReadByte@bAdd+1)^0,c
   423   001274  685A               	setf	Data_EEPROM_ReadByte@bAdd^0,c
   424   001276  0E54               	movlw	low _EEPROM_READ_VALUE
   425   001278  6E5C               	movwf	Data_EEPROM_ReadByte@bData^0,c
   426   00127A  0E00               	movlw	high _EEPROM_READ_VALUE
   427   00127C  6E5D               	movwf	(Data_EEPROM_ReadByte@bData+1)^0,c
   428   00127E  ECF9  F008         	call	_Data_EEPROM_ReadByte	;wreg free
   429   001282                     l802:
   430   001282  EF41  F009         	goto	l802
   431   001286  EFB0  F000         	goto	start
   432   00128A                     __end_of_main:
   433                           	callstack 0
   434                           
   435 ;; *************** function _Data_EEPROM_WriteByte *****************
   436 ;; Defined at:
   437 ;;		line 14 in file "MCAL_Layer/EEPROM/hal_eeprom.c"
   438 ;; Parameters:    Size  Location     Type
   439 ;;  bAdd            2    6[COMRAM] unsigned int 
   440 ;;  bData           1    8[COMRAM] unsigned char 
   441 ;; Auto vars:     Size  Location     Type
   442 ;;  Global_Inter    1    9[COMRAM] unsigned char 
   443 ;;  ret             1    0        unsigned char 
   444 ;; Return value:  Size  Location     Type
   445 ;;                  1    wreg      unsigned char 
   446 ;; Registers used:
   447 ;;		wreg, fsr2l, fsr2h, status,2, status,0, cstack
   448 ;; Tracked objects:
   449 ;;		On entry : 0/0
   450 ;;		On exit  : 0/0
   451 ;;		Unchanged: 0/0
   452 ;; Data sizes:     COMRAM   BANK0   BANK1   BANK2   BANK3   BANK4   BANK5   BANK6   BANK7   BANK8   BANK9  BANK10  BANK1
      +1  BANK12  BANK13  BANK14  BANK15
   453 ;;      Params:         3       0       0       0       0       0       0       0       0       0       0       0       
      +0       0       0       0       0
   454 ;;      Locals:         1       0       0       0       0       0       0       0       0       0       0       0       
      +0       0       0       0       0
   455 ;;      Temps:          0       0       0       0       0       0       0       0       0       0       0       0       
      +0       0       0       0       0
   456 ;;      Totals:         4       0       0       0       0       0       0       0       0       0       0       0       
      +0       0       0       0       0
   457 ;;Total ram usage:        4 bytes
   458 ;; Hardware stack levels used: 1
   459 ;; Hardware stack levels required when called: 5
   460 ;; This function calls:
   461 ;;		_EEPROM_READ_GLOBAL_INTERRUPT_STATUS
   462 ;;		_EEPROM_RESTORE_GLOBAL_INTERRUPT_STATUS
   463 ;;		_EEPROM_UPDATE_ADDRESS_REG
   464 ;;		_EEPROM_UPDATE_DATA_REG
   465 ;; This function is called by:
   466 ;;		_main
   467 ;; This function uses a non-reentrant model
   468 ;;
   469                           
   470                           	psect	text1
   471   001166                     __ptext1:
   472                           	callstack 0
   473   001166                     _Data_EEPROM_WriteByte:
   474                           	callstack 25
   475   001166                     
   476                           ;MCAL_Layer/EEPROM/hal_eeprom.c: 15:     uint8 Global_Interrupt_Status=0;
   477   001166  0E00               	movlw	0
   478   001168  6E5E               	movwf	Data_EEPROM_WriteByte@Global_Interrupt_Status^0,c
   479   00116A                     
   480                           ;MCAL_Layer/EEPROM/hal_eeprom.c: 18:     EEPROM_READ_GLOBAL_INTERRUPT_STATUS(&Global_Int
      +                          errupt_Status);
   481   00116A  0E5E               	movlw	low Data_EEPROM_WriteByte@Global_Interrupt_Status
   482   00116C  6E58               	movwf	EEPROM_READ_GLOBAL_INTERRUPT_STATUS@Global_Interrupt_Status^0,c
   483   00116E  0E00               	movlw	high Data_EEPROM_WriteByte@Global_Interrupt_Status
   484   001170  6E59               	movwf	(EEPROM_READ_GLOBAL_INTERRUPT_STATUS@Global_Interrupt_Status+1)^0,c
   485   001172  EC45  F009         	call	_EEPROM_READ_GLOBAL_INTERRUPT_STATUS	;wreg free
   486   001176                     
   487                           ;MCAL_Layer/EEPROM/hal_eeprom.c: 20:     EEPROM_UPDATE_ADDRESS_REG(bAdd);
   488   001176  C05B  F058         	movff	Data_EEPROM_WriteByte@bAdd,EEPROM_UPDATE_ADDRESS_REG@ADD
   489   00117A  C05C  F059         	movff	Data_EEPROM_WriteByte@bAdd+1,EEPROM_UPDATE_ADDRESS_REG@ADD+1
   490   00117E  EC69  F009         	call	_EEPROM_UPDATE_ADDRESS_REG	;wreg free
   491   001182                     
   492                           ;MCAL_Layer/EEPROM/hal_eeprom.c: 22:     EEPROM_UPDATE_DATA_REG(bData);
   493   001182  505D               	movf	Data_EEPROM_WriteByte@bData^0,w,c
   494   001184  EC6F  F009         	call	_EEPROM_UPDATE_DATA_REG
   495   001188                     
   496                           ;MCAL_Layer/EEPROM/hal_eeprom.c: 24:     (*((volatile EECON1_t *)(0xFA6))).EEPGD = 0;(*(
      +                          (volatile EECON1_t *)(0xFA6))).CFGS = 0;
   497   001188  9EA6               	bcf	166,7,c	;volsfr
   498   00118A  9CA6               	bcf	166,6,c	;volsfr
   499   00118C                     
   500                           ;MCAL_Layer/EEPROM/hal_eeprom.c: 26:     (*((volatile EECON1_t *)(0xFA6))).WREN=1;
   501   00118C  84A6               	bsf	166,2,c	;volsfr
   502   00118E                     
   503                           ;MCAL_Layer/EEPROM/hal_eeprom.c: 28:     ((*((volatile INTCON_t *)(0xFF2))).GIE = 0);
   504   00118E  9EF2               	bcf	242,7,c	;volatile
   505   001190                     
   506                           ;MCAL_Layer/EEPROM/hal_eeprom.c: 30:     (*((volatile uint8 *)(0xFA7)))=0X55;(*((volatil
      +                          e uint8 *)(0xFA7)))=0xAA;
   507   001190  0E55               	movlw	85
   508   001192  6EA7               	movwf	167,c	;volsfr
   509   001194  0EAA               	movlw	170
   510   001196  6EA7               	movwf	167,c	;volsfr
   511   001198                     
   512                           ;MCAL_Layer/EEPROM/hal_eeprom.c: 32:     (*((volatile EECON1_t *)(0xFA6))).WR=1;
   513   001198  82A6               	bsf	166,1,c	;volsfr
   514   00119A                     l821:
   515   00119A  B2A6               	btfsc	166,1,c	;volsfr
   516   00119C  EFD2  F008         	goto	u1881
   517   0011A0  EFD4  F008         	goto	u1880
   518   0011A4                     u1881:
   519   0011A4  EFCD  F008         	goto	l821
   520   0011A8                     u1880:
   521   0011A8                     
   522                           ;MCAL_Layer/EEPROM/hal_eeprom.c: 36:     (*((volatile EECON1_t *)(0xFA6))).WREN=0;
   523   0011A8  94A6               	bcf	166,2,c	;volsfr
   524   0011AA                     
   525                           ;MCAL_Layer/EEPROM/hal_eeprom.c: 38:     EEPROM_RESTORE_GLOBAL_INTERRUPT_STATUS(&Global_
      +                          Interrupt_Status);
   526   0011AA  0E5E               	movlw	low Data_EEPROM_WriteByte@Global_Interrupt_Status
   527   0011AC  6E58               	movwf	EEPROM_RESTORE_GLOBAL_INTERRUPT_STATUS@Global_Interrupt_Status^0,c
   528   0011AE  0E00               	movlw	high Data_EEPROM_WriteByte@Global_Interrupt_Status
   529   0011B0  6E59               	movwf	(EEPROM_RESTORE_GLOBAL_INTERRUPT_STATUS@Global_Interrupt_Status+1)^0,c
   530   0011B2  EC54  F009         	call	_EEPROM_RESTORE_GLOBAL_INTERRUPT_STATUS	;wreg free
   531   0011B6  0012               	return		;funcret
   532   0011B8                     __end_of_Data_EEPROM_WriteByte:
   533                           	callstack 0
   534                           
   535 ;; *************** function _EEPROM_UPDATE_DATA_REG *****************
   536 ;; Defined at:
   537 ;;		line 70 in file "MCAL_Layer/EEPROM/hal_eeprom.c"
   538 ;; Parameters:    Size  Location     Type
   539 ;;  DATA            1    wreg     unsigned char 
   540 ;; Auto vars:     Size  Location     Type
   541 ;;  DATA            1    3[COMRAM] unsigned char 
   542 ;; Return value:  Size  Location     Type
   543 ;;                  1    wreg      void 
   544 ;; Registers used:
   545 ;;		wreg
   546 ;; Tracked objects:
   547 ;;		On entry : 0/0
   548 ;;		On exit  : 0/0
   549 ;;		Unchanged: 0/0
   550 ;; Data sizes:     COMRAM   BANK0   BANK1   BANK2   BANK3   BANK4   BANK5   BANK6   BANK7   BANK8   BANK9  BANK10  BANK1
      +1  BANK12  BANK13  BANK14  BANK15
   551 ;;      Params:         0       0       0       0       0       0       0       0       0       0       0       0       
      +0       0       0       0       0
   552 ;;      Locals:         1       0       0       0       0       0       0       0       0       0       0       0       
      +0       0       0       0       0
   553 ;;      Temps:          0       0       0       0       0       0       0       0       0       0       0       0       
      +0       0       0       0       0
   554 ;;      Totals:         1       0       0       0       0       0       0       0       0       0       0       0       
      +0       0       0       0       0
   555 ;;Total ram usage:        1 bytes
   556 ;; Hardware stack levels used: 1
   557 ;; Hardware stack levels required when called: 4
   558 ;; This function calls:
   559 ;;		Nothing
   560 ;; This function is called by:
   561 ;;		_Data_EEPROM_WriteByte
   562 ;; This function uses a non-reentrant model
   563 ;;
   564                           
   565                           	psect	text2
   566   0012DE                     __ptext2:
   567                           	callstack 0
   568   0012DE                     _EEPROM_UPDATE_DATA_REG:
   569                           	callstack 25
   570                           
   571                           ;incstack = 0
   572                           ;EEPROM_UPDATE_DATA_REG@DATA stored from wreg
   573   0012DE  6E58               	movwf	EEPROM_UPDATE_DATA_REG@DATA^0,c
   574   0012E0                     
   575                           ;MCAL_Layer/EEPROM/hal_eeprom.c: 71:     (*((volatile uint8 *)(0xFA8))) =DATA;
   576   0012E0  C058  FFA8         	movff	EEPROM_UPDATE_DATA_REG@DATA,4008	;volatile
   577   0012E4  0012               	return		;funcret
   578   0012E6                     __end_of_EEPROM_UPDATE_DATA_REG:
   579                           	callstack 0
   580                           
   581 ;; *************** function _EEPROM_RESTORE_GLOBAL_INTERRUPT_STATUS *****************
   582 ;; Defined at:
   583 ;;		line 76 in file "MCAL_Layer/EEPROM/hal_eeprom.c"
   584 ;; Parameters:    Size  Location     Type
   585 ;;  Global_Inter    2    3[COMRAM] PTR unsigned char 
   586 ;;		 -> Data_EEPROM_WriteByte@Global_Interrupt_Status(1), 
   587 ;; Auto vars:     Size  Location     Type
   588 ;;		None
   589 ;; Return value:  Size  Location     Type
   590 ;;                  1    wreg      void 
   591 ;; Registers used:
   592 ;;		wreg, fsr2l, fsr2h, status,2, status,0
   593 ;; Tracked objects:
   594 ;;		On entry : 0/0
   595 ;;		On exit  : 0/0
   596 ;;		Unchanged: 0/0
   597 ;; Data sizes:     COMRAM   BANK0   BANK1   BANK2   BANK3   BANK4   BANK5   BANK6   BANK7   BANK8   BANK9  BANK10  BANK1
      +1  BANK12  BANK13  BANK14  BANK15
   598 ;;      Params:         2       0       0       0       0       0       0       0       0       0       0       0       
      +0       0       0       0       0
   599 ;;      Locals:         0       0       0       0       0       0       0       0       0       0       0       0       
      +0       0       0       0       0
   600 ;;      Temps:          1       0       0       0       0       0       0       0       0       0       0       0       
      +0       0       0       0       0
   601 ;;      Totals:         3       0       0       0       0       0       0       0       0       0       0       0       
      +0       0       0       0       0
   602 ;;Total ram usage:        3 bytes
   603 ;; Hardware stack levels used: 1
   604 ;; Hardware stack levels required when called: 4
   605 ;; This function calls:
   606 ;;		Nothing
   607 ;; This function is called by:
   608 ;;		_Data_EEPROM_WriteByte
   609 ;; This function uses a non-reentrant model
   610 ;;
   611                           
   612                           	psect	text3
   613   0012A8                     __ptext3:
   614                           	callstack 0
   615   0012A8                     _EEPROM_RESTORE_GLOBAL_INTERRUPT_STATUS:
   616                           	callstack 25
   617   0012A8                     
   618                           ;MCAL_Layer/EEPROM/hal_eeprom.c: 77:     (*((volatile INTCON_t *)(0xFF2))).GIE = *Global
      +                          _Interrupt_Status;
   619   0012A8  C058  FFD9         	movff	EEPROM_RESTORE_GLOBAL_INTERRUPT_STATUS@Global_Interrupt_Status,fsr2l
   620   0012AC  C059  FFDA         	movff	EEPROM_RESTORE_GLOBAL_INTERRUPT_STATUS@Global_Interrupt_Status+1,fsr2h
   621   0012B0  50DF               	movf	indf2,w,c
   622   0012B2  6E5A               	movwf	??_EEPROM_RESTORE_GLOBAL_INTERRUPT_STATUS^0,c
   623   0012B4  325A               	rrcf	??_EEPROM_RESTORE_GLOBAL_INTERRUPT_STATUS^0,f,c
   624   0012B6  325A               	rrcf	??_EEPROM_RESTORE_GLOBAL_INTERRUPT_STATUS^0,f,c
   625   0012B8  50F2               	movf	242,w,c	;volatile
   626   0012BA  185A               	xorwf	??_EEPROM_RESTORE_GLOBAL_INTERRUPT_STATUS^0,w,c
   627   0012BC  0B7F               	andlw	-129
   628   0012BE  185A               	xorwf	??_EEPROM_RESTORE_GLOBAL_INTERRUPT_STATUS^0,w,c
   629   0012C0  6EF2               	movwf	242,c	;volatile
   630   0012C2  0012               	return		;funcret
   631   0012C4                     __end_of_EEPROM_RESTORE_GLOBAL_INTERRUPT_STATUS:
   632                           	callstack 0
   633                           
   634 ;; *************** function _EEPROM_READ_GLOBAL_INTERRUPT_STATUS *****************
   635 ;; Defined at:
   636 ;;		line 73 in file "MCAL_Layer/EEPROM/hal_eeprom.c"
   637 ;; Parameters:    Size  Location     Type
   638 ;;  Global_Inter    2    3[COMRAM] PTR unsigned char 
   639 ;;		 -> Data_EEPROM_WriteByte@Global_Interrupt_Status(1), 
   640 ;; Auto vars:     Size  Location     Type
   641 ;;		None
   642 ;; Return value:  Size  Location     Type
   643 ;;                  1    wreg      void 
   644 ;; Registers used:
   645 ;;		wreg, fsr2l, fsr2h
   646 ;; Tracked objects:
   647 ;;		On entry : 0/0
   648 ;;		On exit  : 0/0
   649 ;;		Unchanged: 0/0
   650 ;; Data sizes:     COMRAM   BANK0   BANK1   BANK2   BANK3   BANK4   BANK5   BANK6   BANK7   BANK8   BANK9  BANK10  BANK1
      +1  BANK12  BANK13  BANK14  BANK15
   651 ;;      Params:         2       0       0       0       0       0       0       0       0       0       0       0       
      +0       0       0       0       0
   652 ;;      Locals:         0       0       0       0       0       0       0       0       0       0       0       0       
      +0       0       0       0       0
   653 ;;      Temps:          0       0       0       0       0       0       0       0       0       0       0       0       
      +0       0       0       0       0
   654 ;;      Totals:         2       0       0       0       0       0       0       0       0       0       0       0       
      +0       0       0       0       0
   655 ;;Total ram usage:        2 bytes
   656 ;; Hardware stack levels used: 1
   657 ;; Hardware stack levels required when called: 4
   658 ;; This function calls:
   659 ;;		Nothing
   660 ;; This function is called by:
   661 ;;		_Data_EEPROM_WriteByte
   662 ;; This function uses a non-reentrant model
   663 ;;
   664                           
   665                           	psect	text4
   666   00128A                     __ptext4:
   667                           	callstack 0
   668   00128A                     _EEPROM_READ_GLOBAL_INTERRUPT_STATUS:
   669                           	callstack 25
   670   00128A                     
   671                           ;MCAL_Layer/EEPROM/hal_eeprom.c: 74:     *Global_Interrupt_Status = (*((volatile INTCON_
      +                          t *)(0xFF2))).GIE ;
   672   00128A  BEF2               	btfsc	242,7,c	;volatile
   673   00128C  EF4A  F009         	goto	u1871
   674   001290  EF4D  F009         	goto	u1870
   675   001294                     u1871:
   676   001294  0E01               	movlw	1
   677   001296  EF4E  F009         	goto	u1876
   678   00129A                     u1870:
   679   00129A  0E00               	movlw	0
   680   00129C                     u1876:
   681   00129C  C058  FFD9         	movff	EEPROM_READ_GLOBAL_INTERRUPT_STATUS@Global_Interrupt_Status,fsr2l
   682   0012A0  C059  FFDA         	movff	EEPROM_READ_GLOBAL_INTERRUPT_STATUS@Global_Interrupt_Status+1,fsr2h
   683   0012A4  6EDF               	movwf	indf2,c
   684   0012A6  0012               	return		;funcret
   685   0012A8                     __end_of_EEPROM_READ_GLOBAL_INTERRUPT_STATUS:
   686                           	callstack 0
   687                           
   688 ;; *************** function _Data_EEPROM_ReadByte *****************
   689 ;; Defined at:
   690 ;;		line 47 in file "MCAL_Layer/EEPROM/hal_eeprom.c"
   691 ;; Parameters:    Size  Location     Type
   692 ;;  bAdd            2    5[COMRAM] unsigned int 
   693 ;;  bData           2    7[COMRAM] PTR unsigned char 
   694 ;;		 -> EEPROM_READ_VALUE(1), 
   695 ;; Auto vars:     Size  Location     Type
   696 ;;  ret             1    0        unsigned char 
   697 ;; Return value:  Size  Location     Type
   698 ;;                  1    wreg      unsigned char 
   699 ;; Registers used:
   700 ;;		wreg, fsr2l, fsr2h, status,2, status,0, cstack
   701 ;; Tracked objects:
   702 ;;		On entry : 0/0
   703 ;;		On exit  : 0/0
   704 ;;		Unchanged: 0/0
   705 ;; Data sizes:     COMRAM   BANK0   BANK1   BANK2   BANK3   BANK4   BANK5   BANK6   BANK7   BANK8   BANK9  BANK10  BANK1
      +1  BANK12  BANK13  BANK14  BANK15
   706 ;;      Params:         4       0       0       0       0       0       0       0       0       0       0       0       
      +0       0       0       0       0
   707 ;;      Locals:         0       0       0       0       0       0       0       0       0       0       0       0       
      +0       0       0       0       0
   708 ;;      Temps:          0       0       0       0       0       0       0       0       0       0       0       0       
      +0       0       0       0       0
   709 ;;      Totals:         4       0       0       0       0       0       0       0       0       0       0       0       
      +0       0       0       0       0
   710 ;;Total ram usage:        4 bytes
   711 ;; Hardware stack levels used: 1
   712 ;; Hardware stack levels required when called: 5
   713 ;; This function calls:
   714 ;;		_EEPROM_READ_DATA_REG
   715 ;;		_EEPROM_UPDATE_ADDRESS_REG
   716 ;; This function is called by:
   717 ;;		_main
   718 ;; This function uses a non-reentrant model
   719 ;;
   720                           
   721                           	psect	text5
   722   0011F2                     __ptext5:
   723                           	callstack 0
   724   0011F2                     _Data_EEPROM_ReadByte:
   725                           	callstack 25
   726   0011F2                     
   727                           ;MCAL_Layer/EEPROM/hal_eeprom.c: 49:     if(bData==((void*)0)){
   728   0011F2  505C               	movf	Data_EEPROM_ReadByte@bData^0,w,c
   729   0011F4  105D               	iorwf	(Data_EEPROM_ReadByte@bData+1)^0,w,c
   730   0011F6  A4D8               	btfss	status,2,c
   731   0011F8  EF00  F009         	goto	u1891
   732   0011FC  EF02  F009         	goto	u1890
   733   001200                     u1891:
   734   001200  EF04  F009         	goto	l3119
   735   001204                     u1890:
   736   001204                     
   737                           ;MCAL_Layer/EEPROM/hal_eeprom.c: 51:     }
   738   001204  EF15  F009         	goto	l829
   739   001208                     l3119:
   740                           
   741                           ;MCAL_Layer/EEPROM/hal_eeprom.c: 54:     EEPROM_UPDATE_ADDRESS_REG(bAdd);
   742   001208  C05A  F058         	movff	Data_EEPROM_ReadByte@bAdd,EEPROM_UPDATE_ADDRESS_REG@ADD
   743   00120C  C05B  F059         	movff	Data_EEPROM_ReadByte@bAdd+1,EEPROM_UPDATE_ADDRESS_REG@ADD+1
   744   001210  EC69  F009         	call	_EEPROM_UPDATE_ADDRESS_REG	;wreg free
   745   001214                     
   746                           ;MCAL_Layer/EEPROM/hal_eeprom.c: 56:     (*((volatile EECON1_t *)(0xFA6))).EEPGD = 0;(*(
      +                          (volatile EECON1_t *)(0xFA6))).CFGS = 0;
   747   001214  9EA6               	bcf	166,7,c	;volsfr
   748   001216  9CA6               	bcf	166,6,c	;volsfr
   749   001218                     
   750                           ;MCAL_Layer/EEPROM/hal_eeprom.c: 58:     (*((volatile EECON1_t *)(0xFA6))).RD=1;
   751   001218  80A6               	bsf	166,0,c	;volsfr
   752   00121A  F000               	nop		;# 
   753   00121C  F000               	nop		;# 
   754   00121E                     
   755                           ;MCAL_Layer/EEPROM/hal_eeprom.c: 62:     EEPROM_READ_DATA_REG(bData);
   756   00121E  C05C  F058         	movff	Data_EEPROM_ReadByte@bData,EEPROM_READ_DATA_REG@DATA
   757   001222  C05D  F059         	movff	Data_EEPROM_ReadByte@bData+1,EEPROM_READ_DATA_REG@DATA+1
   758   001226  EC62  F009         	call	_EEPROM_READ_DATA_REG	;wreg free
   759   00122A                     l829:
   760   00122A  0012               	return		;funcret
   761   00122C                     __end_of_Data_EEPROM_ReadByte:
   762                           	callstack 0
   763                           
   764 ;; *************** function _EEPROM_UPDATE_ADDRESS_REG *****************
   765 ;; Defined at:
   766 ;;		line 66 in file "MCAL_Layer/EEPROM/hal_eeprom.c"
   767 ;; Parameters:    Size  Location     Type
   768 ;;  ADD             2    3[COMRAM] unsigned int 
   769 ;; Auto vars:     Size  Location     Type
   770 ;;		None
   771 ;; Return value:  Size  Location     Type
   772 ;;                  1    wreg      void 
   773 ;; Registers used:
   774 ;;		wreg, status,2, status,0
   775 ;; Tracked objects:
   776 ;;		On entry : 0/0
   777 ;;		On exit  : 0/0
   778 ;;		Unchanged: 0/0
   779 ;; Data sizes:     COMRAM   BANK0   BANK1   BANK2   BANK3   BANK4   BANK5   BANK6   BANK7   BANK8   BANK9  BANK10  BANK1
      +1  BANK12  BANK13  BANK14  BANK15
   780 ;;      Params:         2       0       0       0       0       0       0       0       0       0       0       0       
      +0       0       0       0       0
   781 ;;      Locals:         0       0       0       0       0       0       0       0       0       0       0       0       
      +0       0       0       0       0
   782 ;;      Temps:          0       0       0       0       0       0       0       0       0       0       0       0       
      +0       0       0       0       0
   783 ;;      Totals:         2       0       0       0       0       0       0       0       0       0       0       0       
      +0       0       0       0       0
   784 ;;Total ram usage:        2 bytes
   785 ;; Hardware stack levels used: 1
   786 ;; Hardware stack levels required when called: 4
   787 ;; This function calls:
   788 ;;		Nothing
   789 ;; This function is called by:
   790 ;;		_Data_EEPROM_WriteByte
   791 ;;		_Data_EEPROM_ReadByte
   792 ;; This function uses a non-reentrant model
   793 ;;
   794                           
   795                           	psect	text6
   796   0012D2                     __ptext6:
   797                           	callstack 0
   798   0012D2                     _EEPROM_UPDATE_ADDRESS_REG:
   799                           	callstack 25
   800   0012D2                     
   801                           ;MCAL_Layer/EEPROM/hal_eeprom.c: 67:     (*((volatile uint8 *)(0xFAA))) = (uint8)((ADD>>
      +                          8)&(0x03));
   802   0012D2  5059               	movf	(EEPROM_UPDATE_ADDRESS_REG@ADD+1)^0,w,c
   803   0012D4  0B03               	andlw	3
   804   0012D6  6EAA               	movwf	170,c	;volatile
   805   0012D8                     
   806                           ;MCAL_Layer/EEPROM/hal_eeprom.c: 68:     (*((volatile uint8 *)(0xFA9))) = (uint8)(ADD &(
      +                          0xFF));
   807   0012D8  C058  FFA9         	movff	EEPROM_UPDATE_ADDRESS_REG@ADD,4009	;volatile
   808   0012DC  0012               	return		;funcret
   809   0012DE                     __end_of_EEPROM_UPDATE_ADDRESS_REG:
   810                           	callstack 0
   811                           
   812 ;; *************** function _EEPROM_READ_DATA_REG *****************
   813 ;; Defined at:
   814 ;;		line 79 in file "MCAL_Layer/EEPROM/hal_eeprom.c"
   815 ;; Parameters:    Size  Location     Type
   816 ;;  DATA            2    3[COMRAM] PTR unsigned char 
   817 ;;		 -> EEPROM_READ_VALUE(1), 
   818 ;; Auto vars:     Size  Location     Type
   819 ;;		None
   820 ;; Return value:  Size  Location     Type
   821 ;;                  1    wreg      void 
   822 ;; Registers used:
   823 ;;		fsr2l, fsr2h
   824 ;; Tracked objects:
   825 ;;		On entry : 0/0
   826 ;;		On exit  : 0/0
   827 ;;		Unchanged: 0/0
   828 ;; Data sizes:     COMRAM   BANK0   BANK1   BANK2   BANK3   BANK4   BANK5   BANK6   BANK7   BANK8   BANK9  BANK10  BANK1
      +1  BANK12  BANK13  BANK14  BANK15
   829 ;;      Params:         2       0       0       0       0       0       0       0       0       0       0       0       
      +0       0       0       0       0
   830 ;;      Locals:         0       0       0       0       0       0       0       0       0       0       0       0       
      +0       0       0       0       0
   831 ;;      Temps:          0       0       0       0       0       0       0       0       0       0       0       0       
      +0       0       0       0       0
   832 ;;      Totals:         2       0       0       0       0       0       0       0       0       0       0       0       
      +0       0       0       0       0
   833 ;;Total ram usage:        2 bytes
   834 ;; Hardware stack levels used: 1
   835 ;; Hardware stack levels required when called: 4
   836 ;; This function calls:
   837 ;;		Nothing
   838 ;; This function is called by:
   839 ;;		_Data_EEPROM_ReadByte
   840 ;; This function uses a non-reentrant model
   841 ;;
   842                           
   843                           	psect	text7
   844   0012C4                     __ptext7:
   845                           	callstack 0
   846   0012C4                     _EEPROM_READ_DATA_REG:
   847                           	callstack 25
   848   0012C4                     
   849                           ;MCAL_Layer/EEPROM/hal_eeprom.c: 80:     *DATA = (*((volatile uint8 *)(0xFA8)));
   850   0012C4  C058  FFD9         	movff	EEPROM_READ_DATA_REG@DATA,fsr2l
   851   0012C8  C059  FFDA         	movff	EEPROM_READ_DATA_REG@DATA+1,fsr2h
   852   0012CC  CFA8 FFDF          	movff	4008,indf2	;volatile
   853   0012D0  0012               	return		;funcret
   854   0012D2                     __end_of_EEPROM_READ_DATA_REG:
   855                           	callstack 0
   856                           
   857 ;; *************** function _InterruptManagerLow *****************
   858 ;; Defined at:
   859 ;;		line 38 in file "MCAL_Layer/Interrupt/mcal_interrupt_manager.c"
   860 ;; Parameters:    Size  Location     Type
   861 ;;		None
   862 ;; Auto vars:     Size  Location     Type
   863 ;;		None
   864 ;; Return value:  Size  Location     Type
   865 ;;                  1    wreg      void 
   866 ;; Registers used:
   867 ;;		wreg, status,2, status,0, cstack
   868 ;; Tracked objects:
   869 ;;		On entry : 0/0
   870 ;;		On exit  : 0/0
   871 ;;		Unchanged: 0/0
   872 ;; Data sizes:     COMRAM   BANK0   BANK1   BANK2   BANK3   BANK4   BANK5   BANK6   BANK7   BANK8   BANK9  BANK10  BANK1
      +1  BANK12  BANK13  BANK14  BANK15
   873 ;;      Params:         0       0       0       0       0       0       0       0       0       0       0       0       
      +0       0       0       0       0
   874 ;;      Locals:         0       0       0       0       0       0       0       0       0       0       0       0       
      +0       0       0       0       0
   875 ;;      Temps:          3       0       0       0       0       0       0       0       0       0       0       0       
      +0       0       0       0       0
   876 ;;      Totals:         3       0       0       0       0       0       0       0       0       0       0       0       
      +0       0       0       0       0
   877 ;;Total ram usage:        3 bytes
   878 ;; Hardware stack levels used: 1
   879 ;; Hardware stack levels required when called: 3
   880 ;; This function calls:
   881 ;;		_INT1_ISR
   882 ;;		_INT2_ISR
   883 ;;		_RB4_ISR
   884 ;;		_RB5_ISR
   885 ;;		_RB6_ISR
   886 ;;		_RB7_ISR
   887 ;; This function is called by:
   888 ;;		Interrupt level 1
   889 ;; This function uses a non-reentrant model
   890 ;;
   891                           
   892                           	psect	intcodelo
   893   000018                     __pintcodelo:
   894                           	callstack 0
   895   000018                     _InterruptManagerLow:
   896                           	callstack 25
   897                           
   898                           ;incstack = 0
   899   000018  805F               	bsf	int$flags,0,c	;set compiler interrupt flag (level 1)
   900   00001A  CFD8 F055          	movff	status,??_InterruptManagerLow
   901   00001E  CFE8 F056          	movff	wreg,??_InterruptManagerLow+1
   902   000022  CFE0 F057          	movff	bsr,??_InterruptManagerLow+2
   903   000026                     
   904                           ;MCAL_Layer/Interrupt/mcal_interrupt_manager.c: 39:       if((0 == (*((volatile INTCON3_
      +                          t *)(0xFF0))).INT1IP)&&(1 == (*((volatile INTCON3_t *)(0xFF0))).INT1IF)){
   905   000026  BCF0               	btfsc	240,6,c	;volatile
   906   000028  EF18  F000         	goto	i1u171_21
   907   00002C  EF1A  F000         	goto	i1u171_20
   908   000030                     i1u171_21:
   909   000030  EF23  F000         	goto	i1l778
   910   000034                     i1u171_20:
   911   000034  A0F0               	btfss	240,0,c	;volatile
   912   000036  EF1F  F000         	goto	i1u172_21
   913   00003A  EF21  F000         	goto	i1u172_20
   914   00003E                     i1u172_21:
   915   00003E  EF23  F000         	goto	i1l778
   916   000042                     i1u172_20:
   917   000042                     
   918                           ;MCAL_Layer/Interrupt/mcal_interrupt_manager.c: 40:         INT1_ISR();
   919   000042  EC7D  F009         	call	_INT1_ISR	;wreg free
   920   000046                     i1l778:
   921                           
   922                           ;MCAL_Layer/Interrupt/mcal_interrupt_manager.c: 43:     if((0 == (*((volatile INTCON3_t 
      +                          *)(0xFF0))).INT2IP)&&(1 == (*((volatile INTCON3_t *)(0xFF0))).INT2IF)){
   923   000046  BEF0               	btfsc	240,7,c	;volatile
   924   000048  EF28  F000         	goto	i1u173_21
   925   00004C  EF2A  F000         	goto	i1u173_20
   926   000050                     i1u173_21:
   927   000050  EF33  F000         	goto	i1l780
   928   000054                     i1u173_20:
   929   000054  A2F0               	btfss	240,1,c	;volatile
   930   000056  EF2F  F000         	goto	i1u174_21
   931   00005A  EF31  F000         	goto	i1u174_20
   932   00005E                     i1u174_21:
   933   00005E  EF33  F000         	goto	i1l780
   934   000062                     i1u174_20:
   935   000062                     
   936                           ;MCAL_Layer/Interrupt/mcal_interrupt_manager.c: 44:         INT2_ISR();
   937   000062  EC7B  F009         	call	_INT2_ISR	;wreg free
   938   000066                     i1l780:
   939                           
   940                           ;MCAL_Layer/Interrupt/mcal_interrupt_manager.c: 47:      if((0 == (*((volatile INTCON2_t
      +                           *)(0xFF1))).RBIP)&&(1 == (*((volatile INTCON_t *)(0xFF2))).RBIF) && (((((*((volatile ui
      +                          nt8*)(0xF81)))>>4)&((uint8)0x01)))!=RB4_pin_init_value)){
   941   000066  B0F1               	btfsc	241,0,c	;volatile
   942   000068  EF38  F000         	goto	i1u175_21
   943   00006C  EF3A  F000         	goto	i1u175_20
   944   000070                     i1u175_21:
   945   000070  EF50  F000         	goto	i1l782
   946   000074                     i1u175_20:
   947   000074  A0F2               	btfss	242,0,c	;volatile
   948   000076  EF3F  F000         	goto	i1u176_21
   949   00007A  EF41  F000         	goto	i1u176_20
   950   00007E                     i1u176_21:
   951   00007E  EF50  F000         	goto	i1l782
   952   000082                     i1u176_20:
   953   000082  3881               	swapf	129,w,c	;volatile
   954   000084  0B0F               	andlw	15
   955   000086  0B01               	andlw	1
   956   000088  184C               	xorwf	_RB4_pin_init_value^0,w,c	;volatile
   957   00008A  B4D8               	btfsc	status,2,c
   958   00008C  EF4A  F000         	goto	i1u177_21
   959   000090  EF4C  F000         	goto	i1u177_20
   960   000094                     i1u177_21:
   961   000094  EF50  F000         	goto	i1l782
   962   000098                     i1u177_20:
   963   000098                     
   964                           ;MCAL_Layer/Interrupt/mcal_interrupt_manager.c: 48:         RB4_pin_init_value^=1;
   965   000098  0E01               	movlw	1
   966   00009A  1A4C               	xorwf	_RB4_pin_init_value^0,f,c	;volatile
   967   00009C                     
   968                           ;MCAL_Layer/Interrupt/mcal_interrupt_manager.c: 49:         RB4_ISR();
   969   00009C  EC79  F009         	call	_RB4_ISR	;wreg free
   970   0000A0                     i1l782:
   971                           
   972                           ;MCAL_Layer/Interrupt/mcal_interrupt_manager.c: 52:        if((0 == (*((volatile INTCON2
      +                          _t *)(0xFF1))).RBIP)&&(1 == (*((volatile INTCON_t *)(0xFF2))).RBIF) && (((((*((volatile 
      +                          uint8*)(0xF81)))>>5)&((uint8)0x01)))!=RB5_pin_init_value)){
   973   0000A0  B0F1               	btfsc	241,0,c	;volatile
   974   0000A2  EF55  F000         	goto	i1u178_21
   975   0000A6  EF57  F000         	goto	i1u178_20
   976   0000AA                     i1u178_21:
   977   0000AA  EF6E  F000         	goto	i1l784
   978   0000AE                     i1u178_20:
   979   0000AE  A0F2               	btfss	242,0,c	;volatile
   980   0000B0  EF5C  F000         	goto	i1u179_21
   981   0000B4  EF5E  F000         	goto	i1u179_20
   982   0000B8                     i1u179_21:
   983   0000B8  EF6E  F000         	goto	i1l784
   984   0000BC                     i1u179_20:
   985   0000BC  3881               	swapf	129,w,c	;volatile
   986   0000BE  42E8               	rrncf	wreg,f,c
   987   0000C0  0B07               	andlw	7
   988   0000C2  0B01               	andlw	1
   989   0000C4  184B               	xorwf	_RB5_pin_init_value^0,w,c	;volatile
   990   0000C6  B4D8               	btfsc	status,2,c
   991   0000C8  EF68  F000         	goto	i1u180_21
   992   0000CC  EF6A  F000         	goto	i1u180_20
   993   0000D0                     i1u180_21:
   994   0000D0  EF6E  F000         	goto	i1l784
   995   0000D4                     i1u180_20:
   996   0000D4                     
   997                           ;MCAL_Layer/Interrupt/mcal_interrupt_manager.c: 53:         RB5_pin_init_value^=1;
   998   0000D4  0E01               	movlw	1
   999   0000D6  1A4B               	xorwf	_RB5_pin_init_value^0,f,c	;volatile
  1000   0000D8                     
  1001                           ;MCAL_Layer/Interrupt/mcal_interrupt_manager.c: 54:         RB5_ISR();
  1002   0000D8  EC77  F009         	call	_RB5_ISR	;wreg free
  1003   0000DC                     i1l784:
  1004                           
  1005                           ;MCAL_Layer/Interrupt/mcal_interrupt_manager.c: 57:        if((0 == (*((volatile INTCON2
      +                          _t *)(0xFF1))).RBIP)&&(1 == (*((volatile INTCON_t *)(0xFF2))).RBIF) && (((((*((volatile 
      +                          uint8*)(0xF81)))>>6)&((uint8)0x01)))!=RB6_pin_init_value)){
  1006   0000DC  B0F1               	btfsc	241,0,c	;volatile
  1007   0000DE  EF73  F000         	goto	i1u181_21
  1008   0000E2  EF75  F000         	goto	i1u181_20
  1009   0000E6                     i1u181_21:
  1010   0000E6  EF8C  F000         	goto	i1l786
  1011   0000EA                     i1u181_20:
  1012   0000EA  A0F2               	btfss	242,0,c	;volatile
  1013   0000EC  EF7A  F000         	goto	i1u182_21
  1014   0000F0  EF7C  F000         	goto	i1u182_20
  1015   0000F4                     i1u182_21:
  1016   0000F4  EF8C  F000         	goto	i1l786
  1017   0000F8                     i1u182_20:
  1018   0000F8  4481               	rlncf	129,w,c	;volatile
  1019   0000FA  46E8               	rlncf	wreg,f,c
  1020   0000FC  0B03               	andlw	3
  1021   0000FE  0B01               	andlw	1
  1022   000100  184A               	xorwf	_RB6_pin_init_value^0,w,c	;volatile
  1023   000102  B4D8               	btfsc	status,2,c
  1024   000104  EF86  F000         	goto	i1u183_21
  1025   000108  EF88  F000         	goto	i1u183_20
  1026   00010C                     i1u183_21:
  1027   00010C  EF8C  F000         	goto	i1l786
  1028   000110                     i1u183_20:
  1029   000110                     
  1030                           ;MCAL_Layer/Interrupt/mcal_interrupt_manager.c: 58:         RB6_pin_init_value^=1;
  1031   000110  0E01               	movlw	1
  1032   000112  1A4A               	xorwf	_RB6_pin_init_value^0,f,c	;volatile
  1033   000114                     
  1034                           ;MCAL_Layer/Interrupt/mcal_interrupt_manager.c: 59:         RB6_ISR();
  1035   000114  EC75  F009         	call	_RB6_ISR	;wreg free
  1036   000118                     i1l786:
  1037                           
  1038                           ;MCAL_Layer/Interrupt/mcal_interrupt_manager.c: 62:        if((0 == (*((volatile INTCON2
      +                          _t *)(0xFF1))).RBIP)&&(1 == (*((volatile INTCON_t *)(0xFF2))).RBIF) && (((((*((volatile 
      +                          uint8*)(0xF81)))>>7)&((uint8)0x01)))!=RB7_pin_init_value)){
  1039   000118  B0F1               	btfsc	241,0,c	;volatile
  1040   00011A  EF91  F000         	goto	i1u184_21
  1041   00011E  EF93  F000         	goto	i1u184_20
  1042   000122                     i1u184_21:
  1043   000122  EFA8  F000         	goto	i1l789
  1044   000126                     i1u184_20:
  1045   000126  A0F2               	btfss	242,0,c	;volatile
  1046   000128  EF98  F000         	goto	i1u185_21
  1047   00012C  EF9A  F000         	goto	i1u185_20
  1048   000130                     i1u185_21:
  1049   000130  EFA8  F000         	goto	i1l789
  1050   000134                     i1u185_20:
  1051   000134  4481               	rlncf	129,w,c	;volatile
  1052   000136  0B01               	andlw	1
  1053   000138  1849               	xorwf	_RB7_pin_init_value^0,w,c	;volatile
  1054   00013A  B4D8               	btfsc	status,2,c
  1055   00013C  EFA2  F000         	goto	i1u186_21
  1056   000140  EFA4  F000         	goto	i1u186_20
  1057   000144                     i1u186_21:
  1058   000144  EFA8  F000         	goto	i1l789
  1059   000148                     i1u186_20:
  1060   000148                     
  1061                           ;MCAL_Layer/Interrupt/mcal_interrupt_manager.c: 63:         RB7_pin_init_value^=1;
  1062   000148  0E01               	movlw	1
  1063   00014A  1A49               	xorwf	_RB7_pin_init_value^0,f,c	;volatile
  1064   00014C                     
  1065                           ;MCAL_Layer/Interrupt/mcal_interrupt_manager.c: 64:         RB7_ISR();
  1066   00014C  EC73  F009         	call	_RB7_ISR	;wreg free
  1067   000150                     i1l789:
  1068   000150  C057  FFE0         	movff	??_InterruptManagerLow+2,bsr
  1069   000154  C056  FFE8         	movff	??_InterruptManagerLow+1,wreg
  1070   000158  C055  FFD8         	movff	??_InterruptManagerLow,status
  1071   00015C  905F               	bcf	int$flags,0,c	;clear compiler interrupt flag (level 1)
  1072   00015E  0010               	retfie	
  1073   000160                     __end_of_InterruptManagerLow:
  1074                           	callstack 0
  1075                           
  1076 ;; *************** function _RB7_ISR *****************
  1077 ;; Defined at:
  1078 ;;		line 180 in file "MCAL_Layer/Interrupt/mcal_external_interrupt.c"
  1079 ;; Parameters:    Size  Location     Type
  1080 ;;		None
  1081 ;; Auto vars:     Size  Location     Type
  1082 ;;		None
  1083 ;; Return value:  Size  Location     Type
  1084 ;;                  1    wreg      void 
  1085 ;; Registers used:
  1086 ;;		None
  1087 ;; Tracked objects:
  1088 ;;		On entry : 0/0
  1089 ;;		On exit  : 0/0
  1090 ;;		Unchanged: 0/0
  1091 ;; Data sizes:     COMRAM   BANK0   BANK1   BANK2   BANK3   BANK4   BANK5   BANK6   BANK7   BANK8   BANK9  BANK10  BANK1
      +1  BANK12  BANK13  BANK14  BANK15
  1092 ;;      Params:         0       0       0       0       0       0       0       0       0       0       0       0       
      +0       0       0       0       0
  1093 ;;      Locals:         0       0       0       0       0       0       0       0       0       0       0       0       
      +0       0       0       0       0
  1094 ;;      Temps:          0       0       0       0       0       0       0       0       0       0       0       0       
      +0       0       0       0       0
  1095 ;;      Totals:         0       0       0       0       0       0       0       0       0       0       0       0       
      +0       0       0       0       0
  1096 ;;Total ram usage:        0 bytes
  1097 ;; Hardware stack levels used: 1
  1098 ;; Hardware stack levels required when called: 2
  1099 ;; This function calls:
  1100 ;;		Nothing
  1101 ;; This function is called by:
  1102 ;;		_InterruptManagerLow
  1103 ;; This function uses a non-reentrant model
  1104 ;;
  1105                           
  1106                           	psect	text9
  1107   0012E6                     __ptext9:
  1108                           	callstack 0
  1109   0012E6                     _RB7_ISR:
  1110                           	callstack 25
  1111   0012E6                     
  1112                           ;MCAL_Layer/Interrupt/mcal_external_interrupt.c: 182:     ((*((volatile INTCON_t *)(0xFF
      +                          2))).RBIF=0);
  1113   0012E6  90F2               	bcf	242,0,c	;volatile
  1114   0012E8  0012               	return		;funcret
  1115   0012EA                     __end_of_RB7_ISR:
  1116                           	callstack 0
  1117                           
  1118 ;; *************** function _RB6_ISR *****************
  1119 ;; Defined at:
  1120 ;;		line 172 in file "MCAL_Layer/Interrupt/mcal_external_interrupt.c"
  1121 ;; Parameters:    Size  Location     Type
  1122 ;;		None
  1123 ;; Auto vars:     Size  Location     Type
  1124 ;;		None
  1125 ;; Return value:  Size  Location     Type
  1126 ;;                  1    wreg      void 
  1127 ;; Registers used:
  1128 ;;		None
  1129 ;; Tracked objects:
  1130 ;;		On entry : 0/0
  1131 ;;		On exit  : 0/0
  1132 ;;		Unchanged: 0/0
  1133 ;; Data sizes:     COMRAM   BANK0   BANK1   BANK2   BANK3   BANK4   BANK5   BANK6   BANK7   BANK8   BANK9  BANK10  BANK1
      +1  BANK12  BANK13  BANK14  BANK15
  1134 ;;      Params:         0       0       0       0       0       0       0       0       0       0       0       0       
      +0       0       0       0       0
  1135 ;;      Locals:         0       0       0       0       0       0       0       0       0       0       0       0       
      +0       0       0       0       0
  1136 ;;      Temps:          0       0       0       0       0       0       0       0       0       0       0       0       
      +0       0       0       0       0
  1137 ;;      Totals:         0       0       0       0       0       0       0       0       0       0       0       0       
      +0       0       0       0       0
  1138 ;;Total ram usage:        0 bytes
  1139 ;; Hardware stack levels used: 1
  1140 ;; Hardware stack levels required when called: 2
  1141 ;; This function calls:
  1142 ;;		Nothing
  1143 ;; This function is called by:
  1144 ;;		_InterruptManagerLow
  1145 ;; This function uses a non-reentrant model
  1146 ;;
  1147                           
  1148                           	psect	text10
  1149   0012EA                     __ptext10:
  1150                           	callstack 0
  1151   0012EA                     _RB6_ISR:
  1152                           	callstack 25
  1153   0012EA                     
  1154                           ;MCAL_Layer/Interrupt/mcal_external_interrupt.c: 174:     ((*((volatile INTCON_t *)(0xFF
      +                          2))).RBIF=0);
  1155   0012EA  90F2               	bcf	242,0,c	;volatile
  1156   0012EC  0012               	return		;funcret
  1157   0012EE                     __end_of_RB6_ISR:
  1158                           	callstack 0
  1159                           
  1160 ;; *************** function _RB5_ISR *****************
  1161 ;; Defined at:
  1162 ;;		line 164 in file "MCAL_Layer/Interrupt/mcal_external_interrupt.c"
  1163 ;; Parameters:    Size  Location     Type
  1164 ;;		None
  1165 ;; Auto vars:     Size  Location     Type
  1166 ;;		None
  1167 ;; Return value:  Size  Location     Type
  1168 ;;                  1    wreg      void 
  1169 ;; Registers used:
  1170 ;;		None
  1171 ;; Tracked objects:
  1172 ;;		On entry : 0/0
  1173 ;;		On exit  : 0/0
  1174 ;;		Unchanged: 0/0
  1175 ;; Data sizes:     COMRAM   BANK0   BANK1   BANK2   BANK3   BANK4   BANK5   BANK6   BANK7   BANK8   BANK9  BANK10  BANK1
      +1  BANK12  BANK13  BANK14  BANK15
  1176 ;;      Params:         0       0       0       0       0       0       0       0       0       0       0       0       
      +0       0       0       0       0
  1177 ;;      Locals:         0       0       0       0       0       0       0       0       0       0       0       0       
      +0       0       0       0       0
  1178 ;;      Temps:          0       0       0       0       0       0       0       0       0       0       0       0       
      +0       0       0       0       0
  1179 ;;      Totals:         0       0       0       0       0       0       0       0       0       0       0       0       
      +0       0       0       0       0
  1180 ;;Total ram usage:        0 bytes
  1181 ;; Hardware stack levels used: 1
  1182 ;; Hardware stack levels required when called: 2
  1183 ;; This function calls:
  1184 ;;		Nothing
  1185 ;; This function is called by:
  1186 ;;		_InterruptManagerLow
  1187 ;; This function uses a non-reentrant model
  1188 ;;
  1189                           
  1190                           	psect	text11
  1191   0012EE                     __ptext11:
  1192                           	callstack 0
  1193   0012EE                     _RB5_ISR:
  1194                           	callstack 25
  1195   0012EE                     
  1196                           ;MCAL_Layer/Interrupt/mcal_external_interrupt.c: 166:     ((*((volatile INTCON_t *)(0xFF
      +                          2))).RBIF=0);
  1197   0012EE  90F2               	bcf	242,0,c	;volatile
  1198   0012F0  0012               	return		;funcret
  1199   0012F2                     __end_of_RB5_ISR:
  1200                           	callstack 0
  1201                           
  1202 ;; *************** function _RB4_ISR *****************
  1203 ;; Defined at:
  1204 ;;		line 156 in file "MCAL_Layer/Interrupt/mcal_external_interrupt.c"
  1205 ;; Parameters:    Size  Location     Type
  1206 ;;		None
  1207 ;; Auto vars:     Size  Location     Type
  1208 ;;		None
  1209 ;; Return value:  Size  Location     Type
  1210 ;;                  1    wreg      void 
  1211 ;; Registers used:
  1212 ;;		None
  1213 ;; Tracked objects:
  1214 ;;		On entry : 0/0
  1215 ;;		On exit  : 0/0
  1216 ;;		Unchanged: 0/0
  1217 ;; Data sizes:     COMRAM   BANK0   BANK1   BANK2   BANK3   BANK4   BANK5   BANK6   BANK7   BANK8   BANK9  BANK10  BANK1
      +1  BANK12  BANK13  BANK14  BANK15
  1218 ;;      Params:         0       0       0       0       0       0       0       0       0       0       0       0       
      +0       0       0       0       0
  1219 ;;      Locals:         0       0       0       0       0       0       0       0       0       0       0       0       
      +0       0       0       0       0
  1220 ;;      Temps:          0       0       0       0       0       0       0       0       0       0       0       0       
      +0       0       0       0       0
  1221 ;;      Totals:         0       0       0       0       0       0       0       0       0       0       0       0       
      +0       0       0       0       0
  1222 ;;Total ram usage:        0 bytes
  1223 ;; Hardware stack levels used: 1
  1224 ;; Hardware stack levels required when called: 2
  1225 ;; This function calls:
  1226 ;;		Nothing
  1227 ;; This function is called by:
  1228 ;;		_InterruptManagerLow
  1229 ;; This function uses a non-reentrant model
  1230 ;;
  1231                           
  1232                           	psect	text12
  1233   0012F2                     __ptext12:
  1234                           	callstack 0
  1235   0012F2                     _RB4_ISR:
  1236                           	callstack 25
  1237   0012F2                     
  1238                           ;MCAL_Layer/Interrupt/mcal_external_interrupt.c: 158:     ((*((volatile INTCON_t *)(0xFF
      +                          2))).RBIF=0);
  1239   0012F2  90F2               	bcf	242,0,c	;volatile
  1240   0012F4  0012               	return		;funcret
  1241   0012F6                     __end_of_RB4_ISR:
  1242                           	callstack 0
  1243                           
  1244 ;; *************** function _INT2_ISR *****************
  1245 ;; Defined at:
  1246 ;;		line 148 in file "MCAL_Layer/Interrupt/mcal_external_interrupt.c"
  1247 ;; Parameters:    Size  Location     Type
  1248 ;;		None
  1249 ;; Auto vars:     Size  Location     Type
  1250 ;;		None
  1251 ;; Return value:  Size  Location     Type
  1252 ;;                  1    wreg      void 
  1253 ;; Registers used:
  1254 ;;		None
  1255 ;; Tracked objects:
  1256 ;;		On entry : 0/0
  1257 ;;		On exit  : 0/0
  1258 ;;		Unchanged: 0/0
  1259 ;; Data sizes:     COMRAM   BANK0   BANK1   BANK2   BANK3   BANK4   BANK5   BANK6   BANK7   BANK8   BANK9  BANK10  BANK1
      +1  BANK12  BANK13  BANK14  BANK15
  1260 ;;      Params:         0       0       0       0       0       0       0       0       0       0       0       0       
      +0       0       0       0       0
  1261 ;;      Locals:         0       0       0       0       0       0       0       0       0       0       0       0       
      +0       0       0       0       0
  1262 ;;      Temps:          0       0       0       0       0       0       0       0       0       0       0       0       
      +0       0       0       0       0
  1263 ;;      Totals:         0       0       0       0       0       0       0       0       0       0       0       0       
      +0       0       0       0       0
  1264 ;;Total ram usage:        0 bytes
  1265 ;; Hardware stack levels used: 1
  1266 ;; Hardware stack levels required when called: 2
  1267 ;; This function calls:
  1268 ;;		Nothing
  1269 ;; This function is called by:
  1270 ;;		_InterruptManagerLow
  1271 ;; This function uses a non-reentrant model
  1272 ;;
  1273                           
  1274                           	psect	text13
  1275   0012F6                     __ptext13:
  1276                           	callstack 0
  1277   0012F6                     _INT2_ISR:
  1278                           	callstack 25
  1279   0012F6                     
  1280                           ;MCAL_Layer/Interrupt/mcal_external_interrupt.c: 150:     ((*((volatile INTCON3_t *)(0xF
      +                          F0))).INT2IF=0);
  1281   0012F6  92F0               	bcf	240,1,c	;volatile
  1282   0012F8  0012               	return		;funcret
  1283   0012FA                     __end_of_INT2_ISR:
  1284                           	callstack 0
  1285                           
  1286 ;; *************** function _INT1_ISR *****************
  1287 ;; Defined at:
  1288 ;;		line 140 in file "MCAL_Layer/Interrupt/mcal_external_interrupt.c"
  1289 ;; Parameters:    Size  Location     Type
  1290 ;;		None
  1291 ;; Auto vars:     Size  Location     Type
  1292 ;;		None
  1293 ;; Return value:  Size  Location     Type
  1294 ;;                  1    wreg      void 
  1295 ;; Registers used:
  1296 ;;		None
  1297 ;; Tracked objects:
  1298 ;;		On entry : 0/0
  1299 ;;		On exit  : 0/0
  1300 ;;		Unchanged: 0/0
  1301 ;; Data sizes:     COMRAM   BANK0   BANK1   BANK2   BANK3   BANK4   BANK5   BANK6   BANK7   BANK8   BANK9  BANK10  BANK1
      +1  BANK12  BANK13  BANK14  BANK15
  1302 ;;      Params:         0       0       0       0       0       0       0       0       0       0       0       0       
      +0       0       0       0       0
  1303 ;;      Locals:         0       0       0       0       0       0       0       0       0       0       0       0       
      +0       0       0       0       0
  1304 ;;      Temps:          0       0       0       0       0       0       0       0       0       0       0       0       
      +0       0       0       0       0
  1305 ;;      Totals:         0       0       0       0       0       0       0       0       0       0       0       0       
      +0       0       0       0       0
  1306 ;;Total ram usage:        0 bytes
  1307 ;; Hardware stack levels used: 1
  1308 ;; Hardware stack levels required when called: 2
  1309 ;; This function calls:
  1310 ;;		Nothing
  1311 ;; This function is called by:
  1312 ;;		_InterruptManagerLow
  1313 ;; This function uses a non-reentrant model
  1314 ;;
  1315                           
  1316                           	psect	text14
  1317   0012FA                     __ptext14:
  1318                           	callstack 0
  1319   0012FA                     _INT1_ISR:
  1320                           	callstack 25
  1321   0012FA                     
  1322                           ;MCAL_Layer/Interrupt/mcal_external_interrupt.c: 142:     ((*((volatile INTCON3_t *)(0xF
      +                          F0))).INT1IF=0);
  1323   0012FA  90F0               	bcf	240,0,c	;volatile
  1324   0012FC  0012               	return		;funcret
  1325   0012FE                     __end_of_INT1_ISR:
  1326                           	callstack 0
  1327                           
  1328 ;; *************** function _InterruptManagerHigh *****************
  1329 ;; Defined at:
  1330 ;;		line 3 in file "MCAL_Layer/Interrupt/mcal_interrupt_manager.c"
  1331 ;; Parameters:    Size  Location     Type
  1332 ;;		None
  1333 ;; Auto vars:     Size  Location     Type
  1334 ;;		None
  1335 ;; Return value:  Size  Location     Type
  1336 ;;                  1    wreg      void 
  1337 ;; Registers used:
  1338 ;;		wreg, status,2, status,0, cstack
  1339 ;; Tracked objects:
  1340 ;;		On entry : 0/0
  1341 ;;		On exit  : 0/0
  1342 ;;		Unchanged: 0/0
  1343 ;; Data sizes:     COMRAM   BANK0   BANK1   BANK2   BANK3   BANK4   BANK5   BANK6   BANK7   BANK8   BANK9  BANK10  BANK1
      +1  BANK12  BANK13  BANK14  BANK15
  1344 ;;      Params:         0       0       0       0       0       0       0       0       0       0       0       0       
      +0       0       0       0       0
  1345 ;;      Locals:         0       0       0       0       0       0       0       0       0       0       0       0       
      +0       0       0       0       0
  1346 ;;      Temps:          0       0       0       0       0       0       0       0       0       0       0       0       
      +0       0       0       0       0
  1347 ;;      Totals:         0       0       0       0       0       0       0       0       0       0       0       0       
      +0       0       0       0       0
  1348 ;;Total ram usage:        0 bytes
  1349 ;; Hardware stack levels used: 1
  1350 ;; Hardware stack levels required when called: 1
  1351 ;; This function calls:
  1352 ;;		_INT0_ISR
  1353 ;;		i2_INT1_ISR
  1354 ;;		i2_INT2_ISR
  1355 ;;		i2_RB4_ISR
  1356 ;;		i2_RB5_ISR
  1357 ;;		i2_RB6_ISR
  1358 ;;		i2_RB7_ISR
  1359 ;; This function is called by:
  1360 ;;		Interrupt level 2
  1361 ;; This function uses a non-reentrant model
  1362 ;;
  1363                           
  1364                           	psect	intcode
  1365   000008                     __pintcode:
  1366                           	callstack 0
  1367   000008                     _InterruptManagerHigh:
  1368                           	callstack 25
  1369                           
  1370                           ;incstack = 0
  1371   000008  825F               	bsf	int$flags,1,c	;set compiler interrupt flag (level 2)
  1372   00000A  ED0B  F008         	call	int_func,f	;refresh shadow registers
  1373                           
  1374                           	psect	intcode_body
  1375   001016                     __pintcode_body:
  1376                           	callstack 25
  1377   001016                     int_func:
  1378                           	callstack 25
  1379   001016  0006               	pop		; remove dummy address from shadow register refresh
  1380   001018                     
  1381                           ;MCAL_Layer/Interrupt/mcal_interrupt_manager.c: 4:     if((1 == (*((volatile INTCON_t *)
      +                          (0xFF2))).INT0IE)&&(1 == (*((volatile INTCON_t *)(0xFF2))).INT0IF)){
  1382   001018  A8F2               	btfss	242,4,c	;volatile
  1383   00101A  EF11  F008         	goto	i2u153_41
  1384   00101E  EF13  F008         	goto	i2u153_40
  1385   001022                     i2u153_41:
  1386   001022  EF1C  F008         	goto	i2l759
  1387   001026                     i2u153_40:
  1388   001026  A2F2               	btfss	242,1,c	;volatile
  1389   001028  EF18  F008         	goto	i2u154_41
  1390   00102C  EF1A  F008         	goto	i2u154_40
  1391   001030                     i2u154_41:
  1392   001030  EF1C  F008         	goto	i2l759
  1393   001034                     i2u154_40:
  1394   001034                     
  1395                           ;MCAL_Layer/Interrupt/mcal_interrupt_manager.c: 5:         INT0_ISR();
  1396   001034  EC8B  F009         	call	_INT0_ISR	;wreg free
  1397   001038                     i2l759:
  1398                           
  1399                           ;MCAL_Layer/Interrupt/mcal_interrupt_manager.c: 8:      if((1 == (*((volatile INTCON3_t 
      +                          *)(0xFF0))).INT1IP)&&(1 == (*((volatile INTCON3_t *)(0xFF0))).INT1IF)){
  1400   001038  ACF0               	btfss	240,6,c	;volatile
  1401   00103A  EF21  F008         	goto	i2u155_41
  1402   00103E  EF23  F008         	goto	i2u155_40
  1403   001042                     i2u155_41:
  1404   001042  EF2C  F008         	goto	i2l761
  1405   001046                     i2u155_40:
  1406   001046  A0F0               	btfss	240,0,c	;volatile
  1407   001048  EF28  F008         	goto	i2u156_41
  1408   00104C  EF2A  F008         	goto	i2u156_40
  1409   001050                     i2u156_41:
  1410   001050  EF2C  F008         	goto	i2l761
  1411   001054                     i2u156_40:
  1412   001054                     
  1413                           ;MCAL_Layer/Interrupt/mcal_interrupt_manager.c: 9:         INT1_ISR();
  1414   001054  EC89  F009         	call	i2_INT1_ISR	;wreg free
  1415   001058                     i2l761:
  1416                           
  1417                           ;MCAL_Layer/Interrupt/mcal_interrupt_manager.c: 12:     if((1 == (*((volatile INTCON3_t 
      +                          *)(0xFF0))).INT2IP)&&(1 == (*((volatile INTCON3_t *)(0xFF0))).INT2IF)){
  1418   001058  AEF0               	btfss	240,7,c	;volatile
  1419   00105A  EF31  F008         	goto	i2u157_41
  1420   00105E  EF33  F008         	goto	i2u157_40
  1421   001062                     i2u157_41:
  1422   001062  EF3C  F008         	goto	i2l763
  1423   001066                     i2u157_40:
  1424   001066  A2F0               	btfss	240,1,c	;volatile
  1425   001068  EF38  F008         	goto	i2u158_41
  1426   00106C  EF3A  F008         	goto	i2u158_40
  1427   001070                     i2u158_41:
  1428   001070  EF3C  F008         	goto	i2l763
  1429   001074                     i2u158_40:
  1430   001074                     
  1431                           ;MCAL_Layer/Interrupt/mcal_interrupt_manager.c: 13:         INT2_ISR();
  1432   001074  EC87  F009         	call	i2_INT2_ISR	;wreg free
  1433   001078                     i2l763:
  1434                           
  1435                           ;MCAL_Layer/Interrupt/mcal_interrupt_manager.c: 16:      if((1 == (*((volatile INTCON2_t
      +                           *)(0xFF1))).RBIP)&&(1 == (*((volatile INTCON_t *)(0xFF2))).RBIF) && (((((*((volatile ui
      +                          nt8*)(0xF81)))>>4)&((uint8)0x01)))!=RB4_pin_init_value)){
  1436   001078  A0F1               	btfss	241,0,c	;volatile
  1437   00107A  EF41  F008         	goto	i2u159_41
  1438   00107E  EF43  F008         	goto	i2u159_40
  1439   001082                     i2u159_41:
  1440   001082  EF59  F008         	goto	i2l765
  1441   001086                     i2u159_40:
  1442   001086  A0F2               	btfss	242,0,c	;volatile
  1443   001088  EF48  F008         	goto	i2u160_41
  1444   00108C  EF4A  F008         	goto	i2u160_40
  1445   001090                     i2u160_41:
  1446   001090  EF59  F008         	goto	i2l765
  1447   001094                     i2u160_40:
  1448   001094  3881               	swapf	129,w,c	;volatile
  1449   001096  0B0F               	andlw	15
  1450   001098  0B01               	andlw	1
  1451   00109A  184C               	xorwf	_RB4_pin_init_value^0,w,c	;volatile
  1452   00109C  B4D8               	btfsc	status,2,c
  1453   00109E  EF53  F008         	goto	i2u161_41
  1454   0010A2  EF55  F008         	goto	i2u161_40
  1455   0010A6                     i2u161_41:
  1456   0010A6  EF59  F008         	goto	i2l765
  1457   0010AA                     i2u161_40:
  1458   0010AA                     
  1459                           ;MCAL_Layer/Interrupt/mcal_interrupt_manager.c: 17:         RB4_pin_init_value^=1;
  1460   0010AA  0E01               	movlw	1
  1461   0010AC  1A4C               	xorwf	_RB4_pin_init_value^0,f,c	;volatile
  1462   0010AE                     
  1463                           ;MCAL_Layer/Interrupt/mcal_interrupt_manager.c: 18:         RB4_ISR();
  1464   0010AE  EC85  F009         	call	i2_RB4_ISR	;wreg free
  1465   0010B2                     i2l765:
  1466                           
  1467                           ;MCAL_Layer/Interrupt/mcal_interrupt_manager.c: 21:        if((1 == (*((volatile INTCON2
      +                          _t *)(0xFF1))).RBIP)&&(1 == (*((volatile INTCON_t *)(0xFF2))).RBIF) && (((((*((volatile 
      +                          uint8*)(0xF81)))>>5)&((uint8)0x01)))!=RB5_pin_init_value)){
  1468   0010B2  A0F1               	btfss	241,0,c	;volatile
  1469   0010B4  EF5E  F008         	goto	i2u162_41
  1470   0010B8  EF60  F008         	goto	i2u162_40
  1471   0010BC                     i2u162_41:
  1472   0010BC  EF77  F008         	goto	i2l767
  1473   0010C0                     i2u162_40:
  1474   0010C0  A0F2               	btfss	242,0,c	;volatile
  1475   0010C2  EF65  F008         	goto	i2u163_41
  1476   0010C6  EF67  F008         	goto	i2u163_40
  1477   0010CA                     i2u163_41:
  1478   0010CA  EF77  F008         	goto	i2l767
  1479   0010CE                     i2u163_40:
  1480   0010CE  3881               	swapf	129,w,c	;volatile
  1481   0010D0  42E8               	rrncf	wreg,f,c
  1482   0010D2  0B07               	andlw	7
  1483   0010D4  0B01               	andlw	1
  1484   0010D6  184B               	xorwf	_RB5_pin_init_value^0,w,c	;volatile
  1485   0010D8  B4D8               	btfsc	status,2,c
  1486   0010DA  EF71  F008         	goto	i2u164_41
  1487   0010DE  EF73  F008         	goto	i2u164_40
  1488   0010E2                     i2u164_41:
  1489   0010E2  EF77  F008         	goto	i2l767
  1490   0010E6                     i2u164_40:
  1491   0010E6                     
  1492                           ;MCAL_Layer/Interrupt/mcal_interrupt_manager.c: 22:         RB5_pin_init_value^=1;
  1493   0010E6  0E01               	movlw	1
  1494   0010E8  1A4B               	xorwf	_RB5_pin_init_value^0,f,c	;volatile
  1495   0010EA                     
  1496                           ;MCAL_Layer/Interrupt/mcal_interrupt_manager.c: 23:         RB5_ISR();
  1497   0010EA  EC83  F009         	call	i2_RB5_ISR	;wreg free
  1498   0010EE                     i2l767:
  1499                           
  1500                           ;MCAL_Layer/Interrupt/mcal_interrupt_manager.c: 26:        if((1 == (*((volatile INTCON2
      +                          _t *)(0xFF1))).RBIP)&&(1 == (*((volatile INTCON_t *)(0xFF2))).RBIF) && (((((*((volatile 
      +                          uint8*)(0xF81)))>>6)&((uint8)0x01)))!=RB6_pin_init_value)){
  1501   0010EE  A0F1               	btfss	241,0,c	;volatile
  1502   0010F0  EF7C  F008         	goto	i2u165_41
  1503   0010F4  EF7E  F008         	goto	i2u165_40
  1504   0010F8                     i2u165_41:
  1505   0010F8  EF95  F008         	goto	i2l769
  1506   0010FC                     i2u165_40:
  1507   0010FC  A0F2               	btfss	242,0,c	;volatile
  1508   0010FE  EF83  F008         	goto	i2u166_41
  1509   001102  EF85  F008         	goto	i2u166_40
  1510   001106                     i2u166_41:
  1511   001106  EF95  F008         	goto	i2l769
  1512   00110A                     i2u166_40:
  1513   00110A  4481               	rlncf	129,w,c	;volatile
  1514   00110C  46E8               	rlncf	wreg,f,c
  1515   00110E  0B03               	andlw	3
  1516   001110  0B01               	andlw	1
  1517   001112  184A               	xorwf	_RB6_pin_init_value^0,w,c	;volatile
  1518   001114  B4D8               	btfsc	status,2,c
  1519   001116  EF8F  F008         	goto	i2u167_41
  1520   00111A  EF91  F008         	goto	i2u167_40
  1521   00111E                     i2u167_41:
  1522   00111E  EF95  F008         	goto	i2l769
  1523   001122                     i2u167_40:
  1524   001122                     
  1525                           ;MCAL_Layer/Interrupt/mcal_interrupt_manager.c: 27:         RB6_pin_init_value^=1;
  1526   001122  0E01               	movlw	1
  1527   001124  1A4A               	xorwf	_RB6_pin_init_value^0,f,c	;volatile
  1528   001126                     
  1529                           ;MCAL_Layer/Interrupt/mcal_interrupt_manager.c: 28:         RB6_ISR();
  1530   001126  EC81  F009         	call	i2_RB6_ISR	;wreg free
  1531   00112A                     i2l769:
  1532                           
  1533                           ;MCAL_Layer/Interrupt/mcal_interrupt_manager.c: 31:        if((1 == (*((volatile INTCON2
      +                          _t *)(0xFF1))).RBIP)&&(1 == (*((volatile INTCON_t *)(0xFF2))).RBIF) && (((((*((volatile 
      +                          uint8*)(0xF81)))>>7)&((uint8)0x01)))!=RB7_pin_init_value)){
  1534   00112A  A0F1               	btfss	241,0,c	;volatile
  1535   00112C  EF9A  F008         	goto	i2u168_41
  1536   001130  EF9C  F008         	goto	i2u168_40
  1537   001134                     i2u168_41:
  1538   001134  EFB1  F008         	goto	i2l772
  1539   001138                     i2u168_40:
  1540   001138  A0F2               	btfss	242,0,c	;volatile
  1541   00113A  EFA1  F008         	goto	i2u169_41
  1542   00113E  EFA3  F008         	goto	i2u169_40
  1543   001142                     i2u169_41:
  1544   001142  EFB1  F008         	goto	i2l772
  1545   001146                     i2u169_40:
  1546   001146  4481               	rlncf	129,w,c	;volatile
  1547   001148  0B01               	andlw	1
  1548   00114A  1849               	xorwf	_RB7_pin_init_value^0,w,c	;volatile
  1549   00114C  B4D8               	btfsc	status,2,c
  1550   00114E  EFAB  F008         	goto	i2u170_41
  1551   001152  EFAD  F008         	goto	i2u170_40
  1552   001156                     i2u170_41:
  1553   001156  EFB1  F008         	goto	i2l772
  1554   00115A                     i2u170_40:
  1555   00115A                     
  1556                           ;MCAL_Layer/Interrupt/mcal_interrupt_manager.c: 32:         RB7_pin_init_value^=1;
  1557   00115A  0E01               	movlw	1
  1558   00115C  1A49               	xorwf	_RB7_pin_init_value^0,f,c	;volatile
  1559   00115E                     
  1560                           ;MCAL_Layer/Interrupt/mcal_interrupt_manager.c: 33:         RB7_ISR();
  1561   00115E  EC7F  F009         	call	i2_RB7_ISR	;wreg free
  1562   001162                     i2l772:
  1563   001162  925F               	bcf	int$flags,1,c	;clear compiler interrupt flag (level 2)
  1564   001164  0011               	retfie		f
  1565   001166                     __end_of_InterruptManagerHigh:
  1566                           	callstack 0
  1567                           
  1568 ;; *************** function i2_RB7_ISR *****************
  1569 ;; Defined at:
  1570 ;;		line 180 in file "MCAL_Layer/Interrupt/mcal_external_interrupt.c"
  1571 ;; Parameters:    Size  Location     Type
  1572 ;;		None
  1573 ;; Auto vars:     Size  Location     Type
  1574 ;;		None
  1575 ;; Return value:  Size  Location     Type
  1576 ;;                  1    wreg      void 
  1577 ;; Registers used:
  1578 ;;		None
  1579 ;; Tracked objects:
  1580 ;;		On entry : 0/0
  1581 ;;		On exit  : 0/0
  1582 ;;		Unchanged: 0/0
  1583 ;; Data sizes:     COMRAM   BANK0   BANK1   BANK2   BANK3   BANK4   BANK5   BANK6   BANK7   BANK8   BANK9  BANK10  BANK1
      +1  BANK12  BANK13  BANK14  BANK15
  1584 ;;      Params:         0       0       0       0       0       0       0       0       0       0       0       0       
      +0       0       0       0       0
  1585 ;;      Locals:         0       0       0       0       0       0       0       0       0       0       0       0       
      +0       0       0       0       0
  1586 ;;      Temps:          0       0       0       0       0       0       0       0       0       0       0       0       
      +0       0       0       0       0
  1587 ;;      Totals:         0       0       0       0       0       0       0       0       0       0       0       0       
      +0       0       0       0       0
  1588 ;;Total ram usage:        0 bytes
  1589 ;; Hardware stack levels used: 1
  1590 ;; This function calls:
  1591 ;;		Nothing
  1592 ;; This function is called by:
  1593 ;;		_InterruptManagerHigh
  1594 ;; This function uses a non-reentrant model
  1595 ;;
  1596                           
  1597                           	psect	text16
  1598   0012FE                     __ptext16:
  1599                           	callstack 0
  1600   0012FE                     i2_RB7_ISR:
  1601                           	callstack 25
  1602   0012FE                     
  1603                           ;MCAL_Layer/Interrupt/mcal_external_interrupt.c: 182:     ((*((volatile INTCON_t *)(0xFF
      +                          2))).RBIF=0);
  1604   0012FE  90F2               	bcf	242,0,c	;volatile
  1605   001300  0012               	return		;funcret
  1606   001302                     __end_ofi2_RB7_ISR:
  1607                           	callstack 0
  1608                           
  1609 ;; *************** function i2_RB6_ISR *****************
  1610 ;; Defined at:
  1611 ;;		line 172 in file "MCAL_Layer/Interrupt/mcal_external_interrupt.c"
  1612 ;; Parameters:    Size  Location     Type
  1613 ;;		None
  1614 ;; Auto vars:     Size  Location     Type
  1615 ;;		None
  1616 ;; Return value:  Size  Location     Type
  1617 ;;                  1    wreg      void 
  1618 ;; Registers used:
  1619 ;;		None
  1620 ;; Tracked objects:
  1621 ;;		On entry : 0/0
  1622 ;;		On exit  : 0/0
  1623 ;;		Unchanged: 0/0
  1624 ;; Data sizes:     COMRAM   BANK0   BANK1   BANK2   BANK3   BANK4   BANK5   BANK6   BANK7   BANK8   BANK9  BANK10  BANK1
      +1  BANK12  BANK13  BANK14  BANK15
  1625 ;;      Params:         0       0       0       0       0       0       0       0       0       0       0       0       
      +0       0       0       0       0
  1626 ;;      Locals:         0       0       0       0       0       0       0       0       0       0       0       0       
      +0       0       0       0       0
  1627 ;;      Temps:          0       0       0       0       0       0       0       0       0       0       0       0       
      +0       0       0       0       0
  1628 ;;      Totals:         0       0       0       0       0       0       0       0       0       0       0       0       
      +0       0       0       0       0
  1629 ;;Total ram usage:        0 bytes
  1630 ;; Hardware stack levels used: 1
  1631 ;; This function calls:
  1632 ;;		Nothing
  1633 ;; This function is called by:
  1634 ;;		_InterruptManagerHigh
  1635 ;; This function uses a non-reentrant model
  1636 ;;
  1637                           
  1638                           	psect	text17
  1639   001302                     __ptext17:
  1640                           	callstack 0
  1641   001302                     i2_RB6_ISR:
  1642                           	callstack 25
  1643   001302                     
  1644                           ;MCAL_Layer/Interrupt/mcal_external_interrupt.c: 174:     ((*((volatile INTCON_t *)(0xFF
      +                          2))).RBIF=0);
  1645   001302  90F2               	bcf	242,0,c	;volatile
  1646   001304  0012               	return		;funcret
  1647   001306                     __end_ofi2_RB6_ISR:
  1648                           	callstack 0
  1649                           
  1650 ;; *************** function i2_RB5_ISR *****************
  1651 ;; Defined at:
  1652 ;;		line 164 in file "MCAL_Layer/Interrupt/mcal_external_interrupt.c"
  1653 ;; Parameters:    Size  Location     Type
  1654 ;;		None
  1655 ;; Auto vars:     Size  Location     Type
  1656 ;;		None
  1657 ;; Return value:  Size  Location     Type
  1658 ;;                  1    wreg      void 
  1659 ;; Registers used:
  1660 ;;		None
  1661 ;; Tracked objects:
  1662 ;;		On entry : 0/0
  1663 ;;		On exit  : 0/0
  1664 ;;		Unchanged: 0/0
  1665 ;; Data sizes:     COMRAM   BANK0   BANK1   BANK2   BANK3   BANK4   BANK5   BANK6   BANK7   BANK8   BANK9  BANK10  BANK1
      +1  BANK12  BANK13  BANK14  BANK15
  1666 ;;      Params:         0       0       0       0       0       0       0       0       0       0       0       0       
      +0       0       0       0       0
  1667 ;;      Locals:         0       0       0       0       0       0       0       0       0       0       0       0       
      +0       0       0       0       0
  1668 ;;      Temps:          0       0       0       0       0       0       0       0       0       0       0       0       
      +0       0       0       0       0
  1669 ;;      Totals:         0       0       0       0       0       0       0       0       0       0       0       0       
      +0       0       0       0       0
  1670 ;;Total ram usage:        0 bytes
  1671 ;; Hardware stack levels used: 1
  1672 ;; This function calls:
  1673 ;;		Nothing
  1674 ;; This function is called by:
  1675 ;;		_InterruptManagerHigh
  1676 ;; This function uses a non-reentrant model
  1677 ;;
  1678                           
  1679                           	psect	text18
  1680   001306                     __ptext18:
  1681                           	callstack 0
  1682   001306                     i2_RB5_ISR:
  1683                           	callstack 25
  1684   001306                     
  1685                           ;MCAL_Layer/Interrupt/mcal_external_interrupt.c: 166:     ((*((volatile INTCON_t *)(0xFF
      +                          2))).RBIF=0);
  1686   001306  90F2               	bcf	242,0,c	;volatile
  1687   001308  0012               	return		;funcret
  1688   00130A                     __end_ofi2_RB5_ISR:
  1689                           	callstack 0
  1690                           
  1691 ;; *************** function i2_RB4_ISR *****************
  1692 ;; Defined at:
  1693 ;;		line 156 in file "MCAL_Layer/Interrupt/mcal_external_interrupt.c"
  1694 ;; Parameters:    Size  Location     Type
  1695 ;;		None
  1696 ;; Auto vars:     Size  Location     Type
  1697 ;;		None
  1698 ;; Return value:  Size  Location     Type
  1699 ;;                  1    wreg      void 
  1700 ;; Registers used:
  1701 ;;		None
  1702 ;; Tracked objects:
  1703 ;;		On entry : 0/0
  1704 ;;		On exit  : 0/0
  1705 ;;		Unchanged: 0/0
  1706 ;; Data sizes:     COMRAM   BANK0   BANK1   BANK2   BANK3   BANK4   BANK5   BANK6   BANK7   BANK8   BANK9  BANK10  BANK1
      +1  BANK12  BANK13  BANK14  BANK15
  1707 ;;      Params:         0       0       0       0       0       0       0       0       0       0       0       0       
      +0       0       0       0       0
  1708 ;;      Locals:         0       0       0       0       0       0       0       0       0       0       0       0       
      +0       0       0       0       0
  1709 ;;      Temps:          0       0       0       0       0       0       0       0       0       0       0       0       
      +0       0       0       0       0
  1710 ;;      Totals:         0       0       0       0       0       0       0       0       0       0       0       0       
      +0       0       0       0       0
  1711 ;;Total ram usage:        0 bytes
  1712 ;; Hardware stack levels used: 1
  1713 ;; This function calls:
  1714 ;;		Nothing
  1715 ;; This function is called by:
  1716 ;;		_InterruptManagerHigh
  1717 ;; This function uses a non-reentrant model
  1718 ;;
  1719                           
  1720                           	psect	text19
  1721   00130A                     __ptext19:
  1722                           	callstack 0
  1723   00130A                     i2_RB4_ISR:
  1724                           	callstack 25
  1725   00130A                     
  1726                           ;MCAL_Layer/Interrupt/mcal_external_interrupt.c: 158:     ((*((volatile INTCON_t *)(0xFF
      +                          2))).RBIF=0);
  1727   00130A  90F2               	bcf	242,0,c	;volatile
  1728   00130C  0012               	return		;funcret
  1729   00130E                     __end_ofi2_RB4_ISR:
  1730                           	callstack 0
  1731                           
  1732 ;; *************** function i2_INT2_ISR *****************
  1733 ;; Defined at:
  1734 ;;		line 148 in file "MCAL_Layer/Interrupt/mcal_external_interrupt.c"
  1735 ;; Parameters:    Size  Location     Type
  1736 ;;		None
  1737 ;; Auto vars:     Size  Location     Type
  1738 ;;		None
  1739 ;; Return value:  Size  Location     Type
  1740 ;;                  1    wreg      void 
  1741 ;; Registers used:
  1742 ;;		None
  1743 ;; Tracked objects:
  1744 ;;		On entry : 0/0
  1745 ;;		On exit  : 0/0
  1746 ;;		Unchanged: 0/0
  1747 ;; Data sizes:     COMRAM   BANK0   BANK1   BANK2   BANK3   BANK4   BANK5   BANK6   BANK7   BANK8   BANK9  BANK10  BANK1
      +1  BANK12  BANK13  BANK14  BANK15
  1748 ;;      Params:         0       0       0       0       0       0       0       0       0       0       0       0       
      +0       0       0       0       0
  1749 ;;      Locals:         0       0       0       0       0       0       0       0       0       0       0       0       
      +0       0       0       0       0
  1750 ;;      Temps:          0       0       0       0       0       0       0       0       0       0       0       0       
      +0       0       0       0       0
  1751 ;;      Totals:         0       0       0       0       0       0       0       0       0       0       0       0       
      +0       0       0       0       0
  1752 ;;Total ram usage:        0 bytes
  1753 ;; Hardware stack levels used: 1
  1754 ;; This function calls:
  1755 ;;		Nothing
  1756 ;; This function is called by:
  1757 ;;		_InterruptManagerHigh
  1758 ;; This function uses a non-reentrant model
  1759 ;;
  1760                           
  1761                           	psect	text20
  1762   00130E                     __ptext20:
  1763                           	callstack 0
  1764   00130E                     i2_INT2_ISR:
  1765                           	callstack 25
  1766   00130E                     
  1767                           ;MCAL_Layer/Interrupt/mcal_external_interrupt.c: 150:     ((*((volatile INTCON3_t *)(0xF
      +                          F0))).INT2IF=0);
  1768   00130E  92F0               	bcf	240,1,c	;volatile
  1769   001310  0012               	return		;funcret
  1770   001312                     __end_ofi2_INT2_ISR:
  1771                           	callstack 0
  1772                           
  1773 ;; *************** function i2_INT1_ISR *****************
  1774 ;; Defined at:
  1775 ;;		line 140 in file "MCAL_Layer/Interrupt/mcal_external_interrupt.c"
  1776 ;; Parameters:    Size  Location     Type
  1777 ;;		None
  1778 ;; Auto vars:     Size  Location     Type
  1779 ;;		None
  1780 ;; Return value:  Size  Location     Type
  1781 ;;                  1    wreg      void 
  1782 ;; Registers used:
  1783 ;;		None
  1784 ;; Tracked objects:
  1785 ;;		On entry : 0/0
  1786 ;;		On exit  : 0/0
  1787 ;;		Unchanged: 0/0
  1788 ;; Data sizes:     COMRAM   BANK0   BANK1   BANK2   BANK3   BANK4   BANK5   BANK6   BANK7   BANK8   BANK9  BANK10  BANK1
      +1  BANK12  BANK13  BANK14  BANK15
  1789 ;;      Params:         0       0       0       0       0       0       0       0       0       0       0       0       
      +0       0       0       0       0
  1790 ;;      Locals:         0       0       0       0       0       0       0       0       0       0       0       0       
      +0       0       0       0       0
  1791 ;;      Temps:          0       0       0       0       0       0       0       0       0       0       0       0       
      +0       0       0       0       0
  1792 ;;      Totals:         0       0       0       0       0       0       0       0       0       0       0       0       
      +0       0       0       0       0
  1793 ;;Total ram usage:        0 bytes
  1794 ;; Hardware stack levels used: 1
  1795 ;; This function calls:
  1796 ;;		Nothing
  1797 ;; This function is called by:
  1798 ;;		_InterruptManagerHigh
  1799 ;; This function uses a non-reentrant model
  1800 ;;
  1801                           
  1802                           	psect	text21
  1803   001312                     __ptext21:
  1804                           	callstack 0
  1805   001312                     i2_INT1_ISR:
  1806                           	callstack 25
  1807   001312                     
  1808                           ;MCAL_Layer/Interrupt/mcal_external_interrupt.c: 142:     ((*((volatile INTCON3_t *)(0xF
      +                          F0))).INT1IF=0);
  1809   001312  90F0               	bcf	240,0,c	;volatile
  1810   001314  0012               	return		;funcret
  1811   001316                     __end_ofi2_INT1_ISR:
  1812                           	callstack 0
  1813                           
  1814 ;; *************** function _INT0_ISR *****************
  1815 ;; Defined at:
  1816 ;;		line 132 in file "MCAL_Layer/Interrupt/mcal_external_interrupt.c"
  1817 ;; Parameters:    Size  Location     Type
  1818 ;;		None
  1819 ;; Auto vars:     Size  Location     Type
  1820 ;;		None
  1821 ;; Return value:  Size  Location     Type
  1822 ;;                  1    wreg      void 
  1823 ;; Registers used:
  1824 ;;		None
  1825 ;; Tracked objects:
  1826 ;;		On entry : 0/0
  1827 ;;		On exit  : 0/0
  1828 ;;		Unchanged: 0/0
  1829 ;; Data sizes:     COMRAM   BANK0   BANK1   BANK2   BANK3   BANK4   BANK5   BANK6   BANK7   BANK8   BANK9  BANK10  BANK1
      +1  BANK12  BANK13  BANK14  BANK15
  1830 ;;      Params:         0       0       0       0       0       0       0       0       0       0       0       0       
      +0       0       0       0       0
  1831 ;;      Locals:         0       0       0       0       0       0       0       0       0       0       0       0       
      +0       0       0       0       0
  1832 ;;      Temps:          0       0       0       0       0       0       0       0       0       0       0       0       
      +0       0       0       0       0
  1833 ;;      Totals:         0       0       0       0       0       0       0       0       0       0       0       0       
      +0       0       0       0       0
  1834 ;;Total ram usage:        0 bytes
  1835 ;; Hardware stack levels used: 1
  1836 ;; This function calls:
  1837 ;;		Nothing
  1838 ;; This function is called by:
  1839 ;;		_InterruptManagerHigh
  1840 ;; This function uses a non-reentrant model
  1841 ;;
  1842                           
  1843                           	psect	text22
  1844   001316                     __ptext22:
  1845                           	callstack 0
  1846   001316                     _INT0_ISR:
  1847                           	callstack 25
  1848   001316                     
  1849                           ;MCAL_Layer/Interrupt/mcal_external_interrupt.c: 134:     ((*((volatile INTCON_t *)(0xFF
      +                          2))).INT0IF=0);
  1850   001316  92F2               	bcf	242,1,c	;volatile
  1851   001318  0012               	return		;funcret
  1852   00131A                     __end_of_INT0_ISR:
  1853                           	callstack 0
  1854                           
  1855                           	psect	rparam
  1856   000000                     
  1857                           	psect	temp
  1858   00005F                     btemp:
  1859                           	callstack 0
  1860   00005F                     	ds	1
  1861   000000                     int$flags	set	btemp
  1862   000000                     wtemp8	set	btemp+1
  1863   000000                     ttemp5	set	btemp+1
  1864   000000                     ttemp6	set	btemp+4
  1865   000000                     ttemp7	set	btemp+8
  1866                           
  1867                           	psect	config
  1868                           
  1869                           ; Padding undefined space
  1870   300000                     	org	3145728
  1871   300000  FF                 	db	255
  1872                           
  1873                           ;Config register CONFIG1H @ 0x300001
  1874                           ;	Oscillator Selection bits
  1875                           ;	OSC = HS, HS oscillator
  1876                           ;	Fail-Safe Clock Monitor Enable bit
  1877                           ;	FCMEN = OFF, Fail-Safe Clock Monitor disabled
  1878                           ;	Internal/External Oscillator Switchover bit
  1879                           ;	IESO = OFF, Oscillator Switchover mode disabled
  1880   300001                     	org	3145729
  1881   300001  02                 	db	2
  1882                           
  1883                           ;Config register CONFIG2L @ 0x300002
  1884                           ;	Power-up Timer Enable bit
  1885                           ;	PWRT = OFF, PWRT disabled
  1886                           ;	Brown-out Reset Enable bits
  1887                           ;	BOREN = OFF, Brown-out Reset disabled in hardware and software
  1888                           ;	Brown Out Reset Voltage bits
  1889                           ;	BORV = 1, 
  1890   300002                     	org	3145730
  1891   300002  09                 	db	9
  1892                           
  1893                           ;Config register CONFIG2H @ 0x300003
  1894                           ;	Watchdog Timer Enable bit
  1895                           ;	WDT = OFF, WDT disabled (control is placed on the SWDTEN bit)
  1896                           ;	Watchdog Timer Postscale Select bits
  1897                           ;	WDTPS = 32768, 1:32768
  1898   300003                     	org	3145731
  1899   300003  1E                 	db	30
  1900                           
  1901                           ; Padding undefined space
  1902   300004                     	org	3145732
  1903   300004  FF                 	db	255
  1904                           
  1905                           ;Config register CONFIG3H @ 0x300005
  1906                           ;	CCP2 MUX bit
  1907                           ;	CCP2MX = PORTC, CCP2 input/output is multiplexed with RC1
  1908                           ;	PORTB A/D Enable bit
  1909                           ;	PBADEN = OFF, PORTB<4:0> pins are configured as digital I/O on Reset
  1910                           ;	Low-Power Timer1 Oscillator Enable bit
  1911                           ;	LPT1OSC = OFF, Timer1 configured for higher power operation
  1912                           ;	MCLR Pin Enable bit
  1913                           ;	MCLRE = ON, MCLR pin enabled; RE3 input pin disabled
  1914   300005                     	org	3145733
  1915   300005  81                 	db	129
  1916                           
  1917                           ;Config register CONFIG4L @ 0x300006
  1918                           ;	Stack Full/Underflow Reset Enable bit
  1919                           ;	STVREN = ON, Stack full/underflow will cause Reset
  1920                           ;	Single-Supply ICSP Enable bit
  1921                           ;	LVP = OFF, Single-Supply ICSP disabled
  1922                           ;	Extended Instruction Set Enable bit
  1923                           ;	XINST = OFF, Instruction set extension and Indexed Addressing mode disabled (Legacy mo
      +                          de)
  1924                           ;	Background Debugger Enable bit
  1925                           ;	DEBUG = 0x1, unprogrammed default
  1926   300006                     	org	3145734
  1927   300006  81                 	db	129
  1928                           
  1929                           ; Padding undefined space
  1930   300007                     	org	3145735
  1931   300007  FF                 	db	255
  1932                           
  1933                           ;Config register CONFIG5L @ 0x300008
  1934                           ;	Code Protection bit
  1935                           ;	CP0 = OFF, Block 0 (000800-003FFFh) not code-protected
  1936                           ;	Code Protection bit
  1937                           ;	CP1 = OFF, Block 1 (004000-007FFFh) not code-protected
  1938                           ;	Code Protection bit
  1939                           ;	CP2 = OFF, Block 2 (008000-00BFFFh) not code-protected
  1940                           ;	Code Protection bit
  1941                           ;	CP3 = OFF, Block 3 (00C000-00FFFFh) not code-protected
  1942   300008                     	org	3145736
  1943   300008  0F                 	db	15
  1944                           
  1945                           ;Config register CONFIG5H @ 0x300009
  1946                           ;	Boot Block Code Protection bit
  1947                           ;	CPB = OFF, Boot block (000000-0007FFh) not code-protected
  1948                           ;	Data EEPROM Code Protection bit
  1949                           ;	CPD = OFF, Data EEPROM not code-protected
  1950   300009                     	org	3145737
  1951   300009  C0                 	db	192
  1952                           
  1953                           ;Config register CONFIG6L @ 0x30000A
  1954                           ;	Write Protection bit
  1955                           ;	WRT0 = OFF, Block 0 (000800-003FFFh) not write-protected
  1956                           ;	Write Protection bit
  1957                           ;	WRT1 = OFF, Block 1 (004000-007FFFh) not write-protected
  1958                           ;	Write Protection bit
  1959                           ;	WRT2 = OFF, Block 2 (008000-00BFFFh) not write-protected
  1960                           ;	Write Protection bit
  1961                           ;	WRT3 = OFF, Block 3 (00C000-00FFFFh) not write-protected
  1962   30000A                     	org	3145738
  1963   30000A  0F                 	db	15
  1964                           
  1965                           ;Config register CONFIG6H @ 0x30000B
  1966                           ;	Configuration Register Write Protection bit
  1967                           ;	WRTC = OFF, Configuration registers (300000-3000FFh) not write-protected
  1968                           ;	Boot Block Write Protection bit
  1969                           ;	WRTB = OFF, Boot Block (000000-0007FFh) not write-protected
  1970                           ;	Data EEPROM Write Protection bit
  1971                           ;	WRTD = OFF, Data EEPROM not write-protected
  1972   30000B                     	org	3145739
  1973   30000B  E0                 	db	224
  1974                           
  1975                           ;Config register CONFIG7L @ 0x30000C
  1976                           ;	Table Read Protection bit
  1977                           ;	EBTR0 = OFF, Block 0 (000800-003FFFh) not protected from table reads executed in other
      +                           blocks
  1978                           ;	Table Read Protection bit
  1979                           ;	EBTR1 = OFF, Block 1 (004000-007FFFh) not protected from table reads executed in other
      +                           blocks
  1980                           ;	Table Read Protection bit
  1981                           ;	EBTR2 = OFF, Block 2 (008000-00BFFFh) not protected from table reads executed in other
      +                           blocks
  1982                           ;	Table Read Protection bit
  1983                           ;	EBTR3 = OFF, Block 3 (00C000-00FFFFh) not protected from table reads executed in other
      +                           blocks
  1984   30000C                     	org	3145740
  1985   30000C  0F                 	db	15
  1986                           
  1987                           ;Config register CONFIG7H @ 0x30000D
  1988                           ;	Boot Block Table Read Protection bit
  1989                           ;	EBTRB = OFF, Boot Block (000000-0007FFh) not protected from table reads executed in ot
      +                          her blocks
  1990   30000D                     	org	3145741
  1991   30000D  40                 	db	64
  1992                           tosu	equ	0xFFF
  1993                           tosh	equ	0xFFE
  1994                           tosl	equ	0xFFD
  1995                           stkptr	equ	0xFFC
  1996                           pclatu	equ	0xFFB
  1997                           pclath	equ	0xFFA
  1998                           pcl	equ	0xFF9
  1999                           tblptru	equ	0xFF8
  2000                           tblptrh	equ	0xFF7
  2001                           tblptrl	equ	0xFF6
  2002                           tablat	equ	0xFF5
  2003                           prodh	equ	0xFF4
  2004                           prodl	equ	0xFF3
  2005                           indf0	equ	0xFEF
  2006                           postinc0	equ	0xFEE
  2007                           postdec0	equ	0xFED
  2008                           preinc0	equ	0xFEC
  2009                           plusw0	equ	0xFEB
  2010                           fsr0h	equ	0xFEA
  2011                           fsr0l	equ	0xFE9
  2012                           wreg	equ	0xFE8
  2013                           indf1	equ	0xFE7
  2014                           postinc1	equ	0xFE6
  2015                           postdec1	equ	0xFE5
  2016                           preinc1	equ	0xFE4
  2017                           plusw1	equ	0xFE3
  2018                           fsr1h	equ	0xFE2
  2019                           fsr1l	equ	0xFE1
  2020                           bsr	equ	0xFE0
  2021                           indf2	equ	0xFDF
  2022                           postinc2	equ	0xFDE
  2023                           postdec2	equ	0xFDD
  2024                           preinc2	equ	0xFDC
  2025                           plusw2	equ	0xFDB
  2026                           fsr2h	equ	0xFDA
  2027                           fsr2l	equ	0xFD9
  2028                           status	equ	0xFD8

Data Sizes:
    Strings     3
    Constant    16
    Data        58
    BSS         26
    Persistent  0
    Stack       0

Auto Spaces:
    Space          Size  Autos    Used
    COMRAM          126     10      94
    BANK0           128      0       0
    BANK1           256      0       0
    BANK2           256      0       0
    BANK3           256      0       0
    BANK4           256      0       0
    BANK5           256      0       0
    BANK6           256      0       0
    BANK7           256      0       0
    BANK8           256      0       0
    BANK9           256      0       0
    BANK10          256      0       0
    BANK11          256      0       0
    BANK12          256      0       0
    BANK13          256      0       0
    BANK14          256      0       0
    BANK15          128      0       0

Pointer List with Targets:

    vfprintf$2	PTR PTR void  size(2) Largest target is 2
		 -> sprintf@ap(COMRAM[2]), 

    vfprintf$1	PTR const unsigned char  size(2) Largest target is 3
		 -> STR_3(CODE[3]), STR_2(CODE[3]), STR_1(CODE[3]), 

    vfprintf$0	PTR struct _IO_FILE size(2) Largest target is 12
		 -> sprintf@f(COMRAM[12]), 

    S1808$source	PTR const unsigned char  size(2) Largest target is 0

    f...source	PTR const unsigned char  size(2) Largest target is 0

    S1808$buffer	PTR unsigned char  size(2) Largest target is 0

    f...buffer	PTR unsigned char  size(2) Largest target is 0

    EEPROM_READ_DATA_REG@DATA	PTR unsigned char  size(2) Largest target is 1
		 -> EEPROM_READ_VALUE(COMRAM[1]), 

    EEPROM_RESTORE_GLOBAL_INTERRUPT_STATUS@Global_Interrupt_Status	PTR unsigned char  size(2) Largest target is 1
		 -> Data_EEPROM_WriteByte@Global_Interrupt_Status(COMRAM[1]), 

    EEPROM_READ_GLOBAL_INTERRUPT_STATUS@Global_Interrupt_Status	PTR unsigned char  size(2) Largest target is 1
		 -> Data_EEPROM_WriteByte@Global_Interrupt_Status(COMRAM[1]), 

    Data_EEPROM_ReadByte@bData	PTR unsigned char  size(2) Largest target is 1
		 -> EEPROM_READ_VALUE(COMRAM[1]), 

    Interrupt_RBx_set_pin_init_value@int_obj.EXT_InterruptHandler	PTR FTN()void  size(2) Largest target is 0

    Interrupt_RBx_SetInterruptHandler@int_obj.EXT_InterruptHandler	PTR FTN()void  size(2) Largest target is 0

    Interrupt_RBx_Pin_Init@int_obj.EXT_InterruptHandler	PTR FTN()void  size(2) Largest target is 0

    Interrupt_RBx_Priority_Init@int_obj.EXT_InterruptHandler	PTR FTN()void  size(2) Largest target is 0

    S865$EXT_InterruptHandler	PTR FTN()void  size(2) Largest target is 0

    Interrupt_RBx_Enable@int_obj.EXT_InterruptHandler	PTR FTN()void  size(2) Largest target is 0

    Interrupt_INTx_SetInterruptHandler@int_obj.EXT_InterruptHandler	PTR FTN()void  size(2) Largest target is 0

    Interrupt_INTx_Clear_Flag@int_obj.EXT_InterruptHandler	PTR FTN()void  size(2) Largest target is 0

    Interrupt_INTx_Pin_Init@int_obj.EXT_InterruptHandler	PTR FTN()void  size(2) Largest target is 0

    Interrupt_INTx_Edge_Init@int_obj.EXT_InterruptHandler	PTR FTN()void  size(2) Largest target is 0

    Interrupt_INTx_Priority_Init@int_obj.EXT_InterruptHandler	PTR FTN()void  size(2) Largest target is 0

    Interrupt_INTx_Disable@int_obj.EXT_InterruptHandler	PTR FTN()void  size(2) Largest target is 0

    S823$EXT_InterruptHandler	PTR FTN()void  size(2) Largest target is 0

    Interrupt_INTx_Enable@int_obj.EXT_InterruptHandler	PTR FTN()void  size(2) Largest target is 0

    RB7_InterruptHandler	PTR FTN()void  size(2) Largest target is 1
		 -> NULL(), 

    RB6_InterruptHandler	PTR FTN()void  size(2) Largest target is 1
		 -> NULL(), 

    RB5_InterruptHandler	PTR FTN()void  size(2) Largest target is 1
		 -> NULL(), 

    RB4_InterruptHandler	PTR FTN()void  size(2) Largest target is 1
		 -> NULL(), 

    INT2_InterruptHandler	PTR FTN()void  size(2) Largest target is 1
		 -> NULL(), 

    INT1_InterruptHandler	PTR FTN()void  size(2) Largest target is 1
		 -> NULL(), 

    INT0_InterruptHandler	PTR FTN()void  size(2) Largest target is 1
		 -> NULL(), 

    port_registers	PTR volatile unsigned char [5] size(2) Largest target is 3967
		 -> RAM(DATA[3967]), 

    lat_registers	PTR volatile unsigned char [5] size(2) Largest target is 3967
		 -> RAM(DATA[3967]), 

    tris_registers	PTR volatile unsigned char [5] size(2) Largest target is 3967
		 -> RAM(DATA[3967]), 

    sp__memset	PTR void  size(2) Largest target is 0


Critical Paths under _main in COMRAM

    _main->_Data_EEPROM_WriteByte
    _Data_EEPROM_WriteByte->_EEPROM_RESTORE_GLOBAL_INTERRUPT_STATUS
    _Data_EEPROM_ReadByte->_EEPROM_READ_DATA_REG
    _Data_EEPROM_ReadByte->_EEPROM_UPDATE_ADDRESS_REG

Critical Paths under _InterruptManagerLow in COMRAM

    None.

Critical Paths under _InterruptManagerHigh in COMRAM

    None.

Critical Paths under _main in BANK0

    None.

Critical Paths under _InterruptManagerLow in BANK0

    None.

Critical Paths under _InterruptManagerHigh in BANK0

    None.

Critical Paths under _main in BANK1

    None.

Critical Paths under _InterruptManagerLow in BANK1

    None.

Critical Paths under _InterruptManagerHigh in BANK1

    None.

Critical Paths under _main in BANK2

    None.

Critical Paths under _InterruptManagerLow in BANK2

    None.

Critical Paths under _InterruptManagerHigh in BANK2

    None.

Critical Paths under _main in BANK3

    None.

Critical Paths under _InterruptManagerLow in BANK3

    None.

Critical Paths under _InterruptManagerHigh in BANK3

    None.

Critical Paths under _main in BANK4

    None.

Critical Paths under _InterruptManagerLow in BANK4

    None.

Critical Paths under _InterruptManagerHigh in BANK4

    None.

Critical Paths under _main in BANK5

    None.

Critical Paths under _InterruptManagerLow in BANK5

    None.

Critical Paths under _InterruptManagerHigh in BANK5

    None.

Critical Paths under _main in BANK6

    None.

Critical Paths under _InterruptManagerLow in BANK6

    None.

Critical Paths under _InterruptManagerHigh in BANK6

    None.

Critical Paths under _main in BANK7

    None.

Critical Paths under _InterruptManagerLow in BANK7

    None.

Critical Paths under _InterruptManagerHigh in BANK7

    None.

Critical Paths under _main in BANK8

    None.

Critical Paths under _InterruptManagerLow in BANK8

    None.

Critical Paths under _InterruptManagerHigh in BANK8

    None.

Critical Paths under _main in BANK9

    None.

Critical Paths under _InterruptManagerLow in BANK9

    None.

Critical Paths under _InterruptManagerHigh in BANK9

    None.

Critical Paths under _main in BANK10

    None.

Critical Paths under _InterruptManagerLow in BANK10

    None.

Critical Paths under _InterruptManagerHigh in BANK10

    None.

Critical Paths under _main in BANK11

    None.

Critical Paths under _InterruptManagerLow in BANK11

    None.

Critical Paths under _InterruptManagerHigh in BANK11

    None.

Critical Paths under _main in BANK12

    None.

Critical Paths under _InterruptManagerLow in BANK12

    None.

Critical Paths under _InterruptManagerHigh in BANK12

    None.

Critical Paths under _main in BANK13

    None.

Critical Paths under _InterruptManagerLow in BANK13

    None.

Critical Paths under _InterruptManagerHigh in BANK13

    None.

Critical Paths under _main in BANK14

    None.

Critical Paths under _InterruptManagerLow in BANK14

    None.

Critical Paths under _InterruptManagerHigh in BANK14

    None.

Critical Paths under _main in BANK15

    None.

Critical Paths under _InterruptManagerLow in BANK15

    None.

Critical Paths under _InterruptManagerHigh in BANK15

    None.

Call Graph Tables:

 ---------------------------------------------------------------------------------
 (Depth) Function   	        Calls       Base Space   Used Autos Params    Refs
 ---------------------------------------------------------------------------------
 (0) _main                                                 0     0      0    1178
               _Data_EEPROM_ReadByte
              _Data_EEPROM_WriteByte
 ---------------------------------------------------------------------------------
 (1) _Data_EEPROM_WriteByte                                5     2      3     658
                                              6 COMRAM     4     1      3
_EEPROM_READ_GLOBAL_INTERRUPT_STATUS
_EEPROM_RESTORE_GLOBAL_INTERRUPT_STA
          _EEPROM_UPDATE_ADDRESS_REG
             _EEPROM_UPDATE_DATA_REG
 ---------------------------------------------------------------------------------
 (2) _EEPROM_UPDATE_DATA_REG                               1     1      0      15
                                              3 COMRAM     1     1      0
 ---------------------------------------------------------------------------------
 (2) _EEPROM_RESTORE_GLOBAL_INTERRUPT_STATUS               3     1      2      98
                                              3 COMRAM     3     1      2
 ---------------------------------------------------------------------------------
 (2) _EEPROM_READ_GLOBAL_INTERRUPT_STATUS                  2     0      2      98
                                              3 COMRAM     2     0      2
 ---------------------------------------------------------------------------------
 (1) _Data_EEPROM_ReadByte                                 5     1      4     520
                                              5 COMRAM     4     0      4
               _EEPROM_READ_DATA_REG
          _EEPROM_UPDATE_ADDRESS_REG
 ---------------------------------------------------------------------------------
 (2) _EEPROM_UPDATE_ADDRESS_REG                            2     0      2     196
                                              3 COMRAM     2     0      2
 ---------------------------------------------------------------------------------
 (2) _EEPROM_READ_DATA_REG                                 2     0      2      98
                                              3 COMRAM     2     0      2
 ---------------------------------------------------------------------------------
 Estimated maximum stack depth 2
 ---------------------------------------------------------------------------------
 (Depth) Function   	        Calls       Base Space   Used Autos Params    Refs
 ---------------------------------------------------------------------------------
 (3) _InterruptManagerLow                                  3     3      0       0
                                              0 COMRAM     3     3      0
                           _INT1_ISR
                           _INT2_ISR
                            _RB4_ISR
                            _RB5_ISR
                            _RB6_ISR
                            _RB7_ISR
 ---------------------------------------------------------------------------------
 (4) _RB7_ISR                                              0     0      0       0
 ---------------------------------------------------------------------------------
 (4) _RB6_ISR                                              0     0      0       0
 ---------------------------------------------------------------------------------
 (4) _RB5_ISR                                              0     0      0       0
 ---------------------------------------------------------------------------------
 (4) _RB4_ISR                                              0     0      0       0
 ---------------------------------------------------------------------------------
 (4) _INT2_ISR                                             0     0      0       0
 ---------------------------------------------------------------------------------
 (4) _INT1_ISR                                             0     0      0       0
 ---------------------------------------------------------------------------------
 Estimated maximum stack depth 4
 ---------------------------------------------------------------------------------
 (Depth) Function   	        Calls       Base Space   Used Autos Params    Refs
 ---------------------------------------------------------------------------------
 (5) _InterruptManagerHigh                                 0     0      0       0
                           _INT0_ISR
                         i2_INT1_ISR
                         i2_INT2_ISR
                          i2_RB4_ISR
                          i2_RB5_ISR
                          i2_RB6_ISR
                          i2_RB7_ISR
 ---------------------------------------------------------------------------------
 (6) i2_RB7_ISR                                            0     0      0       0
 ---------------------------------------------------------------------------------
 (6) i2_RB6_ISR                                            0     0      0       0
 ---------------------------------------------------------------------------------
 (6) i2_RB5_ISR                                            0     0      0       0
 ---------------------------------------------------------------------------------
 (6) i2_RB4_ISR                                            0     0      0       0
 ---------------------------------------------------------------------------------
 (6) i2_INT2_ISR                                           0     0      0       0
 ---------------------------------------------------------------------------------
 (6) i2_INT1_ISR                                           0     0      0       0
 ---------------------------------------------------------------------------------
 (6) _INT0_ISR                                             0     0      0       0
 ---------------------------------------------------------------------------------
 Estimated maximum stack depth 6
 ---------------------------------------------------------------------------------

 Call Graph Graphs:

 _main (ROOT)
   _Data_EEPROM_ReadByte
     _EEPROM_READ_DATA_REG
     _EEPROM_UPDATE_ADDRESS_REG
   _Data_EEPROM_WriteByte
     _EEPROM_READ_GLOBAL_INTERRUPT_STATUS
     _EEPROM_RESTORE_GLOBAL_INTERRUPT_STATUS
     _EEPROM_UPDATE_ADDRESS_REG
     _EEPROM_UPDATE_DATA_REG

 _InterruptManagerLow (ROOT)
   _INT1_ISR
   _INT2_ISR
   _RB4_ISR
   _RB5_ISR
   _RB6_ISR
   _RB7_ISR

 _InterruptManagerHigh (ROOT)
   _INT0_ISR
   i2_INT1_ISR
   i2_INT2_ISR
   i2_RB4_ISR
   i2_RB5_ISR
   i2_RB6_ISR
   i2_RB7_ISR

 Address spaces:
Name               Size   Autos  Total    Cost      Usage
BIGRAM             F7F      0       0      38        0.0%
EEDATA             400      0       0       0        0.0%
BITBANK14          100      0       0      33        0.0%
BANK14             100      0       0      34        0.0%
BITBANK13          100      0       0      31        0.0%
BANK13             100      0       0      32        0.0%
BITBANK12          100      0       0      29        0.0%
BANK12             100      0       0      30        0.0%
BITBANK11          100      0       0      27        0.0%
BANK11             100      0       0      28        0.0%
BITBANK10          100      0       0      25        0.0%
BANK10             100      0       0      26        0.0%
BITBANK9           100      0       0      23        0.0%
BANK9              100      0       0      24        0.0%
BITBANK8           100      0       0      21        0.0%
BANK8              100      0       0      22        0.0%
BITBANK7           100      0       0      19        0.0%
BANK7              100      0       0      20        0.0%
BITBANK6           100      0       0      17        0.0%
BANK6              100      0       0      18        0.0%
BITBANK5           100      0       0      15        0.0%
BANK5              100      0       0      16        0.0%
BITBANK4           100      0       0      13        0.0%
BANK4              100      0       0      14        0.0%
BITBANK3           100      0       0      10        0.0%
BANK3              100      0       0      11        0.0%
BITBANK2           100      0       0       8        0.0%
BANK2              100      0       0       9        0.0%
BITBANK1           100      0       0       6        0.0%
BANK1              100      0       0       7        0.0%
BITBIGSFR           80      0       0      37        0.0%
BITBANK15           80      0       0      35        0.0%
BANK15              80      0       0      36        0.0%
BITBANK0            80      0       0       4        0.0%
BANK0               80      0       0       5        0.0%
BITCOMRAM           7E      0       0       0        0.0%
COMRAM              7E      A      5E       1       74.6%
BIGSFR               0      0       0     200        0.0%
BITSFR               0      0       0     200        0.0%
SFR                  0      0       0     200        0.0%
STACK                0      0       0       2        0.0%
NULL                 0      0       0       0        0.0%
ABS                  0      0      5E      12        0.0%
DATA                 0      0      5E       3        0.0%
CODE                 0      0       0       0        0.0%


Microchip Technology PIC18 Macro Assembler V2.41 build 20230208172133 
Symbol Table                                                                                   Sun Sep 24 18:05:19 2023

                                                           bsr 0FE0  
                                        ??_InterruptManagerLow 0055  
                                                          l802 1282  
                                                          l803 1282  
                                                          l821 119A  
                                                          l823 11A8  
                                                          l832 12DC  
                                                          l824 11B6  
                                                          l841 12C2  
                                                          l835 12E4  
                                                          l844 12D0  
                                                          l829 122A  
                                                          l838 12A6  
                                       ??_InterruptManagerHigh 0055  
                                          led_initialize@F3165 0053  
                                                          wreg 0FE8  
                                        relay_initialize@F3159 004F  
                                  ??_EEPROM_UPDATE_ADDRESS_REG 005A  
                                              __end_of_RB4_ISR 12F6  
                                              __end_of_RB5_ISR 12F2  
                                              __end_of_RB6_ISR 12EE  
                                              __end_of_RB7_ISR 12EA  
                                                         l3101 118E  
                                                         l3103 1190  
                                                         l3121 1214  
                                                         l3113 11F2  
                                                         l3105 1194  
                                                         l3123 1216  
                                                         l3115 11F2  
                                                         l3107 1198  
                                                         l3131 1262  
                                                         l3125 1218  
                                                         l3117 1204  
                                                         l3109 11AA  
                                                         l3127 121E  
                                                         l3119 1208  
                                                         l3081 12D8  
                                                         l3083 12A8  
                                                         l1707 12E0  
                                                         l3091 1176  
                                                         l3085 12C4  
                                                         l3077 128A  
                                                         l3093 1182  
                                                         l3079 12D2  
                                                         l3095 1188  
                                                         l3087 1166  
                                                         l3097 118A  
                                                         l3089 116A  
                                                         l3099 118C  
                                      ??_Data_EEPROM_WriteByte 005E  
                                                         STR_1 1011  
                                                         u1870 129A  
                                                         u1871 1294  
                                                         u1880 11A8  
                                                         u1881 11A4  
                                                         u1890 1204  
                                                         u1891 1200  
                                                         u1876 129C  
                                                         _lcd1 0031  
                                                         _led1 003A  
                                                         _led2 0039  
                                                         _led3 0038  
                                                         _led4 0037  
                                                         _main 1262  
                                                  ?i2_INT1_ISR 0055  
                                                  ?i2_INT2_ISR 0055  
                                                         fsr2h 0FDA  
                                                         indf2 0FDF  
                                                         fsr1l 0FE1  
                                                         fsr2l 0FD9  
                                                         btemp 005F  
                                                         start 0160  
                                         _RB7_InterruptHandler 003B  
                                                 ___param_bank 0000  
                                       _EEPROM_UPDATE_DATA_REG 12DE  
                                             __end_of_INT0_ISR 131A  
                                             __end_of_INT1_ISR 12FE  
                                             __end_of_INT2_ISR 12FA  
                                                        ?_main 0055  
                                                        i1l530 12F8  
                                                        i1l526 12FC  
                                                        i1l534 12F4  
                                                        i1l542 12EC  
                                                        i1l538 12F0  
                                                        i1l546 12E8  
                                                        i2l522 1318  
                                                        i2l530 1310  
                                                        i1l780 0066  
                                                        i2l526 1314  
                                                        i2l534 130C  
                                                        i2l542 1304  
                                                        i1l782 00A0  
                                                        i1l784 00DC  
                                                        i2l538 1308  
                                                        i2l546 1300  
                                                        i1l786 0118  
                                                        i1l778 0046  
                                                        i1l789 0150  
                                                        i2l761 1058  
                                                        i2l763 1078  
                                                        i2l772 1162  
                                                        i2l765 10B2  
                                                        i2l767 10EE  
                                                        i2l759 1038  
                                                        i2l769 112A  
                                          relay_turn_off@F3169 004D  
                                                        _lcd_2 001F  
               __end_of_EEPROM_RESTORE_GLOBAL_INTERRUPT_STATUS 12C4  
                     ??_EEPROM_RESTORE_GLOBAL_INTERRUPT_STATUS 005A  
                      ?_EEPROM_RESTORE_GLOBAL_INTERRUPT_STATUS 0058  
                       _EEPROM_RESTORE_GLOBAL_INTERRUPT_STATUS 12A8  
                                                        tablat 0FF5  
                                                        ttemp5 0060  
                                                        ttemp6 0063  
                                                        ttemp7 0067  
                                                        status 0FD8  
                                                        wtemp8 0060  
                                 __end_of_Data_EEPROM_ReadByte 122C  
                                    _EEPROM_UPDATE_ADDRESS_REG 12D2  
                                              __initialization 122C  
                                                 __end_of_main 128A  
                                   EEPROM_UPDATE_DATA_REG@DATA 0058  
                                                _lat_registers 000B  
                                                       ??_main 005F  
                                                __activetblptr 0003  
                                             led_turn_on@F3170 0052  
                                                    ??_RB4_ISR 0055  
                                                    ??_RB5_ISR 0055  
                                                    ??_RB6_ISR 0055  
                                                    ??_RB7_ISR 0055  
                                           _RB4_pin_init_value 004C  
                                                       i1l3031 0034  
                                                       i1l3041 0082  
                                                       i1l3033 0042  
                                                       i1l3051 00D4  
                                                       i1l3043 0098  
                                                       i1l3035 0054  
                                                       i1l3061 0114  
                                                       i1l3053 00D8  
                                                       i1l3045 009C  
                                                       i1l3037 0062  
                                                       i1l3029 0026  
                                                       i1l3063 0126  
                                                       i1l3055 00EA  
                                                       i1l3047 00AE  
                                                       i1l3039 0074  
                                                       i1l1801 12F2  
                                                       i1l3065 0134  
                                                       i1l3057 00F8  
                                                       i1l3049 00BC  
                                                       i1l3067 0148  
                                                       i1l3059 0110  
                                                       i1l1805 12EE  
                                                       i1l1813 12E6  
                                                       i1l3069 014C  
                                                       i1l1809 12EA  
                                                       i2l3001 10AA  
                                                       i1l1793 12FA  
                                                       i2l3011 10EA  
                                                       i2l3003 10AE  
                                                       i2l3021 1138  
                                                       i2l3013 10FC  
                                                       i2l3005 10C0  
                                                       i1l1797 12F6  
                                                       i2l3023 1146  
                                                       i2l3015 110A  
                                                       i2l3007 10CE  
                                                       i2l3025 115A  
                                                       i2l3017 1122  
                                                       i2l3009 10E6  
                                                       i2l3027 115E  
                                                       i2l3019 1126  
                                                       i2l1901 130E  
                                            __end_ofi2_RB4_ISR 130E  
                                                       i2l1905 130A  
                                                       i2l1913 1302  
                                                       i2l1909 1306  
                                                       i2l1917 12FE  
                                                       i2l1789 1316  
                                            __end_ofi2_RB5_ISR 130A  
                                                       i2l1897 1312  
                                                       i2l2991 1054  
                                                       i2l2983 1018  
                                                       i2l2993 1066  
                                                       i2l2985 1026  
                                                       i2l2995 1074  
                                                       i2l2987 1034  
                                                       i2l2997 1086  
                                                       i2l2989 1046  
                                                       i2l2999 1094  
                                            __end_ofi2_RB6_ISR 1306  
                                            __end_ofi2_RB7_ISR 1302  
                                                       clear_0 1252  
                                                       isa$std 0001  
                                                 __pdataCOMRAM 0001  
                                                 __mediumconst 0000  
                                                       tblptrh 0FF7  
                                                       tblptrl 0FF6  
                                                       tblptru 0FF8  
                                     EEPROM_READ_DATA_REG@DATA 0058  
                                           _RB6_pin_init_value 004A  
                                                   __accesstop 0080  
                                      __end_of__initialization 1258  
                                                    ?_INT0_ISR 0055  
                                                    ?_INT1_ISR 0055  
                                                    ?_INT2_ISR 0055  
                                                ___rparam_used 0001  
                                               __pcstackCOMRAM 0055  
                                         _Data_EEPROM_ReadByte 11F2  
                                __end_of_Data_EEPROM_WriteByte 11B8  
                                                 ??i2_INT1_ISR 0055  
                                        _INT0_InterruptHandler 0047  
                                                   ??_INT0_ISR 0055  
                                                 ??i2_INT2_ISR 0055  
                                                   ??_INT1_ISR 0055  
                                                   ??_INT2_ISR 0055  
                  __end_of_EEPROM_READ_GLOBAL_INTERRUPT_STATUS 12A8  
                        ??_EEPROM_READ_GLOBAL_INTERRUPT_STATUS 005A  
                         ?_EEPROM_READ_GLOBAL_INTERRUPT_STATUS 0058  
                          _EEPROM_READ_GLOBAL_INTERRUPT_STATUS 128A  
                                  __end_of_InterruptManagerLow 0160  
                                      ?_EEPROM_UPDATE_DATA_REG 0055  
                                            led_turn_off@F3175 0051  
                                              led_toggle@F3180 0050  
                                                      _RB4_ISR 12F2  
                                                      _RB5_ISR 12EE  
                                        ?_Data_EEPROM_ReadByte 005A  
                                                      _RB6_ISR 12EA  
                                                      _RB7_ISR 12E6  
                                           __end_ofi2_INT1_ISR 1316  
                                           __end_ofi2_INT2_ISR 1312  
                                 EEPROM_UPDATE_ADDRESS_REG@ADD 0058  
                                                   _btn_values 1001  
                                               _tris_registers 0015  
                               __end_of_EEPROM_UPDATE_DATA_REG 12E6  
                                                      __Hparam 0000  
                                                      __Lparam 0000  
                                                 __psmallconst 1000  
                                                      __pcinit 122C  
                                                      __ramtop 1000  
                                                      __ptext0 1262  
                                                      __ptext1 1166  
                                                      __ptext2 12DE  
                                                      __ptext3 12A8  
                                                      __ptext4 128A  
                                                      __ptext5 11F2  
                                                      __ptext6 12D2  
                                                      __ptext7 12C4  
                                                      __ptext9 12E6  
                                                      _keypad1 0029  
                                               __pintcode_body 1016  
                                         end_of_initialization 1258  
                                                      int_func 1016  
                                                    i2_RB4_ISR 130A  
                                                    i2_RB5_ISR 1306  
                                                    i2_RB6_ISR 1302  
                                                    i2_RB7_ISR 12FE  
                                                      postdec1 0FE5  
                                                      postinc0 0FEE  
                                        _INT1_InterruptHandler 0045  
                                       ??_Data_EEPROM_ReadByte 005E  
EEPROM_RESTORE_GLOBAL_INTERRUPT_STATUS@Global_Interrupt_Status 0058  
   EEPROM_READ_GLOBAL_INTERRUPT_STATUS@Global_Interrupt_Status 0058  
                                 __end_of_EEPROM_READ_DATA_REG 12D2  
                                                   ?i2_RB4_ISR 0055  
                                                   ?i2_RB5_ISR 0055  
                                                   ?i2_RB6_ISR 0055  
                                                   ?i2_RB7_ISR 0055  
                                           relay_turn_on@F3164 004E  
                                                __pidataCOMRAM 11B8  
                                          start_initialization 122C  
                                         _RB4_InterruptHandler 0041  
                                     Data_EEPROM_ReadByte@bAdd 005A  
                                            _EEPROM_READ_VALUE 0054  
                                                     ?_RB4_ISR 0055  
                                                     ?_RB5_ISR 0055  
                                                     ?_RB6_ISR 0055  
                                                     ?_RB7_ISR 0055  
                                                  __pbssCOMRAM 003B  
                                        _INT2_InterruptHandler 0043  
                                                  ??i2_RB4_ISR 0055  
                                                  ??i2_RB5_ISR 0055  
                                                  ??i2_RB6_ISR 0055  
                                                  ??i2_RB7_ISR 0055  
                                        _Data_EEPROM_WriteByte 1166  
                                 __end_of_InterruptManagerHigh 1166  
                                                    __pintcode 0008  
                                                  __pintcodelo 0018  
                                                  __smallconst 1000  
                                         _EEPROM_READ_DATA_REG 12C4  
                                           _RB5_pin_init_value 004B  
                                                     _INT0_ISR 1316  
                                                     _INT1_ISR 12FA  
                                                     _INT2_ISR 12F6  
                                                     i1u171_20 0034  
                                                     i1u171_21 0030  
                                                     i1u180_20 00D4  
                                                     i1u172_20 0042  
                                                     i1u180_21 00D0  
                                                     i1u172_21 003E  
                                                     i1u181_20 00EA  
                                                     i1u173_20 0054  
                                                     i1u181_21 00E6  
                                                     i1u173_21 0050  
                                                     i1u182_20 00F8  
                                                     i1u174_20 0062  
                                                     i1u182_21 00F4  
                                                     i1u174_21 005E  
                                                     i1u183_20 0110  
                                                     i1u175_20 0074  
                                                     i1u183_21 010C  
                                                     i1u175_21 0070  
                                                     i1u184_20 0126  
                                                     i1u176_20 0082  
                                                     i1u184_21 0122  
                                                     i1u176_21 007E  
                                                     i1u185_20 0134  
                                                     i1u177_20 0098  
                                                     i1u185_21 0130  
                                                     i1u177_21 0094  
                                                     i1u186_20 0148  
                                                     i1u178_20 00AE  
                                                     i1u186_21 0144  
                                                     i1u178_21 00AA  
                                                     i1u179_20 00BC  
                                                     i1u179_21 00B8  
                                                     i2u160_40 1094  
                                                     i2u160_41 1090  
                                                     i2u161_40 10AA  
                                                     i2u153_40 1026  
                                                     i2u161_41 10A6  
                                                     i2u153_41 1022  
                                                     i2u170_40 115A  
                                                     i2u162_40 10C0  
                                                     i2u154_40 1034  
                                                     i2u170_41 1156  
                                                     i2u162_41 10BC  
                                                     i2u154_41 1030  
                                                     i2u163_40 10CE  
                                                     i2u155_40 1046  
                                                     i2u163_41 10CA  
                                                     i2u155_41 1042  
                                                     i2u164_40 10E6  
                                                     i2u156_40 1054  
                                                     i2u164_41 10E2  
                                                     i2u156_41 1050  
                                                     i2u165_40 10FC  
                                                     i2u157_40 1066  
                                                     i2u165_41 10F8  
                                                     i2u157_41 1062  
                                                     i2u166_40 110A  
                                                     i2u158_40 1074  
                                                     i2u166_41 1106  
                                                     i2u158_41 1070  
                                                     i2u167_40 1122  
                                                     i2u159_40 1086  
                                                     i2u167_41 111E  
                                                     i2u159_41 1082  
                                                     i2u168_40 1138  
                                                     i2u168_41 1134  
                                                     i2u169_40 1146  
                                                     i2u169_41 1142  
                                         _RB5_InterruptHandler 003F  
                                        ?_EEPROM_READ_DATA_REG 0058  
                                    Data_EEPROM_ReadByte@bData 005C  
                                   ?_EEPROM_UPDATE_ADDRESS_REG 0058  
                 Data_EEPROM_WriteByte@Global_Interrupt_Status 005E  
                                                    copy_data0 1240  
                                       ?_Data_EEPROM_WriteByte 005B  
                                           _RB7_pin_init_value 0049  
                                                     __Hrparam 0000  
                                                     __Lrparam 0000  
                                           __end_of_btn_values 1011  
                                         _InterruptManagerHigh 0008  
                            __end_of_EEPROM_UPDATE_ADDRESS_REG 12DE  
                                                     __ptext10 12EA  
                                                     __ptext11 12EE  
                                                     __ptext20 130E  
                                                     __ptext12 12F2  
                                                     __ptext21 1312  
                                                     __ptext13 12F6  
                                                     __ptext22 1316  
                                                     __ptext14 12FA  
                                                     __ptext16 12FE  
                                                     __ptext17 1302  
                                                     __ptext18 1306  
                                                     __ptext19 130A  
                                     ??_EEPROM_UPDATE_DATA_REG 0058  
                                                     isa$xinst 0000  
                                                     int$flags 005F  
                                       ??_EEPROM_READ_DATA_REG 005A  
                                        ?_InterruptManagerHigh 0055  
                                         _RB6_InterruptHandler 003D  
                                                     intlevel1 0000  
                                                     intlevel2 0000  
                                          _InterruptManagerLow 0018  
                                                   i2_INT1_ISR 1312  
                                                   i2_INT2_ISR 130E  
                                   Data_EEPROM_WriteByte@bData 005D  
                                         ?_InterruptManagerLow 0055  
                                               _port_registers 0001  
                                    Data_EEPROM_WriteByte@bAdd 005B  
